
TsunamiCS1Master.elf:     file format elf32-avr

Sections:
Idx Name          Size      VMA       LMA       File off  Algn
  0 .data         000001e8  00800200  00004030  000040c4  2**0
                  CONTENTS, ALLOC, LOAD, DATA
  1 .text         00004030  00000000  00000000  00000094  2**1
                  CONTENTS, ALLOC, LOAD, READONLY, CODE
  2 .bss          0000041f  008003e8  008003e8  000042ac  2**0
                  ALLOC
  3 .comment      00000030  00000000  00000000  000042ac  2**0
                  CONTENTS, READONLY
  4 .note.gnu.avr.deviceinfo 00000040  00000000  00000000  000042dc  2**2
                  CONTENTS, READONLY
  5 .debug_aranges 00000458  00000000  00000000  00004320  2**3
                  CONTENTS, READONLY, DEBUGGING
  6 .debug_info   00007e3d  00000000  00000000  00004778  2**0
                  CONTENTS, READONLY, DEBUGGING
  7 .debug_abbrev 00002191  00000000  00000000  0000c5b5  2**0
                  CONTENTS, READONLY, DEBUGGING
  8 .debug_line   000037dd  00000000  00000000  0000e746  2**0
                  CONTENTS, READONLY, DEBUGGING
  9 .debug_frame  00000c4c  00000000  00000000  00011f24  2**2
                  CONTENTS, READONLY, DEBUGGING
 10 .debug_str    00001595  00000000  00000000  00012b70  2**0
                  CONTENTS, READONLY, DEBUGGING
 11 .debug_loc    000053de  00000000  00000000  00014105  2**0
                  CONTENTS, READONLY, DEBUGGING
 12 .debug_ranges 000002f8  00000000  00000000  000194e3  2**0
                  CONTENTS, READONLY, DEBUGGING

Disassembly of section .text:

00000000 <__vectors>:
       0:	f3 c0       	rjmp	.+486    	; 0x1e8 <__ctors_end>
       2:	00 00       	nop
       4:	12 c1       	rjmp	.+548    	; 0x22a <__bad_interrupt>
       6:	00 00       	nop
       8:	10 c1       	rjmp	.+544    	; 0x22a <__bad_interrupt>
       a:	00 00       	nop
       c:	50 c2       	rjmp	.+1184   	; 0x4ae <__vector_3>
       e:	00 00       	nop
      10:	6e c2       	rjmp	.+1244   	; 0x4ee <__vector_4>
      12:	00 00       	nop
      14:	8c c2       	rjmp	.+1304   	; 0x52e <__vector_5>
      16:	00 00       	nop
      18:	aa c2       	rjmp	.+1364   	; 0x56e <__vector_6>
      1a:	00 00       	nop
      1c:	06 c1       	rjmp	.+524    	; 0x22a <__bad_interrupt>
      1e:	00 00       	nop
      20:	04 c1       	rjmp	.+520    	; 0x22a <__bad_interrupt>
      22:	00 00       	nop
      24:	02 c1       	rjmp	.+516    	; 0x22a <__bad_interrupt>
      26:	00 00       	nop
      28:	00 c1       	rjmp	.+512    	; 0x22a <__bad_interrupt>
      2a:	00 00       	nop
      2c:	fe c0       	rjmp	.+508    	; 0x22a <__bad_interrupt>
      2e:	00 00       	nop
      30:	fc c0       	rjmp	.+504    	; 0x22a <__bad_interrupt>
      32:	00 00       	nop
      34:	0c 94 f3 0a 	jmp	0x15e6	; 0x15e6 <__vector_13>
      38:	f8 c0       	rjmp	.+496    	; 0x22a <__bad_interrupt>
      3a:	00 00       	nop
      3c:	f7 c0       	rjmp	.+494    	; 0x22c <__vector_15>
      3e:	00 00       	nop
      40:	f4 c0       	rjmp	.+488    	; 0x22a <__bad_interrupt>
      42:	00 00       	nop
      44:	f2 c0       	rjmp	.+484    	; 0x22a <__bad_interrupt>
      46:	00 00       	nop
      48:	f0 c0       	rjmp	.+480    	; 0x22a <__bad_interrupt>
      4a:	00 00       	nop
      4c:	ee c0       	rjmp	.+476    	; 0x22a <__bad_interrupt>
      4e:	00 00       	nop
      50:	ec c0       	rjmp	.+472    	; 0x22a <__bad_interrupt>
      52:	00 00       	nop
      54:	ea c0       	rjmp	.+468    	; 0x22a <__bad_interrupt>
      56:	00 00       	nop
      58:	e8 c0       	rjmp	.+464    	; 0x22a <__bad_interrupt>
      5a:	00 00       	nop
      5c:	e6 c0       	rjmp	.+460    	; 0x22a <__bad_interrupt>
      5e:	00 00       	nop
      60:	e4 c0       	rjmp	.+456    	; 0x22a <__bad_interrupt>
      62:	00 00       	nop
      64:	e2 c0       	rjmp	.+452    	; 0x22a <__bad_interrupt>
      66:	00 00       	nop
      68:	e0 c0       	rjmp	.+448    	; 0x22a <__bad_interrupt>
      6a:	00 00       	nop
      6c:	0c 94 46 16 	jmp	0x2c8c	; 0x2c8c <__vector_27>
      70:	dc c0       	rjmp	.+440    	; 0x22a <__bad_interrupt>
      72:	00 00       	nop
      74:	da c0       	rjmp	.+436    	; 0x22a <__bad_interrupt>
      76:	00 00       	nop
      78:	d8 c0       	rjmp	.+432    	; 0x22a <__bad_interrupt>
      7a:	00 00       	nop
      7c:	d6 c0       	rjmp	.+428    	; 0x22a <__bad_interrupt>
      7e:	00 00       	nop
      80:	d4 c0       	rjmp	.+424    	; 0x22a <__bad_interrupt>
      82:	00 00       	nop
      84:	d2 c0       	rjmp	.+420    	; 0x22a <__bad_interrupt>
      86:	00 00       	nop
      88:	d0 c0       	rjmp	.+416    	; 0x22a <__bad_interrupt>
      8a:	00 00       	nop
      8c:	ce c0       	rjmp	.+412    	; 0x22a <__bad_interrupt>
      8e:	00 00       	nop
      90:	cc c0       	rjmp	.+408    	; 0x22a <__bad_interrupt>
      92:	00 00       	nop
      94:	ca c0       	rjmp	.+404    	; 0x22a <__bad_interrupt>
      96:	00 00       	nop
      98:	c8 c0       	rjmp	.+400    	; 0x22a <__bad_interrupt>
      9a:	00 00       	nop
      9c:	c6 c0       	rjmp	.+396    	; 0x22a <__bad_interrupt>
      9e:	00 00       	nop
      a0:	c4 c0       	rjmp	.+392    	; 0x22a <__bad_interrupt>
      a2:	00 00       	nop
      a4:	c2 c0       	rjmp	.+388    	; 0x22a <__bad_interrupt>
      a6:	00 00       	nop
      a8:	c0 c0       	rjmp	.+384    	; 0x22a <__bad_interrupt>
      aa:	00 00       	nop
      ac:	be c0       	rjmp	.+380    	; 0x22a <__bad_interrupt>
      ae:	00 00       	nop
      b0:	bc c0       	rjmp	.+376    	; 0x22a <__bad_interrupt>
      b2:	00 00       	nop
      b4:	ba c0       	rjmp	.+372    	; 0x22a <__bad_interrupt>
      b6:	00 00       	nop
      b8:	b8 c0       	rjmp	.+368    	; 0x22a <__bad_interrupt>
      ba:	00 00       	nop
      bc:	b6 c0       	rjmp	.+364    	; 0x22a <__bad_interrupt>
      be:	00 00       	nop
      c0:	b4 c0       	rjmp	.+360    	; 0x22a <__bad_interrupt>
      c2:	00 00       	nop
      c4:	b2 c0       	rjmp	.+356    	; 0x22a <__bad_interrupt>
      c6:	00 00       	nop
      c8:	b0 c0       	rjmp	.+352    	; 0x22a <__bad_interrupt>
      ca:	00 00       	nop
      cc:	ae c0       	rjmp	.+348    	; 0x22a <__bad_interrupt>
      ce:	00 00       	nop
      d0:	ac c0       	rjmp	.+344    	; 0x22a <__bad_interrupt>
      d2:	00 00       	nop
      d4:	aa c0       	rjmp	.+340    	; 0x22a <__bad_interrupt>
      d6:	00 00       	nop
      d8:	0c 94 25 12 	jmp	0x244a	; 0x244a <__vector_54>
      dc:	a6 c0       	rjmp	.+332    	; 0x22a <__bad_interrupt>
      de:	00 00       	nop
      e0:	a4 c0       	rjmp	.+328    	; 0x22a <__bad_interrupt>
      e2:	00 00       	nop
      e4:	0e 03       	fmul	r16, r22
      e6:	f8 04       	cpc	r15, r8
      e8:	f8 04       	cpc	r15, r8
      ea:	f8 04       	cpc	r15, r8
      ec:	f8 04       	cpc	r15, r8
      ee:	f8 04       	cpc	r15, r8
      f0:	f8 04       	cpc	r15, r8
      f2:	f8 04       	cpc	r15, r8
      f4:	f8 04       	cpc	r15, r8
      f6:	f8 04       	cpc	r15, r8
      f8:	f8 04       	cpc	r15, r8
      fa:	f8 04       	cpc	r15, r8
      fc:	f8 04       	cpc	r15, r8
      fe:	f8 04       	cpc	r15, r8
     100:	f8 04       	cpc	r15, r8
     102:	f8 04       	cpc	r15, r8
     104:	f8 04       	cpc	r15, r8
     106:	25 03       	mulsu	r18, r21
     108:	42 03       	mulsu	r20, r18
     10a:	69 03       	fmul	r22, r17
     10c:	f8 04       	cpc	r15, r8
     10e:	f8 04       	cpc	r15, r8
     110:	f8 04       	cpc	r15, r8
     112:	f8 04       	cpc	r15, r8
     114:	f8 04       	cpc	r15, r8
     116:	2d 03       	fmul	r18, r21
     118:	4a 03       	fmul	r20, r18
     11a:	71 03       	mulsu	r23, r17
     11c:	f8 04       	cpc	r15, r8
     11e:	f8 04       	cpc	r15, r8
     120:	f8 04       	cpc	r15, r8
     122:	f8 04       	cpc	r15, r8
     124:	f8 04       	cpc	r15, r8
     126:	8c 03       	fmulsu	r16, r20
     128:	c1 03       	fmuls	r20, r17
     12a:	d5 03       	fmuls	r21, r21
     12c:	0a 04       	cpc	r0, r10
     12e:	76 04       	cpc	r7, r6
     130:	f8 04       	cpc	r15, r8
     132:	f8 04       	cpc	r15, r8
     134:	f8 04       	cpc	r15, r8
     136:	94 03       	fmuls	r17, r20
     138:	c9 03       	fmulsu	r20, r17
     13a:	dd 03       	fmulsu	r21, r21
     13c:	12 04       	cpc	r1, r2
     13e:	7e 04       	cpc	r7, r14
     140:	f8 04       	cpc	r15, r8
     142:	f8 04       	cpc	r15, r8
     144:	f8 04       	cpc	r15, r8
     146:	b8 04       	cpc	r11, r8
     148:	d2 04       	cpc	r13, r2
     14a:	f1 04       	cpc	r15, r1
     14c:	f8 04       	cpc	r15, r8
     14e:	f8 04       	cpc	r15, r8
     150:	f8 04       	cpc	r15, r8
     152:	f8 04       	cpc	r15, r8
     154:	f8 04       	cpc	r15, r8
     156:	c0 04       	cpc	r12, r0
     158:	da 04       	cpc	r13, r10
     15a:	bd 0c       	add	r11, r13
     15c:	86 0f       	add	r24, r22
     15e:	86 0f       	add	r24, r22
     160:	86 0f       	add	r24, r22
     162:	86 0f       	add	r24, r22
     164:	86 0f       	add	r24, r22
     166:	86 0f       	add	r24, r22
     168:	86 0f       	add	r24, r22
     16a:	86 0f       	add	r24, r22
     16c:	86 0f       	add	r24, r22
     16e:	86 0f       	add	r24, r22
     170:	86 0f       	add	r24, r22
     172:	86 0f       	add	r24, r22
     174:	86 0f       	add	r24, r22
     176:	86 0f       	add	r24, r22
     178:	86 0f       	add	r24, r22
     17a:	d3 0c       	add	r13, r3
     17c:	ed 0c       	add	r14, r13
     17e:	13 0d       	add	r17, r3
     180:	42 0d       	add	r20, r2
     182:	86 0f       	add	r24, r22
     184:	86 0f       	add	r24, r22
     186:	86 0f       	add	r24, r22
     188:	86 0f       	add	r24, r22
     18a:	86 0f       	add	r24, r22
     18c:	0a 0d       	add	r16, r10
     18e:	30 0d       	add	r19, r0
     190:	5f 0d       	add	r21, r15
     192:	86 0f       	add	r24, r22
     194:	86 0f       	add	r24, r22
     196:	86 0f       	add	r24, r22
     198:	86 0f       	add	r24, r22
     19a:	70 0d       	add	r23, r0
     19c:	8a 0d       	add	r24, r10
     19e:	c3 0d       	add	r28, r3
     1a0:	0f 0e       	add	r0, r31
     1a2:	42 0e       	add	r4, r18
     1a4:	ac 0e       	add	r10, r28
     1a6:	86 0f       	add	r24, r22
     1a8:	86 0f       	add	r24, r22
     1aa:	86 0f       	add	r24, r22
     1ac:	a7 0d       	add	r26, r7
     1ae:	e0 0d       	add	r30, r0
     1b0:	2c 0e       	add	r2, r28
     1b2:	5f 0e       	add	r5, r31
     1b4:	c9 0e       	add	r12, r25
     1b6:	86 0f       	add	r24, r22
     1b8:	86 0f       	add	r24, r22
     1ba:	f2 0e       	add	r15, r18
     1bc:	0c 0f       	add	r16, r28
     1be:	3b 0f       	add	r19, r27
     1c0:	6a 0f       	add	r22, r26
     1c2:	86 0f       	add	r24, r22
     1c4:	86 0f       	add	r24, r22
     1c6:	86 0f       	add	r24, r22
     1c8:	86 0f       	add	r24, r22
     1ca:	86 0f       	add	r24, r22
     1cc:	29 0f       	add	r18, r25
     1ce:	58 0f       	add	r21, r24
     1d0:	ae 15       	cp	r26, r14
     1d2:	b1 15       	cp	r27, r1
     1d4:	b4 15       	cp	r27, r4
     1d6:	b7 15       	cp	r27, r7
     1d8:	ba 15       	cp	r27, r10
     1da:	bd 15       	cp	r27, r13
     1dc:	c0 15       	cp	r28, r0
     1de:	c3 15       	cp	r28, r3
     1e0:	c6 15       	cp	r28, r6
     1e2:	c9 15       	cp	r28, r9
     1e4:	cc 15       	cp	r28, r12
     1e6:	cf 15       	cp	r28, r15

000001e8 <__ctors_end>:
     1e8:	11 24       	eor	r1, r1
     1ea:	1f be       	out	0x3f, r1	; 63
     1ec:	cf ef       	ldi	r28, 0xFF	; 255
     1ee:	d1 e2       	ldi	r29, 0x21	; 33
     1f0:	de bf       	out	0x3e, r29	; 62
     1f2:	cd bf       	out	0x3d, r28	; 61
     1f4:	00 e0       	ldi	r16, 0x00	; 0
     1f6:	0c bf       	out	0x3c, r16	; 60

000001f8 <__do_copy_data>:
     1f8:	13 e0       	ldi	r17, 0x03	; 3
     1fa:	a0 e0       	ldi	r26, 0x00	; 0
     1fc:	b2 e0       	ldi	r27, 0x02	; 2
     1fe:	e0 e3       	ldi	r30, 0x30	; 48
     200:	f0 e4       	ldi	r31, 0x40	; 64
     202:	00 e0       	ldi	r16, 0x00	; 0
     204:	0b bf       	out	0x3b, r16	; 59
     206:	02 c0       	rjmp	.+4      	; 0x20c <__do_copy_data+0x14>
     208:	07 90       	elpm	r0, Z+
     20a:	0d 92       	st	X+, r0
     20c:	a8 3e       	cpi	r26, 0xE8	; 232
     20e:	b1 07       	cpc	r27, r17
     210:	d9 f7       	brne	.-10     	; 0x208 <__do_copy_data+0x10>

00000212 <__do_clear_bss>:
     212:	28 e0       	ldi	r18, 0x08	; 8
     214:	a8 ee       	ldi	r26, 0xE8	; 232
     216:	b3 e0       	ldi	r27, 0x03	; 3
     218:	01 c0       	rjmp	.+2      	; 0x21c <.do_clear_bss_start>

0000021a <.do_clear_bss_loop>:
     21a:	1d 92       	st	X+, r1

0000021c <.do_clear_bss_start>:
     21c:	a7 30       	cpi	r26, 0x07	; 7
     21e:	b2 07       	cpc	r27, r18
     220:	e1 f7       	brne	.-8      	; 0x21a <.do_clear_bss_loop>
     222:	0e 94 a9 09 	call	0x1352	; 0x1352 <main>
     226:	0c 94 16 20 	jmp	0x402c	; 0x402c <_exit>

0000022a <__bad_interrupt>:
     22a:	ea ce       	rjmp	.-556    	; 0x0 <__vectors>

0000022c <__vector_15>:
uint8_t buttonsCurrentCycle;
uint16_t lastFullBits = 0;
uint8_t currentTrig;

ISR(TIMER2_OVF_vect)
{
     22c:	1f 92       	push	r1
     22e:	0f 92       	push	r0
     230:	0f b6       	in	r0, 0x3f	; 63
     232:	0f 92       	push	r0
     234:	11 24       	eor	r1, r1
     236:	2f 93       	push	r18
     238:	3f 93       	push	r19
     23a:	8f 93       	push	r24
     23c:	9f 93       	push	r25

static inline void debounce() //is this Timer interrupt too long?
{
	static uint8_t vcount_low = 0xFF, vcount_high = 0xFF;
	static uint8_t button_state = 0;
	uint8_t state_changed = ~BUTTON_PIN ^ button_state;
     23e:	83 b1       	in	r24, 0x03	; 3
     240:	20 91 e8 03 	lds	r18, 0x03E8	; 0x8003e8 <__data_end>
     244:	80 95       	com	r24
     246:	38 2f       	mov	r19, r24
     248:	32 27       	eor	r19, r18
	VC_DEC_OR_SET(vcount_high, vcount_low, state_changed);
     24a:	90 91 01 02 	lds	r25, 0x0201	; 0x800201 <vcount_low.1753>
     24e:	93 23       	and	r25, r19
     250:	89 2f       	mov	r24, r25
     252:	80 95       	com	r24
     254:	80 93 01 02 	sts	0x0201, r24	; 0x800201 <vcount_low.1753>
     258:	90 91 00 02 	lds	r25, 0x0200	; 0x800200 <__DATA_REGION_ORIGIN__>
     25c:	93 23       	and	r25, r19
     25e:	98 27       	eor	r25, r24
     260:	90 93 00 02 	sts	0x0200, r25	; 0x800200 <__DATA_REGION_ORIGIN__>
     264:	83 23       	and	r24, r19
	state_changed &= vcount_low & vcount_high;
     266:	89 23       	and	r24, r25
	button_state ^= state_changed;
     268:	92 2f       	mov	r25, r18
     26a:	98 27       	eor	r25, r24
     26c:	90 93 e8 03 	sts	0x03E8, r25	; 0x8003e8 <__data_end>
	buttons_down |= button_state&state_changed;
     270:	20 91 fe 03 	lds	r18, 0x03FE	; 0x8003fe <buttons_down>
     274:	89 23       	and	r24, r25
     276:	82 2b       	or	r24, r18
     278:	80 93 fe 03 	sts	0x03FE, r24	; 0x8003fe <buttons_down>
	debounce();
}
     27c:	9f 91       	pop	r25
     27e:	8f 91       	pop	r24
     280:	3f 91       	pop	r19
     282:	2f 91       	pop	r18
     284:	0f 90       	pop	r0
     286:	0f be       	out	0x3f, r0	; 63
     288:	0f 90       	pop	r0
     28a:	1f 90       	pop	r1
     28c:	18 95       	reti

0000028e <initButtons>:

void initButtons()
{
	//this will initialize all of the buttons on the front panel
	//main trigger buttons
	PORTA = 0xFF;
     28e:	8f ef       	ldi	r24, 0xFF	; 255
     290:	82 b9       	out	0x02, r24	; 2
	PORTL = 0xFF;
     292:	80 93 0b 01 	sts	0x010B, r24	; 0x80010b <__TEXT_REGION_LENGTH__+0x70010b>

	//GPButtons and Encoder buttons
	PORTB = 0B01111111; //lets see if we can read these without debouncing
     296:	8f e7       	ldi	r24, 0x7F	; 127
     298:	85 b9       	out	0x05, r24	; 5
     29a:	08 95       	ret

0000029c <listenTrigButtons>:

}

void listenTrigButtons(Pattern *buttonCurrentPattern, Globals *currentGlobals)
{
     29c:	cf 92       	push	r12
     29e:	df 92       	push	r13
     2a0:	ef 92       	push	r14
     2a2:	ff 92       	push	r15
     2a4:	0f 93       	push	r16
     2a6:	1f 93       	push	r17
     2a8:	cf 93       	push	r28
     2aa:	6c 01       	movw	r12, r24
	buttonsCurrentCycle = (PINL^255); //^ = bitwise XOR operation.
     2ac:	20 91 09 01 	lds	r18, 0x0109	; 0x800109 <__TEXT_REGION_LENGTH__+0x700109>
     2b0:	20 95       	com	r18
     2b2:	20 93 fc 03 	sts	0x03FC, r18	; 0x8003fc <buttonsCurrentCycle>
	(currentGlobals->currentTrigButtons) = (buttonsCurrentCycle << 8) | (PINA^255);
     2b6:	90 b1       	in	r25, 0x00	; 0
     2b8:	30 e0       	ldi	r19, 0x00	; 0
     2ba:	32 2f       	mov	r19, r18
     2bc:	22 27       	eor	r18, r18
     2be:	90 95       	com	r25
     2c0:	29 2b       	or	r18, r25
     2c2:	db 01       	movw	r26, r22
     2c4:	2d 93       	st	X+, r18
     2c6:	3c 93       	st	X, r19
	if(currentGlobals->currentTrigButtons!=lastFullBits) //we do read the buttons every cycle, but we don't need to update everything base on the buttons if they haven't changed.
     2c8:	40 91 e9 03 	lds	r20, 0x03E9	; 0x8003e9 <lastFullBits>
     2cc:	50 91 ea 03 	lds	r21, 0x03EA	; 0x8003ea <lastFullBits+0x1>
     2d0:	24 17       	cp	r18, r20
     2d2:	35 07       	cpc	r19, r21
     2d4:	09 f4       	brne	.+2      	; 0x2d8 <listenTrigButtons+0x3c>
     2d6:	43 c0       	rjmp	.+134    	; 0x35e <listenTrigButtons+0xc2>
     2d8:	7b 01       	movw	r14, r22
	{
		lastFullBits = currentGlobals->currentTrigButtons;
     2da:	30 93 ea 03 	sts	0x03EA, r19	; 0x8003ea <lastFullBits+0x1>
     2de:	20 93 e9 03 	sts	0x03E9, r18	; 0x8003e9 <lastFullBits>
		uint16_t fullBitsParse = currentGlobals->currentTrigButtons;
     2e2:	fb 01       	movw	r30, r22
     2e4:	00 81       	ld	r16, Z
     2e6:	11 81       	ldd	r17, Z+1	; 0x01
		//play sounds, if that is the switch case on the encoder
		//updateLEDs
		for(uint8_t bc = 0; bc<16; bc++)//bc for buttonCounter
     2e8:	c0 e0       	ldi	r28, 0x00	; 0
		{
			currentTrig = (fullBitsParse&1);
     2ea:	90 2f       	mov	r25, r16
     2ec:	91 70       	andi	r25, 0x01	; 1
     2ee:	90 93 fd 03 	sts	0x03FD, r25	; 0x8003fd <currentTrig>
			if(currentTrig)
     2f2:	99 23       	and	r25, r25
     2f4:	79 f1       	breq	.+94     	; 0x354 <listenTrigButtons+0xb8>
			{
				uint8_t encoderAstate = currentGlobals->menuState >> 4;
				switch (encoderAstate)
     2f6:	d7 01       	movw	r26, r14
     2f8:	16 96       	adiw	r26, 0x06	; 6
     2fa:	9c 91       	ld	r25, X
     2fc:	92 95       	swap	r25
     2fe:	9f 70       	andi	r25, 0x0F	; 15
     300:	91 30       	cpi	r25, 0x01	; 1
     302:	51 f0       	breq	.+20     	; 0x318 <listenTrigButtons+0x7c>
     304:	18 f0       	brcs	.+6      	; 0x30c <listenTrigButtons+0x70>
     306:	94 30       	cpi	r25, 0x04	; 4
     308:	28 f5       	brcc	.+74     	; 0x354 <listenTrigButtons+0xb8>
     30a:	1a c0       	rjmp	.+52     	; 0x340 <listenTrigButtons+0xa4>
				{
	
					//for "performance mode", we should just use the default case, and only have code for the cases where things are outside of that use case.
					case 0: //performance mode
					//we trigger a sound here based on the location of bc
					playTrack(buttonCurrentPattern, currentGlobals,bc);
     30c:	4c 2f       	mov	r20, r28
     30e:	b7 01       	movw	r22, r14
     310:	c6 01       	movw	r24, r12
     312:	0e 94 85 17 	call	0x2f0a	; 0x2f0a <playTrack>
					break;
     316:	1e c0       	rjmp	.+60     	; 0x354 <listenTrigButtons+0xb8>

					case 1:
					buttonCurrentPattern->trackSequence[currentGlobals->currentStep] ^= currentGlobals->currentTrigButtons;
     318:	d7 01       	movw	r26, r14
     31a:	14 96       	adiw	r26, 0x04	; 4
     31c:	ec 91       	ld	r30, X
     31e:	14 97       	sbiw	r26, 0x04	; 4
     320:	f0 e0       	ldi	r31, 0x00	; 0
     322:	ee 0f       	add	r30, r30
     324:	ff 1f       	adc	r31, r31
     326:	ec 0d       	add	r30, r12
     328:	fd 1d       	adc	r31, r13
     32a:	e5 50       	subi	r30, 0x05	; 5
     32c:	ff 4f       	sbci	r31, 0xFF	; 255
     32e:	20 81       	ld	r18, Z
     330:	31 81       	ldd	r19, Z+1	; 0x01
     332:	8d 91       	ld	r24, X+
     334:	9c 91       	ld	r25, X
     336:	82 27       	eor	r24, r18
     338:	93 27       	eor	r25, r19
     33a:	91 83       	std	Z+1, r25	; 0x01
     33c:	80 83       	st	Z, r24
					//turn on step number, or turn off step number.
					//step sequencer mode.
					break;
     33e:	0a c0       	rjmp	.+20     	; 0x354 <listenTrigButtons+0xb8>
					//we want this functionality for both case 2 and case 3
					case 2:
					case 3:;
					//select track for sample assignment
					//uint16_t currentSample = (buttonCurrentPattern->trackSampleMSB[bc]<<8)|(buttonCurrentPattern->trackSampleLSB[bc]);
					currentGlobals->currentTrack = bc;
     340:	f7 01       	movw	r30, r14
     342:	c5 83       	std	Z+5, r28	; 0x05
					currentGlobals->valueChangeFlag |=(1<<triggerChange);
     344:	82 85       	ldd	r24, Z+10	; 0x0a
     346:	82 60       	ori	r24, 0x02	; 2
     348:	82 87       	std	Z+10, r24	; 0x0a
					playTrack(buttonCurrentPattern, currentGlobals,bc);
     34a:	4c 2f       	mov	r20, r28
     34c:	b7 01       	movw	r22, r14
     34e:	c6 01       	movw	r24, r12
     350:	0e 94 85 17 	call	0x2f0a	; 0x2f0a <playTrack>
					default:
					//this should be the same as case 0;
					break;
				}
			}
			fullBitsParse = fullBitsParse>>1;
     354:	16 95       	lsr	r17
     356:	07 95       	ror	r16
	{
		lastFullBits = currentGlobals->currentTrigButtons;
		uint16_t fullBitsParse = currentGlobals->currentTrigButtons;
		//play sounds, if that is the switch case on the encoder
		//updateLEDs
		for(uint8_t bc = 0; bc<16; bc++)//bc for buttonCounter
     358:	cf 5f       	subi	r28, 0xFF	; 255
     35a:	c0 31       	cpi	r28, 0x10	; 16
     35c:	31 f6       	brne	.-116    	; 0x2ea <listenTrigButtons+0x4e>
				}
			}
			fullBitsParse = fullBitsParse>>1;
		}
	}
}
     35e:	cf 91       	pop	r28
     360:	1f 91       	pop	r17
     362:	0f 91       	pop	r16
     364:	ff 90       	pop	r15
     366:	ef 90       	pop	r14
     368:	df 90       	pop	r13
     36a:	cf 90       	pop	r12
     36c:	08 95       	ret

0000036e <listenGPButtons>:

void listenGPButtons(Pattern currentPattern, Globals *currentGlobals) //may need to be a pointer
{
     36e:	ff 92       	push	r15
     370:	0f 93       	push	r16
     372:	1f 93       	push	r17
     374:	cf 93       	push	r28
     376:	df 93       	push	r29
     378:	cd b7       	in	r28, 0x3d	; 61
     37a:	de b7       	in	r29, 0x3e	; 62
     37c:	cc 57       	subi	r28, 0x7C	; 124
     37e:	de 4f       	sbci	r29, 0xFE	; 254
     380:	08 81       	ld	r16, Y
     382:	19 81       	ldd	r17, Y+1	; 0x01
     384:	c4 58       	subi	r28, 0x84	; 132
     386:	d1 40       	sbci	r29, 0x01	; 1

	if(button_down(1 << PB5))
     388:	80 e2       	ldi	r24, 0x20	; 32
     38a:	77 d0       	rcall	.+238    	; 0x47a <button_down>
     38c:	88 23       	and	r24, r24
     38e:	41 f1       	breq	.+80     	; 0x3e0 <listenGPButtons+0x72>
	{ //top encoder button
		if(currentGlobals->menuState>>4==3)
     390:	f8 01       	movw	r30, r16
     392:	86 81       	ldd	r24, Z+6	; 0x06
     394:	82 95       	swap	r24
     396:	8f 70       	andi	r24, 0x0F	; 15
     398:	83 30       	cpi	r24, 0x03	; 3
     39a:	21 f4       	brne	.+8      	; 0x3a4 <listenGPButtons+0x36>
		{
			globalWrite(currentGlobals);
     39c:	c8 01       	movw	r24, r16
     39e:	0e 94 bb 1d 	call	0x3b76	; 0x3b76 <globalWrite>
     3a2:	1e c0       	rjmp	.+60     	; 0x3e0 <listenGPButtons+0x72>
		}else
		{
			eepromSavePattern(currentPattern, currentGlobals->currentPatternNumber);
     3a4:	f8 01       	movw	r30, r16
     3a6:	83 81       	ldd	r24, Z+3	; 0x03
     3a8:	8f 93       	push	r24
     3aa:	8d b7       	in	r24, 0x3d	; 61
     3ac:	9e b7       	in	r25, 0x3e	; 62
     3ae:	8b 57       	subi	r24, 0x7B	; 123
     3b0:	91 40       	sbci	r25, 0x01	; 1
     3b2:	0f b6       	in	r0, 0x3f	; 63
     3b4:	f8 94       	cli
     3b6:	9e bf       	out	0x3e, r25	; 62
     3b8:	0f be       	out	0x3f, r0	; 63
     3ba:	8d bf       	out	0x3d, r24	; 61
     3bc:	ad b7       	in	r26, 0x3d	; 61
     3be:	be b7       	in	r27, 0x3e	; 62
     3c0:	11 96       	adiw	r26, 0x01	; 1
     3c2:	8b e7       	ldi	r24, 0x7B	; 123
     3c4:	91 e0       	ldi	r25, 0x01	; 1
     3c6:	fe 01       	movw	r30, r28
     3c8:	39 96       	adiw	r30, 0x09	; 9
     3ca:	01 90       	ld	r0, Z+
     3cc:	0d 92       	st	X+, r0
     3ce:	01 97       	sbiw	r24, 0x01	; 1
     3d0:	e1 f7       	brne	.-8      	; 0x3ca <listenGPButtons+0x5c>
     3d2:	0e 94 be 19 	call	0x337c	; 0x337c <eepromSavePattern>
     3d6:	0f b6       	in	r0, 0x3f	; 63
     3d8:	f8 94       	cli
     3da:	de bf       	out	0x3e, r29	; 62
     3dc:	0f be       	out	0x3f, r0	; 63
     3de:	cd bf       	out	0x3d, r28	; 61
		}
		
	}

	uint8_t encoderSwitchMask = 0b00001000;
	if(button_down(1<<PB6))
     3e0:	80 e4       	ldi	r24, 0x40	; 64
     3e2:	4b d0       	rcall	.+150    	; 0x47a <button_down>
     3e4:	88 23       	and	r24, r24
     3e6:	51 f0       	breq	.+20     	; 0x3fc <listenGPButtons+0x8e>
		{//bottom encoder button
			uint8_t encoderBCheck = currentGlobals->menuState&encoderSwitchMask;
     3e8:	f8 01       	movw	r30, r16
     3ea:	86 81       	ldd	r24, Z+6	; 0x06
			if(encoderBCheck)
     3ec:	83 ff       	sbrs	r24, 3
     3ee:	03 c0       	rjmp	.+6      	; 0x3f6 <listenGPButtons+0x88>
			{
				currentGlobals->menuState &=0b11110111;//turn off the encoderBFlag
     3f0:	87 7f       	andi	r24, 0xF7	; 247
     3f2:	86 83       	std	Z+6, r24	; 0x06
     3f4:	03 c0       	rjmp	.+6      	; 0x3fc <listenGPButtons+0x8e>

			}else
			{
				currentGlobals->menuState |=0b00001000; //turn on the encoderBFlag bit
     3f6:	88 60       	ori	r24, 0x08	; 8
     3f8:	f8 01       	movw	r30, r16
     3fa:	86 83       	std	Z+6, r24	; 0x06
			}
		}
	uint8_t playButtonMask = 0b0000001; //we could probably make a define for both of these masks.
	uint8_t playStateCheck = currentGlobals->playState & playButtonMask;
     3fc:	f8 01       	movw	r30, r16
	if(button_down(1<<PB4))
     3fe:	f7 80       	ldd	r15, Z+7	; 0x07
     400:	80 e1       	ldi	r24, 0x10	; 16
     402:	3b d0       	rcall	.+118    	; 0x47a <button_down>
     404:	88 23       	and	r24, r24
     406:	71 f0       	breq	.+28     	; 0x424 <__LOCK_REGION_LENGTH__+0x24>
	{
		if(playStateCheck)
     408:	f0 fe       	sbrs	r15, 0
     40a:	06 c0       	rjmp	.+12     	; 0x418 <__LOCK_REGION_LENGTH__+0x18>
		{
			currentGlobals->playState=0; //playstate is on, turn it off
     40c:	f8 01       	movw	r30, r16
     40e:	17 82       	std	Z+7, r1	; 0x07
			currentGlobals->currentGPButtons &=(~0x20); //turn the first bit
     410:	82 81       	ldd	r24, Z+2	; 0x02
     412:	8f 7d       	andi	r24, 0xDF	; 223
     414:	82 83       	std	Z+2, r24	; 0x02
     416:	06 c0       	rjmp	.+12     	; 0x424 <__LOCK_REGION_LENGTH__+0x24>
			
		}else
		{
			currentGlobals->playState=1;
     418:	81 e0       	ldi	r24, 0x01	; 1
     41a:	f8 01       	movw	r30, r16
     41c:	87 83       	std	Z+7, r24	; 0x07
			currentGlobals->currentGPButtons |= 0x20; //turn on the first bit
     41e:	82 81       	ldd	r24, Z+2	; 0x02
     420:	80 62       	ori	r24, 0x20	; 32
     422:	82 83       	std	Z+2, r24	; 0x02
		}

	} //not sure which button this is
	uint8_t trackButtonMask = 0b00000001;
	uint8_t trackStateCheck = (currentGlobals->buttonSwitchFlag) & trackButtonMask;
     424:	f8 01       	movw	r30, r16
	if(button_down(1<<PB0))
     426:	f1 84       	ldd	r15, Z+9	; 0x09
     428:	81 e0       	ldi	r24, 0x01	; 1
     42a:	27 d0       	rcall	.+78     	; 0x47a <button_down>
     42c:	88 23       	and	r24, r24
     42e:	71 f0       	breq	.+28     	; 0x44c <__LOCK_REGION_LENGTH__+0x4c>
	{
		if(trackStateCheck)
     430:	f0 fe       	sbrs	r15, 0
     432:	06 c0       	rjmp	.+12     	; 0x440 <__LOCK_REGION_LENGTH__+0x40>
		{
			currentGlobals->buttonSwitchFlag = 0;
     434:	f8 01       	movw	r30, r16
     436:	11 86       	std	Z+9, r1	; 0x09
			currentGlobals->currentGPButtons &=(~0x02);
     438:	82 81       	ldd	r24, Z+2	; 0x02
     43a:	8d 7f       	andi	r24, 0xFD	; 253
     43c:	82 83       	std	Z+2, r24	; 0x02
     43e:	06 c0       	rjmp	.+12     	; 0x44c <__LOCK_REGION_LENGTH__+0x4c>
		}else
		{
			currentGlobals->buttonSwitchFlag = 1;
     440:	81 e0       	ldi	r24, 0x01	; 1
     442:	f8 01       	movw	r30, r16
     444:	81 87       	std	Z+9, r24	; 0x09
			currentGlobals->currentGPButtons |=0x02;
     446:	82 81       	ldd	r24, Z+2	; 0x02
     448:	82 60       	ori	r24, 0x02	; 2
		}
	}
	uint8_t fineButtonMask = 4;
	uint8_t fineStateCheck = (currentGlobals->currentGPButtons) & fineButtonMask;
     44a:	82 83       	std	Z+2, r24	; 0x02
     44c:	f8 01       	movw	r30, r16
	if(button_down(1<<PB1))
     44e:	f2 80       	ldd	r15, Z+2	; 0x02
     450:	82 e0       	ldi	r24, 0x02	; 2
     452:	13 d0       	rcall	.+38     	; 0x47a <button_down>
     454:	88 23       	and	r24, r24
     456:	59 f0       	breq	.+22     	; 0x46e <__LOCK_REGION_LENGTH__+0x6e>
	{		
		if(fineStateCheck)
     458:	f2 fe       	sbrs	r15, 2
     45a:	05 c0       	rjmp	.+10     	; 0x466 <__LOCK_REGION_LENGTH__+0x66>
		{
			
			currentGlobals->currentGPButtons &=(~0x04);
     45c:	f8 01       	movw	r30, r16
     45e:	82 81       	ldd	r24, Z+2	; 0x02
     460:	8b 7f       	andi	r24, 0xFB	; 251
     462:	82 83       	std	Z+2, r24	; 0x02
     464:	04 c0       	rjmp	.+8      	; 0x46e <__LOCK_REGION_LENGTH__+0x6e>
		}else
		{
			currentGlobals->currentGPButtons |=0x04;
     466:	f8 01       	movw	r30, r16
     468:	82 81       	ldd	r24, Z+2	; 0x02
     46a:	84 60       	ori	r24, 0x04	; 4
     46c:	82 83       	std	Z+2, r24	; 0x02
		}
		
	}
}
     46e:	df 91       	pop	r29
     470:	cf 91       	pop	r28
     472:	1f 91       	pop	r17
     474:	0f 91       	pop	r16
     476:	ff 90       	pop	r15
     478:	08 95       	ret

0000047a <button_down>:

volatile uint8_t buttons_down;
uint8_t button_down(uint8_t button_mask)
{
	//I should probably check out what this is.
	ATOMIC_BLOCK(ATOMIC_RESTORESTATE)
     47a:	2f b7       	in	r18, 0x3f	; 63
    return 1;
}

static __inline__ uint8_t __iCliRetVal(void)
{
    cli();
     47c:	f8 94       	cli
	{
		button_mask &= buttons_down;
     47e:	90 91 fe 03 	lds	r25, 0x03FE	; 0x8003fe <buttons_down>
     482:	89 23       	and	r24, r25
		buttons_down ^= button_mask;
     484:	90 91 fe 03 	lds	r25, 0x03FE	; 0x8003fe <buttons_down>
     488:	98 27       	eor	r25, r24
     48a:	90 93 fe 03 	sts	0x03FE, r25	; 0x8003fe <buttons_down>
    (void)__s;
}

static __inline__ void __iRestore(const  uint8_t *__s)
{
    SREG = *__s;
     48e:	2f bf       	out	0x3f, r18	; 63
	}
	
	return button_mask;
     490:	08 95       	ret

00000492 <initEncoders>:
{
	
	//Interrupt pins - 2,3,4,5
		
	//setup rising edge detection on Int pins 2 and 3 (would maybe want all pin states if this doesn't work).
	EICRA |=(1<<ISC31)|(1<<ISC30)|(1 << ISC21)|(1 << ISC20); 
     492:	e9 e6       	ldi	r30, 0x69	; 105
     494:	f0 e0       	ldi	r31, 0x00	; 0
     496:	80 81       	ld	r24, Z
     498:	80 6f       	ori	r24, 0xF0	; 240
     49a:	80 83       	st	Z, r24
	
	//same setup on pins 4 and 5
	EICRB |=(1<<ISC51)|(1<<ISC50)|(1 << ISC41)|(1 << ISC40);
     49c:	ea e6       	ldi	r30, 0x6A	; 106
     49e:	f0 e0       	ldi	r31, 0x00	; 0
     4a0:	80 81       	ld	r24, Z
     4a2:	8f 60       	ori	r24, 0x0F	; 15
     4a4:	80 83       	st	Z, r24
	
	//enable all 4 interrupts through masking
	EIMSK |=(1<<INT2)|(1<<INT3)|(1<<INT4)|(1<<INT5);
     4a6:	8d b3       	in	r24, 0x1d	; 29
     4a8:	8c 63       	ori	r24, 0x3C	; 60
     4aa:	8d bb       	out	0x1d, r24	; 29
     4ac:	08 95       	ret

000004ae <__vector_3>:


}
 
ISR(INT2_vect)
{
     4ae:	1f 92       	push	r1
     4b0:	0f 92       	push	r0
     4b2:	0f b6       	in	r0, 0x3f	; 63
     4b4:	0f 92       	push	r0
     4b6:	11 24       	eor	r1, r1
     4b8:	8f 93       	push	r24
	
	if((1<<topEncoderPinB)&encoderPortStates)//this means Pin 2 is coming after pin 3
     4ba:	80 91 eb 03 	lds	r24, 0x03EB	; 0x8003eb <encoderPortStates>
     4be:	81 ff       	sbrs	r24, 1
     4c0:	0b c0       	rjmp	.+22     	; 0x4d8 <__vector_3+0x2a>
	{
		bottomEncoderValue--;
     4c2:	80 91 ee 03 	lds	r24, 0x03EE	; 0x8003ee <bottomEncoderValue>
     4c6:	81 50       	subi	r24, 0x01	; 1
     4c8:	80 93 ee 03 	sts	0x03EE, r24	; 0x8003ee <bottomEncoderValue>
		encoderPortStates&=(1<<bottomEncoderPinB)|(1<<bottomEncoderPinA);//reset our two pins to low. 
     4cc:	80 91 eb 03 	lds	r24, 0x03EB	; 0x8003eb <encoderPortStates>
     4d0:	8c 70       	andi	r24, 0x0C	; 12
     4d2:	80 93 eb 03 	sts	0x03EB, r24	; 0x8003eb <encoderPortStates>
     4d6:	05 c0       	rjmp	.+10     	; 0x4e2 <__vector_3+0x34>
	}
	else
	{
		encoderPortStates|=(1<<topEncoderPinA); //we want to set bit 0. 
     4d8:	80 91 eb 03 	lds	r24, 0x03EB	; 0x8003eb <encoderPortStates>
     4dc:	81 60       	ori	r24, 0x01	; 1
     4de:	80 93 eb 03 	sts	0x03EB, r24	; 0x8003eb <encoderPortStates>
	}
}
     4e2:	8f 91       	pop	r24
     4e4:	0f 90       	pop	r0
     4e6:	0f be       	out	0x3f, r0	; 63
     4e8:	0f 90       	pop	r0
     4ea:	1f 90       	pop	r1
     4ec:	18 95       	reti

000004ee <__vector_4>:

ISR(INT3_vect)
{
     4ee:	1f 92       	push	r1
     4f0:	0f 92       	push	r0
     4f2:	0f b6       	in	r0, 0x3f	; 63
     4f4:	0f 92       	push	r0
     4f6:	11 24       	eor	r1, r1
     4f8:	8f 93       	push	r24

	if((1<<topEncoderPinA)&encoderPortStates)//this means Pin 3 is coming after pin 2
     4fa:	80 91 eb 03 	lds	r24, 0x03EB	; 0x8003eb <encoderPortStates>
     4fe:	80 ff       	sbrs	r24, 0
     500:	0b c0       	rjmp	.+22     	; 0x518 <__vector_4+0x2a>
	{
		bottomEncoderValue++;
     502:	80 91 ee 03 	lds	r24, 0x03EE	; 0x8003ee <bottomEncoderValue>
     506:	8f 5f       	subi	r24, 0xFF	; 255
     508:	80 93 ee 03 	sts	0x03EE, r24	; 0x8003ee <bottomEncoderValue>
		encoderPortStates&=(1<<bottomEncoderPinA)|(1<<bottomEncoderPinB); //reset our two pins to low.
     50c:	80 91 eb 03 	lds	r24, 0x03EB	; 0x8003eb <encoderPortStates>
     510:	8c 70       	andi	r24, 0x0C	; 12
     512:	80 93 eb 03 	sts	0x03EB, r24	; 0x8003eb <encoderPortStates>
     516:	05 c0       	rjmp	.+10     	; 0x522 <__vector_4+0x34>
	}
	else
	{
		encoderPortStates|=(1<<topEncoderPinB); //we want to set bit 1.
     518:	80 91 eb 03 	lds	r24, 0x03EB	; 0x8003eb <encoderPortStates>
     51c:	82 60       	ori	r24, 0x02	; 2
     51e:	80 93 eb 03 	sts	0x03EB, r24	; 0x8003eb <encoderPortStates>
	}
}
     522:	8f 91       	pop	r24
     524:	0f 90       	pop	r0
     526:	0f be       	out	0x3f, r0	; 63
     528:	0f 90       	pop	r0
     52a:	1f 90       	pop	r1
     52c:	18 95       	reti

0000052e <__vector_5>:

ISR(INT4_vect)
{
     52e:	1f 92       	push	r1
     530:	0f 92       	push	r0
     532:	0f b6       	in	r0, 0x3f	; 63
     534:	0f 92       	push	r0
     536:	11 24       	eor	r1, r1
     538:	8f 93       	push	r24
	
	if((1<<bottomEncoderPinB)&encoderPortStates)//this means Pin 4 is coming after pin 5
     53a:	80 91 eb 03 	lds	r24, 0x03EB	; 0x8003eb <encoderPortStates>
     53e:	83 ff       	sbrs	r24, 3
     540:	0b c0       	rjmp	.+22     	; 0x558 <__vector_5+0x2a>
	{
		topEncoderValue++;
     542:	80 91 ef 03 	lds	r24, 0x03EF	; 0x8003ef <topEncoderValue>
     546:	8f 5f       	subi	r24, 0xFF	; 255
     548:	80 93 ef 03 	sts	0x03EF, r24	; 0x8003ef <topEncoderValue>
		encoderPortStates&=(1<<topEncoderPinA)|(1<<topEncoderPinB); //reset our two pins to low.
     54c:	80 91 eb 03 	lds	r24, 0x03EB	; 0x8003eb <encoderPortStates>
     550:	83 70       	andi	r24, 0x03	; 3
     552:	80 93 eb 03 	sts	0x03EB, r24	; 0x8003eb <encoderPortStates>
     556:	05 c0       	rjmp	.+10     	; 0x562 <__vector_5+0x34>
	}
	else
	{
		encoderPortStates|=(1<<bottomEncoderPinA); //we want to set bit 2.
     558:	80 91 eb 03 	lds	r24, 0x03EB	; 0x8003eb <encoderPortStates>
     55c:	84 60       	ori	r24, 0x04	; 4
     55e:	80 93 eb 03 	sts	0x03EB, r24	; 0x8003eb <encoderPortStates>
	}
}
     562:	8f 91       	pop	r24
     564:	0f 90       	pop	r0
     566:	0f be       	out	0x3f, r0	; 63
     568:	0f 90       	pop	r0
     56a:	1f 90       	pop	r1
     56c:	18 95       	reti

0000056e <__vector_6>:

ISR(INT5_vect)
{
     56e:	1f 92       	push	r1
     570:	0f 92       	push	r0
     572:	0f b6       	in	r0, 0x3f	; 63
     574:	0f 92       	push	r0
     576:	11 24       	eor	r1, r1
     578:	8f 93       	push	r24
	
	if((1<<bottomEncoderPinA)&encoderPortStates)//this means Pin 3 is coming after pin 2
     57a:	80 91 eb 03 	lds	r24, 0x03EB	; 0x8003eb <encoderPortStates>
     57e:	82 ff       	sbrs	r24, 2
     580:	0b c0       	rjmp	.+22     	; 0x598 <__vector_6+0x2a>
	{
		topEncoderValue--;
     582:	80 91 ef 03 	lds	r24, 0x03EF	; 0x8003ef <topEncoderValue>
     586:	81 50       	subi	r24, 0x01	; 1
     588:	80 93 ef 03 	sts	0x03EF, r24	; 0x8003ef <topEncoderValue>
		encoderPortStates&=(1<<topEncoderPinA)|(1<<topEncoderPinB); //reset our two pins to low.
     58c:	80 91 eb 03 	lds	r24, 0x03EB	; 0x8003eb <encoderPortStates>
     590:	83 70       	andi	r24, 0x03	; 3
     592:	80 93 eb 03 	sts	0x03EB, r24	; 0x8003eb <encoderPortStates>
     596:	05 c0       	rjmp	.+10     	; 0x5a2 <__vector_6+0x34>
	}
	else
	{
		encoderPortStates|=(1<<bottomEncoderPinB); //we want to set bit 3.
     598:	80 91 eb 03 	lds	r24, 0x03EB	; 0x8003eb <encoderPortStates>
     59c:	88 60       	ori	r24, 0x08	; 8
     59e:	80 93 eb 03 	sts	0x03EB, r24	; 0x8003eb <encoderPortStates>
	}
}
     5a2:	8f 91       	pop	r24
     5a4:	0f 90       	pop	r0
     5a6:	0f be       	out	0x3f, r0	; 63
     5a8:	0f 90       	pop	r0
     5aa:	1f 90       	pop	r1
     5ac:	18 95       	reti

000005ae <listenEncoders>:


void listenEncoders(Pattern *currentPattern, Globals *currentGlobals)
{
     5ae:	cf 93       	push	r28
     5b0:	df 93       	push	r29
     5b2:	9c 01       	movw	r18, r24
     5b4:	fb 01       	movw	r30, r22
	if(topEncoderValue!=topEncoderLastValue)
     5b6:	90 91 ef 03 	lds	r25, 0x03EF	; 0x8003ef <topEncoderValue>
     5ba:	80 91 ed 03 	lds	r24, 0x03ED	; 0x8003ed <topEncoderLastValue>
     5be:	98 17       	cp	r25, r24
     5c0:	89 f0       	breq	.+34     	; 0x5e4 <listenEncoders+0x36>
	{
		currentGlobals->menuState = ((topEncoderValue%4)<<4);
     5c2:	90 91 ef 03 	lds	r25, 0x03EF	; 0x8003ef <topEncoderValue>
     5c6:	93 70       	andi	r25, 0x03	; 3
     5c8:	92 95       	swap	r25
     5ca:	90 7f       	andi	r25, 0xF0	; 240
     5cc:	96 83       	std	Z+6, r25	; 0x06
		bottomEncoderValue = 0; 
     5ce:	10 92 ee 03 	sts	0x03EE, r1	; 0x8003ee <bottomEncoderValue>
		bottomEncoderLastValue = 0; 
     5d2:	10 92 ec 03 	sts	0x03EC, r1	; 0x8003ec <bottomEncoderLastValue>
		currentGlobals->valueChangeFlag |= (1<<encoderChange);
     5d6:	82 85       	ldd	r24, Z+10	; 0x0a
     5d8:	81 60       	ori	r24, 0x01	; 1
     5da:	82 87       	std	Z+10, r24	; 0x0a
		topEncoderLastValue = topEncoderValue;
     5dc:	80 91 ef 03 	lds	r24, 0x03EF	; 0x8003ef <topEncoderValue>
     5e0:	80 93 ed 03 	sts	0x03ED, r24	; 0x8003ed <topEncoderLastValue>
	}
	
	if(bottomEncoderValue!=bottomEncoderLastValue)
     5e4:	90 91 ee 03 	lds	r25, 0x03EE	; 0x8003ee <bottomEncoderValue>
     5e8:	80 91 ec 03 	lds	r24, 0x03EC	; 0x8003ec <bottomEncoderLastValue>
     5ec:	98 17       	cp	r25, r24
     5ee:	09 f4       	brne	.+2      	; 0x5f2 <listenEncoders+0x44>
     5f0:	03 c2       	rjmp	.+1030   	; 0x9f8 <listenEncoders+0x44a>
	{
		 uint8_t menuSub = bottomEncoderValue - bottomEncoderLastValue;
     5f2:	90 91 ee 03 	lds	r25, 0x03EE	; 0x8003ee <bottomEncoderValue>
     5f6:	a9 2f       	mov	r26, r25
     5f8:	a8 1b       	sub	r26, r24
		 currentGlobals->valueChangeFlag |= (1<<encoderChange);
     5fa:	92 85       	ldd	r25, Z+10	; 0x0a
     5fc:	91 60       	ori	r25, 0x01	; 1
     5fe:	92 87       	std	Z+10, r25	; 0x0a
		 			//if this value is negative, we increase the menu.
		 			//if positive, we decrement the menu.
		switch(currentGlobals->menuState)
     600:	46 81       	ldd	r20, Z+6	; 0x06
     602:	50 e0       	ldi	r21, 0x00	; 0
     604:	4b 33       	cpi	r20, 0x3B	; 59
     606:	51 05       	cpc	r21, r1
     608:	08 f0       	brcs	.+2      	; 0x60c <listenEncoders+0x5e>
     60a:	f2 c1       	rjmp	.+996    	; 0x9f0 <listenEncoders+0x442>
     60c:	ef 01       	movw	r28, r30
     60e:	fa 01       	movw	r30, r20
     610:	88 27       	eor	r24, r24
     612:	ee 58       	subi	r30, 0x8E	; 142
     614:	ff 4f       	sbci	r31, 0xFF	; 255
     616:	8f 4f       	sbci	r24, 0xFF	; 255
     618:	0c 94 bc 1f 	jmp	0x3f78	; 0x3f78 <__tablejump2__>
		{
			case PreformanceModeInit:
			if(menuSub==1)
     61c:	a1 30       	cpi	r26, 0x01	; 1
     61e:	41 f4       	brne	.+16     	; 0x630 <listenEncoders+0x82>
			{
				currentGlobals->currentPatternNumber = (currentGlobals->currentPatternNumber) + 1;
     620:	8b 81       	ldd	r24, Y+3	; 0x03
     622:	8f 5f       	subi	r24, 0xFF	; 255
				if(currentGlobals->currentPatternNumber==0)
     624:	11 f0       	breq	.+4      	; 0x62a <listenEncoders+0x7c>
		switch(currentGlobals->menuState)
		{
			case PreformanceModeInit:
			if(menuSub==1)
			{
				currentGlobals->currentPatternNumber = (currentGlobals->currentPatternNumber) + 1;
     626:	8b 83       	std	Y+3, r24	; 0x03
     628:	0b c0       	rjmp	.+22     	; 0x640 <listenEncoders+0x92>
				if(currentGlobals->currentPatternNumber==0)
				{
					currentGlobals->currentPatternNumber=255;
     62a:	8f ef       	ldi	r24, 0xFF	; 255
     62c:	8b 83       	std	Y+3, r24	; 0x03
     62e:	08 c0       	rjmp	.+16     	; 0x640 <listenEncoders+0x92>
				}
				
			}else if(menuSub==255) //we don't want to hit this when switching menus after changing from the sequencer. 
     630:	af 3f       	cpi	r26, 0xFF	; 255
     632:	31 f4       	brne	.+12     	; 0x640 <listenEncoders+0x92>
			{
				currentGlobals->currentPatternNumber = (currentGlobals->currentPatternNumber) - 1;
     634:	8b 81       	ldd	r24, Y+3	; 0x03
     636:	81 50       	subi	r24, 0x01	; 1
     638:	10 f0       	brcs	.+4      	; 0x63e <listenEncoders+0x90>
     63a:	8b 83       	std	Y+3, r24	; 0x03
     63c:	01 c0       	rjmp	.+2      	; 0x640 <listenEncoders+0x92>
				if(currentGlobals->currentPatternNumber==255)
				{
					currentGlobals->currentPatternNumber=0;
     63e:	1b 82       	std	Y+3, r1	; 0x03
				}
			}
			eepromLoadPattern(currentPattern, currentGlobals->currentPatternNumber);
     640:	6b 81       	ldd	r22, Y+3	; 0x03
     642:	c9 01       	movw	r24, r18
     644:	0e 94 ab 1b 	call	0x3756	; 0x3756 <eepromLoadPattern>
			break;
     648:	d3 c1       	rjmp	.+934    	; 0x9f0 <listenEncoders+0x442>
			
			case SequencerMenuArrow1:			
			if(menuSub==1)
     64a:	a1 30       	cpi	r26, 0x01	; 1
     64c:	19 f4       	brne	.+6      	; 0x654 <listenEncoders+0xa6>
			{
				currentGlobals->menuState = SequencerMenuArrow3;
     64e:	83 e1       	ldi	r24, 0x13	; 19
     650:	8e 83       	std	Y+6, r24	; 0x06
     652:	ce c1       	rjmp	.+924    	; 0x9f0 <listenEncoders+0x442>
			}else
			{
				currentGlobals->menuState = SequencerMenuArrow2;
     654:	82 e1       	ldi	r24, 0x12	; 18
     656:	8e 83       	std	Y+6, r24	; 0x06
     658:	cb c1       	rjmp	.+918    	; 0x9f0 <listenEncoders+0x442>
			}
			break;
			
			case SequencerMenuArrow1Select:
			if(menuSub==1)
     65a:	a1 30       	cpi	r26, 0x01	; 1
     65c:	41 f4       	brne	.+16     	; 0x66e <listenEncoders+0xc0>
			{
				currentGlobals->currentPatternNumber = (currentGlobals->currentPatternNumber) + 1;
     65e:	8b 81       	ldd	r24, Y+3	; 0x03
     660:	8f 5f       	subi	r24, 0xFF	; 255
				if(currentGlobals->currentPatternNumber==0)
     662:	11 f0       	breq	.+4      	; 0x668 <listenEncoders+0xba>
			break;
			
			case SequencerMenuArrow1Select:
			if(menuSub==1)
			{
				currentGlobals->currentPatternNumber = (currentGlobals->currentPatternNumber) + 1;
     664:	8b 83       	std	Y+3, r24	; 0x03
     666:	09 c0       	rjmp	.+18     	; 0x67a <listenEncoders+0xcc>
				if(currentGlobals->currentPatternNumber==0)
				{
					currentGlobals->currentPatternNumber=255;
     668:	8f ef       	ldi	r24, 0xFF	; 255
     66a:	8b 83       	std	Y+3, r24	; 0x03
     66c:	06 c0       	rjmp	.+12     	; 0x67a <listenEncoders+0xcc>
				}
		
			}else
			{
				currentGlobals->currentPatternNumber = (currentGlobals->currentPatternNumber) - 1;
     66e:	8b 81       	ldd	r24, Y+3	; 0x03
     670:	81 50       	subi	r24, 0x01	; 1
     672:	10 f0       	brcs	.+4      	; 0x678 <listenEncoders+0xca>
     674:	8b 83       	std	Y+3, r24	; 0x03
     676:	01 c0       	rjmp	.+2      	; 0x67a <listenEncoders+0xcc>
				if(currentGlobals->currentPatternNumber==255)
				{
					currentGlobals->currentPatternNumber=0;
     678:	1b 82       	std	Y+3, r1	; 0x03
				}	
			}
			eepromLoadPattern(currentPattern, currentGlobals->currentPatternNumber);
     67a:	6b 81       	ldd	r22, Y+3	; 0x03
     67c:	c9 01       	movw	r24, r18
     67e:	0e 94 ab 1b 	call	0x3756	; 0x3756 <eepromLoadPattern>
			//this keeps the knob reads that will happen right after the eeprom load to write over the loaded values.
			//Now when you load a pattern, the saved positions of the knobs are unchanged until you turn a knob. 
			break;
     682:	b6 c1       	rjmp	.+876    	; 0x9f0 <listenEncoders+0x442>
			
			case SequencerMenuArrow2:
			if(menuSub==1)
     684:	a1 30       	cpi	r26, 0x01	; 1
     686:	19 f4       	brne	.+6      	; 0x68e <listenEncoders+0xe0>
			{
				currentGlobals->menuState = SequencerMenuArrow1;
     688:	81 e1       	ldi	r24, 0x11	; 17
     68a:	8e 83       	std	Y+6, r24	; 0x06
     68c:	b1 c1       	rjmp	.+866    	; 0x9f0 <listenEncoders+0x442>
			}else
			{
				currentGlobals->menuState = SequencerMenuArrow3;
     68e:	83 e1       	ldi	r24, 0x13	; 19
     690:	8e 83       	std	Y+6, r24	; 0x06
     692:	ae c1       	rjmp	.+860    	; 0x9f0 <listenEncoders+0x442>
			}
			break;
			
			case SequencerMenuArrow2Select:
			if(menuSub==1)
     694:	a1 30       	cpi	r26, 0x01	; 1
     696:	79 f4       	brne	.+30     	; 0x6b6 <listenEncoders+0x108>
			{
				currentPattern->numSteps++;
     698:	f9 01       	movw	r30, r18
     69a:	e6 53       	subi	r30, 0x36	; 54
     69c:	ff 4f       	sbci	r31, 0xFF	; 255
     69e:	90 81       	ld	r25, Z
     6a0:	9f 5f       	subi	r25, 0xFF	; 255
				if(currentPattern->numSteps>64)
     6a2:	91 34       	cpi	r25, 0x41	; 65
     6a4:	10 f4       	brcc	.+4      	; 0x6aa <listenEncoders+0xfc>
			break;
			
			case SequencerMenuArrow2Select:
			if(menuSub==1)
			{
				currentPattern->numSteps++;
     6a6:	90 83       	st	Z, r25
     6a8:	a3 c1       	rjmp	.+838    	; 0x9f0 <listenEncoders+0x442>
				if(currentPattern->numSteps>64)
				{//we only have 64 spaces to write patterns into
					currentPattern->numSteps=64;
     6aa:	f9 01       	movw	r30, r18
     6ac:	e6 53       	subi	r30, 0x36	; 54
     6ae:	ff 4f       	sbci	r31, 0xFF	; 255
     6b0:	80 e4       	ldi	r24, 0x40	; 64
     6b2:	80 83       	st	Z, r24
     6b4:	9d c1       	rjmp	.+826    	; 0x9f0 <listenEncoders+0x442>
				}
			}else
			{
				currentPattern->numSteps--;
     6b6:	f9 01       	movw	r30, r18
     6b8:	e6 53       	subi	r30, 0x36	; 54
     6ba:	ff 4f       	sbci	r31, 0xFF	; 255
     6bc:	90 81       	ld	r25, Z
     6be:	91 50       	subi	r25, 0x01	; 1
				if(currentPattern->numSteps<1)
     6c0:	11 f0       	breq	.+4      	; 0x6c6 <listenEncoders+0x118>
				{//we only have 64 spaces to write patterns into
					currentPattern->numSteps=64;
				}
			}else
			{
				currentPattern->numSteps--;
     6c2:	90 83       	st	Z, r25
     6c4:	95 c1       	rjmp	.+810    	; 0x9f0 <listenEncoders+0x442>
				if(currentPattern->numSteps<1)
				{//we can't have a 0 step pattern. 
					currentPattern->numSteps=1;
     6c6:	f9 01       	movw	r30, r18
     6c8:	e6 53       	subi	r30, 0x36	; 54
     6ca:	ff 4f       	sbci	r31, 0xFF	; 255
     6cc:	81 e0       	ldi	r24, 0x01	; 1
     6ce:	80 83       	st	Z, r24
     6d0:	8f c1       	rjmp	.+798    	; 0x9f0 <listenEncoders+0x442>
				}
			}
			break;
			
			case SequencerMenuArrow3:;
			if(menuSub==1)
     6d2:	a1 30       	cpi	r26, 0x01	; 1
     6d4:	19 f4       	brne	.+6      	; 0x6dc <listenEncoders+0x12e>
			{
				currentGlobals->menuState = SequencerMenuArrow2;
     6d6:	82 e1       	ldi	r24, 0x12	; 18
     6d8:	8e 83       	std	Y+6, r24	; 0x06
     6da:	8a c1       	rjmp	.+788    	; 0x9f0 <listenEncoders+0x442>
			}else
			{
				currentGlobals->menuState = SequencerMenuArrow1;
     6dc:	81 e1       	ldi	r24, 0x11	; 17
     6de:	8e 83       	std	Y+6, r24	; 0x06
     6e0:	87 c1       	rjmp	.+782    	; 0x9f0 <listenEncoders+0x442>
			}
			break;
			
			case SequencerMenuArrow3Select:
			//change current step number
			if(menuSub==1)
     6e2:	a1 30       	cpi	r26, 0x01	; 1
     6e4:	69 f4       	brne	.+26     	; 0x700 <listenEncoders+0x152>
			{
				currentGlobals->currentStep++;
     6e6:	9c 81       	ldd	r25, Y+4	; 0x04
     6e8:	9f 5f       	subi	r25, 0xFF	; 255
     6ea:	9c 83       	std	Y+4, r25	; 0x04
				if(currentGlobals->currentStep>=currentPattern->numSteps)
     6ec:	f9 01       	movw	r30, r18
     6ee:	e6 53       	subi	r30, 0x36	; 54
     6f0:	ff 4f       	sbci	r31, 0xFF	; 255
     6f2:	80 81       	ld	r24, Z
     6f4:	98 17       	cp	r25, r24
     6f6:	08 f4       	brcc	.+2      	; 0x6fa <listenEncoders+0x14c>
     6f8:	7b c1       	rjmp	.+758    	; 0x9f0 <listenEncoders+0x442>
				{//our ceiling is the maximum number of steps.
					currentGlobals->currentStep=(currentPattern->numSteps)-1;
     6fa:	81 50       	subi	r24, 0x01	; 1
     6fc:	8c 83       	std	Y+4, r24	; 0x04
     6fe:	78 c1       	rjmp	.+752    	; 0x9f0 <listenEncoders+0x442>
				}
			}else
			{
				currentGlobals->currentStep--;
     700:	9c 81       	ldd	r25, Y+4	; 0x04
     702:	91 50       	subi	r25, 0x01	; 1
     704:	9c 83       	std	Y+4, r25	; 0x04
				if(currentGlobals->currentStep>currentPattern->numSteps)
     706:	f9 01       	movw	r30, r18
     708:	e6 53       	subi	r30, 0x36	; 54
     70a:	ff 4f       	sbci	r31, 0xFF	; 255
     70c:	80 81       	ld	r24, Z
     70e:	89 17       	cp	r24, r25
     710:	08 f0       	brcs	.+2      	; 0x714 <listenEncoders+0x166>
     712:	6e c1       	rjmp	.+732    	; 0x9f0 <listenEncoders+0x442>
				{//do no write notes to step 0.
					currentGlobals->currentStep=0;
     714:	1c 82       	std	Y+4, r1	; 0x04
     716:	6c c1       	rjmp	.+728    	; 0x9f0 <listenEncoders+0x442>
				}				
			}
			break;
			
			case TrackMenuArrow1:;
			if(menuSub==1)
     718:	a1 30       	cpi	r26, 0x01	; 1
     71a:	19 f4       	brne	.+6      	; 0x722 <listenEncoders+0x174>
			{
				currentGlobals->menuState = TrackMenuArrow5;
     71c:	85 e2       	ldi	r24, 0x25	; 37
     71e:	8e 83       	std	Y+6, r24	; 0x06
     720:	67 c1       	rjmp	.+718    	; 0x9f0 <listenEncoders+0x442>
			}else
			{
				currentGlobals->menuState = TrackMenuArrow2;
     722:	82 e2       	ldi	r24, 0x22	; 34
     724:	8e 83       	std	Y+6, r24	; 0x06
     726:	64 c1       	rjmp	.+712    	; 0x9f0 <listenEncoders+0x442>
			}
			break;
			
			case TrackMenuArrow1Select:;
			uint16_t currentSample = ((currentPattern->trackSampleMSB[currentGlobals->currentTrack])<<8)|(currentPattern->trackSampleLSB[currentGlobals->currentTrack]);
     728:	8d 81       	ldd	r24, Y+5	; 0x05
     72a:	90 e0       	ldi	r25, 0x00	; 0
     72c:	b9 01       	movw	r22, r18
     72e:	68 0f       	add	r22, r24
     730:	79 1f       	adc	r23, r25
     732:	fb 01       	movw	r30, r22
     734:	e8 56       	subi	r30, 0x68	; 104
     736:	ff 4f       	sbci	r31, 0xFF	; 255
     738:	40 81       	ld	r20, Z
     73a:	50 e0       	ldi	r21, 0x00	; 0
     73c:	54 2f       	mov	r21, r20
     73e:	44 27       	eor	r20, r20
     740:	70 96       	adiw	r30, 0x10	; 16
     742:	60 81       	ld	r22, Z
     744:	46 2b       	or	r20, r22
			if(menuSub==1)
     746:	a1 30       	cpi	r26, 0x01	; 1
     748:	49 f4       	brne	.+18     	; 0x75c <listenEncoders+0x1ae>
     74a:	4f 5f       	subi	r20, 0xFF	; 255
     74c:	5f 4f       	sbci	r21, 0xFF	; 255
     74e:	41 30       	cpi	r20, 0x01	; 1
     750:	60 e1       	ldi	r22, 0x10	; 16
     752:	56 07       	cpc	r21, r22
     754:	40 f0       	brcs	.+16     	; 0x766 <listenEncoders+0x1b8>
     756:	40 e0       	ldi	r20, 0x00	; 0
     758:	50 e1       	ldi	r21, 0x10	; 16
     75a:	05 c0       	rjmp	.+10     	; 0x766 <listenEncoders+0x1b8>
				{//maximum number of indexable samples.
					currentSample=4096;
				}
			}else
			{//no samples in space 0.
				currentSample--;
     75c:	41 50       	subi	r20, 0x01	; 1
     75e:	51 09       	sbc	r21, r1
				if(currentSample<1)
     760:	11 f4       	brne	.+4      	; 0x766 <listenEncoders+0x1b8>
				{
					currentSample=1;
     762:	41 e0       	ldi	r20, 0x01	; 1
     764:	50 e0       	ldi	r21, 0x00	; 0
				}
			}
			currentPattern->trackSampleLSB[currentGlobals->currentTrack] = (currentSample&0x00FF);//we want to lob off the top 8 bits, just in case. May be unnecessary.
     766:	82 0f       	add	r24, r18
     768:	93 1f       	adc	r25, r19
     76a:	fc 01       	movw	r30, r24
     76c:	e8 55       	subi	r30, 0x58	; 88
     76e:	ff 4f       	sbci	r31, 0xFF	; 255
     770:	40 83       	st	Z, r20
			currentPattern->trackSampleMSB[currentGlobals->currentTrack] = (currentSample>>8); 
     772:	8d 81       	ldd	r24, Y+5	; 0x05
     774:	28 0f       	add	r18, r24
     776:	31 1d       	adc	r19, r1
     778:	f9 01       	movw	r30, r18
     77a:	e8 56       	subi	r30, 0x68	; 104
     77c:	ff 4f       	sbci	r31, 0xFF	; 255
     77e:	50 83       	st	Z, r21
			break;
     780:	37 c1       	rjmp	.+622    	; 0x9f0 <listenEncoders+0x442>
			
			case TrackMenuArrow2:
			if(menuSub==1)
     782:	a1 30       	cpi	r26, 0x01	; 1
     784:	19 f4       	brne	.+6      	; 0x78c <listenEncoders+0x1de>
			{
				currentGlobals->menuState = TrackMenuArrow1;
     786:	81 e2       	ldi	r24, 0x21	; 33
     788:	8e 83       	std	Y+6, r24	; 0x06
     78a:	32 c1       	rjmp	.+612    	; 0x9f0 <listenEncoders+0x442>
			}else
			{
				currentGlobals->menuState = TrackMenuArrow3;
     78c:	83 e2       	ldi	r24, 0x23	; 35
     78e:	8e 83       	std	Y+6, r24	; 0x06
     790:	2f c1       	rjmp	.+606    	; 0x9f0 <listenEncoders+0x442>
			
			case TrackMenuArrow2Select:
			//change play mode of currently selected track
			//since we only have two play modes currently,
			//we only need to flip the play mode.
			currentPattern->trackPlayMode[currentGlobals->currentTrack] = (!(currentPattern->trackPlayMode[currentGlobals->currentTrack]))&(0b00000001);
     792:	8d 81       	ldd	r24, Y+5	; 0x05
     794:	28 0f       	add	r18, r24
     796:	31 1d       	adc	r19, r1
     798:	f9 01       	movw	r30, r18
     79a:	e8 57       	subi	r30, 0x78	; 120
     79c:	ff 4f       	sbci	r31, 0xFF	; 255
     79e:	81 e0       	ldi	r24, 0x01	; 1
     7a0:	90 81       	ld	r25, Z
     7a2:	91 11       	cpse	r25, r1
     7a4:	80 e0       	ldi	r24, 0x00	; 0
     7a6:	80 83       	st	Z, r24
			//flip all bits, mask for first bit. 
			break;
     7a8:	23 c1       	rjmp	.+582    	; 0x9f0 <listenEncoders+0x442>
			
			case TrackMenuArrow3:
			if(menuSub==1)
     7aa:	a1 30       	cpi	r26, 0x01	; 1
     7ac:	19 f4       	brne	.+6      	; 0x7b4 <listenEncoders+0x206>
			{
				currentGlobals->menuState = TrackMenuArrow2;
     7ae:	82 e2       	ldi	r24, 0x22	; 34
     7b0:	8e 83       	std	Y+6, r24	; 0x06
     7b2:	1e c1       	rjmp	.+572    	; 0x9f0 <listenEncoders+0x442>
			}else
			{
				currentGlobals->menuState = TrackMenuArrow4;
     7b4:	84 e2       	ldi	r24, 0x24	; 36
     7b6:	8e 83       	std	Y+6, r24	; 0x06
     7b8:	1b c1       	rjmp	.+566    	; 0x9f0 <listenEncoders+0x442>
			}
			break;
			
			case TrackMenuArrow3Select:
			
			if(menuSub==1)
     7ba:	a1 30       	cpi	r26, 0x01	; 1
     7bc:	b1 f4       	brne	.+44     	; 0x7ea <listenEncoders+0x23c>
			{
				//indexing might be an issue here, don't remember if this is 0 indexed or not. 
				(currentPattern->trackOutputRoute[currentGlobals->currentTrack]) = (currentPattern->trackOutputRoute[currentGlobals->currentTrack])+1 ;
     7be:	8d 81       	ldd	r24, Y+5	; 0x05
     7c0:	f9 01       	movw	r30, r18
     7c2:	e8 0f       	add	r30, r24
     7c4:	f1 1d       	adc	r31, r1
     7c6:	80 8d       	ldd	r24, Z+24	; 0x18
     7c8:	8f 5f       	subi	r24, 0xFF	; 255
     7ca:	80 8f       	std	Z+24, r24	; 0x18
				if(currentPattern->trackOutputRoute[currentGlobals->currentTrack]>7)
     7cc:	8d 81       	ldd	r24, Y+5	; 0x05
     7ce:	90 e0       	ldi	r25, 0x00	; 0
     7d0:	f9 01       	movw	r30, r18
     7d2:	e8 0f       	add	r30, r24
     7d4:	f9 1f       	adc	r31, r25
     7d6:	40 8d       	ldd	r20, Z+24	; 0x18
     7d8:	48 30       	cpi	r20, 0x08	; 8
     7da:	08 f4       	brcc	.+2      	; 0x7de <listenEncoders+0x230>
     7dc:	09 c1       	rjmp	.+530    	; 0x9f0 <listenEncoders+0x442>
				{
					currentPattern->trackOutputRoute[currentGlobals->currentTrack]=7;
     7de:	f9 01       	movw	r30, r18
     7e0:	e8 0f       	add	r30, r24
     7e2:	f9 1f       	adc	r31, r25
     7e4:	87 e0       	ldi	r24, 0x07	; 7
     7e6:	80 8f       	std	Z+24, r24	; 0x18
     7e8:	03 c1       	rjmp	.+518    	; 0x9f0 <listenEncoders+0x442>
				}
			}else
			{
				(currentPattern->trackOutputRoute[currentGlobals->currentTrack]) = (currentPattern->trackOutputRoute[currentGlobals->currentTrack])-1;
     7ea:	8d 81       	ldd	r24, Y+5	; 0x05
     7ec:	f9 01       	movw	r30, r18
     7ee:	e8 0f       	add	r30, r24
     7f0:	f1 1d       	adc	r31, r1
     7f2:	80 8d       	ldd	r24, Z+24	; 0x18
     7f4:	81 50       	subi	r24, 0x01	; 1
     7f6:	80 8f       	std	Z+24, r24	; 0x18
				if(currentPattern->trackOutputRoute[currentGlobals->currentTrack]>7)
     7f8:	8d 81       	ldd	r24, Y+5	; 0x05
     7fa:	90 e0       	ldi	r25, 0x00	; 0
     7fc:	f9 01       	movw	r30, r18
     7fe:	e8 0f       	add	r30, r24
     800:	f9 1f       	adc	r31, r25
     802:	40 8d       	ldd	r20, Z+24	; 0x18
     804:	48 30       	cpi	r20, 0x08	; 8
     806:	08 f4       	brcc	.+2      	; 0x80a <listenEncoders+0x25c>
     808:	f3 c0       	rjmp	.+486    	; 0x9f0 <listenEncoders+0x442>
				{
					currentPattern->trackOutputRoute[currentGlobals->currentTrack]=0;
     80a:	f9 01       	movw	r30, r18
     80c:	e8 0f       	add	r30, r24
     80e:	f9 1f       	adc	r31, r25
     810:	10 8e       	std	Z+24, r1	; 0x18
     812:	ee c0       	rjmp	.+476    	; 0x9f0 <listenEncoders+0x442>
				}
			}
			break;
			
			case TrackMenuArrow4:
			if(menuSub==1)
     814:	a1 30       	cpi	r26, 0x01	; 1
     816:	19 f4       	brne	.+6      	; 0x81e <listenEncoders+0x270>
			{
				currentGlobals->menuState = TrackMenuArrow3;
     818:	83 e2       	ldi	r24, 0x23	; 35
     81a:	8e 83       	std	Y+6, r24	; 0x06
     81c:	e9 c0       	rjmp	.+466    	; 0x9f0 <listenEncoders+0x442>
			}else
			{
				currentGlobals->menuState = TrackMenuArrow5;
     81e:	85 e2       	ldi	r24, 0x25	; 37
     820:	8e 83       	std	Y+6, r24	; 0x06
     822:	e6 c0       	rjmp	.+460    	; 0x9f0 <listenEncoders+0x442>
			}
			break;
			
			case TrackMenuArrow4Select:
			if(menuSub==1)
     824:	a1 30       	cpi	r26, 0x01	; 1
     826:	d9 f4       	brne	.+54     	; 0x85e <listenEncoders+0x2b0>
			{
				(currentPattern->envelopeType[currentGlobals->currentTrack])++;
     828:	8d 81       	ldd	r24, Y+5	; 0x05
     82a:	f9 01       	movw	r30, r18
     82c:	e8 0f       	add	r30, r24
     82e:	f1 1d       	adc	r31, r1
     830:	e5 51       	subi	r30, 0x15	; 21
     832:	ff 4f       	sbci	r31, 0xFF	; 255
     834:	80 81       	ld	r24, Z
     836:	8f 5f       	subi	r24, 0xFF	; 255
     838:	80 83       	st	Z, r24
				if((currentPattern->envelopeType[currentGlobals->currentTrack])>3)
     83a:	8d 81       	ldd	r24, Y+5	; 0x05
     83c:	90 e0       	ldi	r25, 0x00	; 0
     83e:	f9 01       	movw	r30, r18
     840:	e8 0f       	add	r30, r24
     842:	f9 1f       	adc	r31, r25
     844:	e5 51       	subi	r30, 0x15	; 21
     846:	ff 4f       	sbci	r31, 0xFF	; 255
     848:	40 81       	ld	r20, Z
     84a:	44 30       	cpi	r20, 0x04	; 4
     84c:	08 f1       	brcs	.+66     	; 0x890 <listenEncoders+0x2e2>
				{
					(currentPattern->envelopeType[currentGlobals->currentTrack])=3;
     84e:	82 0f       	add	r24, r18
     850:	93 1f       	adc	r25, r19
     852:	fc 01       	movw	r30, r24
     854:	e5 51       	subi	r30, 0x15	; 21
     856:	ff 4f       	sbci	r31, 0xFF	; 255
     858:	83 e0       	ldi	r24, 0x03	; 3
     85a:	80 83       	st	Z, r24
     85c:	19 c0       	rjmp	.+50     	; 0x890 <listenEncoders+0x2e2>
				}
			}else
			{
				(currentPattern->envelopeType[currentGlobals->currentTrack])--;
     85e:	8d 81       	ldd	r24, Y+5	; 0x05
     860:	f9 01       	movw	r30, r18
     862:	e8 0f       	add	r30, r24
     864:	f1 1d       	adc	r31, r1
     866:	e5 51       	subi	r30, 0x15	; 21
     868:	ff 4f       	sbci	r31, 0xFF	; 255
     86a:	80 81       	ld	r24, Z
     86c:	81 50       	subi	r24, 0x01	; 1
     86e:	80 83       	st	Z, r24
				if((currentPattern->envelopeType[currentGlobals->currentTrack])>3)
     870:	8d 81       	ldd	r24, Y+5	; 0x05
     872:	90 e0       	ldi	r25, 0x00	; 0
     874:	f9 01       	movw	r30, r18
     876:	e8 0f       	add	r30, r24
     878:	f9 1f       	adc	r31, r25
     87a:	e5 51       	subi	r30, 0x15	; 21
     87c:	ff 4f       	sbci	r31, 0xFF	; 255
     87e:	40 81       	ld	r20, Z
     880:	44 30       	cpi	r20, 0x04	; 4
     882:	30 f0       	brcs	.+12     	; 0x890 <listenEncoders+0x2e2>
				{
					(currentPattern->envelopeType[currentGlobals->currentTrack])=0;
     884:	82 0f       	add	r24, r18
     886:	93 1f       	adc	r25, r19
     888:	fc 01       	movw	r30, r24
     88a:	e5 51       	subi	r30, 0x15	; 21
     88c:	ff 4f       	sbci	r31, 0xFF	; 255
     88e:	10 82       	st	Z, r1
				}
			}
			if(currentPattern->envelopeType[currentGlobals->currentTrack]==0||currentPattern->envelopeType[currentGlobals->currentTrack]==2) //AR or A
     890:	8d 81       	ldd	r24, Y+5	; 0x05
     892:	90 e0       	ldi	r25, 0x00	; 0
     894:	f9 01       	movw	r30, r18
     896:	e8 0f       	add	r30, r24
     898:	f9 1f       	adc	r31, r25
     89a:	e5 51       	subi	r30, 0x15	; 21
     89c:	ff 4f       	sbci	r31, 0xFF	; 255
     89e:	40 81       	ld	r20, Z
     8a0:	4d 7f       	andi	r20, 0xFD	; 253
     8a2:	89 f4       	brne	.+34     	; 0x8c6 <listenEncoders+0x318>
			{
				setTrackVolume(currentPattern->trackSampleLSB[currentGlobals->currentTrack], currentPattern->trackSampleMSB[currentGlobals->currentTrack],255,186);
     8a4:	28 0f       	add	r18, r24
     8a6:	39 1f       	adc	r19, r25
     8a8:	f9 01       	movw	r30, r18
     8aa:	e8 56       	subi	r30, 0x68	; 104
     8ac:	ff 4f       	sbci	r31, 0xFF	; 255
     8ae:	60 81       	ld	r22, Z
     8b0:	70 e0       	ldi	r23, 0x00	; 0
     8b2:	70 96       	adiw	r30, 0x10	; 16
     8b4:	80 81       	ld	r24, Z
     8b6:	2a eb       	ldi	r18, 0xBA	; 186
     8b8:	30 e0       	ldi	r19, 0x00	; 0
     8ba:	4f ef       	ldi	r20, 0xFF	; 255
     8bc:	50 e0       	ldi	r21, 0x00	; 0
     8be:	90 e0       	ldi	r25, 0x00	; 0
     8c0:	0e 94 0e 17 	call	0x2e1c	; 0x2e1c <setTrackVolume>
				{
					(currentPattern->envelopeType[currentGlobals->currentTrack])=0;
				}
			}
			if(currentPattern->envelopeType[currentGlobals->currentTrack]==0||currentPattern->envelopeType[currentGlobals->currentTrack]==2) //AR or A
			{
     8c4:	95 c0       	rjmp	.+298    	; 0x9f0 <listenEncoders+0x442>
				setTrackVolume(currentPattern->trackSampleLSB[currentGlobals->currentTrack], currentPattern->trackSampleMSB[currentGlobals->currentTrack],255,186);
			}else
			{
				setTrackVolume(currentPattern->trackSampleLSB[currentGlobals->currentTrack], currentPattern->trackSampleMSB[currentGlobals->currentTrack],
				currentPattern->trackMainVolumeLSB[currentGlobals->currentTrack],currentPattern->trackMainVolumeMSB[currentGlobals->currentTrack]);		
     8c6:	f9 01       	movw	r30, r18
     8c8:	e8 0f       	add	r30, r24
     8ca:	f9 1f       	adc	r31, r25
			if(currentPattern->envelopeType[currentGlobals->currentTrack]==0||currentPattern->envelopeType[currentGlobals->currentTrack]==2) //AR or A
			{
				setTrackVolume(currentPattern->trackSampleLSB[currentGlobals->currentTrack], currentPattern->trackSampleMSB[currentGlobals->currentTrack],255,186);
			}else
			{
				setTrackVolume(currentPattern->trackSampleLSB[currentGlobals->currentTrack], currentPattern->trackSampleMSB[currentGlobals->currentTrack],
     8cc:	20 a5       	ldd	r18, Z+40	; 0x28
     8ce:	30 e0       	ldi	r19, 0x00	; 0
     8d0:	40 ad       	ldd	r20, Z+56	; 0x38
     8d2:	50 e0       	ldi	r21, 0x00	; 0
     8d4:	df 01       	movw	r26, r30
     8d6:	a8 56       	subi	r26, 0x68	; 104
     8d8:	bf 4f       	sbci	r27, 0xFF	; 255
     8da:	6c 91       	ld	r22, X
     8dc:	70 e0       	ldi	r23, 0x00	; 0
     8de:	e8 55       	subi	r30, 0x58	; 88
     8e0:	ff 4f       	sbci	r31, 0xFF	; 255
     8e2:	80 81       	ld	r24, Z
     8e4:	90 e0       	ldi	r25, 0x00	; 0
     8e6:	0e 94 0e 17 	call	0x2e1c	; 0x2e1c <setTrackVolume>
     8ea:	82 c0       	rjmp	.+260    	; 0x9f0 <listenEncoders+0x442>
				currentPattern->trackMainVolumeLSB[currentGlobals->currentTrack],currentPattern->trackMainVolumeMSB[currentGlobals->currentTrack]);		
			}
			break;
			
			case TrackMenuArrow5:
			if(menuSub==1)
     8ec:	a1 30       	cpi	r26, 0x01	; 1
     8ee:	19 f4       	brne	.+6      	; 0x8f6 <listenEncoders+0x348>
			{
				currentGlobals->menuState = TrackMenuArrow4;
     8f0:	84 e2       	ldi	r24, 0x24	; 36
     8f2:	8e 83       	std	Y+6, r24	; 0x06
     8f4:	7d c0       	rjmp	.+250    	; 0x9f0 <listenEncoders+0x442>
			}else
			{
				currentGlobals->menuState = TrackMenuArrow1;
     8f6:	81 e2       	ldi	r24, 0x21	; 33
     8f8:	8e 83       	std	Y+6, r24	; 0x06
     8fa:	7a c0       	rjmp	.+244    	; 0x9f0 <listenEncoders+0x442>
			}
			break;
			
			case TrackMenuArrow5Select:;
			uint16_t sustainTime = (currentPattern->trackSustainTimeLSB[currentGlobals->currentTrack])|((currentPattern->trackSustainTimeMSB[currentGlobals->currentTrack])<<8);	
     8fc:	4d 81       	ldd	r20, Y+5	; 0x05
     8fe:	50 e0       	ldi	r21, 0x00	; 0
     900:	b9 01       	movw	r22, r18
     902:	64 0f       	add	r22, r20
     904:	75 1f       	adc	r23, r21
     906:	fb 01       	movw	r30, r22
     908:	e5 53       	subi	r30, 0x35	; 53
     90a:	ff 4f       	sbci	r31, 0xFF	; 255
     90c:	80 81       	ld	r24, Z
     90e:	90 e0       	ldi	r25, 0x00	; 0
     910:	98 2f       	mov	r25, r24
     912:	88 27       	eor	r24, r24
     914:	70 96       	adiw	r30, 0x10	; 16
     916:	60 81       	ld	r22, Z
     918:	86 2b       	or	r24, r22
			if(menuSub==1)
     91a:	a1 30       	cpi	r26, 0x01	; 1
     91c:	71 f4       	brne	.+28     	; 0x93a <listenEncoders+0x38c>
			{
				if((currentGlobals->currentGPButtons)&(0x04))
     91e:	6a 81       	ldd	r22, Y+2	; 0x02
     920:	62 ff       	sbrs	r22, 2
     922:	02 c0       	rjmp	.+4      	; 0x928 <listenEncoders+0x37a>
				{
					sustainTime++;
     924:	01 96       	adiw	r24, 0x01	; 1
     926:	02 c0       	rjmp	.+4      	; 0x92c <listenEncoders+0x37e>
				}
				else
				{
					sustainTime = sustainTime+236;
     928:	84 51       	subi	r24, 0x14	; 20
     92a:	9f 4f       	sbci	r25, 0xFF	; 255
     92c:	81 36       	cpi	r24, 0x61	; 97
     92e:	ea ee       	ldi	r30, 0xEA	; 234
     930:	9e 07       	cpc	r25, r30
     932:	80 f0       	brcs	.+32     	; 0x954 <listenEncoders+0x3a6>
     934:	80 e6       	ldi	r24, 0x60	; 96
     936:	9a ee       	ldi	r25, 0xEA	; 234
     938:	0d c0       	rjmp	.+26     	; 0x954 <listenEncoders+0x3a6>
				{
					sustainTime = 60000;
				}
			}else
			{
				if((currentGlobals->currentGPButtons)&(0x04))
     93a:	6a 81       	ldd	r22, Y+2	; 0x02
     93c:	62 ff       	sbrs	r22, 2
     93e:	02 c0       	rjmp	.+4      	; 0x944 <listenEncoders+0x396>
				{
					sustainTime--;
     940:	01 97       	sbiw	r24, 0x01	; 1
     942:	02 c0       	rjmp	.+4      	; 0x948 <listenEncoders+0x39a>
				}else
				{	
					sustainTime = sustainTime - 236;
     944:	8c 5e       	subi	r24, 0xEC	; 236
     946:	91 09       	sbc	r25, r1
				}
				
				if(sustainTime>60000)
     948:	81 36       	cpi	r24, 0x61	; 97
     94a:	fa ee       	ldi	r31, 0xEA	; 234
     94c:	9f 07       	cpc	r25, r31
     94e:	10 f0       	brcs	.+4      	; 0x954 <listenEncoders+0x3a6>
				{
					sustainTime = 0;
     950:	80 e0       	ldi	r24, 0x00	; 0
     952:	90 e0       	ldi	r25, 0x00	; 0
				}
			}
			currentPattern->trackSustainTimeMSB[currentGlobals->currentTrack] = (sustainTime>>8);
     954:	42 0f       	add	r20, r18
     956:	53 1f       	adc	r21, r19
     958:	fa 01       	movw	r30, r20
     95a:	e5 53       	subi	r30, 0x35	; 53
     95c:	ff 4f       	sbci	r31, 0xFF	; 255
     95e:	90 83       	st	Z, r25
			currentPattern->trackSustainTimeLSB[currentGlobals->currentTrack] = sustainTime; //upper bits will be truncated.
     960:	9d 81       	ldd	r25, Y+5	; 0x05
     962:	29 0f       	add	r18, r25
     964:	31 1d       	adc	r19, r1
     966:	f9 01       	movw	r30, r18
     968:	e5 52       	subi	r30, 0x25	; 37
     96a:	ff 4f       	sbci	r31, 0xFF	; 255
     96c:	80 83       	st	Z, r24

			break;
     96e:	40 c0       	rjmp	.+128    	; 0x9f0 <listenEncoders+0x442>
			
			case GlobalMenuArrow1:
			if(menuSub==1)
     970:	a1 30       	cpi	r26, 0x01	; 1
     972:	19 f4       	brne	.+6      	; 0x97a <listenEncoders+0x3cc>
			{
				currentGlobals->menuState = GlobalMenuArrow1;
     974:	81 e3       	ldi	r24, 0x31	; 49
     976:	8e 83       	std	Y+6, r24	; 0x06
     978:	3b c0       	rjmp	.+118    	; 0x9f0 <listenEncoders+0x442>
			}else
			{
				currentGlobals->menuState = GlobalMenuArrow2;
     97a:	82 e3       	ldi	r24, 0x32	; 50
     97c:	8e 83       	std	Y+6, r24	; 0x06
     97e:	38 c0       	rjmp	.+112    	; 0x9f0 <listenEncoders+0x442>
			}
			break;
			
			//this may need to be in the range 0 to 15, and displayed with + 1.
			case GlobalMenuArrow1Select:
			if(menuSub==1)
     980:	a1 30       	cpi	r26, 0x01	; 1
     982:	49 f4       	brne	.+18     	; 0x996 <listenEncoders+0x3e8>
			{ 
				//increment midi number
				currentGlobals->midiChannel = (currentGlobals->midiChannel)+1;
     984:	8c 85       	ldd	r24, Y+12	; 0x0c
     986:	8f 5f       	subi	r24, 0xFF	; 255
				if(currentGlobals->midiChannel>15)
     988:	80 31       	cpi	r24, 0x10	; 16
     98a:	10 f4       	brcc	.+4      	; 0x990 <listenEncoders+0x3e2>
			//this may need to be in the range 0 to 15, and displayed with + 1.
			case GlobalMenuArrow1Select:
			if(menuSub==1)
			{ 
				//increment midi number
				currentGlobals->midiChannel = (currentGlobals->midiChannel)+1;
     98c:	8c 87       	std	Y+12, r24	; 0x0c
     98e:	30 c0       	rjmp	.+96     	; 0x9f0 <listenEncoders+0x442>
				if(currentGlobals->midiChannel>15)
				{
					currentGlobals->midiChannel=15;
     990:	8f e0       	ldi	r24, 0x0F	; 15
     992:	8c 87       	std	Y+12, r24	; 0x0c
     994:	2d c0       	rjmp	.+90     	; 0x9f0 <listenEncoders+0x442>
				}
			}
			else
			{
				//decrement midi number
				currentGlobals->midiChannel = (currentGlobals->midiChannel)-1;
     996:	8c 85       	ldd	r24, Y+12	; 0x0c
     998:	81 50       	subi	r24, 0x01	; 1
     99a:	10 f0       	brcs	.+4      	; 0x9a0 <listenEncoders+0x3f2>
     99c:	8c 87       	std	Y+12, r24	; 0x0c
     99e:	28 c0       	rjmp	.+80     	; 0x9f0 <listenEncoders+0x442>
				if(currentGlobals->midiChannel>254)
				{
					currentGlobals->midiChannel=0;
     9a0:	1c 86       	std	Y+12, r1	; 0x0c
     9a2:	26 c0       	rjmp	.+76     	; 0x9f0 <listenEncoders+0x442>
				}
			}
			break;
			
			case GlobalMenuArrow2:
			if(menuSub==1)
     9a4:	a1 30       	cpi	r26, 0x01	; 1
     9a6:	19 f4       	brne	.+6      	; 0x9ae <listenEncoders+0x400>
			{
				currentGlobals->menuState = GlobalMenuArrow1;
     9a8:	81 e3       	ldi	r24, 0x31	; 49
     9aa:	8e 83       	std	Y+6, r24	; 0x06
     9ac:	21 c0       	rjmp	.+66     	; 0x9f0 <listenEncoders+0x442>
			}else
			{
				currentGlobals->menuState = GlobalMenuArrow2;
     9ae:	82 e3       	ldi	r24, 0x32	; 50
     9b0:	8e 83       	std	Y+6, r24	; 0x06
     9b2:	1e c0       	rjmp	.+60     	; 0x9f0 <listenEncoders+0x442>
			break;
			
			case GlobalMenuArrow2Select:;
			//change midi note for selected track.
			//midi range is 0 to 127.
			uint8_t currentMidiNote = currentGlobals->midiTrackNote[currentGlobals->currentTrack];
     9b4:	ed 81       	ldd	r30, Y+5	; 0x05
     9b6:	2e 2f       	mov	r18, r30
     9b8:	30 e0       	ldi	r19, 0x00	; 0
     9ba:	ce 01       	movw	r24, r28
     9bc:	82 0f       	add	r24, r18
     9be:	93 1f       	adc	r25, r19
     9c0:	fc 01       	movw	r30, r24
     9c2:	85 85       	ldd	r24, Z+13	; 0x0d
			if(menuSub==1)
     9c4:	a1 30       	cpi	r26, 0x01	; 1
     9c6:	21 f4       	brne	.+8      	; 0x9d0 <listenEncoders+0x422>
			{
				//not 100% sure how to set this up.
				currentMidiNote++;
     9c8:	8f 5f       	subi	r24, 0xFF	; 255
				if(currentMidiNote>127)
     9ca:	32 f4       	brpl	.+12     	; 0x9d8 <listenEncoders+0x42a>
				{
					currentMidiNote = 127;
     9cc:	8f e7       	ldi	r24, 0x7F	; 127
     9ce:	04 c0       	rjmp	.+8      	; 0x9d8 <listenEncoders+0x42a>
				}
			}else
			{
				currentMidiNote--;
     9d0:	81 50       	subi	r24, 0x01	; 1
				if(currentMidiNote>128)
     9d2:	81 38       	cpi	r24, 0x81	; 129
     9d4:	08 f0       	brcs	.+2      	; 0x9d8 <listenEncoders+0x42a>
				{
					currentMidiNote = 0;
     9d6:	80 e0       	ldi	r24, 0x00	; 0
				}
			}
			currentGlobals->midiTrackNote[currentGlobals->currentTrack] = currentMidiNote;
     9d8:	f9 01       	movw	r30, r18
     9da:	ec 0f       	add	r30, r28
     9dc:	fd 1f       	adc	r31, r29
     9de:	85 87       	std	Z+13, r24	; 0x0d
			break;
     9e0:	07 c0       	rjmp	.+14     	; 0x9f0 <listenEncoders+0x442>
			
			case GlobalMenuArrow3:
			//currently unreachable, no settings live here atm		
			if(menuSub==1)
     9e2:	a1 30       	cpi	r26, 0x01	; 1
     9e4:	19 f4       	brne	.+6      	; 0x9ec <listenEncoders+0x43e>
			{
				currentGlobals->menuState = GlobalMenuArrow2;
     9e6:	82 e3       	ldi	r24, 0x32	; 50
     9e8:	8e 83       	std	Y+6, r24	; 0x06
     9ea:	02 c0       	rjmp	.+4      	; 0x9f0 <listenEncoders+0x442>
			}else
			{
				currentGlobals->menuState = GlobalMenuArrow1;
     9ec:	81 e3       	ldi	r24, 0x31	; 49
     9ee:	8e 83       	std	Y+6, r24	; 0x06
			
			case GlobalMenuArrow3Select:
			//nothing to put here yet.
			break;
		}
		bottomEncoderLastValue = bottomEncoderValue;
     9f0:	80 91 ee 03 	lds	r24, 0x03EE	; 0x8003ee <bottomEncoderValue>
     9f4:	80 93 ec 03 	sts	0x03EC, r24	; 0x8003ec <bottomEncoderLastValue>
		//menuSub=0;
	}
}
     9f8:	df 91       	pop	r29
     9fa:	cf 91       	pop	r28
     9fc:	08 95       	ret

000009fe <listenEnoderReset>:
uint8_t listenEnoderReset()
{
	uint8_t returnMe = 2;
	if(topEncoderValue!=topEncoderLastValue){
     9fe:	90 91 ef 03 	lds	r25, 0x03EF	; 0x8003ef <topEncoderValue>
     a02:	80 91 ed 03 	lds	r24, 0x03ED	; 0x8003ed <topEncoderLastValue>
     a06:	98 17       	cp	r25, r24
     a08:	21 f0       	breq	.+8      	; 0xa12 <listenEnoderReset+0x14>
	returnMe = topEncoderValue%2; //should be 0 or 1.
     a0a:	80 91 ef 03 	lds	r24, 0x03EF	; 0x8003ef <topEncoderValue>
     a0e:	81 70       	andi	r24, 0x01	; 1
     a10:	08 95       	ret
		//menuSub=0;
	}
}
uint8_t listenEnoderReset()
{
	uint8_t returnMe = 2;
     a12:	82 e0       	ldi	r24, 0x02	; 2
	if(topEncoderValue!=topEncoderLastValue){
	returnMe = topEncoderValue%2; //should be 0 or 1.
	}
	return returnMe;
}
     a14:	08 95       	ret

00000a16 <initArrays>:
#define F_CPU 16000000UL


//takes an array less than 20 and fills it with blank characters
void initArrays(unsigned char myArray[9][21], int stringNumber, char* myString)
{
     a16:	0f 93       	push	r16
     a18:	1f 93       	push	r17
     a1a:	cf 93       	push	r28
     a1c:	df 93       	push	r29
     a1e:	ec 01       	movw	r28, r24
	uint8_t lengthOfString = strlen(myString);
     a20:	fa 01       	movw	r30, r20
     a22:	01 90       	ld	r0, Z+
     a24:	00 20       	and	r0, r0
     a26:	e9 f7       	brne	.-6      	; 0xa22 <initArrays+0xc>
     a28:	31 97       	sbiw	r30, 0x01	; 1
     a2a:	8f 01       	movw	r16, r30
     a2c:	04 1b       	sub	r16, r20
     a2e:	15 0b       	sbc	r17, r21
     a30:	90 2f       	mov	r25, r16
	uint8_t charLeft = 20 - lengthOfString;
     a32:	84 e1       	ldi	r24, 0x14	; 20
     a34:	80 1b       	sub	r24, r16
	uint8_t currentIndex = 0;
	for(currentIndex; currentIndex<lengthOfString; currentIndex++)
     a36:	00 23       	and	r16, r16
     a38:	a9 f0       	breq	.+42     	; 0xa64 <initArrays+0x4e>
     a3a:	fa 01       	movw	r30, r20
     a3c:	25 e1       	ldi	r18, 0x15	; 21
     a3e:	26 9f       	mul	r18, r22
     a40:	d0 01       	movw	r26, r0
     a42:	27 9f       	mul	r18, r23
     a44:	b0 0d       	add	r27, r0
     a46:	11 24       	eor	r1, r1
     a48:	ac 0f       	add	r26, r28
     a4a:	bd 1f       	adc	r27, r29
     a4c:	2f ef       	ldi	r18, 0xFF	; 255
     a4e:	20 0f       	add	r18, r16
     a50:	30 e0       	ldi	r19, 0x00	; 0
     a52:	2f 5f       	subi	r18, 0xFF	; 255
     a54:	3f 4f       	sbci	r19, 0xFF	; 255
     a56:	42 0f       	add	r20, r18
     a58:	53 1f       	adc	r21, r19
	{
		myArray[stringNumber][currentIndex] = myString[currentIndex];
     a5a:	21 91       	ld	r18, Z+
     a5c:	2d 93       	st	X+, r18
void initArrays(unsigned char myArray[9][21], int stringNumber, char* myString)
{
	uint8_t lengthOfString = strlen(myString);
	uint8_t charLeft = 20 - lengthOfString;
	uint8_t currentIndex = 0;
	for(currentIndex; currentIndex<lengthOfString; currentIndex++)
     a5e:	e4 17       	cp	r30, r20
     a60:	f5 07       	cpc	r31, r21
     a62:	d9 f7       	brne	.-10     	; 0xa5a <initArrays+0x44>
	{
		myArray[stringNumber][currentIndex] = myString[currentIndex];
	}

	for(charLeft; charLeft>0; charLeft--)
     a64:	88 23       	and	r24, r24
     a66:	89 f0       	breq	.+34     	; 0xa8a <initArrays+0x74>
	{
		myArray[stringNumber][currentIndex] = ' ';
     a68:	45 e1       	ldi	r20, 0x15	; 21
     a6a:	46 9f       	mul	r20, r22
     a6c:	90 01       	movw	r18, r0
     a6e:	47 9f       	mul	r20, r23
     a70:	30 0d       	add	r19, r0
     a72:	11 24       	eor	r1, r1
     a74:	c2 0f       	add	r28, r18
     a76:	d3 1f       	adc	r29, r19
     a78:	08 0f       	add	r16, r24
     a7a:	80 e2       	ldi	r24, 0x20	; 32
     a7c:	fe 01       	movw	r30, r28
     a7e:	e9 0f       	add	r30, r25
     a80:	f1 1d       	adc	r31, r1
     a82:	80 83       	st	Z, r24
		currentIndex++;
     a84:	9f 5f       	subi	r25, 0xFF	; 255
	for(currentIndex; currentIndex<lengthOfString; currentIndex++)
	{
		myArray[stringNumber][currentIndex] = myString[currentIndex];
	}

	for(charLeft; charLeft>0; charLeft--)
     a86:	90 13       	cpse	r25, r16
     a88:	f9 cf       	rjmp	.-14     	; 0xa7c <initArrays+0x66>
	{
		myArray[stringNumber][currentIndex] = ' ';
		currentIndex++;
	}
}
     a8a:	df 91       	pop	r29
     a8c:	cf 91       	pop	r28
     a8e:	1f 91       	pop	r17
     a90:	0f 91       	pop	r16
     a92:	08 95       	ret

00000a94 <initBank>:

void initBank(Pattern *currentInitPattern)
{
     a94:	cf 93       	push	r28
     a96:	df 93       	push	r29
     a98:	ac 01       	movw	r20, r24
     a9a:	fc 01       	movw	r30, r24
     a9c:	e8 55       	subi	r30, 0x58	; 88
     a9e:	ff 4f       	sbci	r31, 0xFF	; 255
     aa0:	ec 01       	movw	r28, r24
     aa2:	c8 57       	subi	r28, 0x78	; 120
     aa4:	df 4f       	sbci	r29, 0xFF	; 255
     aa6:	dc 01       	movw	r26, r24
     aa8:	a5 51       	subi	r26, 0x15	; 21
     aaa:	bf 4f       	sbci	r27, 0xFF	; 255
	for(uint8_t i = 0; i<16; i++)
     aac:	90 e0       	ldi	r25, 0x00	; 0
  {
    currentInitPattern->trackSampleLSB[i] = i+1;
    currentInitPattern->trackPlayMode[i] = 0x01;
     aae:	31 e0       	ldi	r19, 0x01	; 1
	currentInitPattern->envelopeType[i] = 3;
     ab0:	23 e0       	ldi	r18, 0x03	; 3

void initBank(Pattern *currentInitPattern)
{
	for(uint8_t i = 0; i<16; i++)
  {
    currentInitPattern->trackSampleLSB[i] = i+1;
     ab2:	9f 5f       	subi	r25, 0xFF	; 255
     ab4:	91 93       	st	Z+, r25
    currentInitPattern->trackPlayMode[i] = 0x01;
     ab6:	39 93       	st	Y+, r19
	currentInitPattern->envelopeType[i] = 3;
     ab8:	2d 93       	st	X+, r18
	currentInitPattern->trackSustainTimeLSB[i] = 0;
     aba:	12 aa       	std	Z+50, r1	; 0x32
	currentInitPattern->trackSustainTimeMSB[i] = 0;
     abc:	12 a2       	std	Z+34, r1	; 0x22
	}
}

void initBank(Pattern *currentInitPattern)
{
	for(uint8_t i = 0; i<16; i++)
     abe:	90 31       	cpi	r25, 0x10	; 16
     ac0:	c1 f7       	brne	.-16     	; 0xab2 <initBank+0x1e>
     ac2:	fa 01       	movw	r30, r20
     ac4:	e5 50       	subi	r30, 0x05	; 5
     ac6:	ff 4f       	sbci	r31, 0xFF	; 255
     ac8:	9a 01       	movw	r18, r20
     aca:	25 58       	subi	r18, 0x85	; 133
     acc:	3e 4f       	sbci	r19, 0xFE	; 254
	currentInitPattern->trackSustainTimeMSB[i] = 0;
  }
  
  for(uint8_t j = 0; j<64; j++)
  {
	  currentInitPattern->trackSequence[j] = 0; //start with an empty sequence. 
     ace:	11 92       	st	Z+, r1
     ad0:	11 92       	st	Z+, r1
	currentInitPattern->envelopeType[i] = 3;
	currentInitPattern->trackSustainTimeLSB[i] = 0;
	currentInitPattern->trackSustainTimeMSB[i] = 0;
  }
  
  for(uint8_t j = 0; j<64; j++)
     ad2:	e2 17       	cp	r30, r18
     ad4:	f3 07       	cpc	r31, r19
     ad6:	d9 f7       	brne	.-10     	; 0xace <initBank+0x3a>
  {
	  currentInitPattern->trackSequence[j] = 0; //start with an empty sequence. 
 
  }
  //We need to take these and put them in global. 
  currentInitPattern->patternBPM = 120;
     ad8:	fa 01       	movw	r30, r20
     ada:	e8 53       	subi	r30, 0x38	; 56
     adc:	ff 4f       	sbci	r31, 0xFF	; 255
     ade:	88 e7       	ldi	r24, 0x78	; 120
     ae0:	90 e0       	ldi	r25, 0x00	; 0
     ae2:	91 83       	std	Z+1, r25	; 0x01
     ae4:	80 83       	st	Z, r24
  currentInitPattern->numSteps = 16;
     ae6:	32 96       	adiw	r30, 0x02	; 2
     ae8:	80 e1       	ldi	r24, 0x10	; 16
     aea:	80 83       	st	Z, r24
}
     aec:	df 91       	pop	r29
     aee:	cf 91       	pop	r28
     af0:	08 95       	ret

00000af2 <initGlobals>:

void initGlobals(Globals *currentGlobals, uint8_t factoryReset)
{
     af2:	fc 01       	movw	r30, r24
		currentGlobals->currentTrigButtons=0; //current state of Trig buttons.
     af4:	11 82       	std	Z+1, r1	; 0x01
     af6:	10 82       	st	Z, r1
		currentGlobals->currentGPButtons=0; //current state of GP buttons
     af8:	12 82       	std	Z+2, r1	; 0x02
		currentGlobals->currentPatternNumber=0; //current pattern, between 1 and 256
     afa:	13 82       	std	Z+3, r1	; 0x03
		currentGlobals->currentStep=0; // current step in the sequencer
     afc:	14 82       	std	Z+4, r1	; 0x04
		currentGlobals->currentTrack=0; //current track being edited
     afe:	15 82       	std	Z+5, r1	; 0x05
		currentGlobals->menuState=0; //where the menu is currently
     b00:	16 82       	std	Z+6, r1	; 0x06
		currentGlobals->playState=0; //whether the sequencer is playing, stopped, or paused.
     b02:	17 82       	std	Z+7, r1	; 0x07
		currentGlobals->factoryReset=0; //we may not need this in this struct, but good to have for now.
     b04:	10 86       	std	Z+8, r1	; 0x08
		currentGlobals->buttonSwitchFlag=0; // could be rolled into value bits.
     b06:	11 86       	std	Z+9, r1	; 0x09
		currentGlobals->valueChangeFlag=0; //bit 0 -> changes in encoders, bit 1-> changes in buttons, bit2 -> changes in knobs
     b08:	12 86       	std	Z+10, r1	; 0x0a
		currentGlobals->knobStatus=0; //top 4 bits: knob type, bottom 4 bits: knob location.
     b0a:	13 86       	std	Z+11, r1	; 0x0b
		currentGlobals->releaseCounter = 0;
     b0c:	dc 01       	movw	r26, r24
     b0e:	af 55       	subi	r26, 0x5F	; 95
     b10:	bf 4f       	sbci	r27, 0xFF	; 255
     b12:	1d 92       	st	X+, r1
     b14:	1d 92       	st	X+, r1
     b16:	1d 92       	st	X+, r1
     b18:	1c 92       	st	X, r1
     b1a:	13 97       	sbiw	r26, 0x03	; 3
		currentGlobals->lastGlobalTimer = 0;
     b1c:	a8 5b       	subi	r26, 0xB8	; 184
     b1e:	bf 4f       	sbci	r27, 0xFF	; 255
     b20:	1d 92       	st	X+, r1
     b22:	1d 92       	st	X+, r1
     b24:	1d 92       	st	X+, r1
     b26:	1c 92       	st	X, r1
     b28:	13 97       	sbiw	r26, 0x03	; 3
		currentGlobals->clockCounter = 0;
     b2a:	12 97       	sbiw	r26, 0x02	; 2
     b2c:	1d 92       	st	X+, r1
     b2e:	1c 92       	st	X, r1
		if(factoryReset==1)
     b30:	61 30       	cpi	r22, 0x01	; 1
     b32:	09 f5       	brne	.+66     	; 0xb76 <initGlobals+0x84>
		{
			currentGlobals->midiChannel=0;
     b34:	14 86       	std	Z+12, r1	; 0x0c
			currentGlobals->midiTrackNote[0] = 0x24;
     b36:	84 e2       	ldi	r24, 0x24	; 36
     b38:	85 87       	std	Z+13, r24	; 0x0d
			currentGlobals->midiTrackNote[1] = 0x25;
     b3a:	85 e2       	ldi	r24, 0x25	; 37
     b3c:	86 87       	std	Z+14, r24	; 0x0e
			currentGlobals->midiTrackNote[2] = 0x26;
     b3e:	86 e2       	ldi	r24, 0x26	; 38
     b40:	87 87       	std	Z+15, r24	; 0x0f
			currentGlobals->midiTrackNote[3] = 0x27;
     b42:	87 e2       	ldi	r24, 0x27	; 39
     b44:	80 8b       	std	Z+16, r24	; 0x10
			currentGlobals->midiTrackNote[4] = 0x28;
     b46:	88 e2       	ldi	r24, 0x28	; 40
     b48:	81 8b       	std	Z+17, r24	; 0x11
			currentGlobals->midiTrackNote[5] = 0x29;
     b4a:	89 e2       	ldi	r24, 0x29	; 41
     b4c:	82 8b       	std	Z+18, r24	; 0x12
			currentGlobals->midiTrackNote[6] = 0x2a;
     b4e:	8a e2       	ldi	r24, 0x2A	; 42
     b50:	83 8b       	std	Z+19, r24	; 0x13
			currentGlobals->midiTrackNote[7] = 0x2b;
     b52:	8b e2       	ldi	r24, 0x2B	; 43
     b54:	84 8b       	std	Z+20, r24	; 0x14
			currentGlobals->midiTrackNote[8] = 0x2c;
     b56:	8c e2       	ldi	r24, 0x2C	; 44
     b58:	85 8b       	std	Z+21, r24	; 0x15
			currentGlobals->midiTrackNote[9] = 0x2d;
     b5a:	8d e2       	ldi	r24, 0x2D	; 45
     b5c:	86 8b       	std	Z+22, r24	; 0x16
			currentGlobals->midiTrackNote[10] = 0x2e;
     b5e:	8e e2       	ldi	r24, 0x2E	; 46
     b60:	87 8b       	std	Z+23, r24	; 0x17
			currentGlobals->midiTrackNote[11] = 0x2f;
     b62:	8f e2       	ldi	r24, 0x2F	; 47
     b64:	80 8f       	std	Z+24, r24	; 0x18
			currentGlobals->midiTrackNote[12] = 0x30;
     b66:	80 e3       	ldi	r24, 0x30	; 48
     b68:	81 8f       	std	Z+25, r24	; 0x19
			currentGlobals->midiTrackNote[13] = 0x31;
     b6a:	81 e3       	ldi	r24, 0x31	; 49
     b6c:	82 8f       	std	Z+26, r24	; 0x1a
			currentGlobals->midiTrackNote[14] = 0x32;
     b6e:	82 e3       	ldi	r24, 0x32	; 50
     b70:	83 8f       	std	Z+27, r24	; 0x1b
			currentGlobals->midiTrackNote[15] = 0x33;
     b72:	83 e3       	ldi	r24, 0x33	; 51
     b74:	84 8f       	std	Z+28, r24	; 0x1c
     b76:	08 95       	ret

00000b78 <initTimer>:
void initTimer() //we only need to use 1 timer, and Use ISRs for that. 
{
	//we're using timer 2, because it's the highest priority 8 bit timer interupt. 
	
		//here we need to setup our timer interrupt
		TCCR2A = (1 << WGM21); //set to clear on correct compare
     b78:	82 e0       	ldi	r24, 0x02	; 2
     b7a:	80 93 b0 00 	sts	0x00B0, r24	; 0x8000b0 <__TEXT_REGION_LENGTH__+0x7000b0>
		TCCR2B = (1 << CS21) | (1 << CS20); // set pre-scaler to 64
     b7e:	93 e0       	ldi	r25, 0x03	; 3
     b80:	90 93 b1 00 	sts	0x00B1, r25	; 0x8000b1 <__TEXT_REGION_LENGTH__+0x7000b1>
		OCR2A = 50; // every 25 ticks will be 0.0001 seconds at this pre scale.
     b84:	92 e3       	ldi	r25, 0x32	; 50
     b86:	90 93 b3 00 	sts	0x00B3, r25	; 0x8000b3 <__TEXT_REGION_LENGTH__+0x7000b3>
		TIMSK2 = (1 << OCIE2A); // Enable OCR0A compare interrupt
     b8a:	80 93 70 00 	sts	0x0070, r24	; 0x800070 <__TEXT_REGION_LENGTH__+0x700070>
     b8e:	08 95       	ret

00000b90 <updateTimers>:
		//interrupts should now be good to go.
}
void updateTimers(Globals *currentGlobals, uint32_t currentTime)
{
     b90:	8f 92       	push	r8
     b92:	9f 92       	push	r9
     b94:	af 92       	push	r10
     b96:	bf 92       	push	r11
     b98:	cf 92       	push	r12
     b9a:	df 92       	push	r13
     b9c:	ef 92       	push	r14
     b9e:	ff 92       	push	r15
     ba0:	0f 93       	push	r16
     ba2:	1f 93       	push	r17
	uint8_t change = 0;
	if(change=currentTime-(currentGlobals->lastGlobalTimer))
     ba4:	fc 01       	movw	r30, r24
     ba6:	e7 51       	subi	r30, 0x17	; 23
     ba8:	ff 4f       	sbci	r31, 0xFF	; 255
     baa:	20 81       	ld	r18, Z
     bac:	84 2e       	mov	r8, r20
     bae:	82 1a       	sub	r8, r18
     bb0:	28 2d       	mov	r18, r8
     bb2:	09 f1       	breq	.+66     	; 0xbf6 <updateTimers+0x66>
	{
		currentGlobals->clockCounter = (currentGlobals->clockCounter)+change;
     bb4:	dc 01       	movw	r26, r24
     bb6:	a9 51       	subi	r26, 0x19	; 25
     bb8:	bf 4f       	sbci	r27, 0xFF	; 255
     bba:	ed 91       	ld	r30, X+
     bbc:	fc 91       	ld	r31, X
     bbe:	11 97       	sbiw	r26, 0x01	; 1
     bc0:	e8 0d       	add	r30, r8
     bc2:	f1 1d       	adc	r31, r1
     bc4:	ed 93       	st	X+, r30
     bc6:	fc 93       	st	X, r31
		currentGlobals->releaseCounter = (currentGlobals->releaseCounter)+change;
     bc8:	fc 01       	movw	r30, r24
     bca:	ef 55       	subi	r30, 0x5F	; 95
     bcc:	ff 4f       	sbci	r31, 0xFF	; 255
     bce:	c0 80       	ld	r12, Z
     bd0:	d1 80       	ldd	r13, Z+1	; 0x01
     bd2:	e2 80       	ldd	r14, Z+2	; 0x02
     bd4:	f3 80       	ldd	r15, Z+3	; 0x03
     bd6:	46 01       	movw	r8, r12
     bd8:	57 01       	movw	r10, r14
     bda:	82 0e       	add	r8, r18
     bdc:	91 1c       	adc	r9, r1
     bde:	a1 1c       	adc	r10, r1
     be0:	b1 1c       	adc	r11, r1
     be2:	80 82       	st	Z, r8
     be4:	91 82       	std	Z+1, r9	; 0x01
     be6:	a2 82       	std	Z+2, r10	; 0x02
     be8:	b3 82       	std	Z+3, r11	; 0x03
		currentGlobals->lastGlobalTimer = currentTime;
     bea:	e8 5b       	subi	r30, 0xB8	; 184
     bec:	ff 4f       	sbci	r31, 0xFF	; 255
     bee:	40 83       	st	Z, r20
     bf0:	51 83       	std	Z+1, r21	; 0x01
     bf2:	62 83       	std	Z+2, r22	; 0x02
     bf4:	73 83       	std	Z+3, r23	; 0x03
	}
	
}
     bf6:	1f 91       	pop	r17
     bf8:	0f 91       	pop	r16
     bfa:	ff 90       	pop	r15
     bfc:	ef 90       	pop	r14
     bfe:	df 90       	pop	r13
     c00:	cf 90       	pop	r12
     c02:	bf 90       	pop	r11
     c04:	af 90       	pop	r10
     c06:	9f 90       	pop	r9
     c08:	8f 90       	pop	r8
     c0a:	08 95       	ret

00000c0c <factoryResetCheck>:
void factoryResetCheck(uint8_t *factoryReset, Pattern *currentPattern, Globals *currentGlobals)
{
     c0c:	af 92       	push	r10
     c0e:	bf 92       	push	r11
     c10:	cf 92       	push	r12
     c12:	df 92       	push	r13
     c14:	ef 92       	push	r14
     c16:	ff 92       	push	r15
     c18:	0f 93       	push	r16
     c1a:	1f 93       	push	r17
     c1c:	cf 93       	push	r28
     c1e:	df 93       	push	r29
     c20:	cd b7       	in	r28, 0x3d	; 61
     c22:	de b7       	in	r29, 0x3e	; 62
     c24:	65 97       	sbiw	r28, 0x15	; 21
     c26:	0f b6       	in	r0, 0x3f	; 63
     c28:	f8 94       	cli
     c2a:	de bf       	out	0x3e, r29	; 62
     c2c:	0f be       	out	0x3f, r0	; 63
     c2e:	cd bf       	out	0x3d, r28	; 61
	if(((~PINA)&0x01)&&((~PINL)&0x01))
     c30:	00 99       	sbic	0x00, 0	; 0
     c32:	6f c0       	rjmp	.+222    	; 0xd12 <factoryResetCheck+0x106>
     c34:	20 91 09 01 	lds	r18, 0x0109	; 0x800109 <__TEXT_REGION_LENGTH__+0x700109>
     c38:	20 fd       	sbrc	r18, 0
     c3a:	6b c0       	rjmp	.+214    	; 0xd12 <factoryResetCheck+0x106>
     c3c:	8a 01       	movw	r16, r20
     c3e:	6b 01       	movw	r12, r22
     c40:	7c 01       	movw	r14, r24
	{//if both buttons are pressed on startup, wait 4 seconds
		outputS("FactoryReset?       ",0);
     c42:	60 e0       	ldi	r22, 0x00	; 0
     c44:	70 e0       	ldi	r23, 0x00	; 0
     c46:	82 e6       	ldi	r24, 0x62	; 98
     c48:	92 e0       	ldi	r25, 0x02	; 2
     c4a:	0e 94 b4 13 	call	0x2768	; 0x2768 <outputS>
	#else
		//round up by default
		__ticks_dc = (uint32_t)(ceil(fabs(__tmp)));
	#endif

	__builtin_avr_delay_cycles(__ticks_dc);
     c4e:	2f ef       	ldi	r18, 0xFF	; 255
     c50:	84 e3       	ldi	r24, 0x34	; 52
     c52:	9c e0       	ldi	r25, 0x0C	; 12
     c54:	21 50       	subi	r18, 0x01	; 1
     c56:	80 40       	sbci	r24, 0x00	; 0
     c58:	90 40       	sbci	r25, 0x00	; 0
     c5a:	e1 f7       	brne	.-8      	; 0xc54 <factoryResetCheck+0x48>
     c5c:	00 c0       	rjmp	.+0      	; 0xc5e <factoryResetCheck+0x52>
     c5e:	00 00       	nop
		_delay_ms(4000);

		if(((~PINA)&0x01)&&((~PINL)&0x01))
     c60:	00 99       	sbic	0x00, 0	; 0
     c62:	57 c0       	rjmp	.+174    	; 0xd12 <factoryResetCheck+0x106>
     c64:	80 91 09 01 	lds	r24, 0x0109	; 0x800109 <__TEXT_REGION_LENGTH__+0x700109>
     c68:	80 fd       	sbrc	r24, 0
     c6a:	53 c0       	rjmp	.+166    	; 0xd12 <factoryResetCheck+0x106>
		{
			
			uint8_t choice = 2;
			uint8_t select = 0;
			char resetArray[21] = "yes?        no?     ";
     c6c:	85 e1       	ldi	r24, 0x15	; 21
     c6e:	ec e8       	ldi	r30, 0x8C	; 140
     c70:	f2 e0       	ldi	r31, 0x02	; 2
     c72:	de 01       	movw	r26, r28
     c74:	11 96       	adiw	r26, 0x01	; 1
     c76:	01 90       	ld	r0, Z+
     c78:	0d 92       	st	X+, r0
     c7a:	8a 95       	dec	r24
     c7c:	e1 f7       	brne	.-8      	; 0xc76 <factoryResetCheck+0x6a>
			while(choice==2){
				outputS(resetArray,1);
				select = listenEnoderReset();
				if(select==0)
				{
					resetArray[4] = 8;
     c7e:	68 94       	set
     c80:	aa 24       	eor	r10, r10
     c82:	a3 f8       	bld	r10, 3
					resetArray[15] = ' ';
     c84:	68 94       	set
     c86:	bb 24       	eor	r11, r11
     c88:	b5 f8       	bld	r11, 5
			
			uint8_t choice = 2;
			uint8_t select = 0;
			char resetArray[21] = "yes?        no?     ";
			while(choice==2){
				outputS(resetArray,1);
     c8a:	61 e0       	ldi	r22, 0x01	; 1
     c8c:	70 e0       	ldi	r23, 0x00	; 0
     c8e:	ce 01       	movw	r24, r28
     c90:	01 96       	adiw	r24, 0x01	; 1
     c92:	0e 94 b4 13 	call	0x2768	; 0x2768 <outputS>
				select = listenEnoderReset();
     c96:	b3 de       	rcall	.-666    	; 0x9fe <listenEnoderReset>
				if(select==0)
     c98:	81 11       	cpse	r24, r1
     c9a:	05 c0       	rjmp	.+10     	; 0xca6 <factoryResetCheck+0x9a>
				{
					resetArray[4] = 8;
     c9c:	ad 82       	std	Y+5, r10	; 0x05
					resetArray[15] = ' ';
     c9e:	b8 8a       	std	Y+16, r11	; 0x10
				if(select==1)
				{
					resetArray[4] = ' ';
					resetArray[15] = 8;
				}
				if((~PINB)&(1<<5))
     ca0:	1d 99       	sbic	0x03, 5	; 3
     ca2:	f3 cf       	rjmp	.-26     	; 0xc8a <factoryResetCheck+0x7e>
     ca4:	0b c0       	rjmp	.+22     	; 0xcbc <factoryResetCheck+0xb0>
				if(select==0)
				{
					resetArray[4] = 8;
					resetArray[15] = ' ';
				}
				if(select==1)
     ca6:	81 30       	cpi	r24, 0x01	; 1
     ca8:	29 f4       	brne	.+10     	; 0xcb4 <factoryResetCheck+0xa8>
				{
					resetArray[4] = ' ';
     caa:	bd 82       	std	Y+5, r11	; 0x05
					resetArray[15] = 8;
     cac:	a8 8a       	std	Y+16, r10	; 0x10
				}
				if((~PINB)&(1<<5))
     cae:	1d 99       	sbic	0x03, 5	; 3
     cb0:	ec cf       	rjmp	.-40     	; 0xc8a <factoryResetCheck+0x7e>
     cb2:	2f c0       	rjmp	.+94     	; 0xd12 <factoryResetCheck+0x106>
     cb4:	1d 99       	sbic	0x03, 5	; 3
     cb6:	e9 cf       	rjmp	.-46     	; 0xc8a <factoryResetCheck+0x7e>
		{
			
			uint8_t choice = 2;
			uint8_t select = 0;
			char resetArray[21] = "yes?        no?     ";
			while(choice==2){
     cb8:	82 30       	cpi	r24, 0x02	; 2
     cba:	39 f3       	breq	.-50     	; 0xc8a <factoryResetCheck+0x7e>
				{
					choice = select; //break out of while loop, and reset, or not.
				}
			}
			
			if(select==0) //yes was selected.
     cbc:	81 11       	cpse	r24, r1
     cbe:	29 c0       	rjmp	.+82     	; 0xd12 <factoryResetCheck+0x106>
			{
				outputS("Progress:           ",2);
     cc0:	62 e0       	ldi	r22, 0x02	; 2
     cc2:	70 e0       	ldi	r23, 0x00	; 0
     cc4:	87 e7       	ldi	r24, 0x77	; 119
     cc6:	92 e0       	ldi	r25, 0x02	; 2
     cc8:	0e 94 b4 13 	call	0x2768	; 0x2768 <outputS>
				(*factoryReset)=1;
     ccc:	81 e0       	ldi	r24, 0x01	; 1
     cce:	f7 01       	movw	r30, r14
     cd0:	80 83       	st	Z, r24
				initGlobals(currentGlobals, *factoryReset);
     cd2:	61 e0       	ldi	r22, 0x01	; 1
     cd4:	c8 01       	movw	r24, r16
     cd6:	0d df       	rcall	.-486    	; 0xaf2 <initGlobals>
				factoryResetEeprom(*currentPattern);
     cd8:	8d b7       	in	r24, 0x3d	; 61
     cda:	9e b7       	in	r25, 0x3e	; 62
     cdc:	8b 57       	subi	r24, 0x7B	; 123
     cde:	91 40       	sbci	r25, 0x01	; 1
     ce0:	0f b6       	in	r0, 0x3f	; 63
     ce2:	f8 94       	cli
     ce4:	9e bf       	out	0x3e, r25	; 62
     ce6:	0f be       	out	0x3f, r0	; 63
     ce8:	8d bf       	out	0x3d, r24	; 61
     cea:	ad b7       	in	r26, 0x3d	; 61
     cec:	be b7       	in	r27, 0x3e	; 62
     cee:	11 96       	adiw	r26, 0x01	; 1
     cf0:	8b e7       	ldi	r24, 0x7B	; 123
     cf2:	91 e0       	ldi	r25, 0x01	; 1
     cf4:	f6 01       	movw	r30, r12
     cf6:	01 90       	ld	r0, Z+
     cf8:	0d 92       	st	X+, r0
     cfa:	01 97       	sbiw	r24, 0x01	; 1
     cfc:	e1 f7       	brne	.-8      	; 0xcf6 <factoryResetCheck+0xea>
     cfe:	0e 94 5d 1d 	call	0x3aba	; 0x3aba <factoryResetEeprom>
				globalWrite(currentGlobals);
     d02:	0f b6       	in	r0, 0x3f	; 63
     d04:	f8 94       	cli
     d06:	de bf       	out	0x3e, r29	; 62
     d08:	0f be       	out	0x3f, r0	; 63
     d0a:	cd bf       	out	0x3d, r28	; 61
     d0c:	c8 01       	movw	r24, r16
     d0e:	0e 94 bb 1d 	call	0x3b76	; 0x3b76 <globalWrite>
		}
		
	}
	
	
     d12:	65 96       	adiw	r28, 0x15	; 21
     d14:	0f b6       	in	r0, 0x3f	; 63
     d16:	f8 94       	cli
     d18:	de bf       	out	0x3e, r29	; 62
     d1a:	0f be       	out	0x3f, r0	; 63
     d1c:	cd bf       	out	0x3d, r28	; 61
     d1e:	df 91       	pop	r29
     d20:	cf 91       	pop	r28
     d22:	1f 91       	pop	r17
     d24:	0f 91       	pop	r16
     d26:	ff 90       	pop	r15
     d28:	ef 90       	pop	r14
     d2a:	df 90       	pop	r13
     d2c:	cf 90       	pop	r12
     d2e:	bf 90       	pop	r11
     d30:	af 90       	pop	r10
     d32:	08 95       	ret

00000d34 <startADCConversion>:



uint8_t startADCConversion()
{
	ADCSRA |= (1 << ADSC); //this moves the read instruction bit to the ADC Register.
     d34:	ea e7       	ldi	r30, 0x7A	; 122
     d36:	f0 e0       	ldi	r31, 0x00	; 0
     d38:	80 81       	ld	r24, Z
     d3a:	80 64       	ori	r24, 0x40	; 64
     d3c:	80 83       	st	Z, r24
	while (ADCSRA & (1 << ADSC));
     d3e:	80 81       	ld	r24, Z
     d40:	86 fd       	sbrc	r24, 6
     d42:	fd cf       	rjmp	.-6      	; 0xd3e <startADCConversion+0xa>
	return ADCH; //this is the top 8 bits of the 10 bit ADC Read.	
     d44:	80 91 79 00 	lds	r24, 0x0079	; 0x800079 <__TEXT_REGION_LENGTH__+0x700079>
}
     d48:	08 95       	ret

00000d4a <initADC>:

void initADC()
{
	DDRF |= 0B00000111; //init pins F2, 1, and 0 as select pins on the external mux.
     d4a:	80 b3       	in	r24, 0x10	; 16
     d4c:	87 60       	ori	r24, 0x07	; 7
     d4e:	80 bb       	out	0x10, r24	; 16
	
	ADMUX = (1 << ADLAR);//we're using the AREF pin to reduce analog noise, and only grabbing 8 bits from the ADC
     d50:	80 e2       	ldi	r24, 0x20	; 32
     d52:	80 93 7c 00 	sts	0x007C, r24	; 0x80007c <__TEXT_REGION_LENGTH__+0x70007c>
	ADCSRA = (1 <<  ADEN) | (1 <<ADPS2) | (1 << ADPS1) | (1 << ADPS0);
     d56:	87 e8       	ldi	r24, 0x87	; 135
     d58:	80 93 7a 00 	sts	0x007A, r24	; 0x80007a <__TEXT_REGION_LENGTH__+0x70007a>
	ADCSRB = (1 << MUX5);
     d5c:	88 e0       	ldi	r24, 0x08	; 8
     d5e:	80 93 7b 00 	sts	0x007B, r24	; 0x80007b <__TEXT_REGION_LENGTH__+0x70007b>
	DIDR0 = 0xff; // we should set this register to all 1s, so there is no digital input triggering.
     d62:	8f ef       	ldi	r24, 0xFF	; 255
     d64:	80 93 7e 00 	sts	0x007E, r24	; 0x80007e <__TEXT_REGION_LENGTH__+0x70007e>
	DIDR2 = 0xff;
     d68:	80 93 7d 00 	sts	0x007D, r24	; 0x80007d <__TEXT_REGION_LENGTH__+0x70007d>
	knobBufferCounter = 0;
     d6c:	10 92 ff 03 	sts	0x03FF, r1	; 0x8003ff <knobBufferCounter>
	startADCConversion();
     d70:	e1 cf       	rjmp	.-62     	; 0xd34 <startADCConversion>
     d72:	08 95       	ret

00000d74 <selectKnob>:
}

void selectKnob(uint8_t select)
{ 
     d74:	cf 93       	push	r28
	select = select%44; //accounts for overflows, may be unnecessary
     d76:	98 2f       	mov	r25, r24
     d78:	96 95       	lsr	r25
     d7a:	96 95       	lsr	r25
     d7c:	2f e2       	ldi	r18, 0x2F	; 47
     d7e:	92 9f       	mul	r25, r18
     d80:	91 2d       	mov	r25, r1
     d82:	11 24       	eor	r1, r1
     d84:	96 95       	lsr	r25
     d86:	2c e2       	ldi	r18, 0x2C	; 44
     d88:	92 9f       	mul	r25, r18
     d8a:	80 19       	sub	r24, r0
     d8c:	11 24       	eor	r1, r1
     d8e:	98 2f       	mov	r25, r24
	if(select<40)
     d90:	88 32       	cpi	r24, 0x28	; 40
     d92:	70 f4       	brcc	.+28     	; 0xdb0 <selectKnob+0x3c>
	{
		ADCSRB = (1 << MUX5);
     d94:	88 e0       	ldi	r24, 0x08	; 8
     d96:	80 93 7b 00 	sts	0x007B, r24	; 0x80007b <__TEXT_REGION_LENGTH__+0x70007b>
		uint8_t muxSelect = select%8; //this should produce a number between 1 and 7.
     d9a:	c9 2f       	mov	r28, r25
     d9c:	c7 70       	andi	r28, 0x07	; 7
		//uint8_t tempMuxSelect = muxSelect;

	//we need to set the internal multiplxer
		uint8_t internalMuxSelect = select/8;
		
		ADMUX = internalMuxSelect|(1 << ADLAR);   
     d9e:	96 95       	lsr	r25
     da0:	96 95       	lsr	r25
     da2:	96 95       	lsr	r25
     da4:	90 62       	ori	r25, 0x20	; 32
     da6:	90 93 7c 00 	sts	0x007C, r25	; 0x80007c <__TEXT_REGION_LENGTH__+0x70007c>
		startADCConversion();//this should throw away our first read after the mux changover.
     daa:	c4 df       	rcall	.-120    	; 0xd34 <startADCConversion>
		

		//then the external multiplexer
		PORTF = muxSelect;
     dac:	c1 bb       	out	0x11, r28	; 17
     dae:	20 c0       	rjmp	.+64     	; 0xdf0 <selectKnob+0x7c>
	
	}else
	{ //we only have to change the ADC Register, since these knobs are wired directly into our microcontroller.
		switch (select){
     db0:	89 32       	cpi	r24, 0x29	; 41
     db2:	71 f0       	breq	.+28     	; 0xdd0 <selectKnob+0x5c>
     db4:	18 f4       	brcc	.+6      	; 0xdbc <selectKnob+0x48>
     db6:	88 32       	cpi	r24, 0x28	; 40
     db8:	31 f0       	breq	.+12     	; 0xdc6 <selectKnob+0x52>
     dba:	1a c0       	rjmp	.+52     	; 0xdf0 <selectKnob+0x7c>
     dbc:	8a 32       	cpi	r24, 0x2A	; 42
     dbe:	69 f0       	breq	.+26     	; 0xdda <selectKnob+0x66>
     dc0:	8b 32       	cpi	r24, 0x2B	; 43
     dc2:	81 f0       	breq	.+32     	; 0xde4 <selectKnob+0x70>
     dc4:	15 c0       	rjmp	.+42     	; 0xdf0 <selectKnob+0x7c>
		case 40:
		ADMUX = 5|(1 << ADLAR);
     dc6:	85 e2       	ldi	r24, 0x25	; 37
     dc8:	80 93 7c 00 	sts	0x007C, r24	; 0x80007c <__TEXT_REGION_LENGTH__+0x70007c>
		startADCConversion();
     dcc:	b3 df       	rcall	.-154    	; 0xd34 <startADCConversion>
		break;
     dce:	10 c0       	rjmp	.+32     	; 0xdf0 <selectKnob+0x7c>
		
		case 41:
		ADMUX = 6|(1 << ADLAR);
     dd0:	86 e2       	ldi	r24, 0x26	; 38
     dd2:	80 93 7c 00 	sts	0x007C, r24	; 0x80007c <__TEXT_REGION_LENGTH__+0x70007c>
		startADCConversion();
     dd6:	ae df       	rcall	.-164    	; 0xd34 <startADCConversion>
		break;
     dd8:	0b c0       	rjmp	.+22     	; 0xdf0 <selectKnob+0x7c>
		
		case 42:
		ADMUX = 7|(1 << ADLAR);
     dda:	87 e2       	ldi	r24, 0x27	; 39
     ddc:	80 93 7c 00 	sts	0x007C, r24	; 0x80007c <__TEXT_REGION_LENGTH__+0x70007c>
		startADCConversion();
     de0:	a9 df       	rcall	.-174    	; 0xd34 <startADCConversion>
		break;
     de2:	06 c0       	rjmp	.+12     	; 0xdf0 <selectKnob+0x7c>
		
		case 43:
		//remember, this knob is in port A0.
		ADMUX = 0|(1 << ADLAR);
     de4:	80 e2       	ldi	r24, 0x20	; 32
     de6:	80 93 7c 00 	sts	0x007C, r24	; 0x80007c <__TEXT_REGION_LENGTH__+0x70007c>
		ADCSRB = (0 << MUX5); 
     dea:	10 92 7b 00 	sts	0x007B, r1	; 0x80007b <__TEXT_REGION_LENGTH__+0x70007b>
		startADCConversion();
     dee:	a2 df       	rcall	.-188    	; 0xd34 <startADCConversion>
		break;
		}
	
	}
	
}
     df0:	cf 91       	pop	r28
     df2:	08 95       	ret

00000df4 <updateKnob>:

void updateKnob(uint8_t select, Globals *currentGlobals)
{
     df4:	0f 93       	push	r16
     df6:	1f 93       	push	r17
     df8:	cf 93       	push	r28
     dfa:	df 93       	push	r29
     dfc:	8b 01       	movw	r16, r22
	//IIR filter.
	currentGlobals->rawKnobBuffer[select] = startADCConversion(); //raw reads
     dfe:	c8 2f       	mov	r28, r24
     e00:	d0 e0       	ldi	r29, 0x00	; 0
     e02:	98 df       	rcall	.-208    	; 0xd34 <startADCConversion>
     e04:	f8 01       	movw	r30, r16
     e06:	ec 0f       	add	r30, r28
     e08:	fd 1f       	adc	r31, r29
     e0a:	85 8f       	std	Z+29, r24	; 0x1d
		currentGlobals->filteredKnobBuffer[select] = 
		currentGlobals->filteredKnobBuffer[select] + ((currentGlobals->rawKnobBuffer[select]-currentGlobals->filteredKnobBuffer[select])/2); //reads with math done to them
     e0c:	e7 5b       	subi	r30, 0xB7	; 183
     e0e:	ff 4f       	sbci	r31, 0xFF	; 255
     e10:	40 81       	ld	r20, Z

void updateKnob(uint8_t select, Globals *currentGlobals)
{
	//IIR filter.
	currentGlobals->rawKnobBuffer[select] = startADCConversion(); //raw reads
		currentGlobals->filteredKnobBuffer[select] = 
     e12:	90 e0       	ldi	r25, 0x00	; 0
     e14:	84 1b       	sub	r24, r20
     e16:	91 09       	sbc	r25, r1
     e18:	9c 01       	movw	r18, r24
     e1a:	12 f4       	brpl	.+4      	; 0xe20 <updateKnob+0x2c>
     e1c:	2f 5f       	subi	r18, 0xFF	; 255
     e1e:	3f 4f       	sbci	r19, 0xFF	; 255
     e20:	35 95       	asr	r19
     e22:	27 95       	ror	r18
     e24:	24 0f       	add	r18, r20
     e26:	20 83       	st	Z, r18
		currentGlobals->filteredKnobBuffer[select] + ((currentGlobals->rawKnobBuffer[select]-currentGlobals->filteredKnobBuffer[select])/2); //reads with math done to them
}
     e28:	df 91       	pop	r29
     e2a:	cf 91       	pop	r28
     e2c:	1f 91       	pop	r17
     e2e:	0f 91       	pop	r16
     e30:	08 95       	ret

00000e32 <initializeKnob>:
void initializeKnob(Globals *currentGlobals)
{
     e32:	fc 01       	movw	r30, r24
     e34:	e7 5b       	subi	r30, 0xB7	; 183
     e36:	ff 4f       	sbci	r31, 0xFF	; 255
     e38:	9c 01       	movw	r18, r24
     e3a:	2b 58       	subi	r18, 0x8B	; 139
     e3c:	3f 4f       	sbci	r19, 0xFF	; 255
	//we do this after we fill the knob buffer at startup. 
	for(int i = 0; i<44; i++){
	currentGlobals->lastFilteredKnobBuffer[i] = currentGlobals->filteredKnobBuffer[i];
     e3e:	91 91       	ld	r25, Z+
     e40:	93 a7       	std	Z+43, r25	; 0x2b
		currentGlobals->filteredKnobBuffer[select] + ((currentGlobals->rawKnobBuffer[select]-currentGlobals->filteredKnobBuffer[select])/2); //reads with math done to them
}
void initializeKnob(Globals *currentGlobals)
{
	//we do this after we fill the knob buffer at startup. 
	for(int i = 0; i<44; i++){
     e42:	e2 17       	cp	r30, r18
     e44:	f3 07       	cpc	r31, r19
     e46:	d9 f7       	brne	.-10     	; 0xe3e <initializeKnob+0xc>
	currentGlobals->lastFilteredKnobBuffer[i] = currentGlobals->filteredKnobBuffer[i];
	}
}
     e48:	08 95       	ret

00000e4a <interperetKnob>:

void interperetKnob(uint8_t select, Pattern *currentKnobPattern, Globals *currentGlobals)
{//this function will compare outputs, and write to our struct.
     e4a:	4f 92       	push	r4
     e4c:	5f 92       	push	r5
     e4e:	6f 92       	push	r6
     e50:	7f 92       	push	r7
     e52:	af 92       	push	r10
     e54:	bf 92       	push	r11
     e56:	cf 92       	push	r12
     e58:	df 92       	push	r13
     e5a:	ef 92       	push	r14
     e5c:	ff 92       	push	r15
     e5e:	0f 93       	push	r16
     e60:	1f 93       	push	r17
     e62:	cf 93       	push	r28
     e64:	df 93       	push	r29
	select = select%44;
     e66:	98 2f       	mov	r25, r24
     e68:	96 95       	lsr	r25
     e6a:	96 95       	lsr	r25
     e6c:	2f e2       	ldi	r18, 0x2F	; 47
     e6e:	92 9f       	mul	r25, r18
     e70:	91 2d       	mov	r25, r1
     e72:	11 24       	eor	r1, r1
     e74:	96 95       	lsr	r25
     e76:	2c e2       	ldi	r18, 0x2C	; 44
     e78:	92 9f       	mul	r25, r18
     e7a:	80 19       	sub	r24, r0
     e7c:	11 24       	eor	r1, r1
     e7e:	98 2f       	mov	r25, r24
	
	if (select<40)
     e80:	88 32       	cpi	r24, 0x28	; 40
     e82:	08 f0       	brcs	.+2      	; 0xe86 <interperetKnob+0x3c>
     e84:	c5 c1       	rjmp	.+906    	; 0x1210 <interperetKnob+0x3c6>
	{
		uint8_t positionSelect = select%8;
     e86:	18 2f       	mov	r17, r24
     e88:	17 70       	andi	r17, 0x07	; 7
		uint8_t positionSelectTracks = select%8; //this seems redundant looking at it. Maybe there is a clever way we can avoid this?
		uint8_t bankSwitch = select/8;
     e8a:	86 95       	lsr	r24
     e8c:	86 95       	lsr	r24
     e8e:	86 95       	lsr	r24
		if(((currentGlobals->buttonSwitchFlag)&0x01)==1) //we only want to check bit 1 of the GP buttons. We might want to check other values later. 
     e90:	da 01       	movw	r26, r20
     e92:	19 96       	adiw	r26, 0x09	; 9
     e94:	2c 91       	ld	r18, X
     e96:	20 ff       	sbrs	r18, 0
     e98:	05 c0       	rjmp	.+10     	; 0xea4 <interperetKnob+0x5a>
		{
			positionSelectTracks=positionSelectTracks+8;
     e9a:	68 94       	set
     e9c:	aa 24       	eor	r10, r10
     e9e:	a3 f8       	bld	r10, 3
     ea0:	a1 0e       	add	r10, r17
     ea2:	01 c0       	rjmp	.+2      	; 0xea6 <interperetKnob+0x5c>
	select = select%44;
	
	if (select<40)
	{
		uint8_t positionSelect = select%8;
		uint8_t positionSelectTracks = select%8; //this seems redundant looking at it. Maybe there is a clever way we can avoid this?
     ea4:	a1 2e       	mov	r10, r17
		if(((currentGlobals->buttonSwitchFlag)&0x01)==1) //we only want to check bit 1 of the GP buttons. We might want to check other values later. 
		{
			positionSelectTracks=positionSelectTracks+8;
		}
		
		switch (bankSwitch){
     ea6:	82 30       	cpi	r24, 0x02	; 2
     ea8:	09 f4       	brne	.+2      	; 0xeac <interperetKnob+0x62>
     eaa:	99 c0       	rjmp	.+306    	; 0xfde <interperetKnob+0x194>
     eac:	ea 01       	movw	r28, r20
     eae:	6b 01       	movw	r12, r22
     eb0:	83 30       	cpi	r24, 0x03	; 3
     eb2:	30 f4       	brcc	.+12     	; 0xec0 <interperetKnob+0x76>
     eb4:	88 23       	and	r24, r24
     eb6:	59 f0       	breq	.+22     	; 0xece <interperetKnob+0x84>
     eb8:	81 30       	cpi	r24, 0x01	; 1
     eba:	09 f4       	brne	.+2      	; 0xebe <interperetKnob+0x74>
     ebc:	67 c0       	rjmp	.+206    	; 0xf8c <interperetKnob+0x142>
     ebe:	c6 c1       	rjmp	.+908    	; 0x124c <interperetKnob+0x402>
     ec0:	83 30       	cpi	r24, 0x03	; 3
     ec2:	09 f4       	brne	.+2      	; 0xec6 <interperetKnob+0x7c>
     ec4:	e1 c0       	rjmp	.+450    	; 0x1088 <interperetKnob+0x23e>
     ec6:	84 30       	cpi	r24, 0x04	; 4
     ec8:	09 f4       	brne	.+2      	; 0xecc <interperetKnob+0x82>
     eca:	2e c1       	rjmp	.+604    	; 0x1128 <interperetKnob+0x2de>
     ecc:	bf c1       	rjmp	.+894    	; 0x124c <interperetKnob+0x402>
			uint8_t newRead = 0;
			case 0:; //outputVolume
			
			//int16_t currentOutVoulume = ((currentKnobPattern->outputLevelMSB[positionSelect]<<8)|(currentKnobPattern->outputLevelLSB[positionSelect])); 
			//this should be a regular integer between -70 and +10
			prevRead = currentGlobals->lastFilteredKnobBuffer[select];
     ece:	e9 2e       	mov	r14, r25
     ed0:	f1 2c       	mov	r15, r1
     ed2:	ca 01       	movw	r24, r20
     ed4:	8e 0d       	add	r24, r14
     ed6:	9f 1d       	adc	r25, r15
     ed8:	fc 01       	movw	r30, r24
     eda:	eb 58       	subi	r30, 0x8B	; 139
     edc:	ff 4f       	sbci	r31, 0xFF	; 255
     ede:	20 81       	ld	r18, Z
			newRead = currentGlobals->filteredKnobBuffer[select];
     ee0:	bc 97       	sbiw	r30, 0x2c	; 44
     ee2:	60 81       	ld	r22, Z
}

uint8_t checkVariation(uint8_t v1, uint8_t v2) //this is used to check the difference between 2 knob reads, and give how far appart they are.
{
	uint8_t returnMe=0;
	if(v1>v2)
     ee4:	26 17       	cp	r18, r22
     ee6:	20 f4       	brcc	.+8      	; 0xef0 <interperetKnob+0xa6>
	{
		returnMe = v1-v2;
     ee8:	b6 2f       	mov	r27, r22
     eea:	b2 1b       	sub	r27, r18
     eec:	2b 2f       	mov	r18, r27
     eee:	01 c0       	rjmp	.+2      	; 0xef2 <interperetKnob+0xa8>
	}
	else
	{
		returnMe = v2-v1;
     ef0:	26 1b       	sub	r18, r22
			//int16_t currentOutVoulume = ((currentKnobPattern->outputLevelMSB[positionSelect]<<8)|(currentKnobPattern->outputLevelLSB[positionSelect])); 
			//this should be a regular integer between -70 and +10
			prevRead = currentGlobals->lastFilteredKnobBuffer[select];
			newRead = currentGlobals->filteredKnobBuffer[select];

			if(checkVariation(newRead,prevRead)>2)
     ef2:	23 30       	cpi	r18, 0x03	; 3
     ef4:	08 f4       	brcc	.+2      	; 0xef8 <interperetKnob+0xae>
     ef6:	aa c1       	rjmp	.+852    	; 0x124c <interperetKnob+0x402>
			{
				
				int16_t negCheckValue = (currentGlobals->filteredKnobBuffer[select] / volumeDivisor)-NegativeOffset;
     ef8:	70 e0       	ldi	r23, 0x00	; 0
     efa:	80 e0       	ldi	r24, 0x00	; 0
     efc:	90 e0       	ldi	r25, 0x00	; 0
     efe:	0e 94 df 1e 	call	0x3dbe	; 0x3dbe <__floatsisf>
     f02:	20 91 02 02 	lds	r18, 0x0202	; 0x800202 <volumeDivisor>
     f06:	30 91 03 02 	lds	r19, 0x0203	; 0x800203 <volumeDivisor+0x1>
     f0a:	40 91 04 02 	lds	r20, 0x0204	; 0x800204 <volumeDivisor+0x2>
     f0e:	50 91 05 02 	lds	r21, 0x0205	; 0x800205 <volumeDivisor+0x3>
     f12:	0e 94 44 1e 	call	0x3c88	; 0x3c88 <__divsf3>
     f16:	2b 01       	movw	r4, r22
     f18:	3c 01       	movw	r6, r24
     f1a:	60 91 06 02 	lds	r22, 0x0206	; 0x800206 <NegativeOffset>
     f1e:	70 e0       	ldi	r23, 0x00	; 0
     f20:	80 e0       	ldi	r24, 0x00	; 0
     f22:	90 e0       	ldi	r25, 0x00	; 0
     f24:	0e 94 df 1e 	call	0x3dbe	; 0x3dbe <__floatsisf>
     f28:	9b 01       	movw	r18, r22
     f2a:	ac 01       	movw	r20, r24
     f2c:	c3 01       	movw	r24, r6
     f2e:	b2 01       	movw	r22, r4
     f30:	0e 94 df 1d 	call	0x3bbe	; 0x3bbe <__subsf3>
     f34:	0e 94 ac 1e 	call	0x3d58	; 0x3d58 <__fixsfsi>
     f38:	86 2f       	mov	r24, r22
     f3a:	26 2f       	mov	r18, r22
     f3c:	37 2f       	mov	r19, r23
				currentGlobals->valueChangeFlag |= (1<<knobChange); //if knob change bit is already set, this should be fine.
     f3e:	9a 85       	ldd	r25, Y+10	; 0x0a
     f40:	94 60       	ori	r25, 0x04	; 4
     f42:	9a 87       	std	Y+10, r25	; 0x0a
				currentGlobals->knobStatus = (bankSwitch<<4)|positionSelect; //we don't want to | this, we just want to set it equal, so the screen only updates the last value 
     f44:	1b 87       	std	Y+11, r17	; 0x0b
				
				currentKnobPattern->outputLevelLSB[positionSelect] = (negCheckValue);
     f46:	61 2f       	mov	r22, r17
     f48:	70 e0       	ldi	r23, 0x00	; 0
     f4a:	f6 01       	movw	r30, r12
     f4c:	e6 0f       	add	r30, r22
     f4e:	f7 1f       	adc	r31, r23
     f50:	80 87       	std	Z+8, r24	; 0x08
				if(negCheckValue>(-1))
     f52:	33 23       	and	r19, r19
     f54:	2c f0       	brlt	.+10     	; 0xf60 <interperetKnob+0x116>
				{
					currentKnobPattern->outputLevelMSB[positionSelect] = 0;	
     f56:	f6 01       	movw	r30, r12
     f58:	e6 0f       	add	r30, r22
     f5a:	f7 1f       	adc	r31, r23
     f5c:	10 82       	st	Z, r1
     f5e:	05 c0       	rjmp	.+10     	; 0xf6a <interperetKnob+0x120>
				}else
				{
					currentKnobPattern->outputLevelMSB[positionSelect] = 255;
     f60:	9f ef       	ldi	r25, 0xFF	; 255
     f62:	f6 01       	movw	r30, r12
     f64:	e6 0f       	add	r30, r22
     f66:	f7 1f       	adc	r31, r23
     f68:	90 83       	st	Z, r25
				}
				setOutputVolume(currentKnobPattern->outputLevelLSB[positionSelect], currentKnobPattern->outputLevelMSB[positionSelect], positionSelect);
     f6a:	f6 01       	movw	r30, r12
     f6c:	e6 0f       	add	r30, r22
     f6e:	f7 1f       	adc	r31, r23
     f70:	41 2f       	mov	r20, r17
     f72:	60 81       	ld	r22, Z
     f74:	0e 94 ea 16 	call	0x2dd4	; 0x2dd4 <setOutputVolume>
				currentGlobals->lastFilteredKnobBuffer[select] = currentGlobals->filteredKnobBuffer[select];
     f78:	ce 0d       	add	r28, r14
     f7a:	df 1d       	adc	r29, r15
     f7c:	fe 01       	movw	r30, r28
     f7e:	eb 58       	subi	r30, 0x8B	; 139
     f80:	ff 4f       	sbci	r31, 0xFF	; 255
     f82:	c7 5b       	subi	r28, 0xB7	; 183
     f84:	df 4f       	sbci	r29, 0xFF	; 255
     f86:	88 81       	ld	r24, Y
     f88:	80 83       	st	Z, r24
     f8a:	60 c1       	rjmp	.+704    	; 0x124c <interperetKnob+0x402>
			}
			break;
			
 			case 1: //pitch
 			if(currentGlobals->lastFilteredKnobBuffer[select]!=(currentGlobals->filteredKnobBuffer[select]))
     f8c:	89 2f       	mov	r24, r25
     f8e:	90 e0       	ldi	r25, 0x00	; 0
     f90:	9a 01       	movw	r18, r20
     f92:	28 0f       	add	r18, r24
     f94:	39 1f       	adc	r19, r25
     f96:	f9 01       	movw	r30, r18
     f98:	e7 5b       	subi	r30, 0xB7	; 183
     f9a:	ff 4f       	sbci	r31, 0xFF	; 255
     f9c:	40 81       	ld	r20, Z
     f9e:	bc 96       	adiw	r30, 0x2c	; 44
     fa0:	20 81       	ld	r18, Z
     fa2:	24 17       	cp	r18, r20
     fa4:	09 f4       	brne	.+2      	; 0xfa8 <interperetKnob+0x15e>
     fa6:	52 c1       	rjmp	.+676    	; 0x124c <interperetKnob+0x402>
 			{
				currentGlobals->valueChangeFlag |= (1<<knobChange); //if knob change bit is already set, this should be fine.
     fa8:	2a 85       	ldd	r18, Y+10	; 0x0a
     faa:	24 60       	ori	r18, 0x04	; 4
     fac:	2a 87       	std	Y+10, r18	; 0x0a
				currentGlobals->knobStatus = (bankSwitch<<4)|positionSelect; //we don't want to | this, we just want to set it equal, so the screen only updates the last value
     fae:	21 2f       	mov	r18, r17
     fb0:	20 61       	ori	r18, 0x10	; 16
     fb2:	2b 87       	std	Y+11, r18	; 0x0b
 				currentKnobPattern->outputPitch[positionSelect] = (currentGlobals->filteredKnobBuffer[select]^128);
     fb4:	fb 01       	movw	r30, r22
     fb6:	e1 0f       	add	r30, r17
     fb8:	f1 1d       	adc	r31, r1
     fba:	40 58       	subi	r20, 0x80	; 128
     fbc:	40 8b       	std	Z+16, r20	; 0x10
				 currentGlobals->lastFilteredKnobBuffer[select] = currentGlobals->filteredKnobBuffer[select];
     fbe:	8c 0f       	add	r24, r28
     fc0:	9d 1f       	adc	r25, r29
     fc2:	dc 01       	movw	r26, r24
     fc4:	ab 58       	subi	r26, 0x8B	; 139
     fc6:	bf 4f       	sbci	r27, 0xFF	; 255
     fc8:	ec 01       	movw	r28, r24
     fca:	c7 5b       	subi	r28, 0xB7	; 183
     fcc:	df 4f       	sbci	r29, 0xFF	; 255
     fce:	88 81       	ld	r24, Y
     fd0:	8c 93       	st	X, r24
				outputSampleRate(positionSelect, 0, currentKnobPattern->outputPitch[positionSelect]);
     fd2:	40 89       	ldd	r20, Z+16	; 0x10
     fd4:	60 e0       	ldi	r22, 0x00	; 0
     fd6:	81 2f       	mov	r24, r17
     fd8:	0e 94 61 17 	call	0x2ec2	; 0x2ec2 <outputSampleRate>
     fdc:	37 c1       	rjmp	.+622    	; 0x124c <interperetKnob+0x402>
 			}
 			break;
 			
 			case 2:; //attackEnvelope
			if(currentGlobals->lastFilteredKnobBuffer[select]!=currentGlobals->filteredKnobBuffer[select])
     fde:	e9 2f       	mov	r30, r25
     fe0:	f0 e0       	ldi	r31, 0x00	; 0
     fe2:	ca 01       	movw	r24, r20
     fe4:	8e 0f       	add	r24, r30
     fe6:	9f 1f       	adc	r25, r31
     fe8:	dc 01       	movw	r26, r24
     fea:	ab 58       	subi	r26, 0x8B	; 139
     fec:	bf 4f       	sbci	r27, 0xFF	; 255
     fee:	dc 91       	ld	r29, X
     ff0:	9c 97       	sbiw	r26, 0x2c	; 44
     ff2:	cc 91       	ld	r28, X
     ff4:	dc 17       	cp	r29, r28
     ff6:	09 f4       	brne	.+2      	; 0xffa <interperetKnob+0x1b0>
     ff8:	29 c1       	rjmp	.+594    	; 0x124c <interperetKnob+0x402>
			{
				uint16_t totalAttackTime = currentKnobPattern->trackAttackTimeLSB[positionSelectTracks]|((currentKnobPattern->trackAttackTimeMSB[positionSelectTracks])<<8);
     ffa:	ca 2c       	mov	r12, r10
     ffc:	d1 2c       	mov	r13, r1
     ffe:	9b 01       	movw	r18, r22
    1000:	2c 0d       	add	r18, r12
    1002:	3d 1d       	adc	r19, r13
    1004:	d9 01       	movw	r26, r18
    1006:	a8 5a       	subi	r26, 0xA8	; 168
    1008:	bf 4f       	sbci	r27, 0xFF	; 255
    100a:	8c 91       	ld	r24, X
    100c:	50 97       	sbiw	r26, 0x10	; 16
    100e:	2c 91       	ld	r18, X
				currentGlobals->valueChangeFlag |= (1<<knobChange); //if knob change bit is already set, this should be fine.
    1010:	da 01       	movw	r26, r20
    1012:	1a 96       	adiw	r26, 0x0a	; 10
    1014:	9c 91       	ld	r25, X
    1016:	1a 97       	sbiw	r26, 0x0a	; 10
    1018:	94 60       	ori	r25, 0x04	; 4
    101a:	1a 96       	adiw	r26, 0x0a	; 10
    101c:	9c 93       	st	X, r25
    101e:	1a 97       	sbiw	r26, 0x0a	; 10
				currentGlobals->knobStatus = (bankSwitch<<4)|positionSelect; //we don't want to | this, we just want to set it equal, so the screen only updates the last value	
    1020:	91 2f       	mov	r25, r17
    1022:	90 62       	ori	r25, 0x20	; 32
    1024:	1b 96       	adiw	r26, 0x0b	; 11
    1026:	9c 93       	st	X, r25
    1028:	1b 97       	sbiw	r26, 0x0b	; 11
				
				if(currentGlobals->currentGPButtons&0x04) 
    102a:	12 96       	adiw	r26, 0x02	; 2
    102c:	9c 91       	ld	r25, X
    102e:	92 ff       	sbrs	r25, 2
    1030:	0a c0       	rjmp	.+20     	; 0x1046 <interperetKnob+0x1fc>
 			break;
 			
 			case 2:; //attackEnvelope
			if(currentGlobals->lastFilteredKnobBuffer[select]!=currentGlobals->filteredKnobBuffer[select])
			{
				uint16_t totalAttackTime = currentKnobPattern->trackAttackTimeLSB[positionSelectTracks]|((currentKnobPattern->trackAttackTimeMSB[positionSelectTracks])<<8);
    1032:	90 e0       	ldi	r25, 0x00	; 0
    1034:	dc 01       	movw	r26, r24
    1036:	b2 2b       	or	r27, r18
				currentGlobals->valueChangeFlag |= (1<<knobChange); //if knob change bit is already set, this should be fine.
				currentGlobals->knobStatus = (bankSwitch<<4)|positionSelect; //we don't want to | this, we just want to set it equal, so the screen only updates the last value	
				
				if(currentGlobals->currentGPButtons&0x04) 
				{ //if "fine" is on:
						totalAttackTime = totalAttackTime+((currentGlobals->filteredKnobBuffer[select])-(currentGlobals->lastFilteredKnobBuffer[select])); 
    1038:	8c 2f       	mov	r24, r28
    103a:	90 e0       	ldi	r25, 0x00	; 0
    103c:	8d 1b       	sub	r24, r29
    103e:	91 09       	sbc	r25, r1
    1040:	8a 0f       	add	r24, r26
    1042:	9b 1f       	adc	r25, r27
    1044:	0a c0       	rjmp	.+20     	; 0x105a <interperetKnob+0x210>
				}else
				{
					totalAttackTime = ((currentGlobals->filteredKnobBuffer[select])-1)*238;
    1046:	2c 2f       	mov	r18, r28
    1048:	30 e0       	ldi	r19, 0x00	; 0
    104a:	21 50       	subi	r18, 0x01	; 1
    104c:	31 09       	sbc	r19, r1
    104e:	ae ee       	ldi	r26, 0xEE	; 238
    1050:	a2 9f       	mul	r26, r18
    1052:	c0 01       	movw	r24, r0
    1054:	a3 9f       	mul	r26, r19
    1056:	90 0d       	add	r25, r0
    1058:	11 24       	eor	r1, r1
				}
				if(totalAttackTime<20)
    105a:	84 31       	cpi	r24, 0x14	; 20
    105c:	91 05       	cpc	r25, r1
    105e:	10 f4       	brcc	.+4      	; 0x1064 <interperetKnob+0x21a>
				{
					totalAttackTime = 20; 
    1060:	84 e1       	ldi	r24, 0x14	; 20
    1062:	90 e0       	ldi	r25, 0x00	; 0
				}
				currentKnobPattern->trackAttackTimeMSB[positionSelectTracks] = ((totalAttackTime)>>8);
    1064:	6c 0d       	add	r22, r12
    1066:	7d 1d       	adc	r23, r13
    1068:	db 01       	movw	r26, r22
    106a:	a8 5b       	subi	r26, 0xB8	; 184
    106c:	bf 4f       	sbci	r27, 0xFF	; 255
    106e:	9c 93       	st	X, r25
				currentKnobPattern->trackAttackTimeLSB[positionSelectTracks] = (totalAttackTime); //this should truncate the top 8 bits. 
    1070:	50 96       	adiw	r26, 0x10	; 16
    1072:	8c 93       	st	X, r24

				currentGlobals->lastFilteredKnobBuffer[select] = currentGlobals->filteredKnobBuffer[select];
    1074:	e4 0f       	add	r30, r20
    1076:	f5 1f       	adc	r31, r21
    1078:	df 01       	movw	r26, r30
    107a:	ab 58       	subi	r26, 0x8B	; 139
    107c:	bf 4f       	sbci	r27, 0xFF	; 255
    107e:	e7 5b       	subi	r30, 0xB7	; 183
    1080:	ff 4f       	sbci	r31, 0xFF	; 255
    1082:	80 81       	ld	r24, Z
    1084:	8c 93       	st	X, r24
    1086:	e2 c0       	rjmp	.+452    	; 0x124c <interperetKnob+0x402>
			}
			break;
 			
 			case 3: //release Envelope
 			if(currentGlobals->lastFilteredKnobBuffer[select]!=currentGlobals->filteredKnobBuffer[select])
    1088:	29 2f       	mov	r18, r25
    108a:	30 e0       	ldi	r19, 0x00	; 0
    108c:	ca 01       	movw	r24, r20
    108e:	82 0f       	add	r24, r18
    1090:	93 1f       	adc	r25, r19
    1092:	fc 01       	movw	r30, r24
    1094:	eb 58       	subi	r30, 0x8B	; 139
    1096:	ff 4f       	sbci	r31, 0xFF	; 255
    1098:	f0 81       	ld	r31, Z
    109a:	dc 01       	movw	r26, r24
    109c:	a7 5b       	subi	r26, 0xB7	; 183
    109e:	bf 4f       	sbci	r27, 0xFF	; 255
    10a0:	ec 91       	ld	r30, X
    10a2:	fe 17       	cp	r31, r30
    10a4:	09 f4       	brne	.+2      	; 0x10a8 <interperetKnob+0x25e>
    10a6:	d2 c0       	rjmp	.+420    	; 0x124c <interperetKnob+0x402>
 			{
				 uint16_t totalReleaseTime = currentKnobPattern->trackReleaseTimeLSB[positionSelectTracks]|((currentKnobPattern->trackReleaseTimeMSB[positionSelectTracks])<<8);
    10a8:	6a 2d       	mov	r22, r10
    10aa:	70 e0       	ldi	r23, 0x00	; 0
    10ac:	a6 01       	movw	r20, r12
    10ae:	46 0f       	add	r20, r22
    10b0:	57 1f       	adc	r21, r23
    10b2:	da 01       	movw	r26, r20
    10b4:	a8 58       	subi	r26, 0x88	; 136
    10b6:	bf 4f       	sbci	r27, 0xFF	; 255
    10b8:	8c 91       	ld	r24, X
    10ba:	50 97       	sbiw	r26, 0x10	; 16
    10bc:	4c 91       	ld	r20, X
				currentGlobals->valueChangeFlag |= (1<<knobChange); //if knob change bit is already set, this should be fine.
    10be:	9a 85       	ldd	r25, Y+10	; 0x0a
    10c0:	94 60       	ori	r25, 0x04	; 4
    10c2:	9a 87       	std	Y+10, r25	; 0x0a
				currentGlobals->knobStatus = (bankSwitch<<4)|positionSelect; //we don't want to | this, we just want to set it equal, so the screen only updates the last value
    10c4:	91 2f       	mov	r25, r17
    10c6:	90 63       	ori	r25, 0x30	; 48
    10c8:	9b 87       	std	Y+11, r25	; 0x0b
				if(currentGlobals->currentGPButtons&0x04)
    10ca:	9a 81       	ldd	r25, Y+2	; 0x02
    10cc:	92 ff       	sbrs	r25, 2
    10ce:	0a c0       	rjmp	.+20     	; 0x10e4 <interperetKnob+0x29a>
			break;
 			
 			case 3: //release Envelope
 			if(currentGlobals->lastFilteredKnobBuffer[select]!=currentGlobals->filteredKnobBuffer[select])
 			{
				 uint16_t totalReleaseTime = currentKnobPattern->trackReleaseTimeLSB[positionSelectTracks]|((currentKnobPattern->trackReleaseTimeMSB[positionSelectTracks])<<8);
    10d0:	90 e0       	ldi	r25, 0x00	; 0
    10d2:	dc 01       	movw	r26, r24
    10d4:	b4 2b       	or	r27, r20
				currentGlobals->valueChangeFlag |= (1<<knobChange); //if knob change bit is already set, this should be fine.
				currentGlobals->knobStatus = (bankSwitch<<4)|positionSelect; //we don't want to | this, we just want to set it equal, so the screen only updates the last value
				if(currentGlobals->currentGPButtons&0x04)
				{ //if "fine" is on:
					totalReleaseTime = totalReleaseTime+((currentGlobals->filteredKnobBuffer[select])-(currentGlobals->lastFilteredKnobBuffer[select]));
    10d6:	8e 2f       	mov	r24, r30
    10d8:	90 e0       	ldi	r25, 0x00	; 0
    10da:	8f 1b       	sub	r24, r31
    10dc:	91 09       	sbc	r25, r1
    10de:	8a 0f       	add	r24, r26
    10e0:	9b 1f       	adc	r25, r27
    10e2:	0a c0       	rjmp	.+20     	; 0x10f8 <interperetKnob+0x2ae>
				}else
				{
					totalReleaseTime = ((currentGlobals->filteredKnobBuffer[select])-1)*238;
    10e4:	4e 2f       	mov	r20, r30
    10e6:	50 e0       	ldi	r21, 0x00	; 0
    10e8:	41 50       	subi	r20, 0x01	; 1
    10ea:	51 09       	sbc	r21, r1
    10ec:	ee ee       	ldi	r30, 0xEE	; 238
    10ee:	e4 9f       	mul	r30, r20
    10f0:	c0 01       	movw	r24, r0
    10f2:	e5 9f       	mul	r30, r21
    10f4:	90 0d       	add	r25, r0
    10f6:	11 24       	eor	r1, r1
				}
				if(totalReleaseTime<20)
    10f8:	84 31       	cpi	r24, 0x14	; 20
    10fa:	91 05       	cpc	r25, r1
    10fc:	10 f4       	brcc	.+4      	; 0x1102 <interperetKnob+0x2b8>
				{
					totalReleaseTime = 220;
    10fe:	8c ed       	ldi	r24, 0xDC	; 220
    1100:	90 e0       	ldi	r25, 0x00	; 0
				}
				currentKnobPattern->trackReleaseTimeMSB[positionSelectTracks] = ((totalReleaseTime)>>8);
    1102:	c6 0e       	add	r12, r22
    1104:	d7 1e       	adc	r13, r23
    1106:	f6 01       	movw	r30, r12
    1108:	e8 59       	subi	r30, 0x98	; 152
    110a:	ff 4f       	sbci	r31, 0xFF	; 255
    110c:	90 83       	st	Z, r25
				currentKnobPattern->trackReleaseTimeLSB[positionSelectTracks] = (totalReleaseTime);	
    110e:	70 96       	adiw	r30, 0x10	; 16
    1110:	80 83       	st	Z, r24
				
				currentGlobals->lastFilteredKnobBuffer[select] = currentGlobals->filteredKnobBuffer[select];
    1112:	2c 0f       	add	r18, r28
    1114:	3d 1f       	adc	r19, r29
    1116:	f9 01       	movw	r30, r18
    1118:	eb 58       	subi	r30, 0x8B	; 139
    111a:	ff 4f       	sbci	r31, 0xFF	; 255
    111c:	d9 01       	movw	r26, r18
    111e:	a7 5b       	subi	r26, 0xB7	; 183
    1120:	bf 4f       	sbci	r27, 0xFF	; 255
    1122:	8c 91       	ld	r24, X
    1124:	80 83       	st	Z, r24
    1126:	92 c0       	rjmp	.+292    	; 0x124c <interperetKnob+0x402>
 			}
 			break;
 			
 			case 4:;
 			prevRead = currentGlobals->lastFilteredKnobBuffer[select];
    1128:	e9 2e       	mov	r14, r25
    112a:	f1 2c       	mov	r15, r1
    112c:	ca 01       	movw	r24, r20
    112e:	8e 0d       	add	r24, r14
    1130:	9f 1d       	adc	r25, r15
    1132:	fc 01       	movw	r30, r24
    1134:	eb 58       	subi	r30, 0x8B	; 139
    1136:	ff 4f       	sbci	r31, 0xFF	; 255
    1138:	20 81       	ld	r18, Z
			newRead = currentGlobals->filteredKnobBuffer[select];
    113a:	bc 97       	sbiw	r30, 0x2c	; 44
    113c:	60 81       	ld	r22, Z
}

uint8_t checkVariation(uint8_t v1, uint8_t v2) //this is used to check the difference between 2 knob reads, and give how far appart they are.
{
	uint8_t returnMe=0;
	if(v1>v2)
    113e:	26 17       	cp	r18, r22
    1140:	20 f4       	brcc	.+8      	; 0x114a <interperetKnob+0x300>
	{
		returnMe = v1-v2;
    1142:	b6 2f       	mov	r27, r22
    1144:	b2 1b       	sub	r27, r18
    1146:	2b 2f       	mov	r18, r27
    1148:	01 c0       	rjmp	.+2      	; 0x114c <interperetKnob+0x302>
	}
	else
	{
		returnMe = v2-v1;
    114a:	26 1b       	sub	r18, r22
 			break;
 			
 			case 4:;
 			prevRead = currentGlobals->lastFilteredKnobBuffer[select];
			newRead = currentGlobals->filteredKnobBuffer[select];
 			if(checkVariation(newRead,prevRead)>2)
    114c:	23 30       	cpi	r18, 0x03	; 3
    114e:	08 f4       	brcc	.+2      	; 0x1152 <interperetKnob+0x308>
    1150:	7d c0       	rjmp	.+250    	; 0x124c <interperetKnob+0x402>
 			{
				int16_t negCheckValueTrack = (currentGlobals->filteredKnobBuffer[select] / volumeDivisor)-NegativeOffset;
    1152:	70 e0       	ldi	r23, 0x00	; 0
    1154:	80 e0       	ldi	r24, 0x00	; 0
    1156:	90 e0       	ldi	r25, 0x00	; 0
    1158:	0e 94 df 1e 	call	0x3dbe	; 0x3dbe <__floatsisf>
    115c:	20 91 02 02 	lds	r18, 0x0202	; 0x800202 <volumeDivisor>
    1160:	30 91 03 02 	lds	r19, 0x0203	; 0x800203 <volumeDivisor+0x1>
    1164:	40 91 04 02 	lds	r20, 0x0204	; 0x800204 <volumeDivisor+0x2>
    1168:	50 91 05 02 	lds	r21, 0x0205	; 0x800205 <volumeDivisor+0x3>
    116c:	0e 94 44 1e 	call	0x3c88	; 0x3c88 <__divsf3>
    1170:	2b 01       	movw	r4, r22
    1172:	3c 01       	movw	r6, r24
    1174:	60 91 06 02 	lds	r22, 0x0206	; 0x800206 <NegativeOffset>
    1178:	70 e0       	ldi	r23, 0x00	; 0
    117a:	80 e0       	ldi	r24, 0x00	; 0
    117c:	90 e0       	ldi	r25, 0x00	; 0
    117e:	0e 94 df 1e 	call	0x3dbe	; 0x3dbe <__floatsisf>
    1182:	9b 01       	movw	r18, r22
    1184:	ac 01       	movw	r20, r24
    1186:	c3 01       	movw	r24, r6
    1188:	b2 01       	movw	r22, r4
    118a:	0e 94 df 1d 	call	0x3bbe	; 0x3bbe <__subsf3>
    118e:	0e 94 ac 1e 	call	0x3d58	; 0x3d58 <__fixsfsi>
    1192:	86 2f       	mov	r24, r22
    1194:	97 2f       	mov	r25, r23
    1196:	9c 01       	movw	r18, r24
				currentGlobals->valueChangeFlag |= (1<<knobChange); //if knob change bit is already set, this should be fine.
    1198:	8a 85       	ldd	r24, Y+10	; 0x0a
    119a:	84 60       	ori	r24, 0x04	; 4
    119c:	8a 87       	std	Y+10, r24	; 0x0a
				currentGlobals->knobStatus = (bankSwitch<<4)|positionSelect; //we don't want to | this, we just want to set it equal, so the screen only updates the last value
    119e:	81 2f       	mov	r24, r17
    11a0:	80 64       	ori	r24, 0x40	; 64
    11a2:	8b 87       	std	Y+11, r24	; 0x0b
				
	 			currentKnobPattern->trackMainVolumeLSB[positionSelectTracks] = (negCheckValueTrack);
    11a4:	b1 2c       	mov	r11, r1
    11a6:	f6 01       	movw	r30, r12
    11a8:	ea 0d       	add	r30, r10
    11aa:	fb 1d       	adc	r31, r11
    11ac:	60 af       	std	Z+56, r22	; 0x38
	 			if(negCheckValueTrack>(-1))
    11ae:	33 23       	and	r19, r19
    11b0:	2c f0       	brlt	.+10     	; 0x11bc <interperetKnob+0x372>
	 			{
		 			currentKnobPattern->trackMainVolumeMSB[positionSelectTracks] = 0;
    11b2:	f6 01       	movw	r30, r12
    11b4:	ea 0d       	add	r30, r10
    11b6:	fb 1d       	adc	r31, r11
    11b8:	10 a6       	std	Z+40, r1	; 0x28
    11ba:	05 c0       	rjmp	.+10     	; 0x11c6 <interperetKnob+0x37c>
	 			}else
	 			{
		 			currentKnobPattern->trackMainVolumeMSB[positionSelectTracks] = 255;
    11bc:	8f ef       	ldi	r24, 0xFF	; 255
    11be:	f6 01       	movw	r30, r12
    11c0:	ea 0d       	add	r30, r10
    11c2:	fb 1d       	adc	r31, r11
    11c4:	80 a7       	std	Z+40, r24	; 0x28
	 			}

				
				if(currentKnobPattern->envelopeType[positionSelectTracks]==1||currentKnobPattern->envelopeType[positionSelectTracks]==3) //set track volume directly if Envelope mode is only release, or none. 
    11c6:	f6 01       	movw	r30, r12
    11c8:	ea 0d       	add	r30, r10
    11ca:	fb 1d       	adc	r31, r11
    11cc:	e5 51       	subi	r30, 0x15	; 21
    11ce:	ff 4f       	sbci	r31, 0xFF	; 255
    11d0:	80 81       	ld	r24, Z
    11d2:	8d 7f       	andi	r24, 0xFD	; 253
    11d4:	81 30       	cpi	r24, 0x01	; 1
    11d6:	81 f4       	brne	.+32     	; 0x11f8 <interperetKnob+0x3ae>
				{
	 				setTrackVolume(currentKnobPattern->trackSampleLSB[positionSelectTracks], currentKnobPattern->trackSampleMSB[positionSelectTracks],
    11d8:	ac 0c       	add	r10, r12
    11da:	bd 1c       	adc	r11, r13
    11dc:	d5 01       	movw	r26, r10
    11de:	a8 56       	subi	r26, 0x68	; 104
    11e0:	bf 4f       	sbci	r27, 0xFF	; 255
    11e2:	c5 01       	movw	r24, r10
    11e4:	88 55       	subi	r24, 0x58	; 88
    11e6:	9f 4f       	sbci	r25, 0xFF	; 255
    11e8:	f5 01       	movw	r30, r10
    11ea:	20 a5       	ldd	r18, Z+40	; 0x28
    11ec:	46 2f       	mov	r20, r22
    11ee:	6c 91       	ld	r22, X
    11f0:	dc 01       	movw	r26, r24
    11f2:	8c 91       	ld	r24, X
    11f4:	0e 94 0e 17 	call	0x2e1c	; 0x2e1c <setTrackVolume>
					currentKnobPattern->trackMainVolumeLSB[positionSelectTracks], currentKnobPattern->trackMainVolumeMSB[positionSelectTracks]);
				}
				 currentGlobals->lastFilteredKnobBuffer[select] = currentGlobals->filteredKnobBuffer[select]; 
    11f8:	8e 01       	movw	r16, r28
    11fa:	0e 0d       	add	r16, r14
    11fc:	1f 1d       	adc	r17, r15
    11fe:	f8 01       	movw	r30, r16
    1200:	eb 58       	subi	r30, 0x8B	; 139
    1202:	ff 4f       	sbci	r31, 0xFF	; 255
    1204:	d8 01       	movw	r26, r16
    1206:	a7 5b       	subi	r26, 0xB7	; 183
    1208:	bf 4f       	sbci	r27, 0xFF	; 255
    120a:	8c 91       	ld	r24, X
    120c:	80 83       	st	Z, r24
    120e:	1e c0       	rjmp	.+60     	; 0x124c <interperetKnob+0x402>
		}
		
		
	}else
	{
		switch (select)
    1210:	8a 32       	cpi	r24, 0x2A	; 42
    1212:	e1 f4       	brne	.+56     	; 0x124c <interperetKnob+0x402>
// 			break;
// 			
 			case 42:
			 
			 //we need to do a bit more filtering here. Not sure if that's happening here, or in the actual knob read.
			 if(currentGlobals->lastFilteredKnobBuffer[select]!=(currentGlobals->filteredKnobBuffer[select]))
    1214:	fa 01       	movw	r30, r20
    1216:	ed 58       	subi	r30, 0x8D	; 141
    1218:	ff 4f       	sbci	r31, 0xFF	; 255
    121a:	80 81       	ld	r24, Z
    121c:	bc 96       	adiw	r30, 0x2c	; 44
    121e:	90 81       	ld	r25, Z
    1220:	98 17       	cp	r25, r24
    1222:	a1 f0       	breq	.+40     	; 0x124c <interperetKnob+0x402>
			{//not sure if this works here, but we're going to try it. 
				
				currentGlobals->valueChangeFlag |= (1<<knobChange); //if knob change bit is already set, this should be fine.
    1224:	fa 01       	movw	r30, r20
    1226:	92 85       	ldd	r25, Z+10	; 0x0a
    1228:	94 60       	ori	r25, 0x04	; 4
    122a:	92 87       	std	Z+10, r25	; 0x0a
				currentGlobals->knobStatus = (5<<4); //since all other pot banks are 0-4, the next ones will be 5-8. We should maybe figure out a better system for this, 
    122c:	90 e5       	ldi	r25, 0x50	; 80
    122e:	93 87       	std	Z+11, r25	; 0x0b
				//maybe some defines?				
 				currentKnobPattern->patternBPM = currentGlobals->filteredKnobBuffer[select];
    1230:	fb 01       	movw	r30, r22
    1232:	e8 53       	subi	r30, 0x38	; 56
    1234:	ff 4f       	sbci	r31, 0xFF	; 255
    1236:	90 e0       	ldi	r25, 0x00	; 0
    1238:	91 83       	std	Z+1, r25	; 0x01
    123a:	80 83       	st	Z, r24
				currentGlobals->lastFilteredKnobBuffer[select] = currentGlobals->filteredKnobBuffer[select];
    123c:	da 01       	movw	r26, r20
    123e:	a1 56       	subi	r26, 0x61	; 97
    1240:	bf 4f       	sbci	r27, 0xFF	; 255
    1242:	fa 01       	movw	r30, r20
    1244:	ed 58       	subi	r30, 0x8D	; 141
    1246:	ff 4f       	sbci	r31, 0xFF	; 255
    1248:	80 81       	ld	r24, Z
    124a:	8c 93       	st	X, r24
// 			break;
		}
		
	}

}
    124c:	df 91       	pop	r29
    124e:	cf 91       	pop	r28
    1250:	1f 91       	pop	r17
    1252:	0f 91       	pop	r16
    1254:	ff 90       	pop	r15
    1256:	ef 90       	pop	r14
    1258:	df 90       	pop	r13
    125a:	cf 90       	pop	r12
    125c:	bf 90       	pop	r11
    125e:	af 90       	pop	r10
    1260:	7f 90       	pop	r7
    1262:	6f 90       	pop	r6
    1264:	5f 90       	pop	r5
    1266:	4f 90       	pop	r4
    1268:	08 95       	ret

0000126a <listenKnobs>:

void listenKnobs(Pattern *currentKnobPattern, Globals *currentGlobals)
{
    126a:	ef 92       	push	r14
    126c:	ff 92       	push	r15
    126e:	0f 93       	push	r16
    1270:	1f 93       	push	r17
    1272:	cf 93       	push	r28
    1274:	7c 01       	movw	r14, r24
    1276:	8b 01       	movw	r16, r22
	for(uint8_t loopCounter = 0; loopCounter<44; loopCounter++)
    1278:	c0 e0       	ldi	r28, 0x00	; 0
	{
		selectKnob(loopCounter);
    127a:	8c 2f       	mov	r24, r28
    127c:	7b dd       	rcall	.-1290   	; 0xd74 <selectKnob>
		updateKnob(loopCounter, currentGlobals);
    127e:	b8 01       	movw	r22, r16
    1280:	8c 2f       	mov	r24, r28
    1282:	b8 dd       	rcall	.-1168   	; 0xdf4 <updateKnob>
		interperetKnob(loopCounter,currentKnobPattern, currentGlobals);
    1284:	a8 01       	movw	r20, r16
    1286:	b7 01       	movw	r22, r14
    1288:	8c 2f       	mov	r24, r28
    128a:	df dd       	rcall	.-1090   	; 0xe4a <interperetKnob>

}

void listenKnobs(Pattern *currentKnobPattern, Globals *currentGlobals)
{
	for(uint8_t loopCounter = 0; loopCounter<44; loopCounter++)
    128c:	cf 5f       	subi	r28, 0xFF	; 255
    128e:	cc 32       	cpi	r28, 0x2C	; 44
    1290:	a1 f7       	brne	.-24     	; 0x127a <listenKnobs+0x10>
	{
		selectKnob(loopCounter);
		updateKnob(loopCounter, currentGlobals);
		interperetKnob(loopCounter,currentKnobPattern, currentGlobals);
	}
}
    1292:	cf 91       	pop	r28
    1294:	1f 91       	pop	r17
    1296:	0f 91       	pop	r16
    1298:	ff 90       	pop	r15
    129a:	ef 90       	pop	r14
    129c:	08 95       	ret

0000129e <initLEDs>:
extern Pattern currentPattern;
extern uint8_t currentStep;

void initLEDs()
{
	DDRG = 0B00000111; //outputs on G5,2, and 0.
    129e:	87 e0       	ldi	r24, 0x07	; 7
    12a0:	83 bb       	out	0x13, r24	; 19
    12a2:	08 95       	ret

000012a4 <parseLEDs>:
}
void parseLEDs(uint16_t LEDInput, uint8_t gpButtonInput) //this should not be a 16 bit int, or we need an additional 8 bits
{
	uint16_t trigLEDParse = LEDInput;
	uint8_t gpParse = gpButtonInput; //we might not need these variables if they revert after they fall out of scope. These might be 2 whole wasted clock cycles.
	PORTG &= (~(1 << PG2)); //set latch low for data input
    12a4:	a2 98       	cbi	0x14, 2	; 20
    12a6:	27 e0       	ldi	r18, 0x07	; 7
	for(uint8_t j=0; j<7; j++)
	{
		PORTG |= (1 << PG0); //turn clock pin high
    12a8:	a0 9a       	sbi	0x14, 0	; 20
		if(gpParse&0x80)
    12aa:	66 23       	and	r22, r22
    12ac:	14 f4       	brge	.+4      	; 0x12b2 <parseLEDs+0xe>
		{
			PORTG |= (1 << PG1); //send current 1's place bit to the data pin
    12ae:	a1 9a       	sbi	0x14, 1	; 20
    12b0:	01 c0       	rjmp	.+2      	; 0x12b4 <parseLEDs+0x10>
		}
		else
		{
			PORTG &= (~(1 << PG1));
    12b2:	a1 98       	cbi	0x14, 1	; 20
		}
		PORTG &= (~(1 << PG0)); //turn clock pin low.
    12b4:	a0 98       	cbi	0x14, 0	; 20
		gpParse = gpParse << 1;
    12b6:	66 0f       	add	r22, r22
    12b8:	21 50       	subi	r18, 0x01	; 1
void parseLEDs(uint16_t LEDInput, uint8_t gpButtonInput) //this should not be a 16 bit int, or we need an additional 8 bits
{
	uint16_t trigLEDParse = LEDInput;
	uint8_t gpParse = gpButtonInput; //we might not need these variables if they revert after they fall out of scope. These might be 2 whole wasted clock cycles.
	PORTG &= (~(1 << PG2)); //set latch low for data input
	for(uint8_t j=0; j<7; j++)
    12ba:	b1 f7       	brne	.-20     	; 0x12a8 <parseLEDs+0x4>
    12bc:	21 e1       	ldi	r18, 0x11	; 17
		gpParse = gpParse << 1;
	}
	
	for(uint8_t i = 0; i<17; i++)
	{
		PORTG |= (1 << PG0); //turn clock pin high
    12be:	a0 9a       	sbi	0x14, 0	; 20
		if(trigLEDParse&32768)
    12c0:	99 23       	and	r25, r25
    12c2:	14 f4       	brge	.+4      	; 0x12c8 <parseLEDs+0x24>
		{
			PORTG |= (1 << PG1); //send current 1's place bit to the data pin
    12c4:	a1 9a       	sbi	0x14, 1	; 20
    12c6:	01 c0       	rjmp	.+2      	; 0x12ca <parseLEDs+0x26>
		}
		else
		{
			PORTG &= (~(1 << PG1));
    12c8:	a1 98       	cbi	0x14, 1	; 20
		}
		PORTG &= (~(1 << PG0)); //turn clock pin low.
    12ca:	a0 98       	cbi	0x14, 0	; 20
		trigLEDParse = trigLEDParse << 1;
    12cc:	88 0f       	add	r24, r24
    12ce:	99 1f       	adc	r25, r25
    12d0:	21 50       	subi	r18, 0x01	; 1
		}
		PORTG &= (~(1 << PG0)); //turn clock pin low.
		gpParse = gpParse << 1;
	}
	
	for(uint8_t i = 0; i<17; i++)
    12d2:	a9 f7       	brne	.-22     	; 0x12be <parseLEDs+0x1a>
		PORTG &= (~(1 << PG0)); //turn clock pin low.
		trigLEDParse = trigLEDParse << 1;
	}
	
	
	PORTG |= (1 << PG2); //latch pin high
    12d4:	a2 9a       	sbi	0x14, 2	; 20
    12d6:	08 95       	ret

000012d8 <updateLEDs>:
}

void updateLEDs(Pattern ledCurrentPattern, Globals currentGlobals)
{
    12d8:	cf 93       	push	r28
    12da:	df 93       	push	r29
    12dc:	cd b7       	in	r28, 0x3d	; 61
    12de:	de b7       	in	r29, 0x3e	; 62
    12e0:	cf 57       	subi	r28, 0x7F	; 127
    12e2:	de 4f       	sbci	r29, 0xFE	; 254
    12e4:	28 81       	ld	r18, Y
    12e6:	39 81       	ldd	r19, Y+1	; 0x01
    12e8:	c1 58       	subi	r28, 0x81	; 129
    12ea:	d1 40       	sbci	r29, 0x01	; 1
    12ec:	cd 57       	subi	r28, 0x7D	; 125
    12ee:	de 4f       	sbci	r29, 0xFE	; 254
    12f0:	68 81       	ld	r22, Y
    12f2:	c3 58       	subi	r28, 0x83	; 131
    12f4:	d1 40       	sbci	r29, 0x01	; 1
	uint8_t shiftedState = currentGlobals.menuState >> 4; //this will get rid of EncoderB
	switch(shiftedState)
    12f6:	c9 57       	subi	r28, 0x79	; 121
    12f8:	de 4f       	sbci	r29, 0xFE	; 254
    12fa:	98 81       	ld	r25, Y
    12fc:	c7 58       	subi	r28, 0x87	; 135
    12fe:	d1 40       	sbci	r29, 0x01	; 1
    1300:	92 95       	swap	r25
    1302:	9f 70       	andi	r25, 0x0F	; 15
    1304:	91 30       	cpi	r25, 0x01	; 1
    1306:	49 f0       	breq	.+18     	; 0x131a <updateLEDs+0x42>
    1308:	28 f0       	brcs	.+10     	; 0x1314 <updateLEDs+0x3c>
    130a:	92 30       	cpi	r25, 0x02	; 2
    130c:	d1 f0       	breq	.+52     	; 0x1342 <updateLEDs+0x6a>
    130e:	93 30       	cpi	r25, 0x03	; 3
    1310:	d9 f0       	breq	.+54     	; 0x1348 <updateLEDs+0x70>
    1312:	1c c0       	rjmp	.+56     	; 0x134c <updateLEDs+0x74>
	{
		case 0:
		parseLEDs(currentGlobals.currentTrigButtons, currentGlobals.currentGPButtons);
    1314:	c9 01       	movw	r24, r18
    1316:	c6 df       	rcall	.-116    	; 0x12a4 <parseLEDs>
		break;
    1318:	19 c0       	rjmp	.+50     	; 0x134c <updateLEDs+0x74>

		case 1:
		parseLEDs(ledCurrentPattern.trackSequence[currentGlobals.currentStep], currentGlobals.currentGPButtons);
    131a:	cb 57       	subi	r28, 0x7B	; 123
    131c:	de 4f       	sbci	r29, 0xFE	; 254
    131e:	e8 81       	ld	r30, Y
    1320:	c5 58       	subi	r28, 0x85	; 133
    1322:	d1 40       	sbci	r29, 0x01	; 1
    1324:	f0 e0       	ldi	r31, 0x00	; 0
    1326:	ee 0f       	add	r30, r30
    1328:	ff 1f       	adc	r31, r31
    132a:	86 e0       	ldi	r24, 0x06	; 6
    132c:	90 e0       	ldi	r25, 0x00	; 0
    132e:	8c 0f       	add	r24, r28
    1330:	9d 1f       	adc	r25, r29
    1332:	e8 0f       	add	r30, r24
    1334:	f9 1f       	adc	r31, r25
    1336:	e5 50       	subi	r30, 0x05	; 5
    1338:	ff 4f       	sbci	r31, 0xFF	; 255
    133a:	80 81       	ld	r24, Z
    133c:	91 81       	ldd	r25, Z+1	; 0x01
    133e:	b2 df       	rcall	.-156    	; 0x12a4 <parseLEDs>
		break;

		case 2:
		parseLEDs(currentGlobals.currentTrigButtons, currentGlobals.currentGPButtons);
    1340:	05 c0       	rjmp	.+10     	; 0x134c <updateLEDs+0x74>
    1342:	c9 01       	movw	r24, r18
		break;
    1344:	af df       	rcall	.-162    	; 0x12a4 <parseLEDs>

		case 3:
		parseLEDs(currentGlobals.currentTrigButtons, currentGlobals.currentGPButtons);
    1346:	02 c0       	rjmp	.+4      	; 0x134c <updateLEDs+0x74>
    1348:	c9 01       	movw	r24, r18
    134a:	ac df       	rcall	.-168    	; 0x12a4 <parseLEDs>
		break;
	}

}
    134c:	df 91       	pop	r29
    134e:	cf 91       	pop	r28
    1350:	08 95       	ret

00001352 <main>:
//Pattern may not need to be volatile, but I'd like to keep it around. 
volatile Pattern currentPattern;
volatile Globals currentGlobals;
volatile uint32_t globalTimer = 0;

int main(){
    1352:	cf 93       	push	r28
    1354:	df 93       	push	r29
    1356:	cd b7       	in	r28, 0x3d	; 61
    1358:	de b7       	in	r29, 0x3e	; 62
    135a:	c2 5b       	subi	r28, 0xB2	; 178
    135c:	d3 40       	sbci	r29, 0x03	; 3
    135e:	0f b6       	in	r0, 0x3f	; 63
    1360:	f8 94       	cli
    1362:	de bf       	out	0x3e, r29	; 62
    1364:	0f be       	out	0x3f, r0	; 63
    1366:	cd bf       	out	0x3d, r28	; 61
	uint8_t factoryReset=0; // set this to 1 if you would like to fill the eeprom with Factory data, and erase all user data.
    1368:	19 82       	std	Y+1, r1	; 0x01
	Screen screenBank;
	char testArray[21] = "CurrentTime:         ";
	
	initScreen();
    136a:	0e 94 57 13 	call	0x26ae	; 0x26ae <initScreen>
	initButtons();
    136e:	0e 94 47 01 	call	0x28e	; 0x28e <initButtons>
	initEncoders();
    1372:	8f d8       	rcall	.-3810   	; 0x492 <initEncoders>
	initBank(&currentPattern);
    1374:	80 e0       	ldi	r24, 0x00	; 0
    1376:	94 e0       	ldi	r25, 0x04	; 4
    1378:	8d db       	rcall	.-2278   	; 0xa94 <initBank>
	twi_init();
    137a:	0e 94 60 19 	call	0x32c0	; 0x32c0 <twi_init>
	sei();
    137e:	78 94       	sei
	//factory Reset, we should turn this into a global function. 
	factoryResetCheck(&factoryReset,&currentPattern, &currentGlobals);
    1380:	4b e7       	ldi	r20, 0x7B	; 123
    1382:	55 e0       	ldi	r21, 0x05	; 5
    1384:	60 e0       	ldi	r22, 0x00	; 0
    1386:	74 e0       	ldi	r23, 0x04	; 4
    1388:	ce 01       	movw	r24, r28
    138a:	01 96       	adiw	r24, 0x01	; 1
	
	initTimer();
    138c:	3f dc       	rcall	.-1922   	; 0xc0c <factoryResetCheck>
    138e:	f4 db       	rcall	.-2072   	; 0xb78 <initTimer>
	initGlobals(&currentGlobals, factoryReset);
    1390:	69 81       	ldd	r22, Y+1	; 0x01
    1392:	8b e7       	ldi	r24, 0x7B	; 123
	initLEDs();
    1394:	95 e0       	ldi	r25, 0x05	; 5
    1396:	ad db       	rcall	.-2214   	; 0xaf2 <initGlobals>
	initADC();
    1398:	82 df       	rcall	.-252    	; 0x129e <initLEDs>
    139a:	d7 dc       	rcall	.-1618   	; 0xd4a <initADC>
	serialInit0();
    139c:	0e 94 b8 16 	call	0x2d70	; 0x2d70 <serialInit0>
	initMidi();
    13a0:	0e 94 b0 12 	call	0x2560	; 0x2560 <initMidi>
	//initEnvelopes();
	//initSequencer();
	
	
	eepromLoadPattern(&currentPattern,currentGlobals.currentPatternNumber);
    13a4:	60 91 7e 05 	lds	r22, 0x057E	; 0x80057e <currentGlobals+0x3>
    13a8:	80 e0       	ldi	r24, 0x00	; 0
    13aa:	94 e0       	ldi	r25, 0x04	; 4
    13ac:	0e 94 ab 1b 	call	0x3756	; 0x3756 <eepromLoadPattern>
	for(uint16_t i = 0; i<440; i++ ) //we need to load the FilterKnobbuffer into a stable state 
    13b0:	00 e0       	ldi	r16, 0x00	; 0
    13b2:	10 e0       	ldi	r17, 0x00	; 0
	{
		uint8_t loadSelect = i%44;
    13b4:	0f 2e       	mov	r0, r31
    13b6:	fc e2       	ldi	r31, 0x2C	; 44
    13b8:	df 2e       	mov	r13, r31
    13ba:	f0 2d       	mov	r31, r0
    13bc:	98 01       	movw	r18, r16
    13be:	af e2       	ldi	r26, 0x2F	; 47
    13c0:	ba eb       	ldi	r27, 0xBA	; 186
    13c2:	0e 94 c4 1f 	call	0x3f88	; 0x3f88 <__umulhisi3>
    13c6:	96 95       	lsr	r25
    13c8:	87 95       	ror	r24
    13ca:	92 95       	swap	r25
    13cc:	82 95       	swap	r24
    13ce:	8f 70       	andi	r24, 0x0F	; 15
    13d0:	89 27       	eor	r24, r25
    13d2:	9f 70       	andi	r25, 0x0F	; 15
    13d4:	89 27       	eor	r24, r25
    13d6:	d8 9e       	mul	r13, r24
    13d8:	90 01       	movw	r18, r0
    13da:	d9 9e       	mul	r13, r25
    13dc:	30 0d       	add	r19, r0
    13de:	11 24       	eor	r1, r1
    13e0:	78 01       	movw	r14, r16
    13e2:	e2 1a       	sub	r14, r18
		selectKnob(loadSelect);
    13e4:	f3 0a       	sbc	r15, r19
    13e6:	8e 2d       	mov	r24, r14
    13e8:	c5 dc       	rcall	.-1654   	; 0xd74 <selectKnob>
		updateKnob(loadSelect, &currentGlobals);
    13ea:	6b e7       	ldi	r22, 0x7B	; 123
    13ec:	75 e0       	ldi	r23, 0x05	; 5
    13ee:	8e 2d       	mov	r24, r14
    13f0:	01 dd       	rcall	.-1534   	; 0xdf4 <updateKnob>
    13f2:	0f 5f       	subi	r16, 0xFF	; 255
	//initEnvelopes();
	//initSequencer();
	
	
	eepromLoadPattern(&currentPattern,currentGlobals.currentPatternNumber);
	for(uint16_t i = 0; i<440; i++ ) //we need to load the FilterKnobbuffer into a stable state 
    13f4:	1f 4f       	sbci	r17, 0xFF	; 255
    13f6:	08 3b       	cpi	r16, 0xB8	; 184
    13f8:	81 e0       	ldi	r24, 0x01	; 1
    13fa:	18 07       	cpc	r17, r24
    13fc:	f9 f6       	brne	.-66     	; 0x13bc <main+0x6a>
	{
		uint8_t loadSelect = i%44;
		selectKnob(loadSelect);
		updateKnob(loadSelect, &currentGlobals);
	}
	initializeKnob(&currentGlobals); //then copy it to the lastFilteredKnobBuffer. 
    13fe:	8b e7       	ldi	r24, 0x7B	; 123
    1400:	95 e0       	ldi	r25, 0x05	; 5
    1402:	17 dd       	rcall	.-1490   	; 0xe32 <initializeKnob>
    1404:	69 81       	ldd	r22, Y+1	; 0x01
	globalLoad(&currentGlobals, factoryReset);
    1406:	8b e7       	ldi	r24, 0x7B	; 123
    1408:	95 e0       	ldi	r25, 0x05	; 5
    140a:	0e 94 cc 1d 	call	0x3b98	; 0x3b98 <globalLoad>
    140e:	8d b7       	in	r24, 0x3d	; 61
	initMenu(&screenBank, currentPattern, currentGlobals); //fills screenBank with menu strings
    1410:	9e b7       	in	r25, 0x3e	; 62
    1412:	8d 5e       	subi	r24, 0xED	; 237
    1414:	91 09       	sbc	r25, r1
    1416:	0f b6       	in	r0, 0x3f	; 63
    1418:	f8 94       	cli
    141a:	9e bf       	out	0x3e, r25	; 62
    141c:	0f be       	out	0x3f, r0	; 63
    141e:	8d bf       	out	0x3d, r24	; 61
    1420:	ad b7       	in	r26, 0x3d	; 61
    1422:	be b7       	in	r27, 0x3e	; 62
    1424:	11 96       	adiw	r26, 0x01	; 1
    1426:	8d ee       	ldi	r24, 0xED	; 237
    1428:	eb e7       	ldi	r30, 0x7B	; 123
    142a:	f5 e0       	ldi	r31, 0x05	; 5
    142c:	01 90       	ld	r0, Z+
    142e:	0d 92       	st	X+, r0
    1430:	8a 95       	dec	r24
    1432:	e1 f7       	brne	.-8      	; 0x142c <main+0xda>
    1434:	8d b7       	in	r24, 0x3d	; 61
    1436:	9e b7       	in	r25, 0x3e	; 62
    1438:	8b 57       	subi	r24, 0x7B	; 123
    143a:	91 40       	sbci	r25, 0x01	; 1
    143c:	0f b6       	in	r0, 0x3f	; 63
    143e:	f8 94       	cli
    1440:	9e bf       	out	0x3e, r25	; 62
    1442:	0f be       	out	0x3f, r0	; 63
    1444:	8d bf       	out	0x3d, r24	; 61
    1446:	ad b7       	in	r26, 0x3d	; 61
    1448:	be b7       	in	r27, 0x3e	; 62
    144a:	11 96       	adiw	r26, 0x01	; 1
    144c:	8b e7       	ldi	r24, 0x7B	; 123
    144e:	91 e0       	ldi	r25, 0x01	; 1
    1450:	e0 e0       	ldi	r30, 0x00	; 0
    1452:	f4 e0       	ldi	r31, 0x04	; 4
    1454:	01 90       	ld	r0, Z+
    1456:	0d 92       	st	X+, r0
    1458:	01 97       	sbiw	r24, 0x01	; 1
    145a:	e1 f7       	brne	.-8      	; 0x1454 <main+0x102>
    145c:	ce 01       	movw	r24, r28
    145e:	02 96       	adiw	r24, 0x02	; 2
    1460:	2c d1       	rcall	.+600    	; 0x16ba <initMenu>
    1462:	f8 94       	cli
	//this ISR is used for Button De-Bouncing. Maybe we could put it somewhere else. 
	//TCCR2B = 1<<CS22;//using 256 from pre-scaler
	//TIMSK2 = 1<<TOIE2; //interupt on counter overflow. since we're interupting on value 256 of with a 256 pre-scaler, we're calling this function every 65,536
	//clock cycles. at 16MHz, that equates to every 0.004096, seconds, or every 4 milliseconds. We ~~~should be able to do the same thing from our global counter.

	cli(); //this may not be needed, but also may be effecting things since we're setting interrupt registers after sei has already happened. 
    1464:	78 94       	sei
	sei();
    1466:	0f b6       	in	r0, 0x3f	; 63
    1468:	f8 94       	cli
    146a:	de bf       	out	0x3e, r29	; 62
    146c:	0f be       	out	0x3f, r0	; 63
    146e:	cd bf       	out	0x3d, r28	; 61
    1470:	40 91 f1 03 	lds	r20, 0x03F1	; 0x8003f1 <globalTimer>


while(1) {
	
	
	updateTimers(&currentGlobals, globalTimer); //we update our global timers here. 
    1474:	50 91 f2 03 	lds	r21, 0x03F2	; 0x8003f2 <globalTimer+0x1>
    1478:	60 91 f3 03 	lds	r22, 0x03F3	; 0x8003f3 <globalTimer+0x2>
    147c:	70 91 f4 03 	lds	r23, 0x03F4	; 0x8003f4 <globalTimer+0x3>
    1480:	8b e7       	ldi	r24, 0x7B	; 123
    1482:	95 e0       	ldi	r25, 0x05	; 5
    1484:	85 db       	rcall	.-2294   	; 0xb90 <updateTimers>
    1486:	6b e7       	ldi	r22, 0x7B	; 123
	
	listenTrigButtons(&currentPattern, &currentGlobals);
    1488:	75 e0       	ldi	r23, 0x05	; 5
    148a:	80 e0       	ldi	r24, 0x00	; 0
    148c:	94 e0       	ldi	r25, 0x04	; 4
    148e:	0e 94 4e 01 	call	0x29c	; 0x29c <listenTrigButtons>
    1492:	0b e7       	ldi	r16, 0x7B	; 123
	listenGPButtons(currentPattern, &currentGlobals);
    1494:	15 e0       	ldi	r17, 0x05	; 5
    1496:	1f 93       	push	r17
    1498:	0f 93       	push	r16
    149a:	8d b7       	in	r24, 0x3d	; 61
    149c:	9e b7       	in	r25, 0x3e	; 62
    149e:	8b 57       	subi	r24, 0x7B	; 123
    14a0:	91 40       	sbci	r25, 0x01	; 1
    14a2:	0f b6       	in	r0, 0x3f	; 63
    14a4:	f8 94       	cli
    14a6:	9e bf       	out	0x3e, r25	; 62
    14a8:	0f be       	out	0x3f, r0	; 63
    14aa:	8d bf       	out	0x3d, r24	; 61
    14ac:	ad b7       	in	r26, 0x3d	; 61
    14ae:	be b7       	in	r27, 0x3e	; 62
    14b0:	11 96       	adiw	r26, 0x01	; 1
    14b2:	8b e7       	ldi	r24, 0x7B	; 123
    14b4:	91 e0       	ldi	r25, 0x01	; 1
    14b6:	e0 e0       	ldi	r30, 0x00	; 0
    14b8:	f4 e0       	ldi	r31, 0x04	; 4
    14ba:	01 90       	ld	r0, Z+
    14bc:	0d 92       	st	X+, r0
    14be:	01 97       	sbiw	r24, 0x01	; 1
    14c0:	e1 f7       	brne	.-8      	; 0x14ba <main+0x168>
    14c2:	0e 94 b7 01 	call	0x36e	; 0x36e <listenGPButtons>
    14c6:	8d b7       	in	r24, 0x3d	; 61
	updateLEDs(currentPattern, currentGlobals);
    14c8:	9e b7       	in	r25, 0x3e	; 62
    14ca:	83 58       	subi	r24, 0x83	; 131
    14cc:	9e 4f       	sbci	r25, 0xFE	; 254
    14ce:	0f b6       	in	r0, 0x3f	; 63
    14d0:	f8 94       	cli
    14d2:	de bf       	out	0x3e, r29	; 62
    14d4:	0f be       	out	0x3f, r0	; 63
    14d6:	cd bf       	out	0x3d, r28	; 61
    14d8:	8d 5e       	subi	r24, 0xED	; 237
    14da:	91 09       	sbc	r25, r1
    14dc:	0f b6       	in	r0, 0x3f	; 63
    14de:	f8 94       	cli
    14e0:	9e bf       	out	0x3e, r25	; 62
    14e2:	0f be       	out	0x3f, r0	; 63
    14e4:	8d bf       	out	0x3d, r24	; 61
    14e6:	ad b7       	in	r26, 0x3d	; 61
    14e8:	be b7       	in	r27, 0x3e	; 62
    14ea:	11 96       	adiw	r26, 0x01	; 1
    14ec:	8d ee       	ldi	r24, 0xED	; 237
    14ee:	f8 01       	movw	r30, r16
    14f0:	01 90       	ld	r0, Z+
    14f2:	0d 92       	st	X+, r0
    14f4:	8a 95       	dec	r24
    14f6:	e1 f7       	brne	.-8      	; 0x14f0 <main+0x19e>
    14f8:	8d b7       	in	r24, 0x3d	; 61
    14fa:	9e b7       	in	r25, 0x3e	; 62
    14fc:	8b 57       	subi	r24, 0x7B	; 123
    14fe:	91 40       	sbci	r25, 0x01	; 1
    1500:	0f b6       	in	r0, 0x3f	; 63
    1502:	f8 94       	cli
    1504:	9e bf       	out	0x3e, r25	; 62
    1506:	0f be       	out	0x3f, r0	; 63
    1508:	8d bf       	out	0x3d, r24	; 61
    150a:	ad b7       	in	r26, 0x3d	; 61
    150c:	be b7       	in	r27, 0x3e	; 62
    150e:	11 96       	adiw	r26, 0x01	; 1
    1510:	8b e7       	ldi	r24, 0x7B	; 123
    1512:	91 e0       	ldi	r25, 0x01	; 1
    1514:	e0 e0       	ldi	r30, 0x00	; 0
    1516:	f4 e0       	ldi	r31, 0x04	; 4
    1518:	01 90       	ld	r0, Z+
    151a:	0d 92       	st	X+, r0
    151c:	01 97       	sbiw	r24, 0x01	; 1
    151e:	e1 f7       	brne	.-8      	; 0x1518 <main+0x1c6>
    1520:	db de       	rcall	.-586    	; 0x12d8 <updateLEDs>
	listenEncoders(&currentPattern, &currentGlobals);
    1522:	0f b6       	in	r0, 0x3f	; 63
    1524:	f8 94       	cli
    1526:	de bf       	out	0x3e, r29	; 62
    1528:	0f be       	out	0x3f, r0	; 63
    152a:	cd bf       	out	0x3d, r28	; 61
    152c:	b8 01       	movw	r22, r16
    152e:	80 e0       	ldi	r24, 0x00	; 0
    1530:	94 e0       	ldi	r25, 0x04	; 4
    1532:	3d d8       	rcall	.-3974   	; 0x5ae <listenEncoders>
	listenKnobs(&currentPattern, &currentGlobals);
    1534:	b8 01       	movw	r22, r16
    1536:	80 e0       	ldi	r24, 0x00	; 0
    1538:	94 e0       	ldi	r25, 0x04	; 4
    153a:	97 de       	rcall	.-722    	; 0x126a <listenKnobs>
    153c:	1f 93       	push	r17
	updateSequencer(currentPattern, &currentGlobals);
    153e:	0f 93       	push	r16
    1540:	8d b7       	in	r24, 0x3d	; 61
    1542:	9e b7       	in	r25, 0x3e	; 62
    1544:	8b 57       	subi	r24, 0x7B	; 123
    1546:	91 40       	sbci	r25, 0x01	; 1
    1548:	0f b6       	in	r0, 0x3f	; 63
    154a:	f8 94       	cli
    154c:	9e bf       	out	0x3e, r25	; 62
    154e:	0f be       	out	0x3f, r0	; 63
    1550:	8d bf       	out	0x3d, r24	; 61
    1552:	ad b7       	in	r26, 0x3d	; 61
    1554:	be b7       	in	r27, 0x3e	; 62
    1556:	11 96       	adiw	r26, 0x01	; 1
    1558:	8b e7       	ldi	r24, 0x7B	; 123
    155a:	91 e0       	ldi	r25, 0x01	; 1
    155c:	e0 e0       	ldi	r30, 0x00	; 0
    155e:	f4 e0       	ldi	r31, 0x04	; 4
    1560:	01 90       	ld	r0, Z+
    1562:	0d 92       	st	X+, r0
    1564:	01 97       	sbiw	r24, 0x01	; 1
    1566:	e1 f7       	brne	.-8      	; 0x1560 <main+0x20e>
    1568:	0e 94 db 15 	call	0x2bb6	; 0x2bb6 <updateSequencer>
	updateScreen(&screenBank, &currentPattern, &currentGlobals);
    156c:	0f b6       	in	r0, 0x3f	; 63
    156e:	f8 94       	cli
    1570:	de bf       	out	0x3e, r29	; 62
    1572:	0f be       	out	0x3f, r0	; 63
    1574:	cd bf       	out	0x3d, r28	; 61
    1576:	a8 01       	movw	r20, r16
    1578:	60 e0       	ldi	r22, 0x00	; 0
    157a:	74 e0       	ldi	r23, 0x04	; 4
    157c:	ce 01       	movw	r24, r28
    157e:	02 96       	adiw	r24, 0x02	; 2
    1580:	dc d1       	rcall	.+952    	; 0x193a <updateScreen>
    1582:	8d b7       	in	r24, 0x3d	; 61
	midiRead(currentPattern, currentGlobals);
    1584:	9e b7       	in	r25, 0x3e	; 62
    1586:	8d 5e       	subi	r24, 0xED	; 237
    1588:	91 09       	sbc	r25, r1
    158a:	0f b6       	in	r0, 0x3f	; 63
    158c:	f8 94       	cli
    158e:	9e bf       	out	0x3e, r25	; 62
    1590:	0f be       	out	0x3f, r0	; 63
    1592:	8d bf       	out	0x3d, r24	; 61
    1594:	ad b7       	in	r26, 0x3d	; 61
    1596:	be b7       	in	r27, 0x3e	; 62
    1598:	11 96       	adiw	r26, 0x01	; 1
    159a:	8d ee       	ldi	r24, 0xED	; 237
    159c:	f8 01       	movw	r30, r16
    159e:	01 90       	ld	r0, Z+
    15a0:	0d 92       	st	X+, r0
    15a2:	8a 95       	dec	r24
    15a4:	e1 f7       	brne	.-8      	; 0x159e <main+0x24c>
    15a6:	8d b7       	in	r24, 0x3d	; 61
    15a8:	9e b7       	in	r25, 0x3e	; 62
    15aa:	8b 57       	subi	r24, 0x7B	; 123
    15ac:	91 40       	sbci	r25, 0x01	; 1
    15ae:	0f b6       	in	r0, 0x3f	; 63
    15b0:	f8 94       	cli
    15b2:	9e bf       	out	0x3e, r25	; 62
    15b4:	0f be       	out	0x3f, r0	; 63
    15b6:	8d bf       	out	0x3d, r24	; 61
    15b8:	ad b7       	in	r26, 0x3d	; 61
    15ba:	be b7       	in	r27, 0x3e	; 62
    15bc:	11 96       	adiw	r26, 0x01	; 1
    15be:	8b e7       	ldi	r24, 0x7B	; 123
    15c0:	91 e0       	ldi	r25, 0x01	; 1
    15c2:	e0 e0       	ldi	r30, 0x00	; 0
    15c4:	f4 e0       	ldi	r31, 0x04	; 4
    15c6:	01 90       	ld	r0, Z+
    15c8:	0d 92       	st	X+, r0
    15ca:	01 97       	sbiw	r24, 0x01	; 1
    15cc:	e1 f7       	brne	.-8      	; 0x15c6 <main+0x274>
    15ce:	d8 d7       	rcall	.+4016   	; 0x2580 <midiRead>
    15d0:	0f b6       	in	r0, 0x3f	; 63
	releaseUpdate(&currentPattern, &currentGlobals);
    15d2:	f8 94       	cli
    15d4:	de bf       	out	0x3e, r29	; 62
    15d6:	0f be       	out	0x3f, r0	; 63
    15d8:	cd bf       	out	0x3d, r28	; 61
    15da:	b8 01       	movw	r22, r16
    15dc:	80 e0       	ldi	r24, 0x00	; 0
    15de:	94 e0       	ldi	r25, 0x04	; 4
    15e0:	0e 94 e2 18 	call	0x31c4	; 0x31c4 <releaseUpdate>
    15e4:	45 cf       	rjmp	.-374    	; 0x1470 <main+0x11e>

000015e6 <__vector_13>:
    15e6:	1f 92       	push	r1
	//outputS(testArray,0);
	}
}

ISR(TIMER2_COMPA_vect)
{
    15e8:	0f 92       	push	r0
    15ea:	0f b6       	in	r0, 0x3f	; 63
    15ec:	0f 92       	push	r0
    15ee:	11 24       	eor	r1, r1
    15f0:	0b b6       	in	r0, 0x3b	; 59
    15f2:	0f 92       	push	r0
    15f4:	2f 93       	push	r18
    15f6:	3f 93       	push	r19
    15f8:	4f 93       	push	r20
    15fa:	5f 93       	push	r21
    15fc:	6f 93       	push	r22
    15fe:	7f 93       	push	r23
    1600:	8f 93       	push	r24
    1602:	9f 93       	push	r25
    1604:	af 93       	push	r26
    1606:	bf 93       	push	r27
    1608:	ef 93       	push	r30
    160a:	ff 93       	push	r31
	globalTimer++; //this counts in one order of magnitude smaller than millis : 0.0001 seconds. 
    160c:	80 91 f1 03 	lds	r24, 0x03F1	; 0x8003f1 <globalTimer>
    1610:	90 91 f2 03 	lds	r25, 0x03F2	; 0x8003f2 <globalTimer+0x1>
    1614:	a0 91 f3 03 	lds	r26, 0x03F3	; 0x8003f3 <globalTimer+0x2>
    1618:	b0 91 f4 03 	lds	r27, 0x03F4	; 0x8003f4 <globalTimer+0x3>
    161c:	01 96       	adiw	r24, 0x01	; 1
    161e:	a1 1d       	adc	r26, r1
    1620:	b1 1d       	adc	r27, r1
    1622:	80 93 f1 03 	sts	0x03F1, r24	; 0x8003f1 <globalTimer>
    1626:	90 93 f2 03 	sts	0x03F2, r25	; 0x8003f2 <globalTimer+0x1>
    162a:	a0 93 f3 03 	sts	0x03F3, r26	; 0x8003f3 <globalTimer+0x2>
    162e:	b0 93 f4 03 	sts	0x03F4, r27	; 0x8003f4 <globalTimer+0x3>
	//we don't want to do anything else here.
	if(globalTimer%40==0) //every 40 ticks, we want to call Debounce
    1632:	60 91 f1 03 	lds	r22, 0x03F1	; 0x8003f1 <globalTimer>
    1636:	70 91 f2 03 	lds	r23, 0x03F2	; 0x8003f2 <globalTimer+0x1>
    163a:	80 91 f3 03 	lds	r24, 0x03F3	; 0x8003f3 <globalTimer+0x2>
    163e:	90 91 f4 03 	lds	r25, 0x03F4	; 0x8003f4 <globalTimer+0x3>
    1642:	28 e2       	ldi	r18, 0x28	; 40
    1644:	30 e0       	ldi	r19, 0x00	; 0
    1646:	40 e0       	ldi	r20, 0x00	; 0
    1648:	50 e0       	ldi	r21, 0x00	; 0
    164a:	0e 94 7e 1f 	call	0x3efc	; 0x3efc <__udivmodsi4>
    164e:	67 2b       	or	r22, r23
    1650:	68 2b       	or	r22, r24
    1652:	69 2b       	or	r22, r25
    1654:	f9 f4       	brne	.+62     	; 0x1694 <__vector_13+0xae>

static inline void debounce() //is this Timer interrupt too long?
{
	static uint8_t vcount_low = 0xFF, vcount_high = 0xFF;
	static uint8_t button_state = 0;
	uint8_t state_changed = ~BUTTON_PIN ^ button_state;
    1656:	83 b1       	in	r24, 0x03	; 3
    1658:	20 91 f0 03 	lds	r18, 0x03F0	; 0x8003f0 <button_state.1743>
    165c:	80 95       	com	r24
    165e:	38 2f       	mov	r19, r24
    1660:	32 27       	eor	r19, r18
	VC_DEC_OR_SET(vcount_high, vcount_low, state_changed);
    1662:	90 91 08 02 	lds	r25, 0x0208	; 0x800208 <vcount_low.1741>
    1666:	93 23       	and	r25, r19
    1668:	89 2f       	mov	r24, r25
    166a:	80 95       	com	r24
    166c:	80 93 08 02 	sts	0x0208, r24	; 0x800208 <vcount_low.1741>
    1670:	90 91 07 02 	lds	r25, 0x0207	; 0x800207 <vcount_high.1742>
    1674:	93 23       	and	r25, r19
    1676:	98 27       	eor	r25, r24
    1678:	90 93 07 02 	sts	0x0207, r25	; 0x800207 <vcount_high.1742>
    167c:	83 23       	and	r24, r19
	state_changed &= vcount_low & vcount_high;
    167e:	89 23       	and	r24, r25
	button_state ^= state_changed;
    1680:	92 2f       	mov	r25, r18
    1682:	98 27       	eor	r25, r24
    1684:	90 93 f0 03 	sts	0x03F0, r25	; 0x8003f0 <button_state.1743>
	buttons_down |= button_state&state_changed;
    1688:	20 91 fe 03 	lds	r18, 0x03FE	; 0x8003fe <buttons_down>
    168c:	89 23       	and	r24, r25
    168e:	82 2b       	or	r24, r18
    1690:	80 93 fe 03 	sts	0x03FE, r24	; 0x8003fe <buttons_down>
	{
		debounce();
	}
    1694:	ff 91       	pop	r31
    1696:	ef 91       	pop	r30
    1698:	bf 91       	pop	r27
    169a:	af 91       	pop	r26
    169c:	9f 91       	pop	r25
    169e:	8f 91       	pop	r24
    16a0:	7f 91       	pop	r23
    16a2:	6f 91       	pop	r22
    16a4:	5f 91       	pop	r21
    16a6:	4f 91       	pop	r20
    16a8:	3f 91       	pop	r19
    16aa:	2f 91       	pop	r18
    16ac:	0f 90       	pop	r0
    16ae:	0b be       	out	0x3b, r0	; 59
    16b0:	0f 90       	pop	r0
    16b2:	0f be       	out	0x3f, r0	; 63
    16b4:	0f 90       	pop	r0
    16b6:	1f 90       	pop	r1
    16b8:	18 95       	reti

000016ba <initMenu>:
uint8_t prevMenuState; //do we need this anymore?

//I don't like using a global extern here, instead of a passed pointer,
//but I can't seem to get the struct to stay in scope.
void initMenu(Screen *initTheScreen, Pattern currentPattern, Globals currentGlobals)
{
    16ba:	cf 92       	push	r12
    16bc:	df 92       	push	r13
    16be:	ef 92       	push	r14
    16c0:	ff 92       	push	r15
    16c2:	0f 93       	push	r16
    16c4:	1f 93       	push	r17
    16c6:	cf 93       	push	r28
    16c8:	df 93       	push	r29
    16ca:	cd b7       	in	r28, 0x3d	; 61
    16cc:	de b7       	in	r29, 0x3e	; 62
    16ce:	8c 01       	movw	r16, r24
    16d0:	c6 57       	subi	r28, 0x76	; 118
    16d2:	de 4f       	sbci	r29, 0xFE	; 254
    16d4:	e8 80       	ld	r14, Y
    16d6:	ca 58       	subi	r28, 0x8A	; 138
    16d8:	d1 40       	sbci	r29, 0x01	; 1

//screen0
initArrays(initTheScreen->screen0,0,"Performance Mode");
    16da:	41 ea       	ldi	r20, 0xA1	; 161
    16dc:	52 e0       	ldi	r21, 0x02	; 2
    16de:	60 e0       	ldi	r22, 0x00	; 0
    16e0:	70 e0       	ldi	r23, 0x00	; 0
    16e2:	99 d9       	rcall	.-3278   	; 0xa16 <initArrays>
initArrays(initTheScreen->screen0,1,"Pattern:");
    16e4:	42 eb       	ldi	r20, 0xB2	; 178
    16e6:	52 e0       	ldi	r21, 0x02	; 2
    16e8:	61 e0       	ldi	r22, 0x01	; 1
    16ea:	70 e0       	ldi	r23, 0x00	; 0
    16ec:	c8 01       	movw	r24, r16
    16ee:	93 d9       	rcall	.-3290   	; 0xa16 <initArrays>
initArrays(initTheScreen->screen0,2,"BPM:");
    16f0:	4b eb       	ldi	r20, 0xBB	; 187
    16f2:	52 e0       	ldi	r21, 0x02	; 2
    16f4:	62 e0       	ldi	r22, 0x02	; 2
    16f6:	70 e0       	ldi	r23, 0x00	; 0
    16f8:	c8 01       	movw	r24, r16
    16fa:	8d d9       	rcall	.-3302   	; 0xa16 <initArrays>
initArrays(initTheScreen->screen0,3,"Stop");
    16fc:	40 ec       	ldi	r20, 0xC0	; 192
    16fe:	52 e0       	ldi	r21, 0x02	; 2
    1700:	63 e0       	ldi	r22, 0x03	; 3
    1702:	70 e0       	ldi	r23, 0x00	; 0
    1704:	c8 01       	movw	r24, r16
    1706:	87 d9       	rcall	.-3314   	; 0xa16 <initArrays>

//screen1
initArrays(initTheScreen->screen1,0,"Sequence Edit");
    1708:	68 01       	movw	r12, r16
    170a:	8d eb       	ldi	r24, 0xBD	; 189
    170c:	c8 0e       	add	r12, r24
    170e:	d1 1c       	adc	r13, r1
    1710:	45 ec       	ldi	r20, 0xC5	; 197
    1712:	52 e0       	ldi	r21, 0x02	; 2
    1714:	60 e0       	ldi	r22, 0x00	; 0
    1716:	70 e0       	ldi	r23, 0x00	; 0
    1718:	c6 01       	movw	r24, r12
    171a:	7d d9       	rcall	.-3334   	; 0xa16 <initArrays>
initArrays(initTheScreen->screen1,1,"Pattern:");
    171c:	42 eb       	ldi	r20, 0xB2	; 178
    171e:	52 e0       	ldi	r21, 0x02	; 2
    1720:	61 e0       	ldi	r22, 0x01	; 1
    1722:	70 e0       	ldi	r23, 0x00	; 0
    1724:	c6 01       	movw	r24, r12
    1726:	77 d9       	rcall	.-3346   	; 0xa16 <initArrays>
initArrays(initTheScreen->screen1,2,"Steps:");
    1728:	43 ed       	ldi	r20, 0xD3	; 211
    172a:	52 e0       	ldi	r21, 0x02	; 2
    172c:	62 e0       	ldi	r22, 0x02	; 2
    172e:	70 e0       	ldi	r23, 0x00	; 0
    1730:	c6 01       	movw	r24, r12
    1732:	71 d9       	rcall	.-3358   	; 0xa16 <initArrays>
initArrays(initTheScreen->screen1,3,"Step number:");
    1734:	4a ed       	ldi	r20, 0xDA	; 218
    1736:	52 e0       	ldi	r21, 0x02	; 2
    1738:	63 e0       	ldi	r22, 0x03	; 3
    173a:	70 e0       	ldi	r23, 0x00	; 0
    173c:	c6 01       	movw	r24, r12
    173e:	6b d9       	rcall	.-3370   	; 0xa16 <initArrays>
    1740:	68 01       	movw	r12, r16

//screen2
initArrays(initTheScreen->screen2,0,"Track Settings");
    1742:	86 e8       	ldi	r24, 0x86	; 134
    1744:	c8 1a       	sub	r12, r24
    1746:	8e ef       	ldi	r24, 0xFE	; 254
    1748:	d8 0a       	sbc	r13, r24
    174a:	47 ee       	ldi	r20, 0xE7	; 231
    174c:	52 e0       	ldi	r21, 0x02	; 2
    174e:	60 e0       	ldi	r22, 0x00	; 0
    1750:	70 e0       	ldi	r23, 0x00	; 0
    1752:	c6 01       	movw	r24, r12
    1754:	60 d9       	rcall	.-3392   	; 0xa16 <initArrays>
initArrays(initTheScreen->screen2,1,"Track:");
    1756:	46 ef       	ldi	r20, 0xF6	; 246
    1758:	52 e0       	ldi	r21, 0x02	; 2
    175a:	61 e0       	ldi	r22, 0x01	; 1
    175c:	70 e0       	ldi	r23, 0x00	; 0
    175e:	c6 01       	movw	r24, r12
    1760:	5a d9       	rcall	.-3404   	; 0xa16 <initArrays>
initArrays(initTheScreen->screen2,2,"PlayMode:");
    1762:	4d ef       	ldi	r20, 0xFD	; 253
    1764:	52 e0       	ldi	r21, 0x02	; 2
    1766:	62 e0       	ldi	r22, 0x02	; 2
    1768:	70 e0       	ldi	r23, 0x00	; 0
    176a:	c6 01       	movw	r24, r12
    176c:	54 d9       	rcall	.-3416   	; 0xa16 <initArrays>
initArrays(initTheScreen->screen2,3,"OutRoute:");
    176e:	47 e0       	ldi	r20, 0x07	; 7
    1770:	53 e0       	ldi	r21, 0x03	; 3
    1772:	63 e0       	ldi	r22, 0x03	; 3
    1774:	70 e0       	ldi	r23, 0x00	; 0
    1776:	c6 01       	movw	r24, r12
    1778:	4e d9       	rcall	.-3428   	; 0xa16 <initArrays>
initArrays(initTheScreen->screen2,4,"EnvelopeMode:");
    177a:	41 e1       	ldi	r20, 0x11	; 17
    177c:	53 e0       	ldi	r21, 0x03	; 3
    177e:	64 e0       	ldi	r22, 0x04	; 4
    1780:	70 e0       	ldi	r23, 0x00	; 0
    1782:	c6 01       	movw	r24, r12
    1784:	48 d9       	rcall	.-3440   	; 0xa16 <initArrays>
    1786:	4f e1       	ldi	r20, 0x1F	; 31
initArrays(initTheScreen->screen2,5,"SustainTime:      S");
    1788:	53 e0       	ldi	r21, 0x03	; 3
    178a:	65 e0       	ldi	r22, 0x05	; 5
    178c:	70 e0       	ldi	r23, 0x00	; 0
    178e:	c6 01       	movw	r24, r12
    1790:	42 d9       	rcall	.-3452   	; 0xa16 <initArrays>
    1792:	68 01       	movw	r12, r16

//screen3
initArrays(initTheScreen->screen3,1,"Midi Channel:");
    1794:	89 ec       	ldi	r24, 0xC9	; 201
    1796:	c8 1a       	sub	r12, r24
    1798:	8d ef       	ldi	r24, 0xFD	; 253
    179a:	d8 0a       	sbc	r13, r24
    179c:	43 e3       	ldi	r20, 0x33	; 51
    179e:	53 e0       	ldi	r21, 0x03	; 3
    17a0:	61 e0       	ldi	r22, 0x01	; 1
    17a2:	70 e0       	ldi	r23, 0x00	; 0
    17a4:	c6 01       	movw	r24, r12
    17a6:	37 d9       	rcall	.-3474   	; 0xa16 <initArrays>
initArrays(initTheScreen->screen3,2,"Midi trig   :");
    17a8:	41 e4       	ldi	r20, 0x41	; 65
    17aa:	53 e0       	ldi	r21, 0x03	; 3
    17ac:	62 e0       	ldi	r22, 0x02	; 2
    17ae:	70 e0       	ldi	r23, 0x00	; 0
    17b0:	c6 01       	movw	r24, r12
    17b2:	31 d9       	rcall	.-3486   	; 0xa16 <initArrays>
initArrays(initTheScreen->screen3,3," ");
    17b4:	46 ee       	ldi	r20, 0xE6	; 230
    17b6:	53 e0       	ldi	r21, 0x03	; 3
    17b8:	63 e0       	ldi	r22, 0x03	; 3
    17ba:	70 e0       	ldi	r23, 0x00	; 0
    17bc:	c6 01       	movw	r24, r12
    17be:	2b d9       	rcall	.-3498   	; 0xa16 <initArrays>
initArrays(initTheScreen->screen3,0,"Global Settings");
    17c0:	4f e4       	ldi	r20, 0x4F	; 79
    17c2:	53 e0       	ldi	r21, 0x03	; 3
    17c4:	60 e0       	ldi	r22, 0x00	; 0
    17c6:	70 e0       	ldi	r23, 0x00	; 0
    17c8:	c6 01       	movw	r24, r12
    17ca:	25 d9       	rcall	.-3510   	; 0xa16 <initArrays>

//init all of the knob arrays:
initArrays(initTheScreen->knobScreen,0,"OutVolume x : xxxdb");//string 0 is outVolume
    17cc:	68 01       	movw	r12, r16
    17ce:	8c e0       	ldi	r24, 0x0C	; 12
    17d0:	c8 1a       	sub	r12, r24
    17d2:	8d ef       	ldi	r24, 0xFD	; 253
    17d4:	d8 0a       	sbc	r13, r24
    17d6:	4f e5       	ldi	r20, 0x5F	; 95
    17d8:	53 e0       	ldi	r21, 0x03	; 3
    17da:	60 e0       	ldi	r22, 0x00	; 0
    17dc:	70 e0       	ldi	r23, 0x00	; 0
    17de:	c6 01       	movw	r24, r12
initArrays(initTheScreen->knobScreen,1,"Pitch : xxx");//string 1 is pitch
    17e0:	1a d9       	rcall	.-3532   	; 0xa16 <initArrays>
    17e2:	43 e7       	ldi	r20, 0x73	; 115
    17e4:	53 e0       	ldi	r21, 0x03	; 3
    17e6:	61 e0       	ldi	r22, 0x01	; 1
    17e8:	70 e0       	ldi	r23, 0x00	; 0
    17ea:	c6 01       	movw	r24, r12
initArrays(initTheScreen->knobScreen,2,"AttackTime  :      S"); //string 2 is Envelope gain
    17ec:	14 d9       	rcall	.-3544   	; 0xa16 <initArrays>
    17ee:	4f e7       	ldi	r20, 0x7F	; 127
    17f0:	53 e0       	ldi	r21, 0x03	; 3
    17f2:	62 e0       	ldi	r22, 0x02	; 2
    17f4:	70 e0       	ldi	r23, 0x00	; 0
    17f6:	c6 01       	movw	r24, r12
    17f8:	0e d9       	rcall	.-3556   	; 0xa16 <initArrays>
initArrays(initTheScreen->knobScreen,3,"ReleaseTimexx:xx xxx"); //string 3 is Envelop Time
    17fa:	44 e9       	ldi	r20, 0x94	; 148
    17fc:	53 e0       	ldi	r21, 0x03	; 3
    17fe:	63 e0       	ldi	r22, 0x03	; 3
    1800:	70 e0       	ldi	r23, 0x00	; 0
    1802:	c6 01       	movw	r24, r12
    1804:	08 d9       	rcall	.-3568   	; 0xa16 <initArrays>
initArrays(initTheScreen->knobScreen,4,"TrackVolume xx:xxxdb"); //string 4 is track Level.
    1806:	49 ea       	ldi	r20, 0xA9	; 169
    1808:	53 e0       	ldi	r21, 0x03	; 3
    180a:	64 e0       	ldi	r22, 0x04	; 4
    180c:	70 e0       	ldi	r23, 0x00	; 0
    180e:	c6 01       	movw	r24, r12
    1810:	02 d9       	rcall	.-3580   	; 0xa16 <initArrays>
    1812:	cc 52       	subi	r28, 0x2C	; 44
//initArrays(initTheScreen->knobScreen,5,"BPM: ");
//we might want to put in one of these for BPM, but I'm not sure. 

numPrinter(initTheScreen->screen0[2],5,3, currentPattern.patternBPM);
    1814:	df 4f       	sbci	r29, 0xFF	; 255
    1816:	28 81       	ld	r18, Y
    1818:	39 81       	ldd	r19, Y+1	; 0x01
    181a:	c4 5d       	subi	r28, 0xD4	; 212
    181c:	d0 40       	sbci	r29, 0x00	; 0
    181e:	43 e0       	ldi	r20, 0x03	; 3
    1820:	65 e0       	ldi	r22, 0x05	; 5
    1822:	c8 01       	movw	r24, r16
    1824:	8a 96       	adiw	r24, 0x2a	; 42
    1826:	b8 d7       	rcall	.+3952   	; 0x2798 <numPrinter>
    1828:	cd 56       	subi	r28, 0x6D	; 109
numPrinter(initTheScreen->screen3[1],14,2, (currentGlobals.midiChannel)+1);
    182a:	de 4f       	sbci	r29, 0xFE	; 254
    182c:	28 81       	ld	r18, Y
    182e:	c3 59       	subi	r28, 0x93	; 147
    1830:	d1 40       	sbci	r29, 0x01	; 1
    1832:	30 e0       	ldi	r19, 0x00	; 0
    1834:	2f 5f       	subi	r18, 0xFF	; 255
    1836:	3f 4f       	sbci	r19, 0xFF	; 255
    1838:	42 e0       	ldi	r20, 0x02	; 2
    183a:	6e e0       	ldi	r22, 0x0E	; 14
    183c:	c8 01       	movw	r24, r16
    183e:	84 5b       	subi	r24, 0xB4	; 180
    1840:	9d 4f       	sbci	r25, 0xFD	; 253
    1842:	aa d7       	rcall	.+3924   	; 0x2798 <numPrinter>
    1844:	f1 2c       	mov	r15, r1
numPrinter(initTheScreen->screen0[1], 9, 3, (currentGlobals.currentPatternNumber)+1);
    1846:	8f ef       	ldi	r24, 0xFF	; 255
    1848:	e8 1a       	sub	r14, r24
    184a:	f8 0a       	sbc	r15, r24
    184c:	97 01       	movw	r18, r14
    184e:	43 e0       	ldi	r20, 0x03	; 3
    1850:	69 e0       	ldi	r22, 0x09	; 9
    1852:	c8 01       	movw	r24, r16
    1854:	45 96       	adiw	r24, 0x15	; 21
    1856:	a0 d7       	rcall	.+3904   	; 0x2798 <numPrinter>
    1858:	97 01       	movw	r18, r14
numPrinter(initTheScreen->screen1[1], 9, 3, (currentGlobals.currentPatternNumber)+1);
    185a:	43 e0       	ldi	r20, 0x03	; 3
    185c:	69 e0       	ldi	r22, 0x09	; 9
    185e:	c8 01       	movw	r24, r16
    1860:	8e 52       	subi	r24, 0x2E	; 46
    1862:	9f 4f       	sbci	r25, 0xFF	; 255
    1864:	99 d7       	rcall	.+3890   	; 0x2798 <numPrinter>
    1866:	ca 52       	subi	r28, 0x2A	; 42
numPrinter(initTheScreen->screen1[2], 7, 2, currentPattern.numSteps);
    1868:	df 4f       	sbci	r29, 0xFF	; 255
    186a:	28 81       	ld	r18, Y
    186c:	c6 5d       	subi	r28, 0xD6	; 214
    186e:	d0 40       	sbci	r29, 0x00	; 0
    1870:	30 e0       	ldi	r19, 0x00	; 0
    1872:	42 e0       	ldi	r20, 0x02	; 2
    1874:	67 e0       	ldi	r22, 0x07	; 7
    1876:	c8 01       	movw	r24, r16
    1878:	89 51       	subi	r24, 0x19	; 25
    187a:	9f 4f       	sbci	r25, 0xFF	; 255
    187c:	8d d7       	rcall	.+3866   	; 0x2798 <numPrinter>
    187e:	c5 57       	subi	r28, 0x75	; 117
numPrinter(initTheScreen->screen1[3], 13, 2, (currentGlobals.currentStep)+1);
    1880:	de 4f       	sbci	r29, 0xFE	; 254
    1882:	28 81       	ld	r18, Y
    1884:	cb 58       	subi	r28, 0x8B	; 139
    1886:	d1 40       	sbci	r29, 0x01	; 1
    1888:	30 e0       	ldi	r19, 0x00	; 0
    188a:	2f 5f       	subi	r18, 0xFF	; 255
    188c:	3f 4f       	sbci	r19, 0xFF	; 255
    188e:	42 e0       	ldi	r20, 0x02	; 2
    1890:	6d e0       	ldi	r22, 0x0D	; 13
    1892:	c8 01       	movw	r24, r16
    1894:	84 50       	subi	r24, 0x04	; 4
    1896:	9f 4f       	sbci	r25, 0xFF	; 255
    1898:	7f d7       	rcall	.+3838   	; 0x2798 <numPrinter>
    189a:	e1 2c       	mov	r14, r1
    189c:	f1 2c       	mov	r15, r1
    189e:	b7 01       	movw	r22, r14
    18a0:	c8 01       	movw	r24, r16
 
	for(uint8_t i=0;i<4; i++ )
	{
		outputS(initTheScreen->screen0[i],i);
    18a2:	62 d7       	rcall	.+3780   	; 0x2768 <outputS>
    18a4:	8f ef       	ldi	r24, 0xFF	; 255
    18a6:	e8 1a       	sub	r14, r24
    18a8:	f8 0a       	sbc	r15, r24
    18aa:	0b 5e       	subi	r16, 0xEB	; 235
    18ac:	1f 4f       	sbci	r17, 0xFF	; 255
    18ae:	84 e0       	ldi	r24, 0x04	; 4
    18b0:	e8 16       	cp	r14, r24
    18b2:	f1 04       	cpc	r15, r1
numPrinter(initTheScreen->screen0[1], 9, 3, (currentGlobals.currentPatternNumber)+1);
numPrinter(initTheScreen->screen1[1], 9, 3, (currentGlobals.currentPatternNumber)+1);
numPrinter(initTheScreen->screen1[2], 7, 2, currentPattern.numSteps);
numPrinter(initTheScreen->screen1[3], 13, 2, (currentGlobals.currentStep)+1);
 
	for(uint8_t i=0;i<4; i++ )
    18b4:	a1 f7       	brne	.-24     	; 0x189e <initMenu+0x1e4>
    18b6:	df 91       	pop	r29
    18b8:	cf 91       	pop	r28
    18ba:	1f 91       	pop	r17
	{
		outputS(initTheScreen->screen0[i],i);
	}
}
    18bc:	0f 91       	pop	r16
    18be:	ff 90       	pop	r15
    18c0:	ef 90       	pop	r14
    18c2:	df 90       	pop	r13
    18c4:	cf 90       	pop	r12
    18c6:	08 95       	ret

000018c8 <reInitMenuOnLoad>:
    18c8:	ef 92       	push	r14
    18ca:	ff 92       	push	r15
    18cc:	0f 93       	push	r16

//this method fills all the relevant screens once we load a new pattern. 
void reInitMenuOnLoad(Screen *initTheScreen, Pattern *currentPattern, Globals *currentGlobals)
{
    18ce:	1f 93       	push	r17
    18d0:	cf 93       	push	r28
    18d2:	df 93       	push	r29
    18d4:	ec 01       	movw	r28, r24
    18d6:	8b 01       	movw	r16, r22
    18d8:	7a 01       	movw	r14, r20
	numPrinter(initTheScreen->screen0[2],5,3, currentPattern->patternBPM);
    18da:	fb 01       	movw	r30, r22
    18dc:	e8 53       	subi	r30, 0x38	; 56
    18de:	ff 4f       	sbci	r31, 0xFF	; 255
    18e0:	20 81       	ld	r18, Z
    18e2:	31 81       	ldd	r19, Z+1	; 0x01
    18e4:	43 e0       	ldi	r20, 0x03	; 3
    18e6:	65 e0       	ldi	r22, 0x05	; 5
    18e8:	8a 96       	adiw	r24, 0x2a	; 42
    18ea:	56 d7       	rcall	.+3756   	; 0x2798 <numPrinter>
	numPrinter(initTheScreen->screen1[2], 7, 2, currentPattern->numSteps);
    18ec:	f8 01       	movw	r30, r16
    18ee:	e6 53       	subi	r30, 0x36	; 54
    18f0:	ff 4f       	sbci	r31, 0xFF	; 255
    18f2:	20 81       	ld	r18, Z
    18f4:	30 e0       	ldi	r19, 0x00	; 0
    18f6:	42 e0       	ldi	r20, 0x02	; 2
    18f8:	67 e0       	ldi	r22, 0x07	; 7
    18fa:	ce 01       	movw	r24, r28
    18fc:	89 51       	subi	r24, 0x19	; 25
    18fe:	9f 4f       	sbci	r25, 0xFF	; 255
    1900:	4b d7       	rcall	.+3734   	; 0x2798 <numPrinter>
	numPrinter(initTheScreen->screen1[1],9,3,(currentGlobals->currentPatternNumber)+1);
    1902:	f7 01       	movw	r30, r14
    1904:	23 81       	ldd	r18, Z+3	; 0x03
    1906:	30 e0       	ldi	r19, 0x00	; 0
    1908:	2f 5f       	subi	r18, 0xFF	; 255
    190a:	3f 4f       	sbci	r19, 0xFF	; 255
    190c:	43 e0       	ldi	r20, 0x03	; 3
    190e:	69 e0       	ldi	r22, 0x09	; 9
    1910:	ce 01       	movw	r24, r28
    1912:	8e 52       	subi	r24, 0x2E	; 46
    1914:	9f 4f       	sbci	r25, 0xFF	; 255
    1916:	40 d7       	rcall	.+3712   	; 0x2798 <numPrinter>
	numPrinter(initTheScreen->screen0[1],9,3,(currentGlobals->currentPatternNumber)+1);
    1918:	f7 01       	movw	r30, r14
    191a:	23 81       	ldd	r18, Z+3	; 0x03
    191c:	30 e0       	ldi	r19, 0x00	; 0
    191e:	2f 5f       	subi	r18, 0xFF	; 255
    1920:	3f 4f       	sbci	r19, 0xFF	; 255
    1922:	43 e0       	ldi	r20, 0x03	; 3
    1924:	69 e0       	ldi	r22, 0x09	; 9
    1926:	ce 01       	movw	r24, r28
    1928:	45 96       	adiw	r24, 0x15	; 21
    192a:	36 d7       	rcall	.+3692   	; 0x2798 <numPrinter>
}
    192c:	df 91       	pop	r29
    192e:	cf 91       	pop	r28
    1930:	1f 91       	pop	r17
    1932:	0f 91       	pop	r16
    1934:	ff 90       	pop	r15
    1936:	ef 90       	pop	r14
    1938:	08 95       	ret

0000193a <updateScreen>:

void updateScreen(Screen *menuScreen, Pattern *currentPattern, Globals *currentGlobals)
{
    193a:	8f 92       	push	r8
    193c:	9f 92       	push	r9
    193e:	af 92       	push	r10
    1940:	bf 92       	push	r11
    1942:	cf 92       	push	r12
    1944:	df 92       	push	r13
    1946:	ef 92       	push	r14
    1948:	ff 92       	push	r15
    194a:	0f 93       	push	r16
    194c:	1f 93       	push	r17
    194e:	cf 93       	push	r28
    1950:	df 93       	push	r29
    1952:	8c 01       	movw	r16, r24
    1954:	7b 01       	movw	r14, r22
    1956:	ea 01       	movw	r28, r20
	
	if((currentGlobals->valueChangeFlag)&(1<<encoderChange))//check if encoder bit is high
    1958:	8a 85       	ldd	r24, Y+10	; 0x0a
    195a:	80 ff       	sbrs	r24, 0
    195c:	da c2       	rjmp	.+1460   	; 0x1f12 <updateScreen+0x5d8>
	{ 
		currentGlobals->valueChangeFlag = currentGlobals->valueChangeFlag&(0xFF&(0<<encoderChange));//set encoder bit low, and carry our whatever encoder change has occurred. 
    195e:	1a 86       	std	Y+10, r1	; 0x0a
		//we need to debug this to make sure it's doing what we think it's doing.
		switch(currentGlobals->menuState)
    1960:	8e 81       	ldd	r24, Y+6	; 0x06
    1962:	90 e0       	ldi	r25, 0x00	; 0
    1964:	8b 33       	cpi	r24, 0x3B	; 59
    1966:	91 05       	cpc	r25, r1
    1968:	08 f0       	brcs	.+2      	; 0x196c <updateScreen+0x32>
    196a:	d0 c2       	rjmp	.+1440   	; 0x1f0c <updateScreen+0x5d2>
    196c:	fc 01       	movw	r30, r24
    196e:	88 27       	eor	r24, r24
    1970:	e3 55       	subi	r30, 0x53	; 83
    1972:	ff 4f       	sbci	r31, 0xFF	; 255
    1974:	8f 4f       	sbci	r24, 0xFF	; 255
    1976:	0c 94 bc 1f 	jmp	0x3f78	; 0x3f78 <__tablejump2__>
		{
			case PreformanceModeInit: //initial state
			reInitMenuOnLoad(menuScreen, currentPattern, currentGlobals);
    197a:	c8 01       	movw	r24, r16
    197c:	a5 df       	rcall	.-182    	; 0x18c8 <reInitMenuOnLoad>
			outputS(menuScreen->screen0[0], 0);
    197e:	60 e0       	ldi	r22, 0x00	; 0
    1980:	70 e0       	ldi	r23, 0x00	; 0
    1982:	c8 01       	movw	r24, r16
    1984:	f1 d6       	rcall	.+3554   	; 0x2768 <outputS>
			outputS(menuScreen->screen0[1], 1);
    1986:	61 e0       	ldi	r22, 0x01	; 1
    1988:	70 e0       	ldi	r23, 0x00	; 0
    198a:	c8 01       	movw	r24, r16
    198c:	45 96       	adiw	r24, 0x15	; 21
    198e:	ec d6       	rcall	.+3544   	; 0x2768 <outputS>
			outputS(menuScreen->screen0[2], 2);
    1990:	62 e0       	ldi	r22, 0x02	; 2
    1992:	70 e0       	ldi	r23, 0x00	; 0
    1994:	c8 01       	movw	r24, r16
    1996:	8a 96       	adiw	r24, 0x2a	; 42
    1998:	e7 d6       	rcall	.+3534   	; 0x2768 <outputS>
			outputS(menuScreen->screen0[3], 3);
    199a:	63 e0       	ldi	r22, 0x03	; 3
    199c:	70 e0       	ldi	r23, 0x00	; 0
    199e:	c8 01       	movw	r24, r16
    19a0:	cf 96       	adiw	r24, 0x3f	; 63
    19a2:	e2 d6       	rcall	.+3524   	; 0x2768 <outputS>
			break;
    19a4:	b3 c2       	rjmp	.+1382   	; 0x1f0c <updateScreen+0x5d2>

			case SequencerMenuInit:
			outputS(menuScreen->screen1[0], 0);
    19a6:	60 e0       	ldi	r22, 0x00	; 0
    19a8:	70 e0       	ldi	r23, 0x00	; 0
    19aa:	c8 01       	movw	r24, r16
    19ac:	83 54       	subi	r24, 0x43	; 67
    19ae:	9f 4f       	sbci	r25, 0xFF	; 255
    19b0:	db d6       	rcall	.+3510   	; 0x2768 <outputS>
			outputS(menuScreen->screen1[1], 1);
    19b2:	61 e0       	ldi	r22, 0x01	; 1
    19b4:	70 e0       	ldi	r23, 0x00	; 0
    19b6:	c8 01       	movw	r24, r16
    19b8:	8e 52       	subi	r24, 0x2E	; 46
    19ba:	9f 4f       	sbci	r25, 0xFF	; 255
    19bc:	d5 d6       	rcall	.+3498   	; 0x2768 <outputS>
			outputS(menuScreen->screen1[2], 2);
    19be:	62 e0       	ldi	r22, 0x02	; 2
    19c0:	70 e0       	ldi	r23, 0x00	; 0
    19c2:	c8 01       	movw	r24, r16
    19c4:	89 51       	subi	r24, 0x19	; 25
    19c6:	9f 4f       	sbci	r25, 0xFF	; 255
    19c8:	cf d6       	rcall	.+3486   	; 0x2768 <outputS>
			outputS(menuScreen->screen1[3], 3);
    19ca:	63 e0       	ldi	r22, 0x03	; 3
    19cc:	70 e0       	ldi	r23, 0x00	; 0
    19ce:	c8 01       	movw	r24, r16
    19d0:	84 50       	subi	r24, 0x04	; 4
    19d2:	9f 4f       	sbci	r25, 0xFF	; 255
    19d4:	c9 d6       	rcall	.+3474   	; 0x2768 <outputS>
    19d6:	81 e1       	ldi	r24, 0x11	; 17
			currentGlobals->menuState = SequencerMenuArrow1; 
    19d8:	8e 83       	std	Y+6, r24	; 0x06
    19da:	88 e0       	ldi	r24, 0x08	; 8
			
			
			case SequencerMenuArrow1:
			menuScreen->screen1[1][19]= 8;
    19dc:	f8 01       	movw	r30, r16
    19de:	eb 51       	subi	r30, 0x1B	; 27
    19e0:	ff 4f       	sbci	r31, 0xFF	; 255
    19e2:	80 83       	st	Z, r24
    19e4:	80 e2       	ldi	r24, 0x20	; 32
			menuScreen->screen1[2][19] = ' ';
    19e6:	75 96       	adiw	r30, 0x15	; 21
    19e8:	80 83       	st	Z, r24
			menuScreen->screen1[3][19] = ' ';
    19ea:	75 96       	adiw	r30, 0x15	; 21
    19ec:	80 83       	st	Z, r24
			outputS(menuScreen->screen1[1], 1);
    19ee:	61 e0       	ldi	r22, 0x01	; 1
    19f0:	70 e0       	ldi	r23, 0x00	; 0
    19f2:	c8 01       	movw	r24, r16
    19f4:	8e 52       	subi	r24, 0x2E	; 46
    19f6:	9f 4f       	sbci	r25, 0xFF	; 255
    19f8:	b7 d6       	rcall	.+3438   	; 0x2768 <outputS>
			outputS(menuScreen->screen1[2], 2);
    19fa:	62 e0       	ldi	r22, 0x02	; 2
    19fc:	70 e0       	ldi	r23, 0x00	; 0
    19fe:	c8 01       	movw	r24, r16
    1a00:	89 51       	subi	r24, 0x19	; 25
    1a02:	9f 4f       	sbci	r25, 0xFF	; 255
			outputS(menuScreen->screen1[3], 3);
    1a04:	b1 d6       	rcall	.+3426   	; 0x2768 <outputS>
    1a06:	63 e0       	ldi	r22, 0x03	; 3
    1a08:	70 e0       	ldi	r23, 0x00	; 0
    1a0a:	c8 01       	movw	r24, r16
    1a0c:	84 50       	subi	r24, 0x04	; 4
    1a0e:	9f 4f       	sbci	r25, 0xFF	; 255
			break;
    1a10:	ab d6       	rcall	.+3414   	; 0x2768 <outputS>
			
			case SequencerMenuArrow1Select:
			reInitMenuOnLoad(menuScreen, currentPattern, currentGlobals);
    1a12:	7c c2       	rjmp	.+1272   	; 0x1f0c <updateScreen+0x5d2>
    1a14:	c8 01       	movw	r24, r16
    1a16:	58 df       	rcall	.-336    	; 0x18c8 <reInitMenuOnLoad>
			outputS(menuScreen->screen1[1],1);
    1a18:	61 e0       	ldi	r22, 0x01	; 1
    1a1a:	70 e0       	ldi	r23, 0x00	; 0
    1a1c:	c8 01       	movw	r24, r16
    1a1e:	8e 52       	subi	r24, 0x2E	; 46
    1a20:	9f 4f       	sbci	r25, 0xFF	; 255
    1a22:	a2 d6       	rcall	.+3396   	; 0x2768 <outputS>
    1a24:	73 c2       	rjmp	.+1254   	; 0x1f0c <updateScreen+0x5d2>
			break;
    1a26:	80 e2       	ldi	r24, 0x20	; 32
	
	
			case SequencerMenuArrow2:
			menuScreen->screen1[1][19]= ' ';
    1a28:	f8 01       	movw	r30, r16
    1a2a:	eb 51       	subi	r30, 0x1B	; 27
    1a2c:	ff 4f       	sbci	r31, 0xFF	; 255
    1a2e:	80 83       	st	Z, r24
			menuScreen->screen1[2][19] = 8;
    1a30:	98 e0       	ldi	r25, 0x08	; 8
    1a32:	75 96       	adiw	r30, 0x15	; 21
			menuScreen->screen1[3][19] = ' ';
    1a34:	90 83       	st	Z, r25
    1a36:	75 96       	adiw	r30, 0x15	; 21
			outputS(menuScreen->screen1[1], 1);
    1a38:	80 83       	st	Z, r24
    1a3a:	61 e0       	ldi	r22, 0x01	; 1
    1a3c:	70 e0       	ldi	r23, 0x00	; 0
    1a3e:	c8 01       	movw	r24, r16
    1a40:	8e 52       	subi	r24, 0x2E	; 46
    1a42:	9f 4f       	sbci	r25, 0xFF	; 255
			outputS(menuScreen->screen1[2], 2);
    1a44:	91 d6       	rcall	.+3362   	; 0x2768 <outputS>
    1a46:	62 e0       	ldi	r22, 0x02	; 2
    1a48:	70 e0       	ldi	r23, 0x00	; 0
    1a4a:	c8 01       	movw	r24, r16
    1a4c:	89 51       	subi	r24, 0x19	; 25
    1a4e:	9f 4f       	sbci	r25, 0xFF	; 255
    1a50:	8b d6       	rcall	.+3350   	; 0x2768 <outputS>
			outputS(menuScreen->screen1[3], 3);
    1a52:	63 e0       	ldi	r22, 0x03	; 3
    1a54:	70 e0       	ldi	r23, 0x00	; 0
    1a56:	c8 01       	movw	r24, r16
    1a58:	84 50       	subi	r24, 0x04	; 4
    1a5a:	9f 4f       	sbci	r25, 0xFF	; 255
    1a5c:	85 d6       	rcall	.+3338   	; 0x2768 <outputS>
			break;
	
			case SequencerMenuArrow2Select:
			numPrinter(menuScreen->screen1[2],7,2,currentPattern->numSteps);
    1a5e:	56 c2       	rjmp	.+1196   	; 0x1f0c <updateScreen+0x5d2>
    1a60:	fb 01       	movw	r30, r22
    1a62:	e6 53       	subi	r30, 0x36	; 54
    1a64:	ff 4f       	sbci	r31, 0xFF	; 255
    1a66:	20 81       	ld	r18, Z
    1a68:	30 e0       	ldi	r19, 0x00	; 0
    1a6a:	42 e0       	ldi	r20, 0x02	; 2
    1a6c:	67 e0       	ldi	r22, 0x07	; 7
    1a6e:	68 01       	movw	r12, r16
    1a70:	87 ee       	ldi	r24, 0xE7	; 231
    1a72:	c8 0e       	add	r12, r24
    1a74:	d1 1c       	adc	r13, r1
    1a76:	c6 01       	movw	r24, r12
    1a78:	8f d6       	rcall	.+3358   	; 0x2798 <numPrinter>
			outputS(menuScreen->screen1[2],2);
    1a7a:	62 e0       	ldi	r22, 0x02	; 2
    1a7c:	70 e0       	ldi	r23, 0x00	; 0
    1a7e:	c6 01       	movw	r24, r12
    1a80:	73 d6       	rcall	.+3302   	; 0x2768 <outputS>
			break;
    1a82:	44 c2       	rjmp	.+1160   	; 0x1f0c <updateScreen+0x5d2>
	
			case SequencerMenuArrow3:
			menuScreen->screen1[1][19]= ' ';
    1a84:	80 e2       	ldi	r24, 0x20	; 32
    1a86:	f8 01       	movw	r30, r16
    1a88:	eb 51       	subi	r30, 0x1B	; 27
    1a8a:	ff 4f       	sbci	r31, 0xFF	; 255
			menuScreen->screen1[2][19] = ' ';
    1a8c:	80 83       	st	Z, r24
    1a8e:	75 96       	adiw	r30, 0x15	; 21
			menuScreen->screen1[3][19] = 8;
    1a90:	80 83       	st	Z, r24
    1a92:	88 e0       	ldi	r24, 0x08	; 8
			outputS(menuScreen->screen1[1], 1);
    1a94:	75 96       	adiw	r30, 0x15	; 21
    1a96:	80 83       	st	Z, r24
    1a98:	61 e0       	ldi	r22, 0x01	; 1
    1a9a:	70 e0       	ldi	r23, 0x00	; 0
    1a9c:	c8 01       	movw	r24, r16
    1a9e:	8e 52       	subi	r24, 0x2E	; 46
    1aa0:	9f 4f       	sbci	r25, 0xFF	; 255
			outputS(menuScreen->screen1[2], 2);
    1aa2:	62 d6       	rcall	.+3268   	; 0x2768 <outputS>
    1aa4:	62 e0       	ldi	r22, 0x02	; 2
    1aa6:	70 e0       	ldi	r23, 0x00	; 0
    1aa8:	c8 01       	movw	r24, r16
    1aaa:	89 51       	subi	r24, 0x19	; 25
    1aac:	9f 4f       	sbci	r25, 0xFF	; 255
			outputS(menuScreen->screen1[3], 3);
    1aae:	5c d6       	rcall	.+3256   	; 0x2768 <outputS>
    1ab0:	63 e0       	ldi	r22, 0x03	; 3
    1ab2:	70 e0       	ldi	r23, 0x00	; 0
    1ab4:	c8 01       	movw	r24, r16
    1ab6:	84 50       	subi	r24, 0x04	; 4
    1ab8:	9f 4f       	sbci	r25, 0xFF	; 255
			break;
    1aba:	56 d6       	rcall	.+3244   	; 0x2768 <outputS>
		
			case SequencerMenuArrow3Select:
			numPrinter(menuScreen->screen1[3],14,2,(currentGlobals->currentStep)+1); //these are 0 indexed, so we need to add 1 to the display.
    1abc:	27 c2       	rjmp	.+1102   	; 0x1f0c <updateScreen+0x5d2>
    1abe:	2c 81       	ldd	r18, Y+4	; 0x04
    1ac0:	30 e0       	ldi	r19, 0x00	; 0
    1ac2:	2f 5f       	subi	r18, 0xFF	; 255
    1ac4:	3f 4f       	sbci	r19, 0xFF	; 255
    1ac6:	42 e0       	ldi	r20, 0x02	; 2
    1ac8:	6e e0       	ldi	r22, 0x0E	; 14
    1aca:	68 01       	movw	r12, r16
    1acc:	9c ef       	ldi	r25, 0xFC	; 252
    1ace:	c9 0e       	add	r12, r25
    1ad0:	d1 1c       	adc	r13, r1
			outputS(menuScreen->screen1[3],3);
    1ad2:	c6 01       	movw	r24, r12
    1ad4:	61 d6       	rcall	.+3266   	; 0x2798 <numPrinter>
    1ad6:	63 e0       	ldi	r22, 0x03	; 3
    1ad8:	70 e0       	ldi	r23, 0x00	; 0
    1ada:	c6 01       	movw	r24, r12
			break;
	

			case TrackMenuInit:
			outputS(menuScreen->screen2[0], 0);
    1adc:	45 d6       	rcall	.+3210   	; 0x2768 <outputS>
    1ade:	16 c2       	rjmp	.+1068   	; 0x1f0c <updateScreen+0x5d2>
    1ae0:	60 e0       	ldi	r22, 0x00	; 0
    1ae2:	70 e0       	ldi	r23, 0x00	; 0
    1ae4:	c8 01       	movw	r24, r16
    1ae6:	86 58       	subi	r24, 0x86	; 134
    1ae8:	9e 4f       	sbci	r25, 0xFE	; 254
			outputS(menuScreen->screen2[1], 1);
    1aea:	3e d6       	rcall	.+3196   	; 0x2768 <outputS>
    1aec:	61 e0       	ldi	r22, 0x01	; 1
    1aee:	70 e0       	ldi	r23, 0x00	; 0
    1af0:	c8 01       	movw	r24, r16
    1af2:	81 57       	subi	r24, 0x71	; 113
    1af4:	9e 4f       	sbci	r25, 0xFE	; 254
    1af6:	38 d6       	rcall	.+3184   	; 0x2768 <outputS>
			outputS(menuScreen->screen2[2], 2);
    1af8:	62 e0       	ldi	r22, 0x02	; 2
    1afa:	70 e0       	ldi	r23, 0x00	; 0
    1afc:	c8 01       	movw	r24, r16
    1afe:	8c 55       	subi	r24, 0x5C	; 92
    1b00:	9e 4f       	sbci	r25, 0xFE	; 254
    1b02:	32 d6       	rcall	.+3172   	; 0x2768 <outputS>
			outputS(menuScreen->screen2[3], 3);
    1b04:	63 e0       	ldi	r22, 0x03	; 3
    1b06:	70 e0       	ldi	r23, 0x00	; 0
    1b08:	c8 01       	movw	r24, r16
    1b0a:	87 54       	subi	r24, 0x47	; 71
    1b0c:	9e 4f       	sbci	r25, 0xFE	; 254
    1b0e:	2c d6       	rcall	.+3160   	; 0x2768 <outputS>
			currentGlobals->menuState = TrackMenuArrow1;
    1b10:	81 e2       	ldi	r24, 0x21	; 33
		
			case TrackMenuArrow1:
			menuScreen->screen2[1][19]= 8;
    1b12:	8e 83       	std	Y+6, r24	; 0x06
    1b14:	88 e0       	ldi	r24, 0x08	; 8
    1b16:	f8 01       	movw	r30, r16
    1b18:	ee 55       	subi	r30, 0x5E	; 94
    1b1a:	fe 4f       	sbci	r31, 0xFE	; 254
			menuScreen->screen2[2][19] = ' ';
    1b1c:	80 83       	st	Z, r24
    1b1e:	80 e2       	ldi	r24, 0x20	; 32
    1b20:	75 96       	adiw	r30, 0x15	; 21
			menuScreen->screen2[3][19] = ' ';
    1b22:	80 83       	st	Z, r24
    1b24:	75 96       	adiw	r30, 0x15	; 21
			outputS(menuScreen->screen2[1], 1);
    1b26:	80 83       	st	Z, r24
    1b28:	61 e0       	ldi	r22, 0x01	; 1
    1b2a:	70 e0       	ldi	r23, 0x00	; 0
    1b2c:	c8 01       	movw	r24, r16
    1b2e:	81 57       	subi	r24, 0x71	; 113
    1b30:	9e 4f       	sbci	r25, 0xFE	; 254
    1b32:	1a d6       	rcall	.+3124   	; 0x2768 <outputS>
			outputS(menuScreen->screen2[2], 2);
    1b34:	62 e0       	ldi	r22, 0x02	; 2
    1b36:	70 e0       	ldi	r23, 0x00	; 0
    1b38:	c8 01       	movw	r24, r16
    1b3a:	8c 55       	subi	r24, 0x5C	; 92
    1b3c:	9e 4f       	sbci	r25, 0xFE	; 254
    1b3e:	14 d6       	rcall	.+3112   	; 0x2768 <outputS>
			outputS(menuScreen->screen2[3], 3);
    1b40:	63 e0       	ldi	r22, 0x03	; 3
    1b42:	70 e0       	ldi	r23, 0x00	; 0
    1b44:	c8 01       	movw	r24, r16
    1b46:	87 54       	subi	r24, 0x47	; 71
    1b48:	9e 4f       	sbci	r25, 0xFE	; 254
    1b4a:	0e d6       	rcall	.+3100   	; 0x2768 <outputS>
			break;
    1b4c:	df c1       	rjmp	.+958    	; 0x1f0c <updateScreen+0x5d2>
		
			case TrackMenuArrow1Select:;
			uint16_t trackSample = (currentPattern->trackSampleMSB[currentGlobals->currentTrack]<<8)|(currentPattern->trackSampleLSB[currentGlobals->currentTrack]);
    1b4e:	8d 81       	ldd	r24, Y+5	; 0x05
    1b50:	db 01       	movw	r26, r22
    1b52:	a8 0f       	add	r26, r24
    1b54:	b1 1d       	adc	r27, r1
    1b56:	fd 01       	movw	r30, r26
    1b58:	e8 56       	subi	r30, 0x68	; 104
    1b5a:	ff 4f       	sbci	r31, 0xFF	; 255
			numPrinter(menuScreen->screen2[1],10,4,(trackSample));
    1b5c:	20 81       	ld	r18, Z
    1b5e:	30 e0       	ldi	r19, 0x00	; 0
    1b60:	32 2f       	mov	r19, r18
    1b62:	22 27       	eor	r18, r18
			outputS(menuScreen->screen2[2], 2);
			outputS(menuScreen->screen2[3], 3);
			break;
		
			case TrackMenuArrow1Select:;
			uint16_t trackSample = (currentPattern->trackSampleMSB[currentGlobals->currentTrack]<<8)|(currentPattern->trackSampleLSB[currentGlobals->currentTrack]);
    1b64:	70 96       	adiw	r30, 0x10	; 16
			numPrinter(menuScreen->screen2[1],10,4,(trackSample));
    1b66:	80 81       	ld	r24, Z
    1b68:	28 2b       	or	r18, r24
    1b6a:	44 e0       	ldi	r20, 0x04	; 4
    1b6c:	6a e0       	ldi	r22, 0x0A	; 10
    1b6e:	68 01       	movw	r12, r16
    1b70:	b1 e7       	ldi	r27, 0x71	; 113
    1b72:	cb 1a       	sub	r12, r27
    1b74:	be ef       	ldi	r27, 0xFE	; 254
    1b76:	db 0a       	sbc	r13, r27
    1b78:	c6 01       	movw	r24, r12
			outputS(menuScreen->screen2[1],1);
    1b7a:	0e d6       	rcall	.+3100   	; 0x2798 <numPrinter>
    1b7c:	61 e0       	ldi	r22, 0x01	; 1
    1b7e:	70 e0       	ldi	r23, 0x00	; 0
    1b80:	c6 01       	movw	r24, r12
			break;
    1b82:	f2 d5       	rcall	.+3044   	; 0x2768 <outputS>
	
			case TrackMenuArrow2:
			menuScreen->screen2[1][19]= ' ';
    1b84:	c3 c1       	rjmp	.+902    	; 0x1f0c <updateScreen+0x5d2>
    1b86:	80 e2       	ldi	r24, 0x20	; 32
    1b88:	f8 01       	movw	r30, r16
    1b8a:	ee 55       	subi	r30, 0x5E	; 94
    1b8c:	fe 4f       	sbci	r31, 0xFE	; 254
			menuScreen->screen2[2][19] = 8;
    1b8e:	80 83       	st	Z, r24
    1b90:	98 e0       	ldi	r25, 0x08	; 8
    1b92:	75 96       	adiw	r30, 0x15	; 21
			menuScreen->screen2[3][19] = ' ';
    1b94:	90 83       	st	Z, r25
    1b96:	75 96       	adiw	r30, 0x15	; 21
			outputS(menuScreen->screen2[1], 1);
    1b98:	80 83       	st	Z, r24
    1b9a:	61 e0       	ldi	r22, 0x01	; 1
    1b9c:	70 e0       	ldi	r23, 0x00	; 0
    1b9e:	c8 01       	movw	r24, r16
    1ba0:	81 57       	subi	r24, 0x71	; 113
    1ba2:	9e 4f       	sbci	r25, 0xFE	; 254
    1ba4:	e1 d5       	rcall	.+3010   	; 0x2768 <outputS>
			outputS(menuScreen->screen2[2], 2);
    1ba6:	62 e0       	ldi	r22, 0x02	; 2
    1ba8:	70 e0       	ldi	r23, 0x00	; 0
    1baa:	c8 01       	movw	r24, r16
    1bac:	8c 55       	subi	r24, 0x5C	; 92
    1bae:	9e 4f       	sbci	r25, 0xFE	; 254
    1bb0:	db d5       	rcall	.+2998   	; 0x2768 <outputS>
    1bb2:	63 e0       	ldi	r22, 0x03	; 3
			outputS(menuScreen->screen2[3], 3);
    1bb4:	70 e0       	ldi	r23, 0x00	; 0
    1bb6:	c8 01       	movw	r24, r16
    1bb8:	87 54       	subi	r24, 0x47	; 71
    1bba:	9e 4f       	sbci	r25, 0xFE	; 254
    1bbc:	d5 d5       	rcall	.+2986   	; 0x2768 <outputS>
    1bbe:	a6 c1       	rjmp	.+844    	; 0x1f0c <updateScreen+0x5d2>
    1bc0:	8d 81       	ldd	r24, Y+5	; 0x05
			break;
    1bc2:	fb 01       	movw	r30, r22
		
			case TrackMenuArrow2Select:
			//we need some serious button code in these two cases. 
			switch (currentPattern->trackPlayMode[currentGlobals->currentTrack])
    1bc4:	e8 0f       	add	r30, r24
    1bc6:	f1 1d       	adc	r31, r1
    1bc8:	e8 57       	subi	r30, 0x78	; 120
    1bca:	ff 4f       	sbci	r31, 0xFF	; 255
    1bcc:	80 81       	ld	r24, Z
    1bce:	88 23       	and	r24, r24
    1bd0:	19 f0       	breq	.+6      	; 0x1bd8 <updateScreen+0x29e>
    1bd2:	81 30       	cpi	r24, 0x01	; 1
    1bd4:	79 f0       	breq	.+30     	; 0x1bf4 <updateScreen+0x2ba>
    1bd6:	1c c0       	rjmp	.+56     	; 0x1c10 <updateScreen+0x2d6>
    1bd8:	83 e5       	ldi	r24, 0x53	; 83
			{
				case 0:
				menuScreen->screen2[2][10] = 'S';
    1bda:	f8 01       	movw	r30, r16
    1bdc:	e2 55       	subi	r30, 0x52	; 82
    1bde:	fe 4f       	sbci	r31, 0xFE	; 254
    1be0:	80 83       	st	Z, r24
    1be2:	8f e6       	ldi	r24, 0x6F	; 111
				menuScreen->screen2[2][11] = 'o';
    1be4:	31 96       	adiw	r30, 0x01	; 1
    1be6:	80 83       	st	Z, r24
    1be8:	9c e6       	ldi	r25, 0x6C	; 108
				menuScreen->screen2[2][12] = 'l';
    1bea:	31 96       	adiw	r30, 0x01	; 1
    1bec:	90 83       	st	Z, r25
    1bee:	31 96       	adiw	r30, 0x01	; 1
				menuScreen->screen2[2][13] = 'o';
    1bf0:	80 83       	st	Z, r24
    1bf2:	0e c0       	rjmp	.+28     	; 0x1c10 <updateScreen+0x2d6>
				break;
    1bf4:	80 e5       	ldi	r24, 0x50	; 80

				case 1:
				menuScreen->screen2[2][10] = 'P';
    1bf6:	f8 01       	movw	r30, r16
    1bf8:	e2 55       	subi	r30, 0x52	; 82
    1bfa:	fe 4f       	sbci	r31, 0xFE	; 254
    1bfc:	80 83       	st	Z, r24
				menuScreen->screen2[2][11] = 'o';
    1bfe:	8f e6       	ldi	r24, 0x6F	; 111
    1c00:	31 96       	adiw	r30, 0x01	; 1
				menuScreen->screen2[2][12] = 'l';
    1c02:	80 83       	st	Z, r24
    1c04:	8c e6       	ldi	r24, 0x6C	; 108
    1c06:	31 96       	adiw	r30, 0x01	; 1
				menuScreen->screen2[2][13] = 'y';
    1c08:	80 83       	st	Z, r24
    1c0a:	89 e7       	ldi	r24, 0x79	; 121
	
				case 3:
				break;
			}
			
			outputS(menuScreen->screen2[2], 2);
    1c0c:	31 96       	adiw	r30, 0x01	; 1
    1c0e:	80 83       	st	Z, r24
    1c10:	62 e0       	ldi	r22, 0x02	; 2
    1c12:	70 e0       	ldi	r23, 0x00	; 0
    1c14:	c8 01       	movw	r24, r16
    1c16:	8c 55       	subi	r24, 0x5C	; 92
    1c18:	9e 4f       	sbci	r25, 0xFE	; 254
			break;
    1c1a:	a6 d5       	rcall	.+2892   	; 0x2768 <outputS>

			case TrackMenuArrow3:
			menuScreen->screen2[1][19]= ' ';
    1c1c:	77 c1       	rjmp	.+750    	; 0x1f0c <updateScreen+0x5d2>
    1c1e:	80 e2       	ldi	r24, 0x20	; 32
    1c20:	f8 01       	movw	r30, r16
    1c22:	ee 55       	subi	r30, 0x5E	; 94
    1c24:	fe 4f       	sbci	r31, 0xFE	; 254
			menuScreen->screen2[2][19] = ' ';
    1c26:	80 83       	st	Z, r24
    1c28:	75 96       	adiw	r30, 0x15	; 21
			menuScreen->screen2[3][19] = 8;
    1c2a:	80 83       	st	Z, r24
    1c2c:	88 e0       	ldi	r24, 0x08	; 8
			outputS(menuScreen->screen2[1], 1);
    1c2e:	75 96       	adiw	r30, 0x15	; 21
    1c30:	80 83       	st	Z, r24
    1c32:	61 e0       	ldi	r22, 0x01	; 1
    1c34:	70 e0       	ldi	r23, 0x00	; 0
    1c36:	c8 01       	movw	r24, r16
    1c38:	81 57       	subi	r24, 0x71	; 113
			outputS(menuScreen->screen2[2], 2);
    1c3a:	9e 4f       	sbci	r25, 0xFE	; 254
    1c3c:	95 d5       	rcall	.+2858   	; 0x2768 <outputS>
    1c3e:	62 e0       	ldi	r22, 0x02	; 2
    1c40:	70 e0       	ldi	r23, 0x00	; 0
    1c42:	c8 01       	movw	r24, r16
    1c44:	8c 55       	subi	r24, 0x5C	; 92
    1c46:	9e 4f       	sbci	r25, 0xFE	; 254
			outputS(menuScreen->screen2[3], 3);
    1c48:	8f d5       	rcall	.+2846   	; 0x2768 <outputS>
    1c4a:	63 e0       	ldi	r22, 0x03	; 3
    1c4c:	70 e0       	ldi	r23, 0x00	; 0
    1c4e:	c8 01       	movw	r24, r16
    1c50:	87 54       	subi	r24, 0x47	; 71
    1c52:	9e 4f       	sbci	r25, 0xFE	; 254
			break;
    1c54:	89 d5       	rcall	.+2834   	; 0x2768 <outputS>
		
			case TrackMenuArrow3Select:
			numPrinter(menuScreen->screen2[3],10,2,(currentPattern->trackOutputRoute[currentGlobals->currentTrack])+1);
    1c56:	5a c1       	rjmp	.+692    	; 0x1f0c <updateScreen+0x5d2>
    1c58:	8d 81       	ldd	r24, Y+5	; 0x05
    1c5a:	fb 01       	movw	r30, r22
    1c5c:	e8 0f       	add	r30, r24
    1c5e:	f1 1d       	adc	r31, r1
    1c60:	20 8d       	ldd	r18, Z+24	; 0x18
    1c62:	30 e0       	ldi	r19, 0x00	; 0
    1c64:	2f 5f       	subi	r18, 0xFF	; 255
    1c66:	3f 4f       	sbci	r19, 0xFF	; 255
    1c68:	42 e0       	ldi	r20, 0x02	; 2
    1c6a:	6a e0       	ldi	r22, 0x0A	; 10
    1c6c:	68 01       	movw	r12, r16
    1c6e:	e7 e4       	ldi	r30, 0x47	; 71
    1c70:	ce 1a       	sub	r12, r30
    1c72:	ee ef       	ldi	r30, 0xFE	; 254
    1c74:	de 0a       	sbc	r13, r30
			outputS(menuScreen->screen2[3],3);
    1c76:	c6 01       	movw	r24, r12
    1c78:	8f d5       	rcall	.+2846   	; 0x2798 <numPrinter>
    1c7a:	63 e0       	ldi	r22, 0x03	; 3
    1c7c:	70 e0       	ldi	r23, 0x00	; 0
    1c7e:	c6 01       	movw	r24, r12
			break;
    1c80:	73 d5       	rcall	.+2790   	; 0x2768 <outputS>
			
			case TrackMenuArrow4:
			menuScreen->screen2[2][19]= ' ';
    1c82:	44 c1       	rjmp	.+648    	; 0x1f0c <updateScreen+0x5d2>
    1c84:	80 e2       	ldi	r24, 0x20	; 32
    1c86:	f8 01       	movw	r30, r16
    1c88:	e9 54       	subi	r30, 0x49	; 73
    1c8a:	fe 4f       	sbci	r31, 0xFE	; 254
			menuScreen->screen2[3][19] = ' ';
    1c8c:	80 83       	st	Z, r24
    1c8e:	75 96       	adiw	r30, 0x15	; 21
			menuScreen->screen2[4][19] = 8;
    1c90:	80 83       	st	Z, r24
    1c92:	88 e0       	ldi	r24, 0x08	; 8
    1c94:	75 96       	adiw	r30, 0x15	; 21
			outputS(menuScreen->screen2[2], 1);
    1c96:	80 83       	st	Z, r24
    1c98:	61 e0       	ldi	r22, 0x01	; 1
    1c9a:	70 e0       	ldi	r23, 0x00	; 0
    1c9c:	c8 01       	movw	r24, r16
    1c9e:	8c 55       	subi	r24, 0x5C	; 92
    1ca0:	9e 4f       	sbci	r25, 0xFE	; 254
    1ca2:	62 d5       	rcall	.+2756   	; 0x2768 <outputS>
			outputS(menuScreen->screen2[3], 2);
    1ca4:	62 e0       	ldi	r22, 0x02	; 2
    1ca6:	70 e0       	ldi	r23, 0x00	; 0
    1ca8:	c8 01       	movw	r24, r16
    1caa:	87 54       	subi	r24, 0x47	; 71
    1cac:	9e 4f       	sbci	r25, 0xFE	; 254
    1cae:	5c d5       	rcall	.+2744   	; 0x2768 <outputS>
    1cb0:	63 e0       	ldi	r22, 0x03	; 3
			outputS(menuScreen->screen2[4], 3);
    1cb2:	70 e0       	ldi	r23, 0x00	; 0
    1cb4:	c8 01       	movw	r24, r16
    1cb6:	82 53       	subi	r24, 0x32	; 50
    1cb8:	9e 4f       	sbci	r25, 0xFE	; 254
    1cba:	56 d5       	rcall	.+2732   	; 0x2768 <outputS>
    1cbc:	27 c1       	rjmp	.+590    	; 0x1f0c <updateScreen+0x5d2>
    1cbe:	8d 81       	ldd	r24, Y+5	; 0x05
			break;
    1cc0:	fb 01       	movw	r30, r22
			
			case TrackMenuArrow4Select:
			switch(currentPattern->envelopeType[currentGlobals->currentTrack])
    1cc2:	e8 0f       	add	r30, r24
    1cc4:	f1 1d       	adc	r31, r1
    1cc6:	e5 51       	subi	r30, 0x15	; 21
    1cc8:	ff 4f       	sbci	r31, 0xFF	; 255
    1cca:	80 81       	ld	r24, Z
    1ccc:	81 30       	cpi	r24, 0x01	; 1
    1cce:	a9 f0       	breq	.+42     	; 0x1cfa <updateScreen+0x3c0>
    1cd0:	28 f0       	brcs	.+10     	; 0x1cdc <updateScreen+0x3a2>
    1cd2:	82 30       	cpi	r24, 0x02	; 2
    1cd4:	f9 f0       	breq	.+62     	; 0x1d14 <updateScreen+0x3da>
    1cd6:	83 30       	cpi	r24, 0x03	; 3
    1cd8:	51 f1       	breq	.+84     	; 0x1d2e <updateScreen+0x3f4>
    1cda:	37 c0       	rjmp	.+110    	; 0x1d4a <updateScreen+0x410>
    1cdc:	81 e4       	ldi	r24, 0x41	; 65
    1cde:	f8 01       	movw	r30, r16
			{
				case 0: //A/R
				menuScreen->screen2[4][14] = 'A';
    1ce0:	e4 52       	subi	r30, 0x24	; 36
    1ce2:	fe 4f       	sbci	r31, 0xFE	; 254
    1ce4:	80 83       	st	Z, r24
    1ce6:	8d e2       	ldi	r24, 0x2D	; 45
    1ce8:	31 96       	adiw	r30, 0x01	; 1
				menuScreen->screen2[4][15] = '-';
    1cea:	80 83       	st	Z, r24
    1cec:	82 e5       	ldi	r24, 0x52	; 82
    1cee:	31 96       	adiw	r30, 0x01	; 1
				menuScreen->screen2[4][16] = 'R';
    1cf0:	80 83       	st	Z, r24
    1cf2:	80 e2       	ldi	r24, 0x20	; 32
    1cf4:	31 96       	adiw	r30, 0x01	; 1
				menuScreen->screen2[4][17] = ' ';
    1cf6:	80 83       	st	Z, r24
    1cf8:	28 c0       	rjmp	.+80     	; 0x1d4a <updateScreen+0x410>
    1cfa:	82 e5       	ldi	r24, 0x52	; 82
				break;
    1cfc:	f8 01       	movw	r30, r16
				
				case 1: //only release
				menuScreen->screen2[4][14] = 'R';
    1cfe:	e4 52       	subi	r30, 0x24	; 36
    1d00:	fe 4f       	sbci	r31, 0xFE	; 254
    1d02:	80 83       	st	Z, r24
    1d04:	80 e2       	ldi	r24, 0x20	; 32
				menuScreen->screen2[4][15] = ' ';
    1d06:	31 96       	adiw	r30, 0x01	; 1
    1d08:	80 83       	st	Z, r24
    1d0a:	31 96       	adiw	r30, 0x01	; 1
				menuScreen->screen2[4][16] = ' ';
    1d0c:	80 83       	st	Z, r24
    1d0e:	31 96       	adiw	r30, 0x01	; 1
				menuScreen->screen2[4][17] = ' ';
    1d10:	80 83       	st	Z, r24
    1d12:	1b c0       	rjmp	.+54     	; 0x1d4a <updateScreen+0x410>
				break;
    1d14:	81 e4       	ldi	r24, 0x41	; 65
				
				case 2: //only attack
				menuScreen->screen2[4][14] = 'A';
    1d16:	f8 01       	movw	r30, r16
    1d18:	e4 52       	subi	r30, 0x24	; 36
    1d1a:	fe 4f       	sbci	r31, 0xFE	; 254
    1d1c:	80 83       	st	Z, r24
				menuScreen->screen2[4][15] = ' ';
    1d1e:	80 e2       	ldi	r24, 0x20	; 32
    1d20:	31 96       	adiw	r30, 0x01	; 1
    1d22:	80 83       	st	Z, r24
				menuScreen->screen2[4][16] = ' ';
    1d24:	31 96       	adiw	r30, 0x01	; 1
    1d26:	80 83       	st	Z, r24
				menuScreen->screen2[4][17] = ' ';
    1d28:	31 96       	adiw	r30, 0x01	; 1
				break;
    1d2a:	80 83       	st	Z, r24
				
				case 3: //No envelope
				menuScreen->screen2[4][14] = 'N';
    1d2c:	0e c0       	rjmp	.+28     	; 0x1d4a <updateScreen+0x410>
    1d2e:	8e e4       	ldi	r24, 0x4E	; 78
    1d30:	f8 01       	movw	r30, r16
    1d32:	e4 52       	subi	r30, 0x24	; 36
				menuScreen->screen2[4][15] = 'o';
    1d34:	fe 4f       	sbci	r31, 0xFE	; 254
    1d36:	80 83       	st	Z, r24
    1d38:	8f e6       	ldi	r24, 0x6F	; 111
				menuScreen->screen2[4][16] = 'n';
    1d3a:	31 96       	adiw	r30, 0x01	; 1
    1d3c:	80 83       	st	Z, r24
    1d3e:	8e e6       	ldi	r24, 0x6E	; 110
				menuScreen->screen2[4][17] = 'e';
    1d40:	31 96       	adiw	r30, 0x01	; 1
    1d42:	80 83       	st	Z, r24
    1d44:	85 e6       	ldi	r24, 0x65	; 101
				break;
			}
			outputS(menuScreen->screen2[4],3);
    1d46:	31 96       	adiw	r30, 0x01	; 1
    1d48:	80 83       	st	Z, r24
    1d4a:	63 e0       	ldi	r22, 0x03	; 3
    1d4c:	70 e0       	ldi	r23, 0x00	; 0
    1d4e:	c8 01       	movw	r24, r16
    1d50:	82 53       	subi	r24, 0x32	; 50
    1d52:	9e 4f       	sbci	r25, 0xFE	; 254
			break;
    1d54:	09 d5       	rcall	.+2578   	; 0x2768 <outputS>
			
			case TrackMenuArrow5:
			menuScreen->screen2[3][19]= ' ';
    1d56:	da c0       	rjmp	.+436    	; 0x1f0c <updateScreen+0x5d2>
    1d58:	80 e2       	ldi	r24, 0x20	; 32
    1d5a:	f8 01       	movw	r30, r16
    1d5c:	e4 53       	subi	r30, 0x34	; 52
    1d5e:	fe 4f       	sbci	r31, 0xFE	; 254
			menuScreen->screen2[4][19] = ' ';
    1d60:	80 83       	st	Z, r24
			menuScreen->screen2[5][19] = 8;
    1d62:	75 96       	adiw	r30, 0x15	; 21
    1d64:	80 83       	st	Z, r24
    1d66:	88 e0       	ldi	r24, 0x08	; 8
			outputS(menuScreen->screen2[3], 1);
    1d68:	75 96       	adiw	r30, 0x15	; 21
    1d6a:	80 83       	st	Z, r24
    1d6c:	61 e0       	ldi	r22, 0x01	; 1
    1d6e:	70 e0       	ldi	r23, 0x00	; 0
    1d70:	c8 01       	movw	r24, r16
    1d72:	87 54       	subi	r24, 0x47	; 71
    1d74:	9e 4f       	sbci	r25, 0xFE	; 254
			outputS(menuScreen->screen2[4], 2);
    1d76:	f8 d4       	rcall	.+2544   	; 0x2768 <outputS>
    1d78:	62 e0       	ldi	r22, 0x02	; 2
    1d7a:	70 e0       	ldi	r23, 0x00	; 0
    1d7c:	c8 01       	movw	r24, r16
    1d7e:	82 53       	subi	r24, 0x32	; 50
    1d80:	9e 4f       	sbci	r25, 0xFE	; 254
			outputS(menuScreen->screen2[5], 3);
    1d82:	f2 d4       	rcall	.+2532   	; 0x2768 <outputS>
    1d84:	63 e0       	ldi	r22, 0x03	; 3
    1d86:	70 e0       	ldi	r23, 0x00	; 0
    1d88:	c8 01       	movw	r24, r16
    1d8a:	8d 51       	subi	r24, 0x1D	; 29
    1d8c:	9e 4f       	sbci	r25, 0xFE	; 254
			break;
    1d8e:	ec d4       	rcall	.+2520   	; 0x2768 <outputS>

			case TrackMenuArrow5Select:;
			uint16_t totalSustainTime = currentPattern->trackSustainTimeLSB[currentGlobals->currentTrack]|((currentPattern->trackSustainTimeMSB[currentGlobals->currentTrack])<<8);
    1d90:	bd c0       	rjmp	.+378    	; 0x1f0c <updateScreen+0x5d2>
    1d92:	8d 81       	ldd	r24, Y+5	; 0x05
    1d94:	9b 01       	movw	r18, r22
    1d96:	28 0f       	add	r18, r24
    1d98:	31 1d       	adc	r19, r1
    1d9a:	f9 01       	movw	r30, r18
			numPrinter(menuScreen->screen2[5],13, 5, totalSustainTime);
    1d9c:	e5 53       	subi	r30, 0x35	; 53
    1d9e:	ff 4f       	sbci	r31, 0xFF	; 255
    1da0:	20 81       	ld	r18, Z
			outputS(menuScreen->screen2[4], 2);
			outputS(menuScreen->screen2[5], 3);
			break;

			case TrackMenuArrow5Select:;
			uint16_t totalSustainTime = currentPattern->trackSustainTimeLSB[currentGlobals->currentTrack]|((currentPattern->trackSustainTimeMSB[currentGlobals->currentTrack])<<8);
    1da2:	30 e0       	ldi	r19, 0x00	; 0
			numPrinter(menuScreen->screen2[5],13, 5, totalSustainTime);
    1da4:	32 2f       	mov	r19, r18
    1da6:	22 27       	eor	r18, r18
    1da8:	70 96       	adiw	r30, 0x10	; 16
    1daa:	80 81       	ld	r24, Z
    1dac:	28 2b       	or	r18, r24
    1dae:	45 e0       	ldi	r20, 0x05	; 5
    1db0:	6d e0       	ldi	r22, 0x0D	; 13
    1db2:	68 01       	movw	r12, r16
    1db4:	8d e1       	ldi	r24, 0x1D	; 29
    1db6:	c8 1a       	sub	r12, r24
    1db8:	8e ef       	ldi	r24, 0xFE	; 254
			menuScreen->screen2[5][12] = menuScreen->screen2[5][13];
    1dba:	d8 0a       	sbc	r13, r24
    1dbc:	c6 01       	movw	r24, r12
    1dbe:	ec d4       	rcall	.+2520   	; 0x2798 <numPrinter>
    1dc0:	d8 01       	movw	r26, r16
    1dc2:	a0 51       	subi	r26, 0x10	; 16
    1dc4:	be 4f       	sbci	r27, 0xFE	; 254
    1dc6:	8c 91       	ld	r24, X
    1dc8:	f8 01       	movw	r30, r16
			menuScreen->screen2[5][13] = menuScreen->screen2[5][14];
    1dca:	e1 51       	subi	r30, 0x11	; 17
    1dcc:	fe 4f       	sbci	r31, 0xFE	; 254
			menuScreen->screen2[5][14] = '.';
    1dce:	80 83       	st	Z, r24
    1dd0:	32 96       	adiw	r30, 0x02	; 2
			outputS(menuScreen->screen2[5],3);
    1dd2:	80 81       	ld	r24, Z
    1dd4:	8c 93       	st	X, r24
    1dd6:	8e e2       	ldi	r24, 0x2E	; 46
    1dd8:	80 83       	st	Z, r24
			break;
    1dda:	63 e0       	ldi	r22, 0x03	; 3

			case GlobalMenuInit:
			outputS(menuScreen->screen3[0], 0);
    1ddc:	70 e0       	ldi	r23, 0x00	; 0
    1dde:	c6 01       	movw	r24, r12
    1de0:	c3 d4       	rcall	.+2438   	; 0x2768 <outputS>
    1de2:	94 c0       	rjmp	.+296    	; 0x1f0c <updateScreen+0x5d2>
    1de4:	60 e0       	ldi	r22, 0x00	; 0
    1de6:	70 e0       	ldi	r23, 0x00	; 0
			outputS(menuScreen->screen3[1], 1);
    1de8:	c8 01       	movw	r24, r16
    1dea:	89 5c       	subi	r24, 0xC9	; 201
    1dec:	9d 4f       	sbci	r25, 0xFD	; 253
    1dee:	bc d4       	rcall	.+2424   	; 0x2768 <outputS>
    1df0:	61 e0       	ldi	r22, 0x01	; 1
    1df2:	70 e0       	ldi	r23, 0x00	; 0
    1df4:	c8 01       	movw	r24, r16
			outputS(menuScreen->screen3[2], 2);
    1df6:	84 5b       	subi	r24, 0xB4	; 180
    1df8:	9d 4f       	sbci	r25, 0xFD	; 253
    1dfa:	b6 d4       	rcall	.+2412   	; 0x2768 <outputS>
    1dfc:	62 e0       	ldi	r22, 0x02	; 2
    1dfe:	70 e0       	ldi	r23, 0x00	; 0
    1e00:	c8 01       	movw	r24, r16
			outputS(menuScreen->screen3[3], 3);
    1e02:	8f 59       	subi	r24, 0x9F	; 159
    1e04:	9d 4f       	sbci	r25, 0xFD	; 253
    1e06:	b0 d4       	rcall	.+2400   	; 0x2768 <outputS>
    1e08:	63 e0       	ldi	r22, 0x03	; 3
    1e0a:	70 e0       	ldi	r23, 0x00	; 0
    1e0c:	c8 01       	movw	r24, r16
    1e0e:	8a 58       	subi	r24, 0x8A	; 138
			currentGlobals->menuState = GlobalMenuArrow1;
    1e10:	9d 4f       	sbci	r25, 0xFD	; 253
    1e12:	aa d4       	rcall	.+2388   	; 0x2768 <outputS>

			case GlobalMenuArrow1:
			menuScreen->screen3[1][19]= 8;
    1e14:	81 e3       	ldi	r24, 0x31	; 49
    1e16:	8e 83       	std	Y+6, r24	; 0x06
    1e18:	88 e0       	ldi	r24, 0x08	; 8
    1e1a:	f8 01       	movw	r30, r16
    1e1c:	e1 5a       	subi	r30, 0xA1	; 161
			menuScreen->screen3[2][19] = ' ';
    1e1e:	fd 4f       	sbci	r31, 0xFD	; 253
    1e20:	80 83       	st	Z, r24
			menuScreen->screen3[3][19] = ' ';
    1e22:	80 e2       	ldi	r24, 0x20	; 32
    1e24:	75 96       	adiw	r30, 0x15	; 21
			outputS(menuScreen->screen3[1], 1);
    1e26:	80 83       	st	Z, r24
    1e28:	75 96       	adiw	r30, 0x15	; 21
    1e2a:	80 83       	st	Z, r24
    1e2c:	61 e0       	ldi	r22, 0x01	; 1
    1e2e:	70 e0       	ldi	r23, 0x00	; 0
    1e30:	c8 01       	movw	r24, r16
			outputS(menuScreen->screen3[2], 2);
    1e32:	84 5b       	subi	r24, 0xB4	; 180
    1e34:	9d 4f       	sbci	r25, 0xFD	; 253
    1e36:	98 d4       	rcall	.+2352   	; 0x2768 <outputS>
    1e38:	62 e0       	ldi	r22, 0x02	; 2
    1e3a:	70 e0       	ldi	r23, 0x00	; 0
    1e3c:	c8 01       	movw	r24, r16
			outputS(menuScreen->screen3[3], 3);
    1e3e:	8f 59       	subi	r24, 0x9F	; 159
    1e40:	9d 4f       	sbci	r25, 0xFD	; 253
    1e42:	92 d4       	rcall	.+2340   	; 0x2768 <outputS>
    1e44:	63 e0       	ldi	r22, 0x03	; 3
    1e46:	70 e0       	ldi	r23, 0x00	; 0
    1e48:	c8 01       	movw	r24, r16
    1e4a:	8a 58       	subi	r24, 0x8A	; 138
			break;
    1e4c:	9d 4f       	sbci	r25, 0xFD	; 253
			
			case GlobalMenuArrow1Select:
			numPrinter(menuScreen->screen3[1],14,2,(currentGlobals->midiChannel)+1);
    1e4e:	8c d4       	rcall	.+2328   	; 0x2768 <outputS>
    1e50:	5d c0       	rjmp	.+186    	; 0x1f0c <updateScreen+0x5d2>
    1e52:	2c 85       	ldd	r18, Y+12	; 0x0c
    1e54:	30 e0       	ldi	r19, 0x00	; 0
    1e56:	2f 5f       	subi	r18, 0xFF	; 255
    1e58:	3f 4f       	sbci	r19, 0xFF	; 255
    1e5a:	42 e0       	ldi	r20, 0x02	; 2
    1e5c:	6e e0       	ldi	r22, 0x0E	; 14
    1e5e:	68 01       	movw	r12, r16
    1e60:	94 eb       	ldi	r25, 0xB4	; 180
    1e62:	c9 1a       	sub	r12, r25
    1e64:	9d ef       	ldi	r25, 0xFD	; 253
			outputS(menuScreen->screen3[1],1);
    1e66:	d9 0a       	sbc	r13, r25
    1e68:	c6 01       	movw	r24, r12
    1e6a:	96 d4       	rcall	.+2348   	; 0x2798 <numPrinter>
    1e6c:	61 e0       	ldi	r22, 0x01	; 1
    1e6e:	70 e0       	ldi	r23, 0x00	; 0
			break;
    1e70:	c6 01       	movw	r24, r12

			case GlobalMenuArrow2:
			menuScreen->screen3[1][19]= ' ';
    1e72:	7a d4       	rcall	.+2292   	; 0x2768 <outputS>
    1e74:	4b c0       	rjmp	.+150    	; 0x1f0c <updateScreen+0x5d2>
    1e76:	80 e2       	ldi	r24, 0x20	; 32
    1e78:	f8 01       	movw	r30, r16
			menuScreen->screen3[2][19] = 8;
    1e7a:	e1 5a       	subi	r30, 0xA1	; 161
    1e7c:	fd 4f       	sbci	r31, 0xFD	; 253
    1e7e:	80 83       	st	Z, r24
			menuScreen->screen3[3][19] = ' ';
    1e80:	98 e0       	ldi	r25, 0x08	; 8
			outputS(menuScreen->screen3[1], 1);
    1e82:	75 96       	adiw	r30, 0x15	; 21
    1e84:	90 83       	st	Z, r25
    1e86:	75 96       	adiw	r30, 0x15	; 21
    1e88:	80 83       	st	Z, r24
    1e8a:	61 e0       	ldi	r22, 0x01	; 1
    1e8c:	70 e0       	ldi	r23, 0x00	; 0
			outputS(menuScreen->screen3[2], 2);
    1e8e:	c8 01       	movw	r24, r16
    1e90:	84 5b       	subi	r24, 0xB4	; 180
    1e92:	9d 4f       	sbci	r25, 0xFD	; 253
    1e94:	69 d4       	rcall	.+2258   	; 0x2768 <outputS>
    1e96:	62 e0       	ldi	r22, 0x02	; 2
    1e98:	70 e0       	ldi	r23, 0x00	; 0
    1e9a:	c8 01       	movw	r24, r16
			outputS(menuScreen->screen3[3], 3);
    1e9c:	8f 59       	subi	r24, 0x9F	; 159
    1e9e:	9d 4f       	sbci	r25, 0xFD	; 253
    1ea0:	63 d4       	rcall	.+2246   	; 0x2768 <outputS>
    1ea2:	63 e0       	ldi	r22, 0x03	; 3
    1ea4:	70 e0       	ldi	r23, 0x00	; 0
    1ea6:	c8 01       	movw	r24, r16
    1ea8:	8a 58       	subi	r24, 0x8A	; 138
			break;
    1eaa:	9d 4f       	sbci	r25, 0xFD	; 253
			
			case GlobalMenuArrow2Select:
			midiNotePrinter(menuScreen->screen3[2],14,currentGlobals->midiTrackNote[currentGlobals->currentTrack]); 
    1eac:	5d d4       	rcall	.+2234   	; 0x2768 <outputS>
    1eae:	2e c0       	rjmp	.+92     	; 0x1f0c <updateScreen+0x5d2>
    1eb0:	8d 81       	ldd	r24, Y+5	; 0x05
    1eb2:	fa 01       	movw	r30, r20
    1eb4:	e8 0f       	add	r30, r24
    1eb6:	f1 1d       	adc	r31, r1
    1eb8:	45 85       	ldd	r20, Z+13	; 0x0d
    1eba:	6e e0       	ldi	r22, 0x0E	; 14
    1ebc:	68 01       	movw	r12, r16
    1ebe:	af e9       	ldi	r26, 0x9F	; 159
    1ec0:	ca 1a       	sub	r12, r26
    1ec2:	ad ef       	ldi	r26, 0xFD	; 253
    1ec4:	da 0a       	sbc	r13, r26
    1ec6:	c6 01       	movw	r24, r12
			outputS(menuScreen->screen3[2],2);
    1ec8:	2d d6       	rcall	.+3162   	; 0x2b24 <midiNotePrinter>
    1eca:	62 e0       	ldi	r22, 0x02	; 2
    1ecc:	70 e0       	ldi	r23, 0x00	; 0
    1ece:	c6 01       	movw	r24, r12
    1ed0:	4b d4       	rcall	.+2198   	; 0x2768 <outputS>
			break;
    1ed2:	1c c0       	rjmp	.+56     	; 0x1f0c <updateScreen+0x5d2>

			case GlobalMenuArrow3:
			menuScreen->screen3[1][19]= ' ';
    1ed4:	80 e2       	ldi	r24, 0x20	; 32
    1ed6:	f8 01       	movw	r30, r16
    1ed8:	e1 5a       	subi	r30, 0xA1	; 161
    1eda:	fd 4f       	sbci	r31, 0xFD	; 253
			menuScreen->screen3[2][19] = ' ';
    1edc:	80 83       	st	Z, r24
    1ede:	75 96       	adiw	r30, 0x15	; 21
			menuScreen->screen3[3][19] = 8;
    1ee0:	80 83       	st	Z, r24
    1ee2:	88 e0       	ldi	r24, 0x08	; 8
			outputS(menuScreen->screen3[1], 1);
    1ee4:	75 96       	adiw	r30, 0x15	; 21
    1ee6:	80 83       	st	Z, r24
    1ee8:	61 e0       	ldi	r22, 0x01	; 1
    1eea:	70 e0       	ldi	r23, 0x00	; 0
    1eec:	c8 01       	movw	r24, r16
    1eee:	84 5b       	subi	r24, 0xB4	; 180
    1ef0:	9d 4f       	sbci	r25, 0xFD	; 253
			outputS(menuScreen->screen3[2], 2);
    1ef2:	3a d4       	rcall	.+2164   	; 0x2768 <outputS>
    1ef4:	62 e0       	ldi	r22, 0x02	; 2
    1ef6:	70 e0       	ldi	r23, 0x00	; 0
    1ef8:	c8 01       	movw	r24, r16
    1efa:	8f 59       	subi	r24, 0x9F	; 159
    1efc:	9d 4f       	sbci	r25, 0xFD	; 253
    1efe:	34 d4       	rcall	.+2152   	; 0x2768 <outputS>
			outputS(menuScreen->screen3[3], 3);
    1f00:	63 e0       	ldi	r22, 0x03	; 3
    1f02:	70 e0       	ldi	r23, 0x00	; 0
    1f04:	c8 01       	movw	r24, r16
    1f06:	8a 58       	subi	r24, 0x8A	; 138
    1f08:	9d 4f       	sbci	r25, 0xFD	; 253
    1f0a:	2e d4       	rcall	.+2140   	; 0x2768 <outputS>
    1f0c:	8e 81       	ldd	r24, Y+6	; 0x06
			break;
		}
		prevMenuState = currentGlobals->menuState;
    1f0e:	80 93 68 06 	sts	0x0668, r24	; 0x800668 <prevMenuState>
    1f12:	8a 85       	ldd	r24, Y+10	; 0x0a
	}
	//We should only reach this in track selection and global settings for setting midi notes. 
	if(currentGlobals->valueChangeFlag&(1<<triggerChange))
    1f14:	81 ff       	sbrs	r24, 1
    1f16:	19 c1       	rjmp	.+562    	; 0x214a <updateScreen+0x810>
    1f18:	1a 86       	std	Y+10, r1	; 0x0a
	{
		currentGlobals->valueChangeFlag = currentGlobals->valueChangeFlag&(0<<triggerChange); //this is wrong. Will erase all of valueChange Flag. 
    1f1a:	8e 81       	ldd	r24, Y+6	; 0x06
		switch((currentGlobals->menuState)>>4) //we don't need to worry about what the bottom encoder is doing.  
    1f1c:	82 95       	swap	r24
    1f1e:	8f 70       	andi	r24, 0x0F	; 15
    1f20:	82 30       	cpi	r24, 0x02	; 2
    1f22:	21 f0       	breq	.+8      	; 0x1f2c <updateScreen+0x5f2>
    1f24:	83 30       	cpi	r24, 0x03	; 3
    1f26:	09 f4       	brne	.+2      	; 0x1f2a <updateScreen+0x5f0>
    1f28:	f7 c0       	rjmp	.+494    	; 0x2118 <updateScreen+0x7de>
    1f2a:	0f c1       	rjmp	.+542    	; 0x214a <updateScreen+0x810>
    1f2c:	2d 81       	ldd	r18, Y+5	; 0x05
		{
			case 2:;
			uint16_t trackSample = (currentPattern->trackSampleMSB[currentGlobals->currentTrack]<<8)|(currentPattern->trackSampleLSB[currentGlobals->currentTrack]);
    1f2e:	30 e0       	ldi	r19, 0x00	; 0
    1f30:	c7 01       	movw	r24, r14
    1f32:	82 0f       	add	r24, r18
    1f34:	93 1f       	adc	r25, r19
    1f36:	fc 01       	movw	r30, r24
    1f38:	e8 56       	subi	r30, 0x68	; 104
    1f3a:	ff 4f       	sbci	r31, 0xFF	; 255
    1f3c:	c0 80       	ld	r12, Z
    1f3e:	d1 2c       	mov	r13, r1
    1f40:	dc 2c       	mov	r13, r12
    1f42:	cc 24       	eor	r12, r12
    1f44:	70 96       	adiw	r30, 0x10	; 16
    1f46:	80 81       	ld	r24, Z
    1f48:	c8 2a       	or	r12, r24
    1f4a:	2f 5f       	subi	r18, 0xFF	; 255
			numPrinter(menuScreen->screen2[1], 7, 2, (currentGlobals->currentTrack)+1);
    1f4c:	3f 4f       	sbci	r19, 0xFF	; 255
    1f4e:	42 e0       	ldi	r20, 0x02	; 2
    1f50:	67 e0       	ldi	r22, 0x07	; 7
    1f52:	58 01       	movw	r10, r16
    1f54:	b1 e7       	ldi	r27, 0x71	; 113
    1f56:	ab 1a       	sub	r10, r27
    1f58:	be ef       	ldi	r27, 0xFE	; 254
    1f5a:	bb 0a       	sbc	r11, r27
    1f5c:	c5 01       	movw	r24, r10
    1f5e:	1c d4       	rcall	.+2104   	; 0x2798 <numPrinter>
    1f60:	96 01       	movw	r18, r12
			numPrinter(menuScreen->screen2[1], 10, 4, trackSample);
    1f62:	44 e0       	ldi	r20, 0x04	; 4
    1f64:	6a e0       	ldi	r22, 0x0A	; 10
    1f66:	c5 01       	movw	r24, r10
    1f68:	17 d4       	rcall	.+2094   	; 0x2798 <numPrinter>
    1f6a:	8d 81       	ldd	r24, Y+5	; 0x05
    1f6c:	f7 01       	movw	r30, r14
			//this feels dumb having it in two places, but It should take care of both cases. Maybe this should be a function?
					switch (currentPattern->trackPlayMode[currentGlobals->currentTrack])
    1f6e:	e8 0f       	add	r30, r24
    1f70:	f1 1d       	adc	r31, r1
    1f72:	e8 57       	subi	r30, 0x78	; 120
    1f74:	ff 4f       	sbci	r31, 0xFF	; 255
    1f76:	80 81       	ld	r24, Z
    1f78:	88 23       	and	r24, r24
    1f7a:	19 f0       	breq	.+6      	; 0x1f82 <updateScreen+0x648>
    1f7c:	81 30       	cpi	r24, 0x01	; 1
    1f7e:	79 f0       	breq	.+30     	; 0x1f9e <updateScreen+0x664>
    1f80:	1c c0       	rjmp	.+56     	; 0x1fba <updateScreen+0x680>
    1f82:	83 e5       	ldi	r24, 0x53	; 83
    1f84:	f8 01       	movw	r30, r16
					{
						case 0:
						menuScreen->screen2[2][10] = 'S';
    1f86:	e2 55       	subi	r30, 0x52	; 82
    1f88:	fe 4f       	sbci	r31, 0xFE	; 254
    1f8a:	80 83       	st	Z, r24
    1f8c:	8f e6       	ldi	r24, 0x6F	; 111
    1f8e:	31 96       	adiw	r30, 0x01	; 1
						menuScreen->screen2[2][11] = 'o';
    1f90:	80 83       	st	Z, r24
    1f92:	9c e6       	ldi	r25, 0x6C	; 108
    1f94:	31 96       	adiw	r30, 0x01	; 1
						menuScreen->screen2[2][12] = 'l';
    1f96:	90 83       	st	Z, r25
    1f98:	31 96       	adiw	r30, 0x01	; 1
    1f9a:	80 83       	st	Z, r24
						menuScreen->screen2[2][13] = 'o';
    1f9c:	0e c0       	rjmp	.+28     	; 0x1fba <updateScreen+0x680>
    1f9e:	80 e5       	ldi	r24, 0x50	; 80
						break;
    1fa0:	f8 01       	movw	r30, r16

						case 1:
						menuScreen->screen2[2][10] = 'P';
    1fa2:	e2 55       	subi	r30, 0x52	; 82
    1fa4:	fe 4f       	sbci	r31, 0xFE	; 254
    1fa6:	80 83       	st	Z, r24
    1fa8:	8f e6       	ldi	r24, 0x6F	; 111
    1faa:	31 96       	adiw	r30, 0x01	; 1
						menuScreen->screen2[2][11] = 'o';
    1fac:	80 83       	st	Z, r24
    1fae:	8c e6       	ldi	r24, 0x6C	; 108
    1fb0:	31 96       	adiw	r30, 0x01	; 1
						menuScreen->screen2[2][12] = 'l';
    1fb2:	80 83       	st	Z, r24
    1fb4:	89 e7       	ldi	r24, 0x79	; 121
    1fb6:	31 96       	adiw	r30, 0x01	; 1
						menuScreen->screen2[2][13] = 'y';
    1fb8:	80 83       	st	Z, r24
    1fba:	8d 81       	ldd	r24, Y+5	; 0x05
    1fbc:	f7 01       	movw	r30, r14

						case 3:
						break;
					}
					
			numPrinter(menuScreen->screen2[3], 10, 2, (currentPattern->trackOutputRoute[currentGlobals->currentTrack]+1));
    1fbe:	e8 0f       	add	r30, r24
    1fc0:	f1 1d       	adc	r31, r1
    1fc2:	20 8d       	ldd	r18, Z+24	; 0x18
    1fc4:	30 e0       	ldi	r19, 0x00	; 0
    1fc6:	2f 5f       	subi	r18, 0xFF	; 255
    1fc8:	3f 4f       	sbci	r19, 0xFF	; 255
    1fca:	42 e0       	ldi	r20, 0x02	; 2
    1fcc:	6a e0       	ldi	r22, 0x0A	; 10
    1fce:	c8 01       	movw	r24, r16
    1fd0:	87 54       	subi	r24, 0x47	; 71
    1fd2:	9e 4f       	sbci	r25, 0xFE	; 254
    1fd4:	e1 d3       	rcall	.+1986   	; 0x2798 <numPrinter>
    1fd6:	8d 81       	ldd	r24, Y+5	; 0x05
    1fd8:	f7 01       	movw	r30, r14
    1fda:	e8 0f       	add	r30, r24
			switch(currentPattern->envelopeType[currentGlobals->currentTrack])
    1fdc:	f1 1d       	adc	r31, r1
    1fde:	e5 51       	subi	r30, 0x15	; 21
    1fe0:	ff 4f       	sbci	r31, 0xFF	; 255
    1fe2:	80 81       	ld	r24, Z
    1fe4:	81 30       	cpi	r24, 0x01	; 1
    1fe6:	a9 f0       	breq	.+42     	; 0x2012 <updateScreen+0x6d8>
    1fe8:	28 f0       	brcs	.+10     	; 0x1ff4 <updateScreen+0x6ba>
    1fea:	82 30       	cpi	r24, 0x02	; 2
    1fec:	f9 f0       	breq	.+62     	; 0x202c <updateScreen+0x6f2>
    1fee:	83 30       	cpi	r24, 0x03	; 3
    1ff0:	51 f1       	breq	.+84     	; 0x2046 <updateScreen+0x70c>
    1ff2:	37 c0       	rjmp	.+110    	; 0x2062 <updateScreen+0x728>
    1ff4:	81 e4       	ldi	r24, 0x41	; 65
    1ff6:	f8 01       	movw	r30, r16
    1ff8:	e4 52       	subi	r30, 0x24	; 36
			{
				case 0: //A/R
				menuScreen->screen2[4][14] = 'A';
    1ffa:	fe 4f       	sbci	r31, 0xFE	; 254
    1ffc:	80 83       	st	Z, r24
    1ffe:	8d e2       	ldi	r24, 0x2D	; 45
    2000:	31 96       	adiw	r30, 0x01	; 1
				menuScreen->screen2[4][15] = '-';
    2002:	80 83       	st	Z, r24
    2004:	82 e5       	ldi	r24, 0x52	; 82
    2006:	31 96       	adiw	r30, 0x01	; 1
				menuScreen->screen2[4][16] = 'R';
    2008:	80 83       	st	Z, r24
    200a:	80 e2       	ldi	r24, 0x20	; 32
    200c:	31 96       	adiw	r30, 0x01	; 1
				menuScreen->screen2[4][17] = ' ';
    200e:	80 83       	st	Z, r24
    2010:	28 c0       	rjmp	.+80     	; 0x2062 <updateScreen+0x728>
    2012:	82 e5       	ldi	r24, 0x52	; 82
				break;
    2014:	f8 01       	movw	r30, r16
				
				case 1: //only release
				menuScreen->screen2[4][14] = 'R';
    2016:	e4 52       	subi	r30, 0x24	; 36
    2018:	fe 4f       	sbci	r31, 0xFE	; 254
    201a:	80 83       	st	Z, r24
    201c:	80 e2       	ldi	r24, 0x20	; 32
    201e:	31 96       	adiw	r30, 0x01	; 1
				menuScreen->screen2[4][15] = ' ';
    2020:	80 83       	st	Z, r24
    2022:	31 96       	adiw	r30, 0x01	; 1
    2024:	80 83       	st	Z, r24
				menuScreen->screen2[4][16] = ' ';
    2026:	31 96       	adiw	r30, 0x01	; 1
    2028:	80 83       	st	Z, r24
				menuScreen->screen2[4][17] = ' ';
    202a:	1b c0       	rjmp	.+54     	; 0x2062 <updateScreen+0x728>
    202c:	81 e4       	ldi	r24, 0x41	; 65
				break;
    202e:	f8 01       	movw	r30, r16
				
				case 2: //only attack
				menuScreen->screen2[4][14] = 'A';
    2030:	e4 52       	subi	r30, 0x24	; 36
    2032:	fe 4f       	sbci	r31, 0xFE	; 254
    2034:	80 83       	st	Z, r24
    2036:	80 e2       	ldi	r24, 0x20	; 32
    2038:	31 96       	adiw	r30, 0x01	; 1
				menuScreen->screen2[4][15] = ' ';
    203a:	80 83       	st	Z, r24
    203c:	31 96       	adiw	r30, 0x01	; 1
    203e:	80 83       	st	Z, r24
				menuScreen->screen2[4][16] = ' ';
    2040:	31 96       	adiw	r30, 0x01	; 1
    2042:	80 83       	st	Z, r24
				menuScreen->screen2[4][17] = ' ';
    2044:	0e c0       	rjmp	.+28     	; 0x2062 <updateScreen+0x728>
    2046:	8e e4       	ldi	r24, 0x4E	; 78
				break;
    2048:	f8 01       	movw	r30, r16
				
				case 3: //No envelope
				menuScreen->screen2[4][14] = 'N';
    204a:	e4 52       	subi	r30, 0x24	; 36
    204c:	fe 4f       	sbci	r31, 0xFE	; 254
    204e:	80 83       	st	Z, r24
    2050:	8f e6       	ldi	r24, 0x6F	; 111
				menuScreen->screen2[4][15] = 'o';
    2052:	31 96       	adiw	r30, 0x01	; 1
    2054:	80 83       	st	Z, r24
    2056:	8e e6       	ldi	r24, 0x6E	; 110
				menuScreen->screen2[4][16] = 'n';
    2058:	31 96       	adiw	r30, 0x01	; 1
    205a:	80 83       	st	Z, r24
    205c:	85 e6       	ldi	r24, 0x65	; 101
				menuScreen->screen2[4][17] = 'e';
    205e:	31 96       	adiw	r30, 0x01	; 1
    2060:	80 83       	st	Z, r24
    2062:	8d 81       	ldd	r24, Y+5	; 0x05
				break;
			}
		uint16_t totalSustainTime = currentPattern->trackSustainTimeLSB[currentGlobals->currentTrack]|((currentPattern->trackSustainTimeMSB[currentGlobals->currentTrack])<<8);
    2064:	f7 01       	movw	r30, r14
    2066:	e8 0f       	add	r30, r24
    2068:	f1 1d       	adc	r31, r1
    206a:	e5 53       	subi	r30, 0x35	; 53
    206c:	ff 4f       	sbci	r31, 0xFF	; 255
		numPrinter(menuScreen->screen2[5],13, 5, totalSustainTime);
    206e:	20 81       	ld	r18, Z
    2070:	30 e0       	ldi	r19, 0x00	; 0
    2072:	32 2f       	mov	r19, r18
    2074:	22 27       	eor	r18, r18
				menuScreen->screen2[4][15] = 'o';
				menuScreen->screen2[4][16] = 'n';
				menuScreen->screen2[4][17] = 'e';
				break;
			}
		uint16_t totalSustainTime = currentPattern->trackSustainTimeLSB[currentGlobals->currentTrack]|((currentPattern->trackSustainTimeMSB[currentGlobals->currentTrack])<<8);
    2076:	70 96       	adiw	r30, 0x10	; 16
		numPrinter(menuScreen->screen2[5],13, 5, totalSustainTime);
    2078:	80 81       	ld	r24, Z
    207a:	28 2b       	or	r18, r24
    207c:	45 e0       	ldi	r20, 0x05	; 5
    207e:	6d e0       	ldi	r22, 0x0D	; 13
    2080:	c8 01       	movw	r24, r16
    2082:	8d 51       	subi	r24, 0x1D	; 29
    2084:	9e 4f       	sbci	r25, 0xFE	; 254
    2086:	88 d3       	rcall	.+1808   	; 0x2798 <numPrinter>
		menuScreen->screen2[5][12] = menuScreen->screen2[5][13];
    2088:	d8 01       	movw	r26, r16
    208a:	a0 51       	subi	r26, 0x10	; 16
    208c:	be 4f       	sbci	r27, 0xFE	; 254
    208e:	8c 91       	ld	r24, X
    2090:	f8 01       	movw	r30, r16
    2092:	e1 51       	subi	r30, 0x11	; 17
    2094:	fe 4f       	sbci	r31, 0xFE	; 254
    2096:	80 83       	st	Z, r24
		menuScreen->screen2[5][13] = menuScreen->screen2[5][14];
    2098:	32 96       	adiw	r30, 0x02	; 2
    209a:	80 81       	ld	r24, Z
    209c:	8c 93       	st	X, r24
		menuScreen->screen2[5][14] = '.';
    209e:	8e e2       	ldi	r24, 0x2E	; 46
    20a0:	80 83       	st	Z, r24
    20a2:	8e 81       	ldd	r24, Y+6	; 0x06
			
			
			//this is a bit messy, but seems to fix bugs on this portion of the menu for now. 
			uint8_t triggerChangeScreen = 1;
			
			if(((currentGlobals->menuState)&selectBit)>35) //this accounts for menu stats 36,37,44, and 45
    20a4:	87 7f       	andi	r24, 0xF7	; 247
    20a6:	28 2f       	mov	r18, r24
    20a8:	30 e0       	ldi	r19, 0x00	; 0
    20aa:	24 32       	cpi	r18, 0x24	; 36
    20ac:	31 05       	cpc	r19, r1
			{
				triggerChangeScreen = ((currentGlobals->menuState)&selectBit) - 34; //mask to get rid of encoder B pushed state. 
    20ae:	14 f0       	brlt	.+4      	; 0x20b4 <updateScreen+0x77a>
		menuScreen->screen2[5][14] = '.';
			//the track settings screens should now be populated
			
			
			//this is a bit messy, but seems to fix bugs on this portion of the menu for now. 
			uint8_t triggerChangeScreen = 1;
    20b0:	82 52       	subi	r24, 0x22	; 34
			if(((currentGlobals->menuState)&selectBit)>35) //this accounts for menu stats 36,37,44, and 45
			{
				triggerChangeScreen = ((currentGlobals->menuState)&selectBit) - 34; //mask to get rid of encoder B pushed state. 
			}
			
			outputS(menuScreen->screen2[triggerChangeScreen], 1); 
    20b2:	01 c0       	rjmp	.+2      	; 0x20b6 <updateScreen+0x77c>
    20b4:	81 e0       	ldi	r24, 0x01	; 1
    20b6:	c8 2e       	mov	r12, r24
    20b8:	d1 2c       	mov	r13, r1
    20ba:	0f 2e       	mov	r0, r31
    20bc:	f5 e1       	ldi	r31, 0x15	; 21
    20be:	bf 2e       	mov	r11, r31
    20c0:	f0 2d       	mov	r31, r0
    20c2:	bc 9c       	mul	r11, r12
    20c4:	c0 01       	movw	r24, r0
    20c6:	bd 9c       	mul	r11, r13
    20c8:	90 0d       	add	r25, r0
    20ca:	11 24       	eor	r1, r1
    20cc:	86 58       	subi	r24, 0x86	; 134
    20ce:	9e 4f       	sbci	r25, 0xFE	; 254
    20d0:	61 e0       	ldi	r22, 0x01	; 1
    20d2:	70 e0       	ldi	r23, 0x00	; 0
    20d4:	80 0f       	add	r24, r16
			outputS(menuScreen->screen2[triggerChangeScreen+1], 2); 
    20d6:	91 1f       	adc	r25, r17
    20d8:	47 d3       	rcall	.+1678   	; 0x2768 <outputS>
    20da:	96 01       	movw	r18, r12
    20dc:	2f 5f       	subi	r18, 0xFF	; 255
    20de:	3f 4f       	sbci	r19, 0xFF	; 255
    20e0:	b2 9e       	mul	r11, r18
    20e2:	c0 01       	movw	r24, r0
    20e4:	b3 9e       	mul	r11, r19
    20e6:	90 0d       	add	r25, r0
    20e8:	11 24       	eor	r1, r1
    20ea:	86 58       	subi	r24, 0x86	; 134
    20ec:	9e 4f       	sbci	r25, 0xFE	; 254
    20ee:	62 e0       	ldi	r22, 0x02	; 2
    20f0:	70 e0       	ldi	r23, 0x00	; 0
    20f2:	80 0f       	add	r24, r16
    20f4:	91 1f       	adc	r25, r17
			outputS(menuScreen->screen2[triggerChangeScreen+2], 3);
    20f6:	38 d3       	rcall	.+1648   	; 0x2768 <outputS>
    20f8:	f2 e0       	ldi	r31, 0x02	; 2
    20fa:	cf 0e       	add	r12, r31
    20fc:	d1 1c       	adc	r13, r1
    20fe:	bc 9c       	mul	r11, r12
    2100:	c0 01       	movw	r24, r0
    2102:	bd 9c       	mul	r11, r13
    2104:	90 0d       	add	r25, r0
    2106:	11 24       	eor	r1, r1
    2108:	86 58       	subi	r24, 0x86	; 134
    210a:	9e 4f       	sbci	r25, 0xFE	; 254
    210c:	63 e0       	ldi	r22, 0x03	; 3
    210e:	70 e0       	ldi	r23, 0x00	; 0
    2110:	80 0f       	add	r24, r16
    2112:	91 1f       	adc	r25, r17
    2114:	29 d3       	rcall	.+1618   	; 0x2768 <outputS>
			
			break;
    2116:	19 c0       	rjmp	.+50     	; 0x214a <updateScreen+0x810>
			
			case 3:;
			//do we need this variable?
			numPrinter(menuScreen->screen3[2],10,2,(currentGlobals->currentTrack)+1);
    2118:	2d 81       	ldd	r18, Y+5	; 0x05
    211a:	30 e0       	ldi	r19, 0x00	; 0
    211c:	2f 5f       	subi	r18, 0xFF	; 255
    211e:	3f 4f       	sbci	r19, 0xFF	; 255
    2120:	42 e0       	ldi	r20, 0x02	; 2
    2122:	6a e0       	ldi	r22, 0x0A	; 10
    2124:	68 01       	movw	r12, r16
    2126:	8f e9       	ldi	r24, 0x9F	; 159
    2128:	c8 1a       	sub	r12, r24
    212a:	8d ef       	ldi	r24, 0xFD	; 253
    212c:	d8 0a       	sbc	r13, r24
    212e:	c6 01       	movw	r24, r12
    2130:	33 d3       	rcall	.+1638   	; 0x2798 <numPrinter>
			midiNotePrinter(menuScreen->screen3[2],14,currentGlobals->midiTrackNote[currentGlobals->currentTrack]); 
    2132:	8d 81       	ldd	r24, Y+5	; 0x05
    2134:	fe 01       	movw	r30, r28
    2136:	e8 0f       	add	r30, r24
    2138:	f1 1d       	adc	r31, r1
    213a:	45 85       	ldd	r20, Z+13	; 0x0d
    213c:	6e e0       	ldi	r22, 0x0E	; 14
    213e:	c6 01       	movw	r24, r12
    2140:	f1 d4       	rcall	.+2530   	; 0x2b24 <midiNotePrinter>
    2142:	62 e0       	ldi	r22, 0x02	; 2
			outputS(menuScreen->screen3[2],2);
    2144:	70 e0       	ldi	r23, 0x00	; 0
    2146:	c6 01       	movw	r24, r12
    2148:	0f d3       	rcall	.+1566   	; 0x2768 <outputS>
    214a:	8a 85       	ldd	r24, Y+10	; 0x0a
    214c:	82 ff       	sbrs	r24, 2
			break;
			
		}
	}
	if(currentGlobals->valueChangeFlag&(1<<knobChange))
    214e:	70 c1       	rjmp	.+736    	; 0x2430 <__stack+0x231>
    2150:	8b 85       	ldd	r24, Y+11	; 0x0b
    2152:	98 2f       	mov	r25, r24
	{
		uint8_t positionSelect = currentGlobals->knobStatus&0x0F; //this is the bottom 4 bits, for the track location
    2154:	9f 70       	andi	r25, 0x0F	; 15
    2156:	89 2e       	mov	r8, r25
    2158:	99 85       	ldd	r25, Y+9	; 0x09
    215a:	90 ff       	sbrs	r25, 0
		uint8_t positionSelectUpper = 0;
		if((currentGlobals->buttonSwitchFlag)&0x01)
    215c:	02 c0       	rjmp	.+4      	; 0x2162 <updateScreen+0x828>
    215e:	28 e0       	ldi	r18, 0x08	; 8
    2160:	01 c0       	rjmp	.+2      	; 0x2164 <updateScreen+0x82a>
		{
			positionSelectUpper = 8;
    2162:	20 e0       	ldi	r18, 0x00	; 0
    2164:	82 95       	swap	r24
		}
	}
	if(currentGlobals->valueChangeFlag&(1<<knobChange))
	{
		uint8_t positionSelect = currentGlobals->knobStatus&0x0F; //this is the bottom 4 bits, for the track location
		uint8_t positionSelectUpper = 0;
    2166:	8f 70       	andi	r24, 0x0F	; 15
		{
			positionSelectUpper = 8;
		}
		

		switch((currentGlobals->knobStatus)>>4)
    2168:	82 30       	cpi	r24, 0x02	; 2
    216a:	09 f4       	brne	.+2      	; 0x216e <updateScreen+0x834>
    216c:	94 c0       	rjmp	.+296    	; 0x2296 <__stack+0x97>
    216e:	30 f4       	brcc	.+12     	; 0x217c <updateScreen+0x842>
    2170:	88 23       	and	r24, r24
    2172:	69 f0       	breq	.+26     	; 0x218e <updateScreen+0x854>
    2174:	81 30       	cpi	r24, 0x01	; 1
    2176:	09 f4       	brne	.+2      	; 0x217a <updateScreen+0x840>
    2178:	58 c0       	rjmp	.+176    	; 0x222a <__stack+0x2b>
    217a:	59 c1       	rjmp	.+690    	; 0x242e <__stack+0x22f>
    217c:	84 30       	cpi	r24, 0x04	; 4
    217e:	09 f4       	brne	.+2      	; 0x2182 <updateScreen+0x848>
    2180:	f6 c0       	rjmp	.+492    	; 0x236e <__stack+0x16f>
    2182:	08 f4       	brcc	.+2      	; 0x2186 <updateScreen+0x84c>
    2184:	be c0       	rjmp	.+380    	; 0x2302 <__stack+0x103>
    2186:	85 30       	cpi	r24, 0x05	; 5
    2188:	09 f4       	brne	.+2      	; 0x218c <updateScreen+0x852>
    218a:	3f c1       	rjmp	.+638    	; 0x240a <__stack+0x20b>
    218c:	50 c1       	rjmp	.+672    	; 0x242e <__stack+0x22f>
    218e:	e8 2d       	mov	r30, r8
		{
			case 0: //output volume
			if((currentPattern->outputLevelMSB[positionSelect])==0)
    2190:	f0 e0       	ldi	r31, 0x00	; 0
    2192:	d7 01       	movw	r26, r14
    2194:	ae 0f       	add	r26, r30
    2196:	bf 1f       	adc	r27, r31
    2198:	8c 91       	ld	r24, X
    219a:	81 11       	cpse	r24, r1
    219c:	10 c0       	rjmp	.+32     	; 0x21be <updateScreen+0x884>
    219e:	80 e2       	ldi	r24, 0x20	; 32
			{ //value is positive
				menuScreen->knobScreen[0][14] = ' ';
    21a0:	d8 01       	movw	r26, r16
    21a2:	ae 5f       	subi	r26, 0xFE	; 254
    21a4:	bc 4f       	sbci	r27, 0xFC	; 252
    21a6:	8c 93       	st	X, r24
    21a8:	ee 0d       	add	r30, r14
				numPrinter(menuScreen->knobScreen[0],15,2,currentPattern->outputLevelLSB[positionSelect]); //should be a value between 0 and 8
    21aa:	ff 1d       	adc	r31, r15
    21ac:	20 85       	ldd	r18, Z+8	; 0x08
    21ae:	30 e0       	ldi	r19, 0x00	; 0
    21b0:	42 e0       	ldi	r20, 0x02	; 2
    21b2:	6f e0       	ldi	r22, 0x0F	; 15
    21b4:	c8 01       	movw	r24, r16
    21b6:	8c 50       	subi	r24, 0x0C	; 12
    21b8:	9d 4f       	sbci	r25, 0xFD	; 253
    21ba:	ee d2       	rcall	.+1500   	; 0x2798 <numPrinter>
    21bc:	29 c0       	rjmp	.+82     	; 0x2210 <__stack+0x11>
    21be:	8d e2       	ldi	r24, 0x2D	; 45
    21c0:	d8 01       	movw	r26, r16
			}else
			{
				menuScreen->knobScreen[0][14] = '-';
    21c2:	ae 5f       	subi	r26, 0xFE	; 254
    21c4:	bc 4f       	sbci	r27, 0xFC	; 252
    21c6:	8c 93       	st	X, r24
    21c8:	68 01       	movw	r12, r16
				menuScreen->knobScreen[0][15] = ((((currentPattern->outputLevelLSB[positionSelect]^255)+1)%100)/10)+48; //negative 8 bit numbers: flip every bit and add 1.
    21ca:	a3 e0       	ldi	r26, 0x03	; 3
    21cc:	ca 0e       	add	r12, r26
    21ce:	da 1e       	adc	r13, r26
    21d0:	ee 0d       	add	r30, r14
    21d2:	ff 1d       	adc	r31, r15
    21d4:	80 85       	ldd	r24, Z+8	; 0x08
    21d6:	80 95       	com	r24
    21d8:	90 e0       	ldi	r25, 0x00	; 0
    21da:	01 96       	adiw	r24, 0x01	; 1
    21dc:	64 e6       	ldi	r22, 0x64	; 100
    21de:	70 e0       	ldi	r23, 0x00	; 0
    21e0:	0e 94 6b 1f 	call	0x3ed6	; 0x3ed6 <__divmodhi4>
    21e4:	2a e0       	ldi	r18, 0x0A	; 10
    21e6:	30 e0       	ldi	r19, 0x00	; 0
    21e8:	b9 01       	movw	r22, r18
    21ea:	0e 94 6b 1f 	call	0x3ed6	; 0x3ed6 <__divmodhi4>
    21ee:	60 5d       	subi	r22, 0xD0	; 208
    21f0:	d6 01       	movw	r26, r12
    21f2:	6c 93       	st	X, r22
				menuScreen->knobScreen[0][16] = (((currentPattern->outputLevelLSB[positionSelect]^255)+1)%10)+48;
    21f4:	78 01       	movw	r14, r16
    21f6:	bc ef       	ldi	r27, 0xFC	; 252
    21f8:	eb 1a       	sub	r14, r27
    21fa:	fb 0a       	sbc	r15, r27
    21fc:	80 85       	ldd	r24, Z+8	; 0x08
    21fe:	80 95       	com	r24
    2200:	90 e0       	ldi	r25, 0x00	; 0
    2202:	01 96       	adiw	r24, 0x01	; 1
    2204:	b9 01       	movw	r22, r18
    2206:	0e 94 6b 1f 	call	0x3ed6	; 0x3ed6 <__divmodhi4>
    220a:	80 5d       	subi	r24, 0xD0	; 208
    220c:	f7 01       	movw	r30, r14
			}
				
			menuScreen->knobScreen[0][10] = positionSelect + 49;
    220e:	80 83       	st	Z, r24
    2210:	f8 01       	movw	r30, r16
    2212:	e2 50       	subi	r30, 0x02	; 2
    2214:	fd 4f       	sbci	r31, 0xFD	; 253
    2216:	81 e3       	ldi	r24, 0x31	; 49
    2218:	88 0d       	add	r24, r8
			outputS(menuScreen->knobScreen[0], 3);
    221a:	80 83       	st	Z, r24
    221c:	63 e0       	ldi	r22, 0x03	; 3
    221e:	70 e0       	ldi	r23, 0x00	; 0
    2220:	c8 01       	movw	r24, r16
    2222:	8c 50       	subi	r24, 0x0C	; 12
    2224:	9d 4f       	sbci	r25, 0xFD	; 253
    2226:	a0 d2       	rcall	.+1344   	; 0x2768 <outputS>
			break;
    2228:	02 c1       	rjmp	.+516    	; 0x242e <__stack+0x22f>
				
			case 1: //pitch
			menuScreen->knobScreen[1][5] = positionSelect+49; 
    222a:	f8 01       	movw	r30, r16
    222c:	e2 5f       	subi	r30, 0xF2	; 242
    222e:	fc 4f       	sbci	r31, 0xFC	; 252
    2230:	81 e3       	ldi	r24, 0x31	; 49
    2232:	88 0d       	add	r24, r8
			if(currentPattern->outputPitch[positionSelect]>>7)
    2234:	80 83       	st	Z, r24
    2236:	91 2c       	mov	r9, r1
    2238:	f7 01       	movw	r30, r14
    223a:	e8 0d       	add	r30, r8
    223c:	f9 1d       	adc	r31, r9
    223e:	80 89       	ldd	r24, Z+16	; 0x10
    2240:	88 23       	and	r24, r24
			{
				menuScreen->knobScreen[1][7] = '-';
    2242:	94 f4       	brge	.+36     	; 0x2268 <__stack+0x69>
    2244:	8d e2       	ldi	r24, 0x2D	; 45
    2246:	f8 01       	movw	r30, r16
    2248:	e0 5f       	subi	r30, 0xF0	; 240
    224a:	fc 4f       	sbci	r31, 0xFC	; 252
				numPrinter(menuScreen->knobScreen[1], 8, 3, (currentPattern->outputPitch[positionSelect])^255);
    224c:	80 83       	st	Z, r24
    224e:	f7 01       	movw	r30, r14
    2250:	e8 0d       	add	r30, r8
    2252:	f9 1d       	adc	r31, r9
    2254:	20 89       	ldd	r18, Z+16	; 0x10
    2256:	20 95       	com	r18
    2258:	30 e0       	ldi	r19, 0x00	; 0
    225a:	43 e0       	ldi	r20, 0x03	; 3
    225c:	68 e0       	ldi	r22, 0x08	; 8
    225e:	c8 01       	movw	r24, r16
    2260:	87 5f       	subi	r24, 0xF7	; 247
    2262:	9c 4f       	sbci	r25, 0xFC	; 252
			}else
			{
				menuScreen->knobScreen[1][7] = '+';
    2264:	99 d2       	rcall	.+1330   	; 0x2798 <numPrinter>
    2266:	10 c0       	rjmp	.+32     	; 0x2288 <__stack+0x89>
    2268:	8b e2       	ldi	r24, 0x2B	; 43
    226a:	f8 01       	movw	r30, r16
    226c:	e0 5f       	subi	r30, 0xF0	; 240
				numPrinter(menuScreen->knobScreen[1],8,3,currentPattern->outputPitch[positionSelect]);
    226e:	fc 4f       	sbci	r31, 0xFC	; 252
    2270:	80 83       	st	Z, r24
    2272:	f7 01       	movw	r30, r14
    2274:	e8 0d       	add	r30, r8
    2276:	f9 1d       	adc	r31, r9
    2278:	20 89       	ldd	r18, Z+16	; 0x10
    227a:	30 e0       	ldi	r19, 0x00	; 0
    227c:	43 e0       	ldi	r20, 0x03	; 3
    227e:	68 e0       	ldi	r22, 0x08	; 8
    2280:	c8 01       	movw	r24, r16
    2282:	87 5f       	subi	r24, 0xF7	; 247
    2284:	9c 4f       	sbci	r25, 0xFC	; 252
			}
			outputS(menuScreen->knobScreen[1],3);
    2286:	88 d2       	rcall	.+1296   	; 0x2798 <numPrinter>
    2288:	63 e0       	ldi	r22, 0x03	; 3
    228a:	70 e0       	ldi	r23, 0x00	; 0
    228c:	c8 01       	movw	r24, r16
    228e:	87 5f       	subi	r24, 0xF7	; 247
    2290:	9c 4f       	sbci	r25, 0xFC	; 252
			break;
    2292:	6a d2       	rcall	.+1236   	; 0x2768 <outputS>
				
			case 2:; //attack envelope 
			uint16_t totalAttackTime = currentPattern->trackAttackTimeLSB[positionSelect+positionSelectUpper]|((currentPattern->trackAttackTimeMSB[positionSelect+positionSelectUpper])<<8);				
    2294:	cc c0       	rjmp	.+408    	; 0x242e <__stack+0x22f>
    2296:	91 2c       	mov	r9, r1
    2298:	c2 2e       	mov	r12, r18
    229a:	d1 2c       	mov	r13, r1
    229c:	c4 01       	movw	r24, r8
    229e:	8c 0d       	add	r24, r12
			numPrinter(menuScreen->knobScreen[2],14, 5, totalAttackTime);
    22a0:	9d 1d       	adc	r25, r13
    22a2:	58 01       	movw	r10, r16
    22a4:	f2 ee       	ldi	r31, 0xE2	; 226
    22a6:	af 1a       	sub	r10, r31
    22a8:	fc ef       	ldi	r31, 0xFC	; 252
			}
			outputS(menuScreen->knobScreen[1],3);
			break;
				
			case 2:; //attack envelope 
			uint16_t totalAttackTime = currentPattern->trackAttackTimeLSB[positionSelect+positionSelectUpper]|((currentPattern->trackAttackTimeMSB[positionSelect+positionSelectUpper])<<8);				
    22aa:	bf 0a       	sbc	r11, r31
    22ac:	e8 0e       	add	r14, r24
    22ae:	f9 1e       	adc	r15, r25
    22b0:	f7 01       	movw	r30, r14
    22b2:	e8 5b       	subi	r30, 0xB8	; 184
			numPrinter(menuScreen->knobScreen[2],14, 5, totalAttackTime);
    22b4:	ff 4f       	sbci	r31, 0xFF	; 255
    22b6:	20 81       	ld	r18, Z
    22b8:	30 e0       	ldi	r19, 0x00	; 0
			}
			outputS(menuScreen->knobScreen[1],3);
			break;
				
			case 2:; //attack envelope 
			uint16_t totalAttackTime = currentPattern->trackAttackTimeLSB[positionSelect+positionSelectUpper]|((currentPattern->trackAttackTimeMSB[positionSelect+positionSelectUpper])<<8);				
    22ba:	32 2f       	mov	r19, r18
			numPrinter(menuScreen->knobScreen[2],14, 5, totalAttackTime);
    22bc:	22 27       	eor	r18, r18
    22be:	70 96       	adiw	r30, 0x10	; 16
    22c0:	80 81       	ld	r24, Z
    22c2:	28 2b       	or	r18, r24
    22c4:	45 e0       	ldi	r20, 0x05	; 5
    22c6:	6e e0       	ldi	r22, 0x0E	; 14
			menuScreen->knobScreen[2][13] = menuScreen->knobScreen[2][14];
    22c8:	c5 01       	movw	r24, r10
    22ca:	66 d2       	rcall	.+1228   	; 0x2798 <numPrinter>
    22cc:	f8 01       	movw	r30, r16
    22ce:	e5 5d       	subi	r30, 0xD5	; 213
    22d0:	fc 4f       	sbci	r31, 0xFC	; 252
    22d2:	d8 01       	movw	r26, r16
    22d4:	a4 5d       	subi	r26, 0xD4	; 212
    22d6:	bc 4f       	sbci	r27, 0xFC	; 252
			menuScreen->knobScreen[2][14] = menuScreen->knobScreen[2][15];
    22d8:	8c 91       	ld	r24, X
    22da:	80 83       	st	Z, r24
    22dc:	32 96       	adiw	r30, 0x02	; 2
			menuScreen->knobScreen[2][15] = '.';	
    22de:	80 81       	ld	r24, Z
    22e0:	8c 93       	st	X, r24
			numPrinter(menuScreen->knobScreen[2],10,2,(positionSelect+1+positionSelectUpper));
    22e2:	8e e2       	ldi	r24, 0x2E	; 46
    22e4:	80 83       	st	Z, r24
    22e6:	94 01       	movw	r18, r8
    22e8:	2f 5f       	subi	r18, 0xFF	; 255
    22ea:	3f 4f       	sbci	r19, 0xFF	; 255
    22ec:	2c 0d       	add	r18, r12
    22ee:	3d 1d       	adc	r19, r13
    22f0:	42 e0       	ldi	r20, 0x02	; 2
    22f2:	6a e0       	ldi	r22, 0x0A	; 10
			outputS(menuScreen->knobScreen[2], 3); //This is not MS, but ideal for testing it Attack really works. 
    22f4:	c5 01       	movw	r24, r10
    22f6:	50 d2       	rcall	.+1184   	; 0x2798 <numPrinter>
    22f8:	63 e0       	ldi	r22, 0x03	; 3
    22fa:	70 e0       	ldi	r23, 0x00	; 0
    22fc:	c5 01       	movw	r24, r10
			break;
    22fe:	34 d2       	rcall	.+1128   	; 0x2768 <outputS>
				
			case 3:; //release envelope
			uint16_t totalReleaseTime = currentPattern->trackReleaseTimeLSB[positionSelect+positionSelectUpper]|((currentPattern->trackReleaseTimeMSB[positionSelect+positionSelectUpper])<<8);
    2300:	96 c0       	rjmp	.+300    	; 0x242e <__stack+0x22f>
    2302:	91 2c       	mov	r9, r1
    2304:	c2 2e       	mov	r12, r18
    2306:	d1 2c       	mov	r13, r1
    2308:	c4 01       	movw	r24, r8
    230a:	8c 0d       	add	r24, r12
			numPrinter(menuScreen->knobScreen[3],15, 5, totalReleaseTime);
    230c:	9d 1d       	adc	r25, r13
    230e:	58 01       	movw	r10, r16
    2310:	2d ec       	ldi	r18, 0xCD	; 205
    2312:	a2 1a       	sub	r10, r18
    2314:	2c ef       	ldi	r18, 0xFC	; 252
			numPrinter(menuScreen->knobScreen[2],10,2,(positionSelect+1+positionSelectUpper));
			outputS(menuScreen->knobScreen[2], 3); //This is not MS, but ideal for testing it Attack really works. 
			break;
				
			case 3:; //release envelope
			uint16_t totalReleaseTime = currentPattern->trackReleaseTimeLSB[positionSelect+positionSelectUpper]|((currentPattern->trackReleaseTimeMSB[positionSelect+positionSelectUpper])<<8);
    2316:	b2 0a       	sbc	r11, r18
    2318:	e8 0e       	add	r14, r24
    231a:	f9 1e       	adc	r15, r25
    231c:	f7 01       	movw	r30, r14
    231e:	e8 59       	subi	r30, 0x98	; 152
			numPrinter(menuScreen->knobScreen[3],15, 5, totalReleaseTime);
    2320:	ff 4f       	sbci	r31, 0xFF	; 255
    2322:	20 81       	ld	r18, Z
    2324:	30 e0       	ldi	r19, 0x00	; 0
    2326:	32 2f       	mov	r19, r18
			numPrinter(menuScreen->knobScreen[2],10,2,(positionSelect+1+positionSelectUpper));
			outputS(menuScreen->knobScreen[2], 3); //This is not MS, but ideal for testing it Attack really works. 
			break;
				
			case 3:; //release envelope
			uint16_t totalReleaseTime = currentPattern->trackReleaseTimeLSB[positionSelect+positionSelectUpper]|((currentPattern->trackReleaseTimeMSB[positionSelect+positionSelectUpper])<<8);
    2328:	22 27       	eor	r18, r18
			numPrinter(menuScreen->knobScreen[3],15, 5, totalReleaseTime);
    232a:	70 96       	adiw	r30, 0x10	; 16
    232c:	80 81       	ld	r24, Z
    232e:	28 2b       	or	r18, r24
    2330:	45 e0       	ldi	r20, 0x05	; 5
    2332:	6f e0       	ldi	r22, 0x0F	; 15
    2334:	c5 01       	movw	r24, r10
    2336:	30 d2       	rcall	.+1120   	; 0x2798 <numPrinter>
			menuScreen->knobScreen[3][14] = menuScreen->knobScreen[3][15];
    2338:	f8 01       	movw	r30, r16
    233a:	ef 5b       	subi	r30, 0xBF	; 191
    233c:	fc 4f       	sbci	r31, 0xFC	; 252
    233e:	d8 01       	movw	r26, r16
    2340:	ae 5b       	subi	r26, 0xBE	; 190
    2342:	bc 4f       	sbci	r27, 0xFC	; 252
    2344:	8c 91       	ld	r24, X
    2346:	80 83       	st	Z, r24
			menuScreen->knobScreen[3][15] = menuScreen->knobScreen[3][16];
    2348:	32 96       	adiw	r30, 0x02	; 2
    234a:	80 81       	ld	r24, Z
    234c:	8c 93       	st	X, r24
			menuScreen->knobScreen[3][16] = '.';
    234e:	8e e2       	ldi	r24, 0x2E	; 46
			numPrinter(menuScreen->knobScreen[3],11,2,(positionSelect+1+positionSelectUpper));
    2350:	80 83       	st	Z, r24
    2352:	94 01       	movw	r18, r8
    2354:	2f 5f       	subi	r18, 0xFF	; 255
    2356:	3f 4f       	sbci	r19, 0xFF	; 255
    2358:	2c 0d       	add	r18, r12
    235a:	3d 1d       	adc	r19, r13
    235c:	42 e0       	ldi	r20, 0x02	; 2
    235e:	6b e0       	ldi	r22, 0x0B	; 11
    2360:	c5 01       	movw	r24, r10
			outputS(menuScreen->knobScreen[3], 3);
    2362:	1a d2       	rcall	.+1076   	; 0x2798 <numPrinter>
    2364:	63 e0       	ldi	r22, 0x03	; 3
    2366:	70 e0       	ldi	r23, 0x00	; 0
    2368:	c5 01       	movw	r24, r10
    236a:	fe d1       	rcall	.+1020   	; 0x2768 <outputS>
			break;
				
			case 4: //track volume
			if(currentPattern->trackMainVolumeMSB[(positionSelect+positionSelectUpper)]==0)
    236c:	60 c0       	rjmp	.+192    	; 0x242e <__stack+0x22f>
    236e:	c2 2e       	mov	r12, r18
    2370:	d1 2c       	mov	r13, r1
    2372:	c8 0c       	add	r12, r8
    2374:	d1 1c       	adc	r13, r1
    2376:	f7 01       	movw	r30, r14
    2378:	ec 0d       	add	r30, r12
    237a:	fd 1d       	adc	r31, r13
    237c:	80 a5       	ldd	r24, Z+40	; 0x28
			{
				menuScreen->knobScreen[4][15] = ' ';
    237e:	81 11       	cpse	r24, r1
    2380:	11 c0       	rjmp	.+34     	; 0x23a4 <__stack+0x1a5>
    2382:	80 e2       	ldi	r24, 0x20	; 32
    2384:	f8 01       	movw	r30, r16
    2386:	e9 5a       	subi	r30, 0xA9	; 169
 				numPrinter(menuScreen->knobScreen[4],16, 2, currentPattern->trackMainVolumeLSB[(positionSelect+positionSelectUpper)]);
    2388:	fc 4f       	sbci	r31, 0xFC	; 252
    238a:	80 83       	st	Z, r24
    238c:	f7 01       	movw	r30, r14
    238e:	ec 0d       	add	r30, r12
    2390:	fd 1d       	adc	r31, r13
    2392:	20 ad       	ldd	r18, Z+56	; 0x38
    2394:	30 e0       	ldi	r19, 0x00	; 0
    2396:	42 e0       	ldi	r20, 0x02	; 2
    2398:	60 e1       	ldi	r22, 0x10	; 16
    239a:	c8 01       	movw	r24, r16
    239c:	88 5b       	subi	r24, 0xB8	; 184
    239e:	9c 4f       	sbci	r25, 0xFC	; 252
    23a0:	fb d1       	rcall	.+1014   	; 0x2798 <numPrinter>
			}else
			{
				menuScreen->knobScreen[4][15] = '-';
    23a2:	25 c0       	rjmp	.+74     	; 0x23ee <__stack+0x1ef>
    23a4:	8d e2       	ldi	r24, 0x2D	; 45
    23a6:	f8 01       	movw	r30, r16
    23a8:	e9 5a       	subi	r30, 0xA9	; 169
    23aa:	fc 4f       	sbci	r31, 0xFC	; 252
				menuScreen->knobScreen[4][16] = ((((currentPattern->trackMainVolumeLSB[(positionSelect+positionSelectUpper)]^255)+1)%100)/10)+48; //negative 8 bit numbers: flip every bit and add 1.
    23ac:	80 83       	st	Z, r24
    23ae:	31 96       	adiw	r30, 0x01	; 1
    23b0:	ec 0c       	add	r14, r12
    23b2:	fd 1c       	adc	r15, r13
    23b4:	d7 01       	movw	r26, r14
    23b6:	d8 96       	adiw	r26, 0x38	; 56
    23b8:	8c 91       	ld	r24, X
    23ba:	80 95       	com	r24
    23bc:	90 e0       	ldi	r25, 0x00	; 0
    23be:	01 96       	adiw	r24, 0x01	; 1
    23c0:	64 e6       	ldi	r22, 0x64	; 100
    23c2:	70 e0       	ldi	r23, 0x00	; 0
    23c4:	0e 94 6b 1f 	call	0x3ed6	; 0x3ed6 <__divmodhi4>
    23c8:	2a e0       	ldi	r18, 0x0A	; 10
    23ca:	30 e0       	ldi	r19, 0x00	; 0
    23cc:	b9 01       	movw	r22, r18
    23ce:	0e 94 6b 1f 	call	0x3ed6	; 0x3ed6 <__divmodhi4>
    23d2:	60 5d       	subi	r22, 0xD0	; 208
				menuScreen->knobScreen[4][17] = (((currentPattern->trackMainVolumeLSB[(positionSelect+positionSelectUpper)]^255)+1)%10)+48;
    23d4:	60 83       	st	Z, r22
    23d6:	31 96       	adiw	r30, 0x01	; 1
    23d8:	d7 01       	movw	r26, r14
    23da:	d8 96       	adiw	r26, 0x38	; 56
    23dc:	8c 91       	ld	r24, X
    23de:	80 95       	com	r24
    23e0:	90 e0       	ldi	r25, 0x00	; 0
    23e2:	01 96       	adiw	r24, 0x01	; 1
    23e4:	b9 01       	movw	r22, r18
    23e6:	0e 94 6b 1f 	call	0x3ed6	; 0x3ed6 <__divmodhi4>
    23ea:	80 5d       	subi	r24, 0xD0	; 208
			}
				 numPrinter(menuScreen->knobScreen[4],12,2,(positionSelect+positionSelectUpper+1));
    23ec:	80 83       	st	Z, r24
    23ee:	08 5b       	subi	r16, 0xB8	; 184
    23f0:	1c 4f       	sbci	r17, 0xFC	; 252
    23f2:	96 01       	movw	r18, r12
    23f4:	2f 5f       	subi	r18, 0xFF	; 255
    23f6:	3f 4f       	sbci	r19, 0xFF	; 255
    23f8:	42 e0       	ldi	r20, 0x02	; 2
    23fa:	6c e0       	ldi	r22, 0x0C	; 12
    23fc:	c8 01       	movw	r24, r16
    23fe:	cc d1       	rcall	.+920    	; 0x2798 <numPrinter>
				 outputS(menuScreen->knobScreen[4], 3);
    2400:	63 e0       	ldi	r22, 0x03	; 3
    2402:	70 e0       	ldi	r23, 0x00	; 0
    2404:	c8 01       	movw	r24, r16
    2406:	b0 d1       	rcall	.+864    	; 0x2768 <outputS>
    2408:	12 c0       	rjmp	.+36     	; 0x242e <__stack+0x22f>
			break;
    240a:	06 5d       	subi	r16, 0xD6	; 214
			
			case 5:
			numPrinter(menuScreen->screen0[2],5,3,currentPattern->patternBPM);
    240c:	1f 4f       	sbci	r17, 0xFF	; 255
    240e:	f7 01       	movw	r30, r14
    2410:	e8 53       	subi	r30, 0x38	; 56
    2412:	ff 4f       	sbci	r31, 0xFF	; 255
    2414:	20 81       	ld	r18, Z
    2416:	31 81       	ldd	r19, Z+1	; 0x01
    2418:	43 e0       	ldi	r20, 0x03	; 3
    241a:	65 e0       	ldi	r22, 0x05	; 5
    241c:	c8 01       	movw	r24, r16
    241e:	bc d1       	rcall	.+888    	; 0x2798 <numPrinter>
    2420:	8e 81       	ldd	r24, Y+6	; 0x06
    2422:	81 11       	cpse	r24, r1
			if(currentGlobals->menuState==PreformanceModeInit)
    2424:	04 c0       	rjmp	.+8      	; 0x242e <__stack+0x22f>
    2426:	62 e0       	ldi	r22, 0x02	; 2
    2428:	70 e0       	ldi	r23, 0x00	; 0
			{
				outputS(menuScreen->screen0[2],2);
    242a:	c8 01       	movw	r24, r16
    242c:	9d d1       	rcall	.+826    	; 0x2768 <outputS>
    242e:	1a 86       	std	Y+10, r1	; 0x0a
    2430:	df 91       	pop	r29
    2432:	cf 91       	pop	r28
			}
			break;
		}
		currentGlobals->valueChangeFlag = currentGlobals->valueChangeFlag&(0xFF&(0<<knobChange));			
    2434:	1f 91       	pop	r17
	}
    2436:	0f 91       	pop	r16
    2438:	ff 90       	pop	r15
    243a:	ef 90       	pop	r14
    243c:	df 90       	pop	r13
    243e:	cf 90       	pop	r12
    2440:	bf 90       	pop	r11
    2442:	af 90       	pop	r10
    2444:	9f 90       	pop	r9
    2446:	8f 90       	pop	r8
    2448:	08 95       	ret

0000244a <__vector_54>:
    244a:	1f 92       	push	r1
    244c:	0f 92       	push	r0
    244e:	0f b6       	in	r0, 0x3f	; 63
}

void midiTransmit(uint8_t data)
{
  while (!(UCSR3A & (1 << UDRE3)));
  UDR3 = data;
    2450:	0f 92       	push	r0
    2452:	11 24       	eor	r1, r1
    2454:	0b b6       	in	r0, 0x3b	; 59
    2456:	0f 92       	push	r0
    2458:	2f 93       	push	r18
    245a:	3f 93       	push	r19
    245c:	5f 93       	push	r21
    245e:	6f 93       	push	r22
    2460:	7f 93       	push	r23
    2462:	8f 93       	push	r24
    2464:	9f 93       	push	r25
    2466:	af 93       	push	r26
    2468:	bf 93       	push	r27
    246a:	ef 93       	push	r30
    246c:	ff 93       	push	r31
    246e:	20 91 36 01 	lds	r18, 0x0136	; 0x800136 <__TEXT_REGION_LENGTH__+0x700136>
    2472:	82 2f       	mov	r24, r18
    2474:	82 95       	swap	r24
    2476:	8f 70       	andi	r24, 0x0F	; 15
    2478:	88 50       	subi	r24, 0x08	; 8
    247a:	82 30       	cpi	r24, 0x02	; 2
    247c:	78 f4       	brcc	.+30     	; 0x249c <__vector_54+0x52>
    247e:	80 91 f6 03 	lds	r24, 0x03F6	; 0x8003f6 <midiWriteIndex>
    2482:	90 e0       	ldi	r25, 0x00	; 0
    2484:	fc 01       	movw	r30, r24
    2486:	ee 0f       	add	r30, r30
    2488:	ff 1f       	adc	r31, r31
    248a:	8e 0f       	add	r24, r30
    248c:	9f 1f       	adc	r25, r31
    248e:	fc 01       	movw	r30, r24
    2490:	e7 59       	subi	r30, 0x97	; 151
    2492:	f9 4f       	sbci	r31, 0xF9	; 249
    2494:	20 83       	st	Z, r18
    2496:	10 92 09 02 	sts	0x0209, r1	; 0x800209 <midiWriteFlag>
    249a:	50 c0       	rjmp	.+160    	; 0x253c <__vector_54+0xf2>
    249c:	80 91 09 02 	lds	r24, 0x0209	; 0x800209 <midiWriteFlag>
    24a0:	81 11       	cpse	r24, r1
    24a2:	15 c0       	rjmp	.+42     	; 0x24ce <__vector_54+0x84>
    24a4:	80 91 f6 03 	lds	r24, 0x03F6	; 0x8003f6 <midiWriteIndex>
    24a8:	90 e0       	ldi	r25, 0x00	; 0
    24aa:	30 91 09 02 	lds	r19, 0x0209	; 0x800209 <midiWriteFlag>
    24ae:	fc 01       	movw	r30, r24
    24b0:	ee 0f       	add	r30, r30
    24b2:	ff 1f       	adc	r31, r31
    24b4:	e8 0f       	add	r30, r24
    24b6:	f9 1f       	adc	r31, r25
    24b8:	e7 59       	subi	r30, 0x97	; 151
    24ba:	f9 4f       	sbci	r31, 0xF9	; 249
    24bc:	e3 0f       	add	r30, r19
    24be:	f1 1d       	adc	r31, r1
    24c0:	21 83       	std	Z+1, r18	; 0x01
    24c2:	80 91 09 02 	lds	r24, 0x0209	; 0x800209 <midiWriteFlag>
    24c6:	8f 5f       	subi	r24, 0xFF	; 255
    24c8:	80 93 09 02 	sts	0x0209, r24	; 0x800209 <midiWriteFlag>
    24cc:	37 c0       	rjmp	.+110    	; 0x253c <__vector_54+0xf2>
    24ce:	80 91 09 02 	lds	r24, 0x0209	; 0x800209 <midiWriteFlag>
    24d2:	8f 3f       	cpi	r24, 0xFF	; 255
    24d4:	99 f1       	breq	.+102    	; 0x253c <__vector_54+0xf2>
    24d6:	80 91 f6 03 	lds	r24, 0x03F6	; 0x8003f6 <midiWriteIndex>
    24da:	90 e0       	ldi	r25, 0x00	; 0
    24dc:	30 91 09 02 	lds	r19, 0x0209	; 0x800209 <midiWriteFlag>
    24e0:	fc 01       	movw	r30, r24
    24e2:	ee 0f       	add	r30, r30
    24e4:	ff 1f       	adc	r31, r31
    24e6:	e8 0f       	add	r30, r24
    24e8:	f9 1f       	adc	r31, r25
    24ea:	e7 59       	subi	r30, 0x97	; 151
    24ec:	f9 4f       	sbci	r31, 0xF9	; 249
    24ee:	e3 0f       	add	r30, r19
    24f0:	f1 1d       	adc	r31, r1
    24f2:	21 83       	std	Z+1, r18	; 0x01
    24f4:	80 91 f6 03 	lds	r24, 0x03F6	; 0x8003f6 <midiWriteIndex>
    24f8:	90 e0       	ldi	r25, 0x00	; 0
    24fa:	fc 01       	movw	r30, r24
    24fc:	ee 0f       	add	r30, r30
    24fe:	ff 1f       	adc	r31, r31
    2500:	8e 0f       	add	r24, r30
    2502:	9f 1f       	adc	r25, r31
    2504:	fc 01       	movw	r30, r24
    2506:	e7 59       	subi	r30, 0x97	; 151
    2508:	f9 4f       	sbci	r31, 0xF9	; 249
    250a:	20 81       	ld	r18, Z
    250c:	80 91 f6 03 	lds	r24, 0x03F6	; 0x8003f6 <midiWriteIndex>
    2510:	90 e0       	ldi	r25, 0x00	; 0
    2512:	01 96       	adiw	r24, 0x01	; 1
    2514:	6a e0       	ldi	r22, 0x0A	; 10
    2516:	70 e0       	ldi	r23, 0x00	; 0
    2518:	0e 94 6b 1f 	call	0x3ed6	; 0x3ed6 <__divmodhi4>
    251c:	80 93 f6 03 	sts	0x03F6, r24	; 0x8003f6 <midiWriteIndex>
    2520:	80 91 f6 03 	lds	r24, 0x03F6	; 0x8003f6 <midiWriteIndex>
    2524:	90 e0       	ldi	r25, 0x00	; 0
    2526:	fc 01       	movw	r30, r24
    2528:	ee 0f       	add	r30, r30
    252a:	ff 1f       	adc	r31, r31
    252c:	8e 0f       	add	r24, r30
    252e:	9f 1f       	adc	r25, r31
    2530:	fc 01       	movw	r30, r24
    2532:	e7 59       	subi	r30, 0x97	; 151
    2534:	f9 4f       	sbci	r31, 0xF9	; 249
    2536:	20 83       	st	Z, r18
    2538:	10 92 09 02 	sts	0x0209, r1	; 0x800209 <midiWriteFlag>
    253c:	ff 91       	pop	r31
    253e:	ef 91       	pop	r30
    2540:	bf 91       	pop	r27
    2542:	af 91       	pop	r26
    2544:	9f 91       	pop	r25
    2546:	8f 91       	pop	r24
    2548:	7f 91       	pop	r23
    254a:	6f 91       	pop	r22
    254c:	5f 91       	pop	r21
    254e:	3f 91       	pop	r19
    2550:	2f 91       	pop	r18
    2552:	0f 90       	pop	r0
    2554:	0b be       	out	0x3b, r0	; 59
    2556:	0f 90       	pop	r0
    2558:	0f be       	out	0x3f, r0	; 63
    255a:	0f 90       	pop	r0
    255c:	1f 90       	pop	r1
    255e:	18 95       	reti

00002560 <initMidi>:
    2560:	10 92 35 01 	sts	0x0135, r1	; 0x800135 <__TEXT_REGION_LENGTH__+0x700135>
    2564:	8f e1       	ldi	r24, 0x1F	; 31
    2566:	80 93 34 01 	sts	0x0134, r24	; 0x800134 <__TEXT_REGION_LENGTH__+0x700134>
    256a:	e1 e3       	ldi	r30, 0x31	; 49
    256c:	f1 e0       	ldi	r31, 0x01	; 1
    256e:	80 81       	ld	r24, Z
    2570:	88 69       	ori	r24, 0x98	; 152
    2572:	80 83       	st	Z, r24
    2574:	e2 e3       	ldi	r30, 0x32	; 50
    2576:	f1 e0       	ldi	r31, 0x01	; 1
    2578:	80 81       	ld	r24, Z
    257a:	86 60       	ori	r24, 0x06	; 6
    257c:	80 83       	st	Z, r24
    257e:	08 95       	ret

00002580 <midiRead>:
}

void midiRead(Pattern currentPattern, Globals currentGlobals)
{
    2580:	af 92       	push	r10
    2582:	bf 92       	push	r11
    2584:	cf 92       	push	r12
    2586:	df 92       	push	r13
    2588:	ef 92       	push	r14
    258a:	ff 92       	push	r15
    258c:	0f 93       	push	r16
    258e:	1f 93       	push	r17
    2590:	cf 93       	push	r28
    2592:	df 93       	push	r29
    2594:	cd b7       	in	r28, 0x3d	; 61
    2596:	de b7       	in	r29, 0x3e	; 62
  while (midiReadIndex != midiWriteIndex)
    2598:	e0 91 f5 03 	lds	r30, 0x03F5	; 0x8003f5 <midiReadIndex>
    259c:	80 91 f6 03 	lds	r24, 0x03F6	; 0x8003f6 <midiWriteIndex>
    25a0:	e8 17       	cp	r30, r24
    25a2:	09 f4       	brne	.+2      	; 0x25a6 <midiRead+0x26>
    25a4:	5c c0       	rjmp	.+184    	; 0x265e <midiRead+0xde>
    25a6:	7e 01       	movw	r14, r28
    25a8:	86 ea       	ldi	r24, 0xA6	; 166
    25aa:	e8 0e       	add	r14, r24
    25ac:	f1 1c       	adc	r15, r1
            //trackControl(char trackNumberLSB, char trackNumberMSB, char outputNumber, char trackCommand)
            trackControl(currentPattern.trackSampleLSB[i], currentPattern.trackSampleMSB[i], currentPattern.trackOutputRoute[i], currentPattern.trackPlayMode[i]);
          }
        }
    }
    midiReadIndex=(midiReadIndex+1)%MIDI_EVENT_BUFFER_SIZE; //we always want to increase the read index, even if our channel or message is not being used.
    25ae:	0a e0       	ldi	r16, 0x0A	; 10
    25b0:	10 e0       	ldi	r17, 0x00	; 0

void midiRead(Pattern currentPattern, Globals currentGlobals)
{
  while (midiReadIndex != midiWriteIndex)
  {
    uint8_t midiMessageType = ((midiEventBuffer[midiReadIndex].statusByte)>>4);
    25b2:	f0 e0       	ldi	r31, 0x00	; 0
    25b4:	cf 01       	movw	r24, r30
    25b6:	88 0f       	add	r24, r24
    25b8:	99 1f       	adc	r25, r25
    25ba:	e8 0f       	add	r30, r24
    25bc:	f9 1f       	adc	r31, r25
    25be:	e7 59       	subi	r30, 0x97	; 151
    25c0:	f9 4f       	sbci	r31, 0xF9	; 249
    25c2:	80 81       	ld	r24, Z
    uint8_t midiVelocity = (midiEventBuffer[midiReadIndex].dataByte[1]);
    25c4:	22 81       	ldd	r18, Z+2	; 0x02
    uint8_t midiChannelIn = ((midiEventBuffer[midiReadIndex].statusByte)&0b00001111);
    25c6:	90 81       	ld	r25, Z
    //uint8_t midiChannelRead = ((midiEventBuffer[midiReadIndex].statusByte)&00001111);
    if ((midiMessageType==MIDI_NOTE_ON)&&(midiVelocity!=0)&&currentGlobals.midiChannel==midiChannelIn)
    25c8:	82 95       	swap	r24
    25ca:	8f 70       	andi	r24, 0x0F	; 15
    25cc:	89 30       	cpi	r24, 0x09	; 9
    25ce:	c9 f5       	brne	.+114    	; 0x2642 <midiRead+0xc2>
    25d0:	22 23       	and	r18, r18
    25d2:	b9 f1       	breq	.+110    	; 0x2642 <midiRead+0xc2>
    25d4:	9f 70       	andi	r25, 0x0F	; 15
    25d6:	cb 56       	subi	r28, 0x6B	; 107
    25d8:	de 4f       	sbci	r29, 0xFE	; 254
    25da:	88 81       	ld	r24, Y
    25dc:	c5 59       	subi	r28, 0x95	; 149
    25de:	d1 40       	sbci	r29, 0x01	; 1
    25e0:	98 13       	cpse	r25, r24
    25e2:	2f c0       	rjmp	.+94     	; 0x2642 <midiRead+0xc2>
    25e4:	0f 2e       	mov	r0, r31
    25e6:	f9 e8       	ldi	r31, 0x89	; 137
    25e8:	af 2e       	mov	r10, r31
    25ea:	bb 24       	eor	r11, r11
    25ec:	b3 94       	inc	r11
    25ee:	f0 2d       	mov	r31, r0
    25f0:	ac 0e       	add	r10, r28
    25f2:	bd 1e       	adc	r11, r29
    25f4:	ed e0       	ldi	r30, 0x0D	; 13
    25f6:	ae 0e       	add	r10, r30
    25f8:	b1 1c       	adc	r11, r1
    25fa:	6e 01       	movw	r12, r28
    25fc:	f6 e9       	ldi	r31, 0x96	; 150
    25fe:	cf 0e       	add	r12, r31
    2600:	d1 1c       	adc	r13, r1
    {
        for (int i=0; i<16; i++)
        {
          if(midiEventBuffer[midiReadIndex].dataByte[0]==currentGlobals.midiTrackNote[i])
    2602:	80 91 f5 03 	lds	r24, 0x03F5	; 0x8003f5 <midiReadIndex>
    2606:	90 e0       	ldi	r25, 0x00	; 0
    2608:	fc 01       	movw	r30, r24
    260a:	ee 0f       	add	r30, r30
    260c:	ff 1f       	adc	r31, r31
    260e:	8e 0f       	add	r24, r30
    2610:	9f 1f       	adc	r25, r31
    2612:	fc 01       	movw	r30, r24
    2614:	e7 59       	subi	r30, 0x97	; 151
    2616:	f9 4f       	sbci	r31, 0xF9	; 249
    2618:	91 81       	ldd	r25, Z+1	; 0x01
    261a:	f5 01       	movw	r30, r10
    261c:	81 91       	ld	r24, Z+
    261e:	5f 01       	movw	r10, r30
    2620:	98 13       	cpse	r25, r24
    2622:	09 c0       	rjmp	.+18     	; 0x2636 <midiRead+0xb6>
          { //we don't care about velocity, at least not yet.
            //trackControl(char trackNumberLSB, char trackNumberMSB, char outputNumber, char trackCommand)
            trackControl(currentPattern.trackSampleLSB[i], currentPattern.trackSampleMSB[i], currentPattern.trackOutputRoute[i], currentPattern.trackPlayMode[i]);
    2624:	f6 01       	movw	r30, r12
    2626:	20 81       	ld	r18, Z
    2628:	e0 57       	subi	r30, 0x70	; 112
    262a:	f1 09       	sbc	r31, r1
    262c:	40 81       	ld	r20, Z
    262e:	f6 01       	movw	r30, r12
    2630:	60 89       	ldd	r22, Z+16	; 0x10
    2632:	80 a1       	ldd	r24, Z+32	; 0x20
    2634:	a9 d3       	rcall	.+1874   	; 0x2d88 <trackControl>
    2636:	ff ef       	ldi	r31, 0xFF	; 255
    2638:	cf 1a       	sub	r12, r31
    263a:	df 0a       	sbc	r13, r31
    uint8_t midiVelocity = (midiEventBuffer[midiReadIndex].dataByte[1]);
    uint8_t midiChannelIn = ((midiEventBuffer[midiReadIndex].statusByte)&0b00001111);
    //uint8_t midiChannelRead = ((midiEventBuffer[midiReadIndex].statusByte)&00001111);
    if ((midiMessageType==MIDI_NOTE_ON)&&(midiVelocity!=0)&&currentGlobals.midiChannel==midiChannelIn)
    {
        for (int i=0; i<16; i++)
    263c:	ce 14       	cp	r12, r14
    263e:	df 04       	cpc	r13, r15
    2640:	01 f7       	brne	.-64     	; 0x2602 <midiRead+0x82>
            //trackControl(char trackNumberLSB, char trackNumberMSB, char outputNumber, char trackCommand)
            trackControl(currentPattern.trackSampleLSB[i], currentPattern.trackSampleMSB[i], currentPattern.trackOutputRoute[i], currentPattern.trackPlayMode[i]);
          }
        }
    }
    midiReadIndex=(midiReadIndex+1)%MIDI_EVENT_BUFFER_SIZE; //we always want to increase the read index, even if our channel or message is not being used.
    2642:	80 91 f5 03 	lds	r24, 0x03F5	; 0x8003f5 <midiReadIndex>
    2646:	90 e0       	ldi	r25, 0x00	; 0
    2648:	01 96       	adiw	r24, 0x01	; 1
    264a:	b8 01       	movw	r22, r16
    264c:	0e 94 6b 1f 	call	0x3ed6	; 0x3ed6 <__divmodhi4>
    2650:	e8 2f       	mov	r30, r24
    2652:	80 93 f5 03 	sts	0x03F5, r24	; 0x8003f5 <midiReadIndex>
  UDR3 = data;
}

void midiRead(Pattern currentPattern, Globals currentGlobals)
{
  while (midiReadIndex != midiWriteIndex)
    2656:	80 91 f6 03 	lds	r24, 0x03F6	; 0x8003f6 <midiWriteIndex>
    265a:	8e 13       	cpse	r24, r30
    265c:	aa cf       	rjmp	.-172    	; 0x25b2 <midiRead+0x32>
          }
        }
    }
    midiReadIndex=(midiReadIndex+1)%MIDI_EVENT_BUFFER_SIZE; //we always want to increase the read index, even if our channel or message is not being used.
  }
}
    265e:	df 91       	pop	r29
    2660:	cf 91       	pop	r28
    2662:	1f 91       	pop	r17
    2664:	0f 91       	pop	r16
    2666:	ff 90       	pop	r15
    2668:	ef 90       	pop	r14
    266a:	df 90       	pop	r13
    266c:	cf 90       	pop	r12
    266e:	bf 90       	pop	r11
    2670:	af 90       	pop	r10
    2672:	08 95       	ret

00002674 <enableCycle>:
	//using unsigned int 8 bit values should protect this
	//function from overflow.

	//also,this should just work.
	//since we want to send an 8 bit value over an entire port.
	PORTC = value;
    2674:	e2 e0       	ldi	r30, 0x02	; 2
    2676:	f1 e0       	ldi	r31, 0x01	; 1
    2678:	80 81       	ld	r24, Z
    267a:	80 62       	ori	r24, 0x20	; 32
    267c:	80 83       	st	Z, r24
    267e:	85 e0       	ldi	r24, 0x05	; 5
    2680:	8a 95       	dec	r24
    2682:	f1 f7       	brne	.-4      	; 0x2680 <enableCycle+0xc>
    2684:	00 00       	nop
    2686:	80 81       	ld	r24, Z
    2688:	8f 7d       	andi	r24, 0xDF	; 223
    268a:	80 83       	st	Z, r24
    268c:	08 95       	ret

0000268e <command>:
}

void command(uint8_t c)
{
	//digitalWrite(DC, 0);
	PORTH &= 0B10111111; //set our DC pin low, to get ready to write data.
    268e:	e2 e0       	ldi	r30, 0x02	; 2
    2690:	f1 e0       	ldi	r31, 0x01	; 1
    2692:	90 81       	ld	r25, Z
    2694:	9f 7b       	andi	r25, 0xBF	; 191
    2696:	90 83       	st	Z, r25
	//using unsigned int 8 bit values should protect this
	//function from overflow.

	//also,this should just work.
	//since we want to send an 8 bit value over an entire port.
	PORTC = value;
    2698:	88 b9       	out	0x08, r24	; 8
{
	//digitalWrite(DC, 0);
	PORTH &= 0B10111111; //set our DC pin low, to get ready to write data.
	//we need to figure out where our DC pin is.
	send8bit(c);
	enableCycle();
    269a:	ec cf       	rjmp	.-40     	; 0x2674 <enableCycle>
    269c:	08 95       	ret

0000269e <data>:
}

void data(uint8_t d)
{
	//digitalWrite(DC, 1);
	PORTH |=0B01000000; //set out DC Pin high, so it's ready to write data.
    269e:	e2 e0       	ldi	r30, 0x02	; 2
    26a0:	f1 e0       	ldi	r31, 0x01	; 1
    26a2:	90 81       	ld	r25, Z
    26a4:	90 64       	ori	r25, 0x40	; 64
    26a6:	90 83       	st	Z, r25
	//using unsigned int 8 bit values should protect this
	//function from overflow.

	//also,this should just work.
	//since we want to send an 8 bit value over an entire port.
	PORTC = value;
    26a8:	88 b9       	out	0x08, r24	; 8
void data(uint8_t d)
{
	//digitalWrite(DC, 1);
	PORTH |=0B01000000; //set out DC Pin high, so it's ready to write data.
	send8bit(d);
	enableCycle();
    26aa:	e4 cf       	rjmp	.-56     	; 0x2674 <enableCycle>
    26ac:	08 95       	ret

000026ae <initScreen>:

void initScreen()
{
	//this is where we will do all of the screen
	//initialization.
	DDRH = 0x60; //pins 14 and 15, 14 is Enable (PortJ1), 15 is data/command (PortJ0)
    26ae:	80 e6       	ldi	r24, 0x60	; 96
    26b0:	80 93 01 01 	sts	0x0101, r24	; 0x800101 <__TEXT_REGION_LENGTH__+0x700101>
	DDRC =0xFF; //all pins on the LCD Data Bus.
    26b4:	8f ef       	ldi	r24, 0xFF	; 255
    26b6:	87 b9       	out	0x07, r24	; 7


	PORTH &= 0B10011111;		//set both the DC line and E line of the display to 0. leave all other bits on the ports alone
    26b8:	e2 e0       	ldi	r30, 0x02	; 2
    26ba:	f1 e0       	ldi	r31, 0x01	; 1
    26bc:	80 81       	ld	r24, Z
    26be:	8f 79       	andi	r24, 0x9F	; 159
    26c0:	80 83       	st	Z, r24

	PORTC = 0x00;				// Initializes all Arduino pins for the data bus
    26c2:	18 b8       	out	0x08, r1	; 8
	#else
		//round up by default
		__ticks_dc = (uint32_t)(ceil(fabs(__tmp)));
	#endif

	__builtin_avr_delay_cycles(__ticks_dc);
    26c4:	8f e1       	ldi	r24, 0x1F	; 31
    26c6:	93 e0       	ldi	r25, 0x03	; 3
    26c8:	01 97       	sbiw	r24, 0x01	; 1
    26ca:	f1 f7       	brne	.-4      	; 0x26c8 <initScreen+0x1a>
    26cc:	00 c0       	rjmp	.+0      	; 0x26ce <initScreen+0x20>
    26ce:	00 00       	nop
	_delay_us(200);				// Waits 200 us for stabilization purpose


	uint8_t rows = 0x08;                    // Display mode: 2/4 lines

	command(0x22 | rows); // Function set: extended command set (RE=1), lines #
    26d0:	8a e2       	ldi	r24, 0x2A	; 42
    26d2:	dd df       	rcall	.-70     	; 0x268e <command>
	command(0x71);        // Function selection A:
    26d4:	81 e7       	ldi	r24, 0x71	; 113
    26d6:	db df       	rcall	.-74     	; 0x268e <command>
	data(0x5C);           //  enable internal Vdd regulator at 5V I/O mode (def. value) (0x00 for disable, 2.8V I/O)
    26d8:	8c e5       	ldi	r24, 0x5C	; 92
    26da:	e1 df       	rcall	.-62     	; 0x269e <data>
	command(0x20 | rows); // Function set: fundamental command set (RE=0) (exit from extended command set), lines #
    26dc:	88 e2       	ldi	r24, 0x28	; 40
    26de:	d7 df       	rcall	.-82     	; 0x268e <command>
	command(0x08);        // Display ON/OFF control: display off, cursor off, blink off (default values)
    26e0:	88 e0       	ldi	r24, 0x08	; 8
    26e2:	d5 df       	rcall	.-86     	; 0x268e <command>
	command(0x22 | rows); // Function set: extended command set (RE=1), lines #
    26e4:	8a e2       	ldi	r24, 0x2A	; 42
    26e6:	d3 df       	rcall	.-90     	; 0x268e <command>
	command(0x79);        // OLED characterization: OLED command set enabled (SD=1)
    26e8:	89 e7       	ldi	r24, 0x79	; 121
    26ea:	d1 df       	rcall	.-94     	; 0x268e <command>
	command(0xD5);        // Set display clock divide ratio/oscillator frequency:
    26ec:	85 ed       	ldi	r24, 0xD5	; 213
    26ee:	cf df       	rcall	.-98     	; 0x268e <command>
	command(0x70);        //  divide ratio=1, frequency=7 (default values)
    26f0:	80 e7       	ldi	r24, 0x70	; 112
    26f2:	cd df       	rcall	.-102    	; 0x268e <command>
	command(0x78);        // OLED characterization: OLED command set disabled (SD=0) (exit from OLED command set)
    26f4:	88 e7       	ldi	r24, 0x78	; 120
    26f6:	cb df       	rcall	.-106    	; 0x268e <command>


	command(0x09);     // Extended function set (RE=1): 5-dot font, B/W inverting disabled (def. val.), 3/4 lines
    26f8:	89 e0       	ldi	r24, 0x09	; 9
    26fa:	c9 df       	rcall	.-110    	; 0x268e <command>

	command(0x06);        // Entry Mode set - COM/SEG direction: COM0->COM31, SEG99->SEG0 (BDC=1, BDS=0)
    26fc:	86 e0       	ldi	r24, 0x06	; 6
    26fe:	c7 df       	rcall	.-114    	; 0x268e <command>
	command(0x72);        // Function selection B:
    2700:	82 e7       	ldi	r24, 0x72	; 114
    2702:	c5 df       	rcall	.-118    	; 0x268e <command>
	data(0x0A);           //  ROM/CGRAM selection: ROM C, CGROM=250, CGRAM=6 (ROM=10, OPR=10)
    2704:	8a e0       	ldi	r24, 0x0A	; 10
    2706:	cb df       	rcall	.-106    	; 0x269e <data>
	command(0x79);        // OLED characterization: OLED command set enabled (SD=1)
    2708:	89 e7       	ldi	r24, 0x79	; 121
    270a:	c1 df       	rcall	.-126    	; 0x268e <command>
	command(0xDA);        // Set SEG pins hardware configuration:
    270c:	8a ed       	ldi	r24, 0xDA	; 218
    270e:	bf df       	rcall	.-130    	; 0x268e <command>
	command(0x10);        //  alternative odd/even SEG pin, disable SEG left/right remap (default values)
    2710:	80 e1       	ldi	r24, 0x10	; 16
    2712:	bd df       	rcall	.-134    	; 0x268e <command>
	command(0xDC);        // Function selection C:
    2714:	8c ed       	ldi	r24, 0xDC	; 220
    2716:	bb df       	rcall	.-138    	; 0x268e <command>
	command(0x00);        //  internal VSL, GPIO input disable
    2718:	80 e0       	ldi	r24, 0x00	; 0
    271a:	b9 df       	rcall	.-142    	; 0x268e <command>
	command(0x81);        // Set contrast control:
    271c:	81 e8       	ldi	r24, 0x81	; 129
    271e:	b7 df       	rcall	.-146    	; 0x268e <command>
    2720:	8f e7       	ldi	r24, 0x7F	; 127
	command(0x7F);        //  contrast=127 (default value)
    2722:	b5 df       	rcall	.-150    	; 0x268e <command>
    2724:	89 ed       	ldi	r24, 0xD9	; 217
    2726:	b3 df       	rcall	.-154    	; 0x268e <command>
	command(0xD9);        // Set phase length:
    2728:	81 ef       	ldi	r24, 0xF1	; 241
    272a:	b1 df       	rcall	.-158    	; 0x268e <command>
	command(0xF1);        //  phase2=15, phase1=1 (default: 0x78)
    272c:	8b ed       	ldi	r24, 0xDB	; 219
    272e:	af df       	rcall	.-162    	; 0x268e <command>
    2730:	80 e4       	ldi	r24, 0x40	; 64
	command(0xDB);        // Set VCOMH deselect level:
    2732:	ad df       	rcall	.-166    	; 0x268e <command>
    2734:	88 e7       	ldi	r24, 0x78	; 120
    2736:	ab df       	rcall	.-170    	; 0x268e <command>
	command(0x40);        //  VCOMH deselect level=1 x Vcc (default: 0x20=0,77 x Vcc)
    2738:	88 e2       	ldi	r24, 0x28	; 40
    273a:	a9 df       	rcall	.-174    	; 0x268e <command>
    273c:	81 e0       	ldi	r24, 0x01	; 1
	command(0x78);        // OLED characterization: OLED command set disabled (SD=0) (exit from OLED command set)
    273e:	a7 df       	rcall	.-178    	; 0x268e <command>
    2740:	8f e3       	ldi	r24, 0x3F	; 63
    2742:	9f e1       	ldi	r25, 0x1F	; 31
	command(0x20 | rows); // Function set: fundamental command set (RE=0) (exit from extended command set), lines #
    2744:	01 97       	sbiw	r24, 0x01	; 1
    2746:	f1 f7       	brne	.-4      	; 0x2744 <initScreen+0x96>
    2748:	00 c0       	rjmp	.+0      	; 0x274a <initScreen+0x9c>
	command(0x01);        // Clear display
    274a:	00 00       	nop
    274c:	80 e8       	ldi	r24, 0x80	; 128
    274e:	9f df       	rcall	.-194    	; 0x268e <command>
	#else
		//round up by default
		__ticks_dc = (uint32_t)(ceil(fabs(__tmp)));
	#endif

	__builtin_avr_delay_cycles(__ticks_dc);
    2750:	8c e0       	ldi	r24, 0x0C	; 12
    2752:	9d df       	rcall	.-198    	; 0x268e <command>
    2754:	9f ef       	ldi	r25, 0xFF	; 255
    2756:	24 e3       	ldi	r18, 0x34	; 52
    2758:	8c e0       	ldi	r24, 0x0C	; 12
    275a:	91 50       	subi	r25, 0x01	; 1
	_delay_ms(2);             // After a clear display, a minimum pause of 1-2 ms is required

	command(0x80);        // Set DDRAM address 0x00 in address counter (cursor home) (default value)
    275c:	20 40       	sbci	r18, 0x00	; 0
    275e:	80 40       	sbci	r24, 0x00	; 0
    2760:	e1 f7       	brne	.-8      	; 0x275a <initScreen+0xac>
	command(0x0C);        // Display ON/OFF control: display ON, cursor off, blink off
    2762:	00 c0       	rjmp	.+0      	; 0x2764 <initScreen+0xb6>
    2764:	00 00       	nop
    2766:	08 95       	ret

00002768 <outputS>:
    2768:	0f 93       	push	r16
    276a:	1f 93       	push	r17
    276c:	cf 93       	push	r28
    276e:	df 93       	push	r29
    2770:	8c 01       	movw	r16, r24
    2772:	fb 01       	movw	r30, r22
    2774:	ff 27       	eor	r31, r31
    2776:	e6 5f       	subi	r30, 0xF6	; 246
    2778:	fd 4f       	sbci	r31, 0xFD	; 253
    277a:	80 81       	ld	r24, Z
void outputS(char* lineIn, int row)
{
	uint8_t r = row;
	uint8_t c = 0;

	command(new_line[r]);
    277c:	88 df       	rcall	.-240    	; 0x268e <command>
    277e:	e8 01       	movw	r28, r16
    2780:	0c 5e       	subi	r16, 0xEC	; 236
    2782:	1f 4f       	sbci	r17, 0xFF	; 255
	//20, because our display is 20x4.
	for(c=0; c<20; c++)
	{
		data(lineIn[c]);
    2784:	89 91       	ld	r24, Y+
    2786:	8b df       	rcall	.-234    	; 0x269e <data>
	uint8_t r = row;
	uint8_t c = 0;

	command(new_line[r]);
	//20, because our display is 20x4.
	for(c=0; c<20; c++)
    2788:	c0 17       	cp	r28, r16
    278a:	d1 07       	cpc	r29, r17
    278c:	d9 f7       	brne	.-10     	; 0x2784 <outputS+0x1c>
	{
		data(lineIn[c]);
	}
}
    278e:	df 91       	pop	r29
    2790:	cf 91       	pop	r28
    2792:	1f 91       	pop	r17
    2794:	0f 91       	pop	r16
    2796:	08 95       	ret

00002798 <numPrinter>:

void numPrinter(char* charArray,uint8_t startingPos, uint8_t numCharacters, uint16_t inputNumber)
{
    2798:	cf 93       	push	r28
    279a:	df 93       	push	r29
    279c:	f9 01       	movw	r30, r18
	uint8_t tensPlace = 0;
	uint8_t hunderedsPlace = 0;
	uint8_t thousandsPlace = 0;
	uint8_t tenThousandsPlace = 0;

	switch(numCharacters)
    279e:	43 30       	cpi	r20, 0x03	; 3
    27a0:	09 f4       	brne	.+2      	; 0x27a4 <numPrinter+0xc>
    27a2:	54 c0       	rjmp	.+168    	; 0x284c <numPrinter+0xb4>
    27a4:	28 f4       	brcc	.+10     	; 0x27b0 <numPrinter+0x18>
    27a6:	41 30       	cpi	r20, 0x01	; 1
    27a8:	51 f0       	breq	.+20     	; 0x27be <numPrinter+0x26>
    27aa:	42 30       	cpi	r20, 0x02	; 2
    27ac:	29 f1       	breq	.+74     	; 0x27f8 <numPrinter+0x60>
    27ae:	b7 c1       	rjmp	.+878    	; 0x2b1e <numPrinter+0x386>
    27b0:	44 30       	cpi	r20, 0x04	; 4
    27b2:	09 f4       	brne	.+2      	; 0x27b6 <numPrinter+0x1e>
    27b4:	95 c0       	rjmp	.+298    	; 0x28e0 <numPrinter+0x148>
    27b6:	45 30       	cpi	r20, 0x05	; 5
    27b8:	09 f4       	brne	.+2      	; 0x27bc <numPrinter+0x24>
    27ba:	0a c1       	rjmp	.+532    	; 0x29d0 <numPrinter+0x238>
    27bc:	b0 c1       	rjmp	.+864    	; 0x2b1e <numPrinter+0x386>
		case 0:
		break;

		case 1:
		onesPlace = (inputNumber%10)+48; //this should be a value between 1 and 10.
		charArray[startingPos] = onesPlace;
    27be:	ec 01       	movw	r28, r24
    27c0:	c6 0f       	add	r28, r22
    27c2:	d1 1d       	adc	r29, r1
    27c4:	ad ec       	ldi	r26, 0xCD	; 205
    27c6:	bc ec       	ldi	r27, 0xCC	; 204
    27c8:	0e 94 c4 1f 	call	0x3f88	; 0x3f88 <__umulhisi3>
    27cc:	96 95       	lsr	r25
    27ce:	87 95       	ror	r24
    27d0:	96 95       	lsr	r25
    27d2:	87 95       	ror	r24
    27d4:	96 95       	lsr	r25
    27d6:	87 95       	ror	r24
    27d8:	9c 01       	movw	r18, r24
    27da:	22 0f       	add	r18, r18
    27dc:	33 1f       	adc	r19, r19
    27de:	88 0f       	add	r24, r24
    27e0:	99 1f       	adc	r25, r25
    27e2:	88 0f       	add	r24, r24
    27e4:	99 1f       	adc	r25, r25
    27e6:	88 0f       	add	r24, r24
    27e8:	99 1f       	adc	r25, r25
    27ea:	82 0f       	add	r24, r18
    27ec:	93 1f       	adc	r25, r19
    27ee:	e8 1b       	sub	r30, r24
    27f0:	f9 0b       	sbc	r31, r25
    27f2:	e0 5d       	subi	r30, 0xD0	; 208
    27f4:	e8 83       	st	Y, r30
		break;
    27f6:	93 c1       	rjmp	.+806    	; 0x2b1e <numPrinter+0x386>

		case 2:
		onesPlace = (inputNumber%10)+48; //this should be a value between 1 and 10.
		tensPlace = (inputNumber/10)+48;
		charArray[(startingPos+1)] = onesPlace;
    27f8:	ec 01       	movw	r28, r24
    27fa:	c6 0f       	add	r28, r22
    27fc:	d1 1d       	adc	r29, r1
    27fe:	ad ec       	ldi	r26, 0xCD	; 205
    2800:	bc ec       	ldi	r27, 0xCC	; 204
    2802:	0e 94 c4 1f 	call	0x3f88	; 0x3f88 <__umulhisi3>
    2806:	96 95       	lsr	r25
    2808:	87 95       	ror	r24
    280a:	96 95       	lsr	r25
    280c:	87 95       	ror	r24
    280e:	96 95       	lsr	r25
    2810:	87 95       	ror	r24
    2812:	9c 01       	movw	r18, r24
    2814:	22 0f       	add	r18, r18
    2816:	33 1f       	adc	r19, r19
    2818:	88 0f       	add	r24, r24
    281a:	99 1f       	adc	r25, r25
    281c:	88 0f       	add	r24, r24
    281e:	99 1f       	adc	r25, r25
    2820:	88 0f       	add	r24, r24
    2822:	99 1f       	adc	r25, r25
    2824:	82 0f       	add	r24, r18
    2826:	93 1f       	adc	r25, r19
    2828:	9f 01       	movw	r18, r30
    282a:	28 1b       	sub	r18, r24
    282c:	39 0b       	sbc	r19, r25
    282e:	c9 01       	movw	r24, r18
    2830:	80 5d       	subi	r24, 0xD0	; 208
    2832:	89 83       	std	Y+1, r24	; 0x01
		charArray[startingPos] = tensPlace;
    2834:	9f 01       	movw	r18, r30
    2836:	0e 94 c4 1f 	call	0x3f88	; 0x3f88 <__umulhisi3>
    283a:	96 95       	lsr	r25
    283c:	87 95       	ror	r24
    283e:	96 95       	lsr	r25
    2840:	87 95       	ror	r24
    2842:	96 95       	lsr	r25
    2844:	87 95       	ror	r24
    2846:	80 5d       	subi	r24, 0xD0	; 208
    2848:	88 83       	st	Y, r24
		break;
    284a:	69 c1       	rjmp	.+722    	; 0x2b1e <numPrinter+0x386>

		case 3:
		onesPlace = (inputNumber%10)+48; //this should be a value between 1 and 10.
		tensPlace = ((inputNumber%100)/10)+48;
		hunderedsPlace = (inputNumber/100)+48;
		charArray[(startingPos+2)] = onesPlace;
    284c:	ec 01       	movw	r28, r24
    284e:	c6 0f       	add	r28, r22
    2850:	d1 1d       	adc	r29, r1
    2852:	ad ec       	ldi	r26, 0xCD	; 205
    2854:	bc ec       	ldi	r27, 0xCC	; 204
    2856:	0e 94 c4 1f 	call	0x3f88	; 0x3f88 <__umulhisi3>
    285a:	96 95       	lsr	r25
    285c:	87 95       	ror	r24
    285e:	96 95       	lsr	r25
    2860:	87 95       	ror	r24
    2862:	96 95       	lsr	r25
    2864:	87 95       	ror	r24
    2866:	9c 01       	movw	r18, r24
    2868:	22 0f       	add	r18, r18
    286a:	33 1f       	adc	r19, r19
    286c:	88 0f       	add	r24, r24
    286e:	99 1f       	adc	r25, r25
    2870:	88 0f       	add	r24, r24
    2872:	99 1f       	adc	r25, r25
    2874:	88 0f       	add	r24, r24
    2876:	99 1f       	adc	r25, r25
    2878:	82 0f       	add	r24, r18
    287a:	93 1f       	adc	r25, r19
    287c:	9f 01       	movw	r18, r30
    287e:	28 1b       	sub	r18, r24
    2880:	39 0b       	sbc	r19, r25
    2882:	c9 01       	movw	r24, r18
    2884:	80 5d       	subi	r24, 0xD0	; 208
    2886:	8a 83       	std	Y+2, r24	; 0x02
		charArray[(startingPos+1)] = tensPlace;
    2888:	af 01       	movw	r20, r30
    288a:	56 95       	lsr	r21
    288c:	47 95       	ror	r20
    288e:	56 95       	lsr	r21
    2890:	47 95       	ror	r20
    2892:	9a 01       	movw	r18, r20
    2894:	ab e7       	ldi	r26, 0x7B	; 123
    2896:	b4 e1       	ldi	r27, 0x14	; 20
    2898:	0e 94 c4 1f 	call	0x3f88	; 0x3f88 <__umulhisi3>
    289c:	96 95       	lsr	r25
    289e:	87 95       	ror	r24
    28a0:	64 e6       	ldi	r22, 0x64	; 100
    28a2:	68 9f       	mul	r22, r24
    28a4:	90 01       	movw	r18, r0
    28a6:	69 9f       	mul	r22, r25
    28a8:	30 0d       	add	r19, r0
    28aa:	11 24       	eor	r1, r1
    28ac:	cf 01       	movw	r24, r30
    28ae:	82 1b       	sub	r24, r18
    28b0:	93 0b       	sbc	r25, r19
    28b2:	9c 01       	movw	r18, r24
    28b4:	ad ec       	ldi	r26, 0xCD	; 205
    28b6:	bc ec       	ldi	r27, 0xCC	; 204
    28b8:	0e 94 c4 1f 	call	0x3f88	; 0x3f88 <__umulhisi3>
    28bc:	96 95       	lsr	r25
    28be:	87 95       	ror	r24
    28c0:	96 95       	lsr	r25
    28c2:	87 95       	ror	r24
    28c4:	96 95       	lsr	r25
    28c6:	87 95       	ror	r24
    28c8:	80 5d       	subi	r24, 0xD0	; 208
    28ca:	89 83       	std	Y+1, r24	; 0x01
		charArray[startingPos] = hunderedsPlace;
    28cc:	9a 01       	movw	r18, r20
    28ce:	ab e7       	ldi	r26, 0x7B	; 123
    28d0:	b4 e1       	ldi	r27, 0x14	; 20
    28d2:	0e 94 c4 1f 	call	0x3f88	; 0x3f88 <__umulhisi3>
    28d6:	96 95       	lsr	r25
    28d8:	87 95       	ror	r24
    28da:	80 5d       	subi	r24, 0xD0	; 208
    28dc:	88 83       	st	Y, r24
		break;
    28de:	1f c1       	rjmp	.+574    	; 0x2b1e <numPrinter+0x386>
		case 4:
		onesPlace = (inputNumber%10)+48; //this should be a value between 1 and 10.
		tensPlace = ((inputNumber%100)/10)+48;
		hunderedsPlace = ((inputNumber%1000)/100)+48;
		thousandsPlace = (inputNumber/1000)+48;
		charArray[(startingPos+3)] = onesPlace;
    28e0:	ec 01       	movw	r28, r24
    28e2:	c6 0f       	add	r28, r22
    28e4:	d1 1d       	adc	r29, r1
    28e6:	ad ec       	ldi	r26, 0xCD	; 205
    28e8:	bc ec       	ldi	r27, 0xCC	; 204
    28ea:	0e 94 c4 1f 	call	0x3f88	; 0x3f88 <__umulhisi3>
    28ee:	96 95       	lsr	r25
    28f0:	87 95       	ror	r24
    28f2:	96 95       	lsr	r25
    28f4:	87 95       	ror	r24
    28f6:	96 95       	lsr	r25
    28f8:	87 95       	ror	r24
    28fa:	9c 01       	movw	r18, r24
    28fc:	22 0f       	add	r18, r18
    28fe:	33 1f       	adc	r19, r19
    2900:	88 0f       	add	r24, r24
    2902:	99 1f       	adc	r25, r25
    2904:	88 0f       	add	r24, r24
    2906:	99 1f       	adc	r25, r25
    2908:	88 0f       	add	r24, r24
    290a:	99 1f       	adc	r25, r25
    290c:	82 0f       	add	r24, r18
    290e:	93 1f       	adc	r25, r19
    2910:	9f 01       	movw	r18, r30
    2912:	28 1b       	sub	r18, r24
    2914:	39 0b       	sbc	r19, r25
    2916:	c9 01       	movw	r24, r18
    2918:	80 5d       	subi	r24, 0xD0	; 208
    291a:	8b 83       	std	Y+3, r24	; 0x03
		charArray[(startingPos+2)] = tensPlace;
    291c:	9f 01       	movw	r18, r30
    291e:	36 95       	lsr	r19
    2920:	27 95       	ror	r18
    2922:	36 95       	lsr	r19
    2924:	27 95       	ror	r18
    2926:	ab e7       	ldi	r26, 0x7B	; 123
    2928:	b4 e1       	ldi	r27, 0x14	; 20
    292a:	0e 94 c4 1f 	call	0x3f88	; 0x3f88 <__umulhisi3>
    292e:	96 95       	lsr	r25
    2930:	87 95       	ror	r24
    2932:	44 e6       	ldi	r20, 0x64	; 100
    2934:	48 9f       	mul	r20, r24
    2936:	90 01       	movw	r18, r0
    2938:	49 9f       	mul	r20, r25
    293a:	30 0d       	add	r19, r0
    293c:	11 24       	eor	r1, r1
    293e:	cf 01       	movw	r24, r30
    2940:	82 1b       	sub	r24, r18
    2942:	93 0b       	sbc	r25, r19
    2944:	9c 01       	movw	r18, r24
    2946:	ad ec       	ldi	r26, 0xCD	; 205
    2948:	bc ec       	ldi	r27, 0xCC	; 204
    294a:	0e 94 c4 1f 	call	0x3f88	; 0x3f88 <__umulhisi3>
    294e:	96 95       	lsr	r25
    2950:	87 95       	ror	r24
    2952:	96 95       	lsr	r25
    2954:	87 95       	ror	r24
    2956:	96 95       	lsr	r25
    2958:	87 95       	ror	r24
    295a:	80 5d       	subi	r24, 0xD0	; 208
    295c:	8a 83       	std	Y+2, r24	; 0x02
		charArray[(startingPos+1)] = hunderedsPlace;
    295e:	af 01       	movw	r20, r30
    2960:	56 95       	lsr	r21
    2962:	47 95       	ror	r20
    2964:	56 95       	lsr	r21
    2966:	47 95       	ror	r20
    2968:	56 95       	lsr	r21
    296a:	47 95       	ror	r20
    296c:	9a 01       	movw	r18, r20
    296e:	a5 ec       	ldi	r26, 0xC5	; 197
    2970:	b0 e2       	ldi	r27, 0x20	; 32
    2972:	0e 94 c4 1f 	call	0x3f88	; 0x3f88 <__umulhisi3>
    2976:	92 95       	swap	r25
    2978:	82 95       	swap	r24
    297a:	8f 70       	andi	r24, 0x0F	; 15
    297c:	89 27       	eor	r24, r25
    297e:	9f 70       	andi	r25, 0x0F	; 15
    2980:	89 27       	eor	r24, r25
    2982:	68 ee       	ldi	r22, 0xE8	; 232
    2984:	73 e0       	ldi	r23, 0x03	; 3
    2986:	86 9f       	mul	r24, r22
    2988:	90 01       	movw	r18, r0
    298a:	87 9f       	mul	r24, r23
    298c:	30 0d       	add	r19, r0
    298e:	96 9f       	mul	r25, r22
    2990:	30 0d       	add	r19, r0
    2992:	11 24       	eor	r1, r1
    2994:	cf 01       	movw	r24, r30
    2996:	82 1b       	sub	r24, r18
    2998:	93 0b       	sbc	r25, r19
    299a:	9c 01       	movw	r18, r24
    299c:	36 95       	lsr	r19
    299e:	27 95       	ror	r18
    29a0:	36 95       	lsr	r19
    29a2:	27 95       	ror	r18
    29a4:	ab e7       	ldi	r26, 0x7B	; 123
    29a6:	b4 e1       	ldi	r27, 0x14	; 20
    29a8:	0e 94 c4 1f 	call	0x3f88	; 0x3f88 <__umulhisi3>
    29ac:	96 95       	lsr	r25
    29ae:	87 95       	ror	r24
    29b0:	80 5d       	subi	r24, 0xD0	; 208
    29b2:	89 83       	std	Y+1, r24	; 0x01
		charArray[startingPos] = thousandsPlace;
    29b4:	9a 01       	movw	r18, r20
    29b6:	a5 ec       	ldi	r26, 0xC5	; 197
    29b8:	b0 e2       	ldi	r27, 0x20	; 32
    29ba:	0e 94 c4 1f 	call	0x3f88	; 0x3f88 <__umulhisi3>
    29be:	92 95       	swap	r25
    29c0:	82 95       	swap	r24
    29c2:	8f 70       	andi	r24, 0x0F	; 15
    29c4:	89 27       	eor	r24, r25
    29c6:	9f 70       	andi	r25, 0x0F	; 15
    29c8:	89 27       	eor	r24, r25
    29ca:	80 5d       	subi	r24, 0xD0	; 208
    29cc:	88 83       	st	Y, r24
		break;
    29ce:	a7 c0       	rjmp	.+334    	; 0x2b1e <numPrinter+0x386>
		onesPlace = (inputNumber%10)+48; //this should be a value between 1 and 10.
		tensPlace = ((inputNumber%100)/10)+48;
		hunderedsPlace = ((inputNumber%1000)/100)+48;
		thousandsPlace = ((inputNumber%10000)/1000)+48;
		tenThousandsPlace = (inputNumber/10000)+48;
		charArray[(startingPos+4)] = onesPlace;
    29d0:	ec 01       	movw	r28, r24
    29d2:	c6 0f       	add	r28, r22
    29d4:	d1 1d       	adc	r29, r1
    29d6:	ad ec       	ldi	r26, 0xCD	; 205
    29d8:	bc ec       	ldi	r27, 0xCC	; 204
    29da:	0e 94 c4 1f 	call	0x3f88	; 0x3f88 <__umulhisi3>
    29de:	96 95       	lsr	r25
    29e0:	87 95       	ror	r24
    29e2:	96 95       	lsr	r25
    29e4:	87 95       	ror	r24
    29e6:	96 95       	lsr	r25
    29e8:	87 95       	ror	r24
    29ea:	9c 01       	movw	r18, r24
    29ec:	22 0f       	add	r18, r18
    29ee:	33 1f       	adc	r19, r19
    29f0:	88 0f       	add	r24, r24
    29f2:	99 1f       	adc	r25, r25
    29f4:	88 0f       	add	r24, r24
    29f6:	99 1f       	adc	r25, r25
    29f8:	88 0f       	add	r24, r24
    29fa:	99 1f       	adc	r25, r25
    29fc:	82 0f       	add	r24, r18
    29fe:	93 1f       	adc	r25, r19
    2a00:	9f 01       	movw	r18, r30
    2a02:	28 1b       	sub	r18, r24
    2a04:	39 0b       	sbc	r19, r25
    2a06:	c9 01       	movw	r24, r18
    2a08:	80 5d       	subi	r24, 0xD0	; 208
    2a0a:	8c 83       	std	Y+4, r24	; 0x04
		charArray[(startingPos+3)] = tensPlace;
    2a0c:	9f 01       	movw	r18, r30
    2a0e:	36 95       	lsr	r19
    2a10:	27 95       	ror	r18
    2a12:	36 95       	lsr	r19
    2a14:	27 95       	ror	r18
    2a16:	ab e7       	ldi	r26, 0x7B	; 123
    2a18:	b4 e1       	ldi	r27, 0x14	; 20
    2a1a:	0e 94 c4 1f 	call	0x3f88	; 0x3f88 <__umulhisi3>
    2a1e:	96 95       	lsr	r25
    2a20:	87 95       	ror	r24
    2a22:	44 e6       	ldi	r20, 0x64	; 100
    2a24:	48 9f       	mul	r20, r24
    2a26:	90 01       	movw	r18, r0
    2a28:	49 9f       	mul	r20, r25
    2a2a:	30 0d       	add	r19, r0
    2a2c:	11 24       	eor	r1, r1
    2a2e:	cf 01       	movw	r24, r30
    2a30:	82 1b       	sub	r24, r18
    2a32:	93 0b       	sbc	r25, r19
    2a34:	9c 01       	movw	r18, r24
    2a36:	ad ec       	ldi	r26, 0xCD	; 205
    2a38:	bc ec       	ldi	r27, 0xCC	; 204
    2a3a:	0e 94 c4 1f 	call	0x3f88	; 0x3f88 <__umulhisi3>
    2a3e:	96 95       	lsr	r25
    2a40:	87 95       	ror	r24
    2a42:	96 95       	lsr	r25
    2a44:	87 95       	ror	r24
    2a46:	96 95       	lsr	r25
    2a48:	87 95       	ror	r24
    2a4a:	80 5d       	subi	r24, 0xD0	; 208
    2a4c:	8b 83       	std	Y+3, r24	; 0x03
		charArray[(startingPos+2)] = hunderedsPlace;
    2a4e:	9f 01       	movw	r18, r30
    2a50:	36 95       	lsr	r19
    2a52:	27 95       	ror	r18
    2a54:	36 95       	lsr	r19
    2a56:	27 95       	ror	r18
    2a58:	36 95       	lsr	r19
    2a5a:	27 95       	ror	r18
    2a5c:	a5 ec       	ldi	r26, 0xC5	; 197
    2a5e:	b0 e2       	ldi	r27, 0x20	; 32
    2a60:	0e 94 c4 1f 	call	0x3f88	; 0x3f88 <__umulhisi3>
    2a64:	92 95       	swap	r25
    2a66:	82 95       	swap	r24
    2a68:	8f 70       	andi	r24, 0x0F	; 15
    2a6a:	89 27       	eor	r24, r25
    2a6c:	9f 70       	andi	r25, 0x0F	; 15
    2a6e:	89 27       	eor	r24, r25
    2a70:	48 ee       	ldi	r20, 0xE8	; 232
    2a72:	53 e0       	ldi	r21, 0x03	; 3
    2a74:	84 9f       	mul	r24, r20
    2a76:	90 01       	movw	r18, r0
    2a78:	85 9f       	mul	r24, r21
    2a7a:	30 0d       	add	r19, r0
    2a7c:	94 9f       	mul	r25, r20
    2a7e:	30 0d       	add	r19, r0
    2a80:	11 24       	eor	r1, r1
    2a82:	cf 01       	movw	r24, r30
    2a84:	82 1b       	sub	r24, r18
    2a86:	93 0b       	sbc	r25, r19
    2a88:	9c 01       	movw	r18, r24
    2a8a:	36 95       	lsr	r19
    2a8c:	27 95       	ror	r18
    2a8e:	36 95       	lsr	r19
    2a90:	27 95       	ror	r18
    2a92:	ab e7       	ldi	r26, 0x7B	; 123
    2a94:	b4 e1       	ldi	r27, 0x14	; 20
    2a96:	0e 94 c4 1f 	call	0x3f88	; 0x3f88 <__umulhisi3>
    2a9a:	96 95       	lsr	r25
    2a9c:	87 95       	ror	r24
    2a9e:	80 5d       	subi	r24, 0xD0	; 208
    2aa0:	8a 83       	std	Y+2, r24	; 0x02
		charArray[(startingPos+1)] = thousandsPlace;
    2aa2:	af 01       	movw	r20, r30
    2aa4:	52 95       	swap	r21
    2aa6:	42 95       	swap	r20
    2aa8:	4f 70       	andi	r20, 0x0F	; 15
    2aaa:	45 27       	eor	r20, r21
    2aac:	5f 70       	andi	r21, 0x0F	; 15
    2aae:	45 27       	eor	r20, r21
    2ab0:	9a 01       	movw	r18, r20
    2ab2:	a7 e4       	ldi	r26, 0x47	; 71
    2ab4:	b3 e0       	ldi	r27, 0x03	; 3
    2ab6:	0e 94 c4 1f 	call	0x3f88	; 0x3f88 <__umulhisi3>
    2aba:	96 95       	lsr	r25
    2abc:	87 95       	ror	r24
    2abe:	96 95       	lsr	r25
    2ac0:	87 95       	ror	r24
    2ac2:	96 95       	lsr	r25
    2ac4:	87 95       	ror	r24
    2ac6:	60 e1       	ldi	r22, 0x10	; 16
    2ac8:	77 e2       	ldi	r23, 0x27	; 39
    2aca:	86 9f       	mul	r24, r22
    2acc:	90 01       	movw	r18, r0
    2ace:	87 9f       	mul	r24, r23
    2ad0:	30 0d       	add	r19, r0
    2ad2:	96 9f       	mul	r25, r22
    2ad4:	30 0d       	add	r19, r0
    2ad6:	11 24       	eor	r1, r1
    2ad8:	cf 01       	movw	r24, r30
    2ada:	82 1b       	sub	r24, r18
    2adc:	93 0b       	sbc	r25, r19
    2ade:	9c 01       	movw	r18, r24
    2ae0:	36 95       	lsr	r19
    2ae2:	27 95       	ror	r18
    2ae4:	36 95       	lsr	r19
    2ae6:	27 95       	ror	r18
    2ae8:	36 95       	lsr	r19
    2aea:	27 95       	ror	r18
    2aec:	a5 ec       	ldi	r26, 0xC5	; 197
    2aee:	b0 e2       	ldi	r27, 0x20	; 32
    2af0:	0e 94 c4 1f 	call	0x3f88	; 0x3f88 <__umulhisi3>
    2af4:	92 95       	swap	r25
    2af6:	82 95       	swap	r24
    2af8:	8f 70       	andi	r24, 0x0F	; 15
    2afa:	89 27       	eor	r24, r25
    2afc:	9f 70       	andi	r25, 0x0F	; 15
    2afe:	89 27       	eor	r24, r25
    2b00:	80 5d       	subi	r24, 0xD0	; 208
    2b02:	89 83       	std	Y+1, r24	; 0x01
		charArray[startingPos] = tenThousandsPlace;
    2b04:	9a 01       	movw	r18, r20
    2b06:	a7 e4       	ldi	r26, 0x47	; 71
    2b08:	b3 e0       	ldi	r27, 0x03	; 3
    2b0a:	0e 94 c4 1f 	call	0x3f88	; 0x3f88 <__umulhisi3>
    2b0e:	96 95       	lsr	r25
    2b10:	87 95       	ror	r24
    2b12:	96 95       	lsr	r25
    2b14:	87 95       	ror	r24
    2b16:	96 95       	lsr	r25
    2b18:	87 95       	ror	r24
    2b1a:	80 5d       	subi	r24, 0xD0	; 208
    2b1c:	88 83       	st	Y, r24
		break;

	}


}
    2b1e:	df 91       	pop	r29
    2b20:	cf 91       	pop	r28
    2b22:	08 95       	ret

00002b24 <midiNotePrinter>:

void midiNotePrinter(char* charArray, uint8_t startingPosition, uint8_t noteNumber)
{
    2b24:	9c 01       	movw	r18, r24
    2b26:	a6 2f       	mov	r26, r22
	char printSharp = 0;
	uint8_t valueSwitch = 0;
	//numbers will always go from B to C, and have 12 distinct values. 
	//we can get our number from this with division. 
	//midi note C0 starts at 12. So, we'll need to do some math there. 
	printNumber = (noteNumber/12)+47; 
    2b28:	eb ea       	ldi	r30, 0xAB	; 171
    2b2a:	4e 9f       	mul	r20, r30
    2b2c:	e1 2d       	mov	r30, r1
    2b2e:	11 24       	eor	r1, r1
    2b30:	e6 95       	lsr	r30
    2b32:	e6 95       	lsr	r30
    2b34:	e6 95       	lsr	r30
    2b36:	9f e2       	ldi	r25, 0x2F	; 47
    2b38:	9e 0f       	add	r25, r30
	
	//theres a weird wrap around with note numbers here. Since there isn't really an easy math patern we can take advantage of. 
	valueSwitch = noteNumber%12; //this should give us a value between 0 and 11. 
	switch(valueSwitch)
    2b3a:	8e 2f       	mov	r24, r30
    2b3c:	88 0f       	add	r24, r24
    2b3e:	e8 0f       	add	r30, r24
    2b40:	ee 0f       	add	r30, r30
    2b42:	ee 0f       	add	r30, r30
    2b44:	4e 1b       	sub	r20, r30
    2b46:	50 e0       	ldi	r21, 0x00	; 0
    2b48:	4c 30       	cpi	r20, 0x0C	; 12
    2b4a:	51 05       	cpc	r21, r1
    2b4c:	58 f5       	brcc	.+86     	; 0x2ba4 <midiNotePrinter+0x80>
    2b4e:	fa 01       	movw	r30, r20
    2b50:	88 27       	eor	r24, r24
    2b52:	e8 51       	subi	r30, 0x18	; 24
    2b54:	ff 4f       	sbci	r31, 0xFF	; 255
    2b56:	8f 4f       	sbci	r24, 0xFF	; 255
    2b58:	0c 94 bc 1f 	jmp	0x3f78	; 0x3f78 <__tablejump2__>
	{
		
		case 0:
		printLetter = 'C';
		printSharp = ' ';
    2b5c:	80 e2       	ldi	r24, 0x20	; 32
	valueSwitch = noteNumber%12; //this should give us a value between 0 and 11. 
	switch(valueSwitch)
	{
		
		case 0:
		printLetter = 'C';
    2b5e:	43 e4       	ldi	r20, 0x43	; 67
    2b60:	23 c0       	rjmp	.+70     	; 0x2ba8 <midiNotePrinter+0x84>
		printSharp = ' ';
		break;
				
		case 1:
		printLetter = 'C';
		printSharp = '#';
    2b62:	83 e2       	ldi	r24, 0x23	; 35
		printLetter = 'C';
		printSharp = ' ';
		break;
				
		case 1:
		printLetter = 'C';
    2b64:	43 e4       	ldi	r20, 0x43	; 67
		printSharp = '#';
		break;
    2b66:	20 c0       	rjmp	.+64     	; 0x2ba8 <midiNotePrinter+0x84>
		
		case 2:
		printLetter = 'D';
		printSharp = ' ';
    2b68:	80 e2       	ldi	r24, 0x20	; 32
		printLetter = 'C';
		printSharp = '#';
		break;
		
		case 2:
		printLetter = 'D';
    2b6a:	44 e4       	ldi	r20, 0x44	; 68
		printSharp = ' ';
		break;
    2b6c:	1d c0       	rjmp	.+58     	; 0x2ba8 <midiNotePrinter+0x84>
		
		case 3:
		printLetter = 'D';
		printSharp = '#';
    2b6e:	83 e2       	ldi	r24, 0x23	; 35
		printLetter = 'D';
		printSharp = ' ';
		break;
		
		case 3:
		printLetter = 'D';
    2b70:	44 e4       	ldi	r20, 0x44	; 68
		printSharp = '#';
		break;
    2b72:	1a c0       	rjmp	.+52     	; 0x2ba8 <midiNotePrinter+0x84>
		
		case 4:
		printLetter = 'E';
		printSharp = ' ';
    2b74:	80 e2       	ldi	r24, 0x20	; 32
		printLetter = 'D';
		printSharp = '#';
		break;
		
		case 4:
		printLetter = 'E';
    2b76:	45 e4       	ldi	r20, 0x45	; 69
		printSharp = ' ';
		break;
    2b78:	17 c0       	rjmp	.+46     	; 0x2ba8 <midiNotePrinter+0x84>
		
		case 5:
		printLetter = 'F';
		printSharp = ' ';
    2b7a:	80 e2       	ldi	r24, 0x20	; 32
		printLetter = 'E';
		printSharp = ' ';
		break;
		
		case 5:
		printLetter = 'F';
    2b7c:	46 e4       	ldi	r20, 0x46	; 70
		printSharp = ' ';
		break;
    2b7e:	14 c0       	rjmp	.+40     	; 0x2ba8 <midiNotePrinter+0x84>
		
		case 6:
		printLetter = 'F';
		printSharp = '#';
    2b80:	83 e2       	ldi	r24, 0x23	; 35
		printLetter = 'F';
		printSharp = ' ';
		break;
		
		case 6:
		printLetter = 'F';
    2b82:	46 e4       	ldi	r20, 0x46	; 70
		printSharp = '#';
		break;
    2b84:	11 c0       	rjmp	.+34     	; 0x2ba8 <midiNotePrinter+0x84>
		
		case 7:
		printLetter = 'G';
		printSharp = ' ';
    2b86:	80 e2       	ldi	r24, 0x20	; 32
		printLetter = 'F';
		printSharp = '#';
		break;
		
		case 7:
		printLetter = 'G';
    2b88:	47 e4       	ldi	r20, 0x47	; 71
		printSharp = ' ';
		break;
    2b8a:	0e c0       	rjmp	.+28     	; 0x2ba8 <midiNotePrinter+0x84>
		
		case 8:
		printLetter = 'G';
		printSharp = '#';
    2b8c:	83 e2       	ldi	r24, 0x23	; 35
		printLetter = 'G';
		printSharp = ' ';
		break;
		
		case 8:
		printLetter = 'G';
    2b8e:	47 e4       	ldi	r20, 0x47	; 71
		printSharp = '#';
		break;
    2b90:	0b c0       	rjmp	.+22     	; 0x2ba8 <midiNotePrinter+0x84>
		
		case 9:
		printLetter = 'A';
		printSharp = ' ';
    2b92:	80 e2       	ldi	r24, 0x20	; 32
		printLetter = 'G';
		printSharp = '#';
		break;
		
		case 9:
		printLetter = 'A';
    2b94:	41 e4       	ldi	r20, 0x41	; 65
		printSharp = ' ';
		break;
    2b96:	08 c0       	rjmp	.+16     	; 0x2ba8 <midiNotePrinter+0x84>
		
		case 10:
		printLetter = 'A';
		printSharp = '#';
    2b98:	83 e2       	ldi	r24, 0x23	; 35
		printLetter = 'A';
		printSharp = ' ';
		break;
		
		case 10:
		printLetter = 'A';
    2b9a:	41 e4       	ldi	r20, 0x41	; 65
		printSharp = '#';
		break;
    2b9c:	05 c0       	rjmp	.+10     	; 0x2ba8 <midiNotePrinter+0x84>
		
		case 11:
		printLetter = 'B';
		printSharp = ' ';
    2b9e:	80 e2       	ldi	r24, 0x20	; 32
		printLetter = 'A';
		printSharp = '#';
		break;
		
		case 11:
		printLetter = 'B';
    2ba0:	42 e4       	ldi	r20, 0x42	; 66
		printSharp = ' ';
		break;
    2ba2:	02 c0       	rjmp	.+4      	; 0x2ba8 <midiNotePrinter+0x84>
void midiNotePrinter(char* charArray, uint8_t startingPosition, uint8_t noteNumber)
{
	//will take up 3 character spaces. 
	char printLetter = 0;
	char printNumber = 0;
	char printSharp = 0;
    2ba4:	80 e0       	ldi	r24, 0x00	; 0
}

void midiNotePrinter(char* charArray, uint8_t startingPosition, uint8_t noteNumber)
{
	//will take up 3 character spaces. 
	char printLetter = 0;
    2ba6:	40 e0       	ldi	r20, 0x00	; 0
		printLetter = 'B';
		printSharp = ' ';
		break;
		
	}
	charArray[startingPosition] = printLetter;
    2ba8:	f9 01       	movw	r30, r18
    2baa:	ea 0f       	add	r30, r26
    2bac:	f1 1d       	adc	r31, r1
    2bae:	40 83       	st	Z, r20
	charArray[startingPosition+1]= printSharp;
    2bb0:	81 83       	std	Z+1, r24	; 0x01
	charArray[startingPosition+2]= printNumber;
    2bb2:	92 83       	std	Z+2, r25	; 0x02
    2bb4:	08 95       	ret

00002bb6 <updateSequencer>:
//	clockCounter++;
	//we don't want to do anything else here.
//}

void updateSequencer(Pattern sequencerPattern, Globals *currentGlobals)
{
    2bb6:	ef 92       	push	r14
    2bb8:	ff 92       	push	r15
    2bba:	1f 93       	push	r17
    2bbc:	cf 93       	push	r28
    2bbe:	df 93       	push	r29
    2bc0:	cd b7       	in	r28, 0x3d	; 61
    2bc2:	de b7       	in	r29, 0x3e	; 62
	uint16_t BPMvar = 150000/(sequencerPattern.patternBPM);

	if(currentGlobals->clockCounter>=BPMvar && currentGlobals->playState) //if playstate is on, play next note in sequence.
    2bc4:	cc 57       	subi	r28, 0x7C	; 124
    2bc6:	de 4f       	sbci	r29, 0xFE	; 254
    2bc8:	e8 80       	ld	r14, Y
    2bca:	f9 80       	ldd	r15, Y+1	; 0x01
    2bcc:	c4 58       	subi	r28, 0x84	; 132
    2bce:	d1 40       	sbci	r29, 0x01	; 1
    2bd0:	cf 52       	subi	r28, 0x2F	; 47
    2bd2:	df 4f       	sbci	r29, 0xFF	; 255
    2bd4:	28 81       	ld	r18, Y
    2bd6:	39 81       	ldd	r19, Y+1	; 0x01
    2bd8:	c1 5d       	subi	r28, 0xD1	; 209
    2bda:	d0 40       	sbci	r29, 0x00	; 0
    2bdc:	40 e0       	ldi	r20, 0x00	; 0
    2bde:	50 e0       	ldi	r21, 0x00	; 0
    2be0:	60 ef       	ldi	r22, 0xF0	; 240
    2be2:	79 e4       	ldi	r23, 0x49	; 73
    2be4:	82 e0       	ldi	r24, 0x02	; 2
    2be6:	90 e0       	ldi	r25, 0x00	; 0
    2be8:	0e 94 a0 1f 	call	0x3f40	; 0x3f40 <__divmodsi4>
    2bec:	f7 01       	movw	r30, r14
    2bee:	e9 51       	subi	r30, 0x19	; 25
    2bf0:	ff 4f       	sbci	r31, 0xFF	; 255
    2bf2:	80 81       	ld	r24, Z
    2bf4:	91 81       	ldd	r25, Z+1	; 0x01
    2bf6:	82 17       	cp	r24, r18
    2bf8:	93 07       	cpc	r25, r19
    2bfa:	08 f4       	brcc	.+2      	; 0x2bfe <updateSequencer+0x48>
    2bfc:	41 c0       	rjmp	.+130    	; 0x2c80 <updateSequencer+0xca>
    2bfe:	f7 01       	movw	r30, r14
    2c00:	87 81       	ldd	r24, Z+7	; 0x07
    2c02:	88 23       	and	r24, r24
    2c04:	b1 f1       	breq	.+108    	; 0x2c72 <updateSequencer+0xbc>
	{
		//this will be where we play samples
		currentGlobals->clockCounter = 0;
    2c06:	e9 51       	subi	r30, 0x19	; 25
    2c08:	ff 4f       	sbci	r31, 0xFF	; 255
    2c0a:	11 82       	std	Z+1, r1	; 0x01
    2c0c:	10 82       	st	Z, r1
		uint16_t parseStep = sequencerPattern.trackSequence[currentPlayStep];
    2c0e:	e0 91 f7 03 	lds	r30, 0x03F7	; 0x8003f7 <currentPlayStep>
    2c12:	f0 e0       	ldi	r31, 0x00	; 0
    2c14:	ee 0f       	add	r30, r30
    2c16:	ff 1f       	adc	r31, r31
    2c18:	89 e0       	ldi	r24, 0x09	; 9
    2c1a:	90 e0       	ldi	r25, 0x00	; 0
    2c1c:	8c 0f       	add	r24, r28
    2c1e:	9d 1f       	adc	r25, r29
    2c20:	e8 0f       	add	r30, r24
    2c22:	f9 1f       	adc	r31, r25
    2c24:	e5 50       	subi	r30, 0x05	; 5
    2c26:	ff 4f       	sbci	r31, 0xFF	; 255
    2c28:	e0 80       	ld	r14, Z
    2c2a:	f1 80       	ldd	r15, Z+1	; 0x01
		for (uint8_t sc=0; sc<16; sc++) //sequencer counter
    2c2c:	10 e0       	ldi	r17, 0x00	; 0
		{//we're going to loop through all of the possible tracks, and trigger them
			if((parseStep&1)==1)
    2c2e:	e0 fe       	sbrs	r14, 0
    2c30:	07 c0       	rjmp	.+14     	; 0x2c40 <updateSequencer+0x8a>
			{
				//trackControl(sequencerPattern.trackSampleLSB[sc], sequencerPattern.trackSampleMSB[sc], sequencerPattern.trackOutputRoute[sc], sequencerPattern.trackPlayMode[sc]);
				playTrack(&sequencerPattern, &currentGlobals, sc);
    2c32:	41 2f       	mov	r20, r17
    2c34:	be 01       	movw	r22, r28
    2c36:	6c 57       	subi	r22, 0x7C	; 124
    2c38:	7e 4f       	sbci	r23, 0xFE	; 254
    2c3a:	ce 01       	movw	r24, r28
    2c3c:	09 96       	adiw	r24, 0x09	; 9
    2c3e:	65 d1       	rcall	.+714    	; 0x2f0a <playTrack>
			}
			parseStep = parseStep>>1; //shift bits down one to check the next slot in the sequence.
    2c40:	f6 94       	lsr	r15
    2c42:	e7 94       	ror	r14
	if(currentGlobals->clockCounter>=BPMvar && currentGlobals->playState) //if playstate is on, play next note in sequence.
	{
		//this will be where we play samples
		currentGlobals->clockCounter = 0;
		uint16_t parseStep = sequencerPattern.trackSequence[currentPlayStep];
		for (uint8_t sc=0; sc<16; sc++) //sequencer counter
    2c44:	1f 5f       	subi	r17, 0xFF	; 255
    2c46:	10 31       	cpi	r17, 0x10	; 16
    2c48:	91 f7       	brne	.-28     	; 0x2c2e <updateSequencer+0x78>
				//trackControl(sequencerPattern.trackSampleLSB[sc], sequencerPattern.trackSampleMSB[sc], sequencerPattern.trackOutputRoute[sc], sequencerPattern.trackPlayMode[sc]);
				playTrack(&sequencerPattern, &currentGlobals, sc);
			}
			parseStep = parseStep>>1; //shift bits down one to check the next slot in the sequence.
		}
		currentPlayStep = currentPlayStep+1;
    2c4a:	80 91 f7 03 	lds	r24, 0x03F7	; 0x8003f7 <currentPlayStep>
    2c4e:	8f 5f       	subi	r24, 0xFF	; 255
    2c50:	80 93 f7 03 	sts	0x03F7, r24	; 0x8003f7 <currentPlayStep>
		if(currentPlayStep>(sequencerPattern.numSteps-1))
    2c54:	90 e0       	ldi	r25, 0x00	; 0
    2c56:	cd 52       	subi	r28, 0x2D	; 45
    2c58:	df 4f       	sbci	r29, 0xFF	; 255
    2c5a:	28 81       	ld	r18, Y
    2c5c:	c3 5d       	subi	r28, 0xD3	; 211
    2c5e:	d0 40       	sbci	r29, 0x00	; 0
    2c60:	30 e0       	ldi	r19, 0x00	; 0
    2c62:	21 50       	subi	r18, 0x01	; 1
    2c64:	31 09       	sbc	r19, r1
    2c66:	28 17       	cp	r18, r24
    2c68:	39 07       	cpc	r19, r25
    2c6a:	54 f4       	brge	.+20     	; 0x2c80 <updateSequencer+0xca>
		{
			currentPlayStep=0; // don't play more steps than are in the sequence.
    2c6c:	10 92 f7 03 	sts	0x03F7, r1	; 0x8003f7 <currentPlayStep>
    2c70:	07 c0       	rjmp	.+14     	; 0x2c80 <updateSequencer+0xca>
		}
		
	}else if(currentGlobals->clockCounter>=BPMvar && !currentGlobals->playState)
	{ 
		currentPlayStep=0;
    2c72:	10 92 f7 03 	sts	0x03F7, r1	; 0x8003f7 <currentPlayStep>
		currentGlobals->clockCounter = 0;
    2c76:	f7 01       	movw	r30, r14
    2c78:	e9 51       	subi	r30, 0x19	; 25
    2c7a:	ff 4f       	sbci	r31, 0xFF	; 255
    2c7c:	11 82       	std	Z+1, r1	; 0x01
    2c7e:	10 82       	st	Z, r1
	}
	
}
    2c80:	df 91       	pop	r29
    2c82:	cf 91       	pop	r28
    2c84:	1f 91       	pop	r17
    2c86:	ff 90       	pop	r15
    2c88:	ef 90       	pop	r14
    2c8a:	08 95       	ret

00002c8c <__vector_27>:
char serial0Buffer[TX_BUFFER_SIZE];
int serialReadPos = 0;
int serialWritePos = 0;

ISR (USART0_TX_vect)
{
    2c8c:	1f 92       	push	r1
    2c8e:	0f 92       	push	r0
    2c90:	0f b6       	in	r0, 0x3f	; 63
    2c92:	0f 92       	push	r0
    2c94:	11 24       	eor	r1, r1
    2c96:	0b b6       	in	r0, 0x3b	; 59
    2c98:	0f 92       	push	r0
    2c9a:	2f 93       	push	r18
    2c9c:	3f 93       	push	r19
    2c9e:	8f 93       	push	r24
    2ca0:	9f 93       	push	r25
    2ca2:	ef 93       	push	r30
    2ca4:	ff 93       	push	r31
	if(serialReadPos != serialWritePos)
    2ca6:	80 91 fa 03 	lds	r24, 0x03FA	; 0x8003fa <serialReadPos>
    2caa:	90 91 fb 03 	lds	r25, 0x03FB	; 0x8003fb <serialReadPos+0x1>
    2cae:	20 91 f8 03 	lds	r18, 0x03F8	; 0x8003f8 <serialWritePos>
    2cb2:	30 91 f9 03 	lds	r19, 0x03F9	; 0x8003f9 <serialWritePos+0x1>
    2cb6:	82 17       	cp	r24, r18
    2cb8:	93 07       	cpc	r25, r19
    2cba:	c1 f0       	breq	.+48     	; 0x2cec <__vector_27+0x60>
	{
		UDR0 = serial0Buffer[serialReadPos];
    2cbc:	fc 01       	movw	r30, r24
    2cbe:	e9 57       	subi	r30, 0x79	; 121
    2cc0:	f9 4f       	sbci	r31, 0xF9	; 249
    2cc2:	80 81       	ld	r24, Z
    2cc4:	80 93 c6 00 	sts	0x00C6, r24	; 0x8000c6 <__TEXT_REGION_LENGTH__+0x7000c6>
		serialReadPos++;
    2cc8:	80 91 fa 03 	lds	r24, 0x03FA	; 0x8003fa <serialReadPos>
    2ccc:	90 91 fb 03 	lds	r25, 0x03FB	; 0x8003fb <serialReadPos+0x1>
    2cd0:	01 96       	adiw	r24, 0x01	; 1

		if(serialReadPos >= TX_BUFFER_SIZE)
    2cd2:	80 38       	cpi	r24, 0x80	; 128
    2cd4:	21 e0       	ldi	r18, 0x01	; 1
    2cd6:	92 07       	cpc	r25, r18
    2cd8:	2c f4       	brge	.+10     	; 0x2ce4 <__vector_27+0x58>
ISR (USART0_TX_vect)
{
	if(serialReadPos != serialWritePos)
	{
		UDR0 = serial0Buffer[serialReadPos];
		serialReadPos++;
    2cda:	90 93 fb 03 	sts	0x03FB, r25	; 0x8003fb <serialReadPos+0x1>
    2cde:	80 93 fa 03 	sts	0x03FA, r24	; 0x8003fa <serialReadPos>
    2ce2:	04 c0       	rjmp	.+8      	; 0x2cec <__vector_27+0x60>

		if(serialReadPos >= TX_BUFFER_SIZE)
		{
			serialReadPos=0; //this seems wrong, I think we should be setting this to 0.
    2ce4:	10 92 fb 03 	sts	0x03FB, r1	; 0x8003fb <serialReadPos+0x1>
    2ce8:	10 92 fa 03 	sts	0x03FA, r1	; 0x8003fa <serialReadPos>
		}
	}
}
    2cec:	ff 91       	pop	r31
    2cee:	ef 91       	pop	r30
    2cf0:	9f 91       	pop	r25
    2cf2:	8f 91       	pop	r24
    2cf4:	3f 91       	pop	r19
    2cf6:	2f 91       	pop	r18
    2cf8:	0f 90       	pop	r0
    2cfa:	0b be       	out	0x3b, r0	; 59
    2cfc:	0f 90       	pop	r0
    2cfe:	0f be       	out	0x3f, r0	; 63
    2d00:	0f 90       	pop	r0
    2d02:	1f 90       	pop	r1
    2d04:	18 95       	reti

00002d06 <appendSerial0>:

void appendSerial0(unsigned char c)
{
	serial0Buffer[serialWritePos] = c;
    2d06:	20 91 f8 03 	lds	r18, 0x03F8	; 0x8003f8 <serialWritePos>
    2d0a:	30 91 f9 03 	lds	r19, 0x03F9	; 0x8003f9 <serialWritePos+0x1>
    2d0e:	f9 01       	movw	r30, r18
    2d10:	e9 57       	subi	r30, 0x79	; 121
    2d12:	f9 4f       	sbci	r31, 0xF9	; 249
    2d14:	80 83       	st	Z, r24
	serialWritePos++;
    2d16:	2f 5f       	subi	r18, 0xFF	; 255
    2d18:	3f 4f       	sbci	r19, 0xFF	; 255
	if(serialWritePos >= TX_BUFFER_SIZE)
    2d1a:	20 38       	cpi	r18, 0x80	; 128
    2d1c:	81 e0       	ldi	r24, 0x01	; 1
    2d1e:	38 07       	cpc	r19, r24
    2d20:	2c f4       	brge	.+10     	; 0x2d2c <appendSerial0+0x26>
}

void appendSerial0(unsigned char c)
{
	serial0Buffer[serialWritePos] = c;
	serialWritePos++;
    2d22:	30 93 f9 03 	sts	0x03F9, r19	; 0x8003f9 <serialWritePos+0x1>
    2d26:	20 93 f8 03 	sts	0x03F8, r18	; 0x8003f8 <serialWritePos>
    2d2a:	08 95       	ret
	if(serialWritePos >= TX_BUFFER_SIZE)
	{
		serialWritePos = 0;
    2d2c:	10 92 f9 03 	sts	0x03F9, r1	; 0x8003f9 <serialWritePos+0x1>
    2d30:	10 92 f8 03 	sts	0x03F8, r1	; 0x8003f8 <serialWritePos>
    2d34:	08 95       	ret

00002d36 <serialWrite0>:
	}
}

void serialWrite0(unsigned char c[], uint8_t messageLength)
{
    2d36:	0f 93       	push	r16
    2d38:	1f 93       	push	r17
    2d3a:	cf 93       	push	r28
    2d3c:	df 93       	push	r29
	for (uint8_t i = 0; i<messageLength; i++) //this may need to be 11
    2d3e:	66 23       	and	r22, r22
    2d40:	69 f0       	breq	.+26     	; 0x2d5c <serialWrite0+0x26>
    2d42:	ec 01       	movw	r28, r24
    2d44:	61 50       	subi	r22, 0x01	; 1
    2d46:	06 2f       	mov	r16, r22
    2d48:	10 e0       	ldi	r17, 0x00	; 0
    2d4a:	0f 5f       	subi	r16, 0xFF	; 255
    2d4c:	1f 4f       	sbci	r17, 0xFF	; 255
    2d4e:	08 0f       	add	r16, r24
    2d50:	19 1f       	adc	r17, r25
	{
		appendSerial0(c[i]);
    2d52:	89 91       	ld	r24, Y+
    2d54:	d8 df       	rcall	.-80     	; 0x2d06 <appendSerial0>
	}
}

void serialWrite0(unsigned char c[], uint8_t messageLength)
{
	for (uint8_t i = 0; i<messageLength; i++) //this may need to be 11
    2d56:	c0 17       	cp	r28, r16
    2d58:	d1 07       	cpc	r29, r17
    2d5a:	d9 f7       	brne	.-10     	; 0x2d52 <serialWrite0+0x1c>
	{
		appendSerial0(c[i]);

	}

	if(UCSR0A & (1 << UDRE0))
    2d5c:	80 91 c0 00 	lds	r24, 0x00C0	; 0x8000c0 <__TEXT_REGION_LENGTH__+0x7000c0>
    2d60:	85 fd       	sbrc	r24, 5
	{
		UDR0 = 0;
    2d62:	10 92 c6 00 	sts	0x00C6, r1	; 0x8000c6 <__TEXT_REGION_LENGTH__+0x7000c6>
	}
}
    2d66:	df 91       	pop	r29
    2d68:	cf 91       	pop	r28
    2d6a:	1f 91       	pop	r17
    2d6c:	0f 91       	pop	r16
    2d6e:	08 95       	ret

00002d70 <serialInit0>:

void serialInit0()
{
UBRR0H = (BRCTsunami >> 8);
    2d70:	10 92 c5 00 	sts	0x00C5, r1	; 0x8000c5 <__TEXT_REGION_LENGTH__+0x7000c5>
UBRR0L = BRCTsunami;
    2d74:	80 e1       	ldi	r24, 0x10	; 16
    2d76:	80 93 c4 00 	sts	0x00C4, r24	; 0x8000c4 <__TEXT_REGION_LENGTH__+0x7000c4>


UCSR0B = (1 << TXEN0)  | (1 << TXCIE0);
    2d7a:	88 e4       	ldi	r24, 0x48	; 72
    2d7c:	80 93 c1 00 	sts	0x00C1, r24	; 0x8000c1 <__TEXT_REGION_LENGTH__+0x7000c1>
UCSR0C = (1 << UCSZ01) | (1 << UCSZ00); //8 bit chars will be sent
    2d80:	86 e0       	ldi	r24, 0x06	; 6
    2d82:	80 93 c2 00 	sts	0x00C2, r24	; 0x8000c2 <__TEXT_REGION_LENGTH__+0x7000c2>
    2d86:	08 95       	ret

00002d88 <trackControl>:
		//this should be fine for now though. 
			//set track volume
			setTrackVolume(currentPattern->trackSampleLSB[i], currentPattern->trackSampleMSB[i], currentPattern->trackMainVolumeLSB[i], currentPattern->trackMainVolumeMSB[i]);
	}
	
}
    2d88:	cf 93       	push	r28
    2d8a:	df 93       	push	r29
    2d8c:	cd b7       	in	r28, 0x3d	; 61
    2d8e:	de b7       	in	r29, 0x3e	; 62
    2d90:	2a 97       	sbiw	r28, 0x0a	; 10
    2d92:	0f b6       	in	r0, 0x3f	; 63
    2d94:	f8 94       	cli
    2d96:	de bf       	out	0x3e, r29	; 62
    2d98:	0f be       	out	0x3f, r0	; 63
    2d9a:	cd bf       	out	0x3d, r28	; 61
    2d9c:	90 ef       	ldi	r25, 0xF0	; 240
    2d9e:	99 83       	std	Y+1, r25	; 0x01
    2da0:	9a ea       	ldi	r25, 0xAA	; 170
    2da2:	9a 83       	std	Y+2, r25	; 0x02
    2da4:	9a e0       	ldi	r25, 0x0A	; 10
    2da6:	9b 83       	std	Y+3, r25	; 0x03
    2da8:	93 e0       	ldi	r25, 0x03	; 3
    2daa:	9c 83       	std	Y+4, r25	; 0x04
    2dac:	2d 83       	std	Y+5, r18	; 0x05
    2dae:	8e 83       	std	Y+6, r24	; 0x06
    2db0:	6f 83       	std	Y+7, r22	; 0x07
    2db2:	48 87       	std	Y+8, r20	; 0x08
    2db4:	19 86       	std	Y+9, r1	; 0x09
    2db6:	85 e5       	ldi	r24, 0x55	; 85
    2db8:	8a 87       	std	Y+10, r24	; 0x0a
    2dba:	6a e0       	ldi	r22, 0x0A	; 10
    2dbc:	ce 01       	movw	r24, r28
    2dbe:	01 96       	adiw	r24, 0x01	; 1
    2dc0:	ba df       	rcall	.-140    	; 0x2d36 <serialWrite0>
    2dc2:	2a 96       	adiw	r28, 0x0a	; 10
    2dc4:	0f b6       	in	r0, 0x3f	; 63
    2dc6:	f8 94       	cli
    2dc8:	de bf       	out	0x3e, r29	; 62
    2dca:	0f be       	out	0x3f, r0	; 63
    2dcc:	cd bf       	out	0x3d, r28	; 61
    2dce:	df 91       	pop	r29
    2dd0:	cf 91       	pop	r28
    2dd2:	08 95       	ret

00002dd4 <setOutputVolume>:
    2dd4:	cf 93       	push	r28
    2dd6:	df 93       	push	r29
    2dd8:	cd b7       	in	r28, 0x3d	; 61
    2dda:	de b7       	in	r29, 0x3e	; 62
    2ddc:	28 97       	sbiw	r28, 0x08	; 8
    2dde:	0f b6       	in	r0, 0x3f	; 63
    2de0:	f8 94       	cli
    2de2:	de bf       	out	0x3e, r29	; 62
    2de4:	0f be       	out	0x3f, r0	; 63
    2de6:	cd bf       	out	0x3d, r28	; 61
    2de8:	90 ef       	ldi	r25, 0xF0	; 240
    2dea:	99 83       	std	Y+1, r25	; 0x01
    2dec:	9a ea       	ldi	r25, 0xAA	; 170
    2dee:	9a 83       	std	Y+2, r25	; 0x02
    2df0:	98 e0       	ldi	r25, 0x08	; 8
    2df2:	9b 83       	std	Y+3, r25	; 0x03
    2df4:	95 e0       	ldi	r25, 0x05	; 5
    2df6:	9c 83       	std	Y+4, r25	; 0x04
    2df8:	4d 83       	std	Y+5, r20	; 0x05
    2dfa:	8e 83       	std	Y+6, r24	; 0x06
    2dfc:	6f 83       	std	Y+7, r22	; 0x07
    2dfe:	85 e5       	ldi	r24, 0x55	; 85
    2e00:	88 87       	std	Y+8, r24	; 0x08
    2e02:	68 e0       	ldi	r22, 0x08	; 8
    2e04:	ce 01       	movw	r24, r28
    2e06:	01 96       	adiw	r24, 0x01	; 1
    2e08:	96 df       	rcall	.-212    	; 0x2d36 <serialWrite0>
    2e0a:	28 96       	adiw	r28, 0x08	; 8
    2e0c:	0f b6       	in	r0, 0x3f	; 63
    2e0e:	f8 94       	cli
    2e10:	de bf       	out	0x3e, r29	; 62
    2e12:	0f be       	out	0x3f, r0	; 63
    2e14:	cd bf       	out	0x3d, r28	; 61
    2e16:	df 91       	pop	r29
    2e18:	cf 91       	pop	r28
    2e1a:	08 95       	ret

00002e1c <setTrackVolume>:
    2e1c:	cf 93       	push	r28
    2e1e:	df 93       	push	r29
    2e20:	cd b7       	in	r28, 0x3d	; 61
    2e22:	de b7       	in	r29, 0x3e	; 62
    2e24:	29 97       	sbiw	r28, 0x09	; 9
    2e26:	0f b6       	in	r0, 0x3f	; 63
    2e28:	f8 94       	cli
    2e2a:	de bf       	out	0x3e, r29	; 62
    2e2c:	0f be       	out	0x3f, r0	; 63
    2e2e:	cd bf       	out	0x3d, r28	; 61
    2e30:	90 ef       	ldi	r25, 0xF0	; 240
    2e32:	99 83       	std	Y+1, r25	; 0x01
    2e34:	9a ea       	ldi	r25, 0xAA	; 170
    2e36:	9a 83       	std	Y+2, r25	; 0x02
    2e38:	99 e0       	ldi	r25, 0x09	; 9
    2e3a:	9b 83       	std	Y+3, r25	; 0x03
    2e3c:	98 e0       	ldi	r25, 0x08	; 8
    2e3e:	9c 83       	std	Y+4, r25	; 0x04
    2e40:	8d 83       	std	Y+5, r24	; 0x05
    2e42:	6e 83       	std	Y+6, r22	; 0x06
    2e44:	4f 83       	std	Y+7, r20	; 0x07
    2e46:	28 87       	std	Y+8, r18	; 0x08
    2e48:	85 e5       	ldi	r24, 0x55	; 85
    2e4a:	89 87       	std	Y+9, r24	; 0x09
    2e4c:	69 e0       	ldi	r22, 0x09	; 9
    2e4e:	ce 01       	movw	r24, r28
    2e50:	01 96       	adiw	r24, 0x01	; 1
    2e52:	71 df       	rcall	.-286    	; 0x2d36 <serialWrite0>
    2e54:	29 96       	adiw	r28, 0x09	; 9
    2e56:	0f b6       	in	r0, 0x3f	; 63
    2e58:	f8 94       	cli
    2e5a:	de bf       	out	0x3e, r29	; 62
    2e5c:	0f be       	out	0x3f, r0	; 63
    2e5e:	cd bf       	out	0x3d, r28	; 61
    2e60:	df 91       	pop	r29
    2e62:	cf 91       	pop	r28
    2e64:	08 95       	ret

00002e66 <setTrackFade>:
    2e66:	cf 92       	push	r12
    2e68:	ef 92       	push	r14
    2e6a:	0f 93       	push	r16
    2e6c:	cf 93       	push	r28
    2e6e:	df 93       	push	r29
    2e70:	cd b7       	in	r28, 0x3d	; 61
    2e72:	de b7       	in	r29, 0x3e	; 62
    2e74:	2c 97       	sbiw	r28, 0x0c	; 12
    2e76:	0f b6       	in	r0, 0x3f	; 63
    2e78:	f8 94       	cli
    2e7a:	de bf       	out	0x3e, r29	; 62
    2e7c:	0f be       	out	0x3f, r0	; 63
    2e7e:	cd bf       	out	0x3d, r28	; 61
    2e80:	90 ef       	ldi	r25, 0xF0	; 240
    2e82:	99 83       	std	Y+1, r25	; 0x01
    2e84:	9a ea       	ldi	r25, 0xAA	; 170
    2e86:	9a 83       	std	Y+2, r25	; 0x02
    2e88:	9c e0       	ldi	r25, 0x0C	; 12
    2e8a:	9b 83       	std	Y+3, r25	; 0x03
    2e8c:	9a e0       	ldi	r25, 0x0A	; 10
    2e8e:	9c 83       	std	Y+4, r25	; 0x04
    2e90:	8d 83       	std	Y+5, r24	; 0x05
    2e92:	6e 83       	std	Y+6, r22	; 0x06
    2e94:	4f 83       	std	Y+7, r20	; 0x07
    2e96:	28 87       	std	Y+8, r18	; 0x08
    2e98:	09 87       	std	Y+9, r16	; 0x09
    2e9a:	ea 86       	std	Y+10, r14	; 0x0a
    2e9c:	cb 86       	std	Y+11, r12	; 0x0b
    2e9e:	85 e5       	ldi	r24, 0x55	; 85
    2ea0:	8c 87       	std	Y+12, r24	; 0x0c
    2ea2:	6c e0       	ldi	r22, 0x0C	; 12
    2ea4:	ce 01       	movw	r24, r28
    2ea6:	01 96       	adiw	r24, 0x01	; 1
    2ea8:	46 df       	rcall	.-372    	; 0x2d36 <serialWrite0>
    2eaa:	2c 96       	adiw	r28, 0x0c	; 12
    2eac:	0f b6       	in	r0, 0x3f	; 63
    2eae:	f8 94       	cli
    2eb0:	de bf       	out	0x3e, r29	; 62
    2eb2:	0f be       	out	0x3f, r0	; 63
    2eb4:	cd bf       	out	0x3d, r28	; 61
    2eb6:	df 91       	pop	r29
    2eb8:	cf 91       	pop	r28
    2eba:	0f 91       	pop	r16
    2ebc:	ef 90       	pop	r14
    2ebe:	cf 90       	pop	r12
    2ec0:	08 95       	ret

00002ec2 <outputSampleRate>:
    2ec2:	cf 93       	push	r28
    2ec4:	df 93       	push	r29
    2ec6:	cd b7       	in	r28, 0x3d	; 61
    2ec8:	de b7       	in	r29, 0x3e	; 62
    2eca:	28 97       	sbiw	r28, 0x08	; 8
    2ecc:	0f b6       	in	r0, 0x3f	; 63
    2ece:	f8 94       	cli
    2ed0:	de bf       	out	0x3e, r29	; 62
    2ed2:	0f be       	out	0x3f, r0	; 63
    2ed4:	cd bf       	out	0x3d, r28	; 61
    2ed6:	90 ef       	ldi	r25, 0xF0	; 240
    2ed8:	99 83       	std	Y+1, r25	; 0x01
    2eda:	9a ea       	ldi	r25, 0xAA	; 170
    2edc:	9a 83       	std	Y+2, r25	; 0x02
    2ede:	98 e0       	ldi	r25, 0x08	; 8
    2ee0:	9b 83       	std	Y+3, r25	; 0x03
    2ee2:	9c e0       	ldi	r25, 0x0C	; 12
    2ee4:	9c 83       	std	Y+4, r25	; 0x04
    2ee6:	8d 83       	std	Y+5, r24	; 0x05
    2ee8:	6e 83       	std	Y+6, r22	; 0x06
    2eea:	4f 83       	std	Y+7, r20	; 0x07
    2eec:	85 e5       	ldi	r24, 0x55	; 85
    2eee:	88 87       	std	Y+8, r24	; 0x08
    2ef0:	68 e0       	ldi	r22, 0x08	; 8
    2ef2:	ce 01       	movw	r24, r28
    2ef4:	01 96       	adiw	r24, 0x01	; 1
    2ef6:	1f df       	rcall	.-450    	; 0x2d36 <serialWrite0>
    2ef8:	28 96       	adiw	r28, 0x08	; 8
    2efa:	0f b6       	in	r0, 0x3f	; 63
    2efc:	f8 94       	cli
    2efe:	de bf       	out	0x3e, r29	; 62
    2f00:	0f be       	out	0x3f, r0	; 63
    2f02:	cd bf       	out	0x3d, r28	; 61
    2f04:	df 91       	pop	r29
    2f06:	cf 91       	pop	r28
    2f08:	08 95       	ret

00002f0a <playTrack>:
    2f0a:	2f 92       	push	r2
    2f0c:	3f 92       	push	r3
    2f0e:	4f 92       	push	r4
    2f10:	5f 92       	push	r5
    2f12:	6f 92       	push	r6
    2f14:	7f 92       	push	r7
    2f16:	8f 92       	push	r8
    2f18:	9f 92       	push	r9
    2f1a:	af 92       	push	r10
    2f1c:	bf 92       	push	r11
    2f1e:	cf 92       	push	r12
    2f20:	ef 92       	push	r14
    2f22:	0f 93       	push	r16
    2f24:	1f 93       	push	r17
    2f26:	cf 93       	push	r28
    2f28:	df 93       	push	r29
    2f2a:	00 d0       	rcall	.+0      	; 0x2f2c <playTrack+0x22>
    2f2c:	1f 92       	push	r1
    2f2e:	cd b7       	in	r28, 0x3d	; 61
    2f30:	de b7       	in	r29, 0x3e	; 62
    2f32:	4b 01       	movw	r8, r22
    2f34:	14 2f       	mov	r17, r20
    2f36:	a4 2e       	mov	r10, r20
    2f38:	b1 2c       	mov	r11, r1
    2f3a:	fc 01       	movw	r30, r24
    2f3c:	ea 0d       	add	r30, r10
    2f3e:	fb 1d       	adc	r31, r11
    2f40:	e5 51       	subi	r30, 0x15	; 21
    2f42:	ff 4f       	sbci	r31, 0xFF	; 255
    2f44:	20 81       	ld	r18, Z
    2f46:	21 30       	cpi	r18, 0x01	; 1
    2f48:	09 f4       	brne	.+2      	; 0x2f4c <playTrack+0x42>
    2f4a:	8c c0       	rjmp	.+280    	; 0x3064 <playTrack+0x15a>
    2f4c:	38 f0       	brcs	.+14     	; 0x2f5c <playTrack+0x52>
    2f4e:	22 30       	cpi	r18, 0x02	; 2
    2f50:	09 f4       	brne	.+2      	; 0x2f54 <playTrack+0x4a>
    2f52:	df c0       	rjmp	.+446    	; 0x3112 <playTrack+0x208>
    2f54:	23 30       	cpi	r18, 0x03	; 3
    2f56:	09 f4       	brne	.+2      	; 0x2f5a <playTrack+0x50>
    2f58:	0c c1       	rjmp	.+536    	; 0x3172 <playTrack+0x268>
    2f5a:	1f c1       	rjmp	.+574    	; 0x319a <playTrack+0x290>
    2f5c:	9c 01       	movw	r18, r24
    2f5e:	2a 0d       	add	r18, r10
    2f60:	3b 1d       	adc	r19, r11
    2f62:	3c 83       	std	Y+4, r19	; 0x04
    2f64:	2b 83       	std	Y+3, r18	; 0x03
    2f66:	f9 01       	movw	r30, r18
    2f68:	e8 57       	subi	r30, 0x78	; 120
    2f6a:	ff 4f       	sbci	r31, 0xFF	; 255
    2f6c:	29 01       	movw	r4, r18
    2f6e:	38 e9       	ldi	r19, 0x98	; 152
    2f70:	43 0e       	add	r4, r19
    2f72:	51 1c       	adc	r5, r1
    2f74:	6b 80       	ldd	r6, Y+3	; 0x03
    2f76:	7c 80       	ldd	r7, Y+4	; 0x04
    2f78:	88 ea       	ldi	r24, 0xA8	; 168
    2f7a:	68 0e       	add	r6, r24
    2f7c:	71 1c       	adc	r7, r1
    2f7e:	20 81       	ld	r18, Z
    2f80:	ab 81       	ldd	r26, Y+3	; 0x03
    2f82:	bc 81       	ldd	r27, Y+4	; 0x04
    2f84:	58 96       	adiw	r26, 0x18	; 24
    2f86:	4c 91       	ld	r20, X
    2f88:	f2 01       	movw	r30, r4
    2f8a:	60 81       	ld	r22, Z
    2f8c:	d3 01       	movw	r26, r6
    2f8e:	8c 91       	ld	r24, X
    2f90:	fb de       	rcall	.-522    	; 0x2d88 <trackControl>
    2f92:	2b 80       	ldd	r2, Y+3	; 0x03
    2f94:	3c 80       	ldd	r3, Y+4	; 0x04
    2f96:	b8 e4       	ldi	r27, 0x48	; 72
    2f98:	2b 0e       	add	r2, r27
    2f9a:	31 1c       	adc	r3, r1
    2f9c:	eb 81       	ldd	r30, Y+3	; 0x03
    2f9e:	fc 81       	ldd	r31, Y+4	; 0x04
    2fa0:	e8 5a       	subi	r30, 0xA8	; 168
    2fa2:	ff 4f       	sbci	r31, 0xFF	; 255
    2fa4:	fa 83       	std	Y+2, r31	; 0x02
    2fa6:	e9 83       	std	Y+1, r30	; 0x01
    2fa8:	c1 2c       	mov	r12, r1
    2faa:	d1 01       	movw	r26, r2
    2fac:	ec 90       	ld	r14, X
    2fae:	00 81       	ld	r16, Z
    2fb0:	eb 81       	ldd	r30, Y+3	; 0x03
    2fb2:	fc 81       	ldd	r31, Y+4	; 0x04
    2fb4:	20 a5       	ldd	r18, Z+40	; 0x28
    2fb6:	40 ad       	ldd	r20, Z+56	; 0x38
    2fb8:	d2 01       	movw	r26, r4
    2fba:	6c 91       	ld	r22, X
    2fbc:	f3 01       	movw	r30, r6
    2fbe:	80 81       	ld	r24, Z
    2fc0:	52 df       	rcall	.-348    	; 0x2e66 <setTrackFade>
    2fc2:	f4 01       	movw	r30, r8
    2fc4:	eb 55       	subi	r30, 0x5B	; 91
    2fc6:	ff 4f       	sbci	r31, 0xFF	; 255
    2fc8:	81 e0       	ldi	r24, 0x01	; 1
    2fca:	90 e0       	ldi	r25, 0x00	; 0
    2fcc:	02 c0       	rjmp	.+4      	; 0x2fd2 <playTrack+0xc8>
    2fce:	88 0f       	add	r24, r24
    2fd0:	99 1f       	adc	r25, r25
    2fd2:	1a 95       	dec	r17
    2fd4:	e2 f7       	brpl	.-8      	; 0x2fce <playTrack+0xc4>
    2fd6:	20 81       	ld	r18, Z
    2fd8:	31 81       	ldd	r19, Z+1	; 0x01
    2fda:	82 2b       	or	r24, r18
    2fdc:	93 2b       	or	r25, r19
    2fde:	91 83       	std	Z+1, r25	; 0x01
    2fe0:	80 83       	st	Z, r24
    2fe2:	f5 01       	movw	r30, r10
    2fe4:	ee 0f       	add	r30, r30
    2fe6:	ff 1f       	adc	r31, r31
    2fe8:	ee 0f       	add	r30, r30
    2fea:	ff 1f       	adc	r31, r31
    2fec:	e8 0d       	add	r30, r8
    2fee:	f9 1d       	adc	r31, r9
    2ff0:	e9 55       	subi	r30, 0x59	; 89
    2ff2:	ff 4f       	sbci	r31, 0xFF	; 255
    2ff4:	ab 81       	ldd	r26, Y+3	; 0x03
    2ff6:	bc 81       	ldd	r27, Y+4	; 0x04
    2ff8:	a5 53       	subi	r26, 0x35	; 53
    2ffa:	bf 4f       	sbci	r27, 0xFF	; 255
    2ffc:	2c 91       	ld	r18, X
    2ffe:	30 e0       	ldi	r19, 0x00	; 0
    3000:	32 2f       	mov	r19, r18
    3002:	22 27       	eor	r18, r18
    3004:	8b 81       	ldd	r24, Y+3	; 0x03
    3006:	9c 81       	ldd	r25, Y+4	; 0x04
    3008:	85 52       	subi	r24, 0x25	; 37
    300a:	9f 4f       	sbci	r25, 0xFF	; 255
    300c:	dc 01       	movw	r26, r24
    300e:	8c 91       	ld	r24, X
    3010:	a9 01       	movw	r20, r18
    3012:	48 2b       	or	r20, r24
    3014:	d1 01       	movw	r26, r2
    3016:	8c 91       	ld	r24, X
    3018:	28 2f       	mov	r18, r24
    301a:	30 e0       	ldi	r19, 0x00	; 0
    301c:	32 2f       	mov	r19, r18
    301e:	22 27       	eor	r18, r18
    3020:	a9 81       	ldd	r26, Y+1	; 0x01
    3022:	ba 81       	ldd	r27, Y+2	; 0x02
    3024:	8c 91       	ld	r24, X
    3026:	28 2b       	or	r18, r24
    3028:	24 0f       	add	r18, r20
    302a:	35 1f       	adc	r19, r21
    302c:	c9 01       	movw	r24, r18
    302e:	88 0f       	add	r24, r24
    3030:	99 1f       	adc	r25, r25
    3032:	22 0f       	add	r18, r18
    3034:	33 1f       	adc	r19, r19
    3036:	22 0f       	add	r18, r18
    3038:	33 1f       	adc	r19, r19
    303a:	22 0f       	add	r18, r18
    303c:	33 1f       	adc	r19, r19
    303e:	28 0f       	add	r18, r24
    3040:	39 1f       	adc	r19, r25
    3042:	d4 01       	movw	r26, r8
    3044:	af 55       	subi	r26, 0x5F	; 95
    3046:	bf 4f       	sbci	r27, 0xFF	; 255
    3048:	8d 91       	ld	r24, X+
    304a:	9d 91       	ld	r25, X+
    304c:	0d 90       	ld	r0, X+
    304e:	bc 91       	ld	r27, X
    3050:	a0 2d       	mov	r26, r0
    3052:	82 0f       	add	r24, r18
    3054:	93 1f       	adc	r25, r19
    3056:	a1 1d       	adc	r26, r1
    3058:	b1 1d       	adc	r27, r1
    305a:	80 83       	st	Z, r24
    305c:	91 83       	std	Z+1, r25	; 0x01
    305e:	a2 83       	std	Z+2, r26	; 0x02
    3060:	b3 83       	std	Z+3, r27	; 0x03
    3062:	9b c0       	rjmp	.+310    	; 0x319a <playTrack+0x290>
    3064:	3c 01       	movw	r6, r24
    3066:	6a 0c       	add	r6, r10
    3068:	7b 1c       	adc	r7, r11
    306a:	c3 01       	movw	r24, r6
    306c:	88 57       	subi	r24, 0x78	; 120
    306e:	9f 4f       	sbci	r25, 0xFF	; 255
    3070:	d3 01       	movw	r26, r6
    3072:	a8 56       	subi	r26, 0x68	; 104
    3074:	bf 4f       	sbci	r27, 0xFF	; 255
    3076:	23 01       	movw	r4, r6
    3078:	e8 ea       	ldi	r30, 0xA8	; 168
    307a:	4e 0e       	add	r4, r30
    307c:	51 1c       	adc	r5, r1
    307e:	fc 01       	movw	r30, r24
    3080:	20 81       	ld	r18, Z
    3082:	f3 01       	movw	r30, r6
    3084:	40 8d       	ldd	r20, Z+24	; 0x18
    3086:	6c 91       	ld	r22, X
    3088:	d2 01       	movw	r26, r4
    308a:	8c 91       	ld	r24, X
    308c:	7d de       	rcall	.-774    	; 0x2d88 <trackControl>
    308e:	f4 01       	movw	r30, r8
    3090:	eb 55       	subi	r30, 0x5B	; 91
    3092:	ff 4f       	sbci	r31, 0xFF	; 255
    3094:	81 e0       	ldi	r24, 0x01	; 1
    3096:	90 e0       	ldi	r25, 0x00	; 0
    3098:	02 c0       	rjmp	.+4      	; 0x309e <playTrack+0x194>
    309a:	88 0f       	add	r24, r24
    309c:	99 1f       	adc	r25, r25
    309e:	1a 95       	dec	r17
    30a0:	e2 f7       	brpl	.-8      	; 0x309a <playTrack+0x190>
    30a2:	20 81       	ld	r18, Z
    30a4:	31 81       	ldd	r19, Z+1	; 0x01
    30a6:	82 2b       	or	r24, r18
    30a8:	93 2b       	or	r25, r19
    30aa:	91 83       	std	Z+1, r25	; 0x01
    30ac:	80 83       	st	Z, r24
    30ae:	f5 01       	movw	r30, r10
    30b0:	ee 0f       	add	r30, r30
    30b2:	ff 1f       	adc	r31, r31
    30b4:	ee 0f       	add	r30, r30
    30b6:	ff 1f       	adc	r31, r31
    30b8:	e8 0d       	add	r30, r8
    30ba:	f9 1d       	adc	r31, r9
    30bc:	e9 55       	subi	r30, 0x59	; 89
    30be:	ff 4f       	sbci	r31, 0xFF	; 255
    30c0:	d3 01       	movw	r26, r6
    30c2:	a5 53       	subi	r26, 0x35	; 53
    30c4:	bf 4f       	sbci	r27, 0xFF	; 255
    30c6:	2c 91       	ld	r18, X
    30c8:	30 e0       	ldi	r19, 0x00	; 0
    30ca:	32 2f       	mov	r19, r18
    30cc:	22 27       	eor	r18, r18
    30ce:	c3 01       	movw	r24, r6
    30d0:	85 52       	subi	r24, 0x25	; 37
    30d2:	9f 4f       	sbci	r25, 0xFF	; 255
    30d4:	dc 01       	movw	r26, r24
    30d6:	8c 91       	ld	r24, X
    30d8:	28 2b       	or	r18, r24
    30da:	c9 01       	movw	r24, r18
    30dc:	88 0f       	add	r24, r24
    30de:	99 1f       	adc	r25, r25
    30e0:	22 0f       	add	r18, r18
    30e2:	33 1f       	adc	r19, r19
    30e4:	22 0f       	add	r18, r18
    30e6:	33 1f       	adc	r19, r19
    30e8:	22 0f       	add	r18, r18
    30ea:	33 1f       	adc	r19, r19
    30ec:	28 0f       	add	r18, r24
    30ee:	39 1f       	adc	r19, r25
    30f0:	d4 01       	movw	r26, r8
    30f2:	af 55       	subi	r26, 0x5F	; 95
    30f4:	bf 4f       	sbci	r27, 0xFF	; 255
    30f6:	8d 91       	ld	r24, X+
    30f8:	9d 91       	ld	r25, X+
    30fa:	0d 90       	ld	r0, X+
    30fc:	bc 91       	ld	r27, X
    30fe:	a0 2d       	mov	r26, r0
    3100:	82 0f       	add	r24, r18
    3102:	93 1f       	adc	r25, r19
    3104:	a1 1d       	adc	r26, r1
    3106:	b1 1d       	adc	r27, r1
    3108:	80 83       	st	Z, r24
    310a:	91 83       	std	Z+1, r25	; 0x01
    310c:	a2 83       	std	Z+2, r26	; 0x02
    310e:	b3 83       	std	Z+3, r27	; 0x03
    3110:	44 c0       	rjmp	.+136    	; 0x319a <playTrack+0x290>
    3112:	fc 01       	movw	r30, r24
    3114:	ea 0d       	add	r30, r10
    3116:	fb 1d       	adc	r31, r11
    3118:	fa 83       	std	Y+2, r31	; 0x02
    311a:	e9 83       	std	Y+1, r30	; 0x01
    311c:	e8 57       	subi	r30, 0x78	; 120
    311e:	ff 4f       	sbci	r31, 0xFF	; 255
    3120:	89 80       	ldd	r8, Y+1	; 0x01
    3122:	9a 80       	ldd	r9, Y+2	; 0x02
    3124:	28 e9       	ldi	r18, 0x98	; 152
    3126:	82 0e       	add	r8, r18
    3128:	91 1c       	adc	r9, r1
    312a:	a9 80       	ldd	r10, Y+1	; 0x01
    312c:	ba 80       	ldd	r11, Y+2	; 0x02
    312e:	38 ea       	ldi	r19, 0xA8	; 168
    3130:	a3 0e       	add	r10, r19
    3132:	b1 1c       	adc	r11, r1
    3134:	20 81       	ld	r18, Z
    3136:	a9 81       	ldd	r26, Y+1	; 0x01
    3138:	ba 81       	ldd	r27, Y+2	; 0x02
    313a:	58 96       	adiw	r26, 0x18	; 24
    313c:	4c 91       	ld	r20, X
    313e:	f4 01       	movw	r30, r8
    3140:	60 81       	ld	r22, Z
    3142:	d5 01       	movw	r26, r10
    3144:	8c 91       	ld	r24, X
    3146:	20 de       	rcall	.-960    	; 0x2d88 <trackControl>
    3148:	a9 81       	ldd	r26, Y+1	; 0x01
    314a:	ba 81       	ldd	r27, Y+2	; 0x02
    314c:	a8 5b       	subi	r26, 0xB8	; 184
    314e:	bf 4f       	sbci	r27, 0xFF	; 255
    3150:	e9 81       	ldd	r30, Y+1	; 0x01
    3152:	fa 81       	ldd	r31, Y+2	; 0x02
    3154:	e8 5a       	subi	r30, 0xA8	; 168
    3156:	ff 4f       	sbci	r31, 0xFF	; 255
    3158:	c1 2c       	mov	r12, r1
    315a:	ec 90       	ld	r14, X
    315c:	00 81       	ld	r16, Z
    315e:	e9 81       	ldd	r30, Y+1	; 0x01
    3160:	fa 81       	ldd	r31, Y+2	; 0x02
    3162:	20 a5       	ldd	r18, Z+40	; 0x28
    3164:	40 ad       	ldd	r20, Z+56	; 0x38
    3166:	d4 01       	movw	r26, r8
    3168:	6c 91       	ld	r22, X
    316a:	f5 01       	movw	r30, r10
    316c:	80 81       	ld	r24, Z
    316e:	7b de       	rcall	.-778    	; 0x2e66 <setTrackFade>
    3170:	14 c0       	rjmp	.+40     	; 0x319a <playTrack+0x290>
    3172:	a8 0e       	add	r10, r24
    3174:	b9 1e       	adc	r11, r25
    3176:	c5 01       	movw	r24, r10
    3178:	88 57       	subi	r24, 0x78	; 120
    317a:	9f 4f       	sbci	r25, 0xFF	; 255
    317c:	d5 01       	movw	r26, r10
    317e:	a8 56       	subi	r26, 0x68	; 104
    3180:	bf 4f       	sbci	r27, 0xFF	; 255
    3182:	45 01       	movw	r8, r10
    3184:	f8 ea       	ldi	r31, 0xA8	; 168
    3186:	8f 0e       	add	r8, r31
    3188:	91 1c       	adc	r9, r1
    318a:	fc 01       	movw	r30, r24
    318c:	20 81       	ld	r18, Z
    318e:	f5 01       	movw	r30, r10
    3190:	40 8d       	ldd	r20, Z+24	; 0x18
    3192:	6c 91       	ld	r22, X
    3194:	d4 01       	movw	r26, r8
    3196:	8c 91       	ld	r24, X
    3198:	f7 dd       	rcall	.-1042   	; 0x2d88 <trackControl>
    319a:	0f 90       	pop	r0
    319c:	0f 90       	pop	r0
    319e:	0f 90       	pop	r0
    31a0:	0f 90       	pop	r0
    31a2:	df 91       	pop	r29
    31a4:	cf 91       	pop	r28
    31a6:	1f 91       	pop	r17
    31a8:	0f 91       	pop	r16
    31aa:	ef 90       	pop	r14
    31ac:	cf 90       	pop	r12
    31ae:	bf 90       	pop	r11
    31b0:	af 90       	pop	r10
    31b2:	9f 90       	pop	r9
    31b4:	8f 90       	pop	r8
    31b6:	7f 90       	pop	r7
    31b8:	6f 90       	pop	r6
    31ba:	5f 90       	pop	r5
    31bc:	4f 90       	pop	r4
    31be:	3f 90       	pop	r3
    31c0:	2f 90       	pop	r2
    31c2:	08 95       	ret

000031c4 <releaseUpdate>:

void releaseUpdate(Pattern *currentPattern, Globals *currentGlobals)
{
    31c4:	2f 92       	push	r2
    31c6:	3f 92       	push	r3
    31c8:	4f 92       	push	r4
    31ca:	5f 92       	push	r5
    31cc:	6f 92       	push	r6
    31ce:	7f 92       	push	r7
    31d0:	8f 92       	push	r8
    31d2:	9f 92       	push	r9
    31d4:	af 92       	push	r10
    31d6:	bf 92       	push	r11
    31d8:	cf 92       	push	r12
    31da:	ef 92       	push	r14
    31dc:	0f 93       	push	r16
    31de:	cf 93       	push	r28
    31e0:	df 93       	push	r29
    31e2:	00 d0       	rcall	.+0      	; 0x31e4 <releaseUpdate+0x20>
    31e4:	1f 92       	push	r1
    31e6:	cd b7       	in	r28, 0x3d	; 61
    31e8:	de b7       	in	r29, 0x3e	; 62
	uint16_t releaseTrackerParse = currentGlobals->releaseTracker;	
    31ea:	fb 01       	movw	r30, r22
    31ec:	eb 55       	subi	r30, 0x5B	; 91
    31ee:	ff 4f       	sbci	r31, 0xFF	; 255
    31f0:	a0 80       	ld	r10, Z
    31f2:	b1 80       	ldd	r11, Z+1	; 0x01
    31f4:	3b 01       	movw	r6, r22
    31f6:	27 ea       	ldi	r18, 0xA7	; 167
    31f8:	62 0e       	add	r6, r18
    31fa:	71 1c       	adc	r7, r1
    31fc:	88 59       	subi	r24, 0x98	; 152
    31fe:	9f 4f       	sbci	r25, 0xFF	; 255
    3200:	4c 01       	movw	r8, r24
	
	for(int i = 0; i<16; i++)
    3202:	1c 82       	std	Y+4, r1	; 0x04
    3204:	1b 82       	std	Y+3, r1	; 0x03
	{//check every track, if there is a 1 in release counter, we check math. 
		if(releaseTrackerParse&1) //if the first bit in the counter is a 1, we check for release times. 
		//we could role this into one if statement, but I'm not sure that would be more efficient. Here we're using the release tracker as sort of an initial buffer. 
		{
			if((currentGlobals->sustainCounterArray[i])<=(currentGlobals->releaseCounter))
    3206:	2b 01       	movw	r4, r22
    3208:	81 ea       	ldi	r24, 0xA1	; 161
    320a:	48 0e       	add	r4, r24
    320c:	51 1c       	adc	r5, r1
			{
				//we need to do the release state here.
				setTrackFade(currentPattern->trackSampleLSB[i],currentPattern->trackSampleMSB[i],186,255,currentPattern->trackReleaseTimeLSB[i],currentPattern->trackReleaseTimeMSB[i],1);
				currentGlobals->releaseTracker = currentGlobals->releaseTracker&(~(1<<i)); //turn off that track, so release stage does not play again. 
    320e:	fa 83       	std	Y+2, r31	; 0x02
    3210:	e9 83       	std	Y+1, r30	; 0x01
    3212:	22 24       	eor	r2, r2
    3214:	23 94       	inc	r2
    3216:	31 2c       	mov	r3, r1
{
	uint16_t releaseTrackerParse = currentGlobals->releaseTracker;	
	
	for(int i = 0; i<16; i++)
	{//check every track, if there is a 1 in release counter, we check math. 
		if(releaseTrackerParse&1) //if the first bit in the counter is a 1, we check for release times. 
    3218:	a0 fe       	sbrs	r10, 0
    321a:	2c c0       	rjmp	.+88     	; 0x3274 <releaseUpdate+0xb0>
		//we could role this into one if statement, but I'm not sure that would be more efficient. Here we're using the release tracker as sort of an initial buffer. 
		{
			if((currentGlobals->sustainCounterArray[i])<=(currentGlobals->releaseCounter))
    321c:	f3 01       	movw	r30, r6
    321e:	40 81       	ld	r20, Z
    3220:	51 81       	ldd	r21, Z+1	; 0x01
    3222:	62 81       	ldd	r22, Z+2	; 0x02
    3224:	73 81       	ldd	r23, Z+3	; 0x03
    3226:	f2 01       	movw	r30, r4
    3228:	80 81       	ld	r24, Z
    322a:	91 81       	ldd	r25, Z+1	; 0x01
    322c:	a2 81       	ldd	r26, Z+2	; 0x02
    322e:	b3 81       	ldd	r27, Z+3	; 0x03
    3230:	84 17       	cp	r24, r20
    3232:	95 07       	cpc	r25, r21
    3234:	a6 07       	cpc	r26, r22
    3236:	b7 07       	cpc	r27, r23
    3238:	e8 f0       	brcs	.+58     	; 0x3274 <releaseUpdate+0xb0>
			{
				//we need to do the release state here.
				setTrackFade(currentPattern->trackSampleLSB[i],currentPattern->trackSampleMSB[i],186,255,currentPattern->trackReleaseTimeLSB[i],currentPattern->trackReleaseTimeMSB[i],1);
    323a:	cc 24       	eor	r12, r12
    323c:	c3 94       	inc	r12
    323e:	f4 01       	movw	r30, r8
    3240:	e0 80       	ld	r14, Z
    3242:	00 89       	ldd	r16, Z+16	; 0x10
    3244:	2f ef       	ldi	r18, 0xFF	; 255
    3246:	4a eb       	ldi	r20, 0xBA	; 186
    3248:	60 a9       	ldd	r22, Z+48	; 0x30
    324a:	e0 5c       	subi	r30, 0xC0	; 192
    324c:	ff 4f       	sbci	r31, 0xFF	; 255
    324e:	80 81       	ld	r24, Z
    3250:	0a de       	rcall	.-1004   	; 0x2e66 <setTrackFade>
				currentGlobals->releaseTracker = currentGlobals->releaseTracker&(~(1<<i)); //turn off that track, so release stage does not play again. 
    3252:	c1 01       	movw	r24, r2
    3254:	0b 80       	ldd	r0, Y+3	; 0x03
    3256:	02 c0       	rjmp	.+4      	; 0x325c <releaseUpdate+0x98>
    3258:	88 0f       	add	r24, r24
    325a:	99 1f       	adc	r25, r25
    325c:	0a 94       	dec	r0
    325e:	e2 f7       	brpl	.-8      	; 0x3258 <releaseUpdate+0x94>
    3260:	80 95       	com	r24
    3262:	90 95       	com	r25
    3264:	e9 81       	ldd	r30, Y+1	; 0x01
    3266:	fa 81       	ldd	r31, Y+2	; 0x02
    3268:	20 81       	ld	r18, Z
    326a:	31 81       	ldd	r19, Z+1	; 0x01
    326c:	82 23       	and	r24, r18
    326e:	93 23       	and	r25, r19
    3270:	91 83       	std	Z+1, r25	; 0x01
    3272:	80 83       	st	Z, r24
			}
		}
		releaseTrackerParse = releaseTrackerParse>>1;
    3274:	b6 94       	lsr	r11
    3276:	a7 94       	ror	r10

void releaseUpdate(Pattern *currentPattern, Globals *currentGlobals)
{
	uint16_t releaseTrackerParse = currentGlobals->releaseTracker;	
	
	for(int i = 0; i<16; i++)
    3278:	8b 81       	ldd	r24, Y+3	; 0x03
    327a:	9c 81       	ldd	r25, Y+4	; 0x04
    327c:	01 96       	adiw	r24, 0x01	; 1
    327e:	9c 83       	std	Y+4, r25	; 0x04
    3280:	8b 83       	std	Y+3, r24	; 0x03
    3282:	94 e0       	ldi	r25, 0x04	; 4
    3284:	69 0e       	add	r6, r25
    3286:	71 1c       	adc	r7, r1
    3288:	ef ef       	ldi	r30, 0xFF	; 255
    328a:	8e 1a       	sub	r8, r30
    328c:	9e 0a       	sbc	r9, r30
    328e:	8b 81       	ldd	r24, Y+3	; 0x03
    3290:	9c 81       	ldd	r25, Y+4	; 0x04
    3292:	40 97       	sbiw	r24, 0x10	; 16
    3294:	09 f0       	breq	.+2      	; 0x3298 <releaseUpdate+0xd4>
    3296:	c0 cf       	rjmp	.-128    	; 0x3218 <releaseUpdate+0x54>
			}
		}
		releaseTrackerParse = releaseTrackerParse>>1;
	}
	
    3298:	0f 90       	pop	r0
    329a:	0f 90       	pop	r0
    329c:	0f 90       	pop	r0
    329e:	0f 90       	pop	r0
    32a0:	df 91       	pop	r29
    32a2:	cf 91       	pop	r28
    32a4:	0f 91       	pop	r16
    32a6:	ef 90       	pop	r14
    32a8:	cf 90       	pop	r12
    32aa:	bf 90       	pop	r11
    32ac:	af 90       	pop	r10
    32ae:	9f 90       	pop	r9
    32b0:	8f 90       	pop	r8
    32b2:	7f 90       	pop	r7
    32b4:	6f 90       	pop	r6
    32b6:	5f 90       	pop	r5
    32b8:	4f 90       	pop	r4
    32ba:	3f 90       	pop	r3
    32bc:	2f 90       	pop	r2
    32be:	08 95       	ret

000032c0 <twi_init>:
		}

		returnNum=twi_readNak();

	return returnNum;
}
    32c0:	10 92 b9 00 	sts	0x00B9, r1	; 0x8000b9 <__TEXT_REGION_LENGTH__+0x7000b9>
    32c4:	88 e4       	ldi	r24, 0x48	; 72
    32c6:	80 93 b8 00 	sts	0x00B8, r24	; 0x8000b8 <__TEXT_REGION_LENGTH__+0x7000b8>
    32ca:	08 95       	ret

000032cc <twi_start>:
    32cc:	94 ea       	ldi	r25, 0xA4	; 164
    32ce:	90 93 bc 00 	sts	0x00BC, r25	; 0x8000bc <__TEXT_REGION_LENGTH__+0x7000bc>
    32d2:	ec eb       	ldi	r30, 0xBC	; 188
    32d4:	f0 e0       	ldi	r31, 0x00	; 0
    32d6:	90 81       	ld	r25, Z
    32d8:	99 23       	and	r25, r25
    32da:	ec f7       	brge	.-6      	; 0x32d6 <twi_start+0xa>
    32dc:	90 91 b9 00 	lds	r25, 0x00B9	; 0x8000b9 <__TEXT_REGION_LENGTH__+0x7000b9>
    32e0:	98 7f       	andi	r25, 0xF8	; 248
    32e2:	98 30       	cpi	r25, 0x08	; 8
    32e4:	11 f0       	breq	.+4      	; 0x32ea <twi_start+0x1e>
    32e6:	90 31       	cpi	r25, 0x10	; 16
    32e8:	a1 f4       	brne	.+40     	; 0x3312 <twi_start+0x46>
    32ea:	80 93 bb 00 	sts	0x00BB, r24	; 0x8000bb <__TEXT_REGION_LENGTH__+0x7000bb>
    32ee:	84 e8       	ldi	r24, 0x84	; 132
    32f0:	80 93 bc 00 	sts	0x00BC, r24	; 0x8000bc <__TEXT_REGION_LENGTH__+0x7000bc>
    32f4:	ec eb       	ldi	r30, 0xBC	; 188
    32f6:	f0 e0       	ldi	r31, 0x00	; 0
    32f8:	80 81       	ld	r24, Z
    32fa:	88 23       	and	r24, r24
    32fc:	ec f7       	brge	.-6      	; 0x32f8 <twi_start+0x2c>
    32fe:	90 91 b9 00 	lds	r25, 0x00B9	; 0x8000b9 <__TEXT_REGION_LENGTH__+0x7000b9>
    3302:	98 7f       	andi	r25, 0xF8	; 248
    3304:	98 31       	cpi	r25, 0x18	; 24
    3306:	39 f0       	breq	.+14     	; 0x3316 <twi_start+0x4a>
    3308:	81 e0       	ldi	r24, 0x01	; 1
    330a:	90 34       	cpi	r25, 0x40	; 64
    330c:	29 f4       	brne	.+10     	; 0x3318 <twi_start+0x4c>
    330e:	80 e0       	ldi	r24, 0x00	; 0
    3310:	08 95       	ret
    3312:	81 e0       	ldi	r24, 0x01	; 1
    3314:	08 95       	ret
    3316:	80 e0       	ldi	r24, 0x00	; 0
    3318:	08 95       	ret

0000331a <twi_stop>:
    331a:	84 e9       	ldi	r24, 0x94	; 148
    331c:	80 93 bc 00 	sts	0x00BC, r24	; 0x8000bc <__TEXT_REGION_LENGTH__+0x7000bc>
    3320:	ec eb       	ldi	r30, 0xBC	; 188
    3322:	f0 e0       	ldi	r31, 0x00	; 0
    3324:	80 81       	ld	r24, Z
    3326:	84 fd       	sbrc	r24, 4
    3328:	fd cf       	rjmp	.-6      	; 0x3324 <twi_stop+0xa>
    332a:	08 95       	ret

0000332c <twi_write>:
    332c:	80 93 bb 00 	sts	0x00BB, r24	; 0x8000bb <__TEXT_REGION_LENGTH__+0x7000bb>
    3330:	84 e8       	ldi	r24, 0x84	; 132
    3332:	80 93 bc 00 	sts	0x00BC, r24	; 0x8000bc <__TEXT_REGION_LENGTH__+0x7000bc>
    3336:	ec eb       	ldi	r30, 0xBC	; 188
    3338:	f0 e0       	ldi	r31, 0x00	; 0
    333a:	80 81       	ld	r24, Z
    333c:	88 23       	and	r24, r24
    333e:	ec f7       	brge	.-6      	; 0x333a <twi_write+0xe>
    3340:	90 91 b9 00 	lds	r25, 0x00B9	; 0x8000b9 <__TEXT_REGION_LENGTH__+0x7000b9>
    3344:	98 7f       	andi	r25, 0xF8	; 248
    3346:	81 e0       	ldi	r24, 0x01	; 1
    3348:	98 32       	cpi	r25, 0x28	; 40
    334a:	09 f4       	brne	.+2      	; 0x334e <twi_write+0x22>
    334c:	80 e0       	ldi	r24, 0x00	; 0
    334e:	08 95       	ret

00003350 <twi_readAck>:
    3350:	84 ec       	ldi	r24, 0xC4	; 196
    3352:	80 93 bc 00 	sts	0x00BC, r24	; 0x8000bc <__TEXT_REGION_LENGTH__+0x7000bc>
    3356:	ec eb       	ldi	r30, 0xBC	; 188
    3358:	f0 e0       	ldi	r31, 0x00	; 0
    335a:	80 81       	ld	r24, Z
    335c:	88 23       	and	r24, r24
    335e:	ec f7       	brge	.-6      	; 0x335a <twi_readAck+0xa>
    3360:	80 91 bb 00 	lds	r24, 0x00BB	; 0x8000bb <__TEXT_REGION_LENGTH__+0x7000bb>
    3364:	08 95       	ret

00003366 <twi_readNak>:
    3366:	84 e8       	ldi	r24, 0x84	; 132
    3368:	80 93 bc 00 	sts	0x00BC, r24	; 0x8000bc <__TEXT_REGION_LENGTH__+0x7000bc>
    336c:	ec eb       	ldi	r30, 0xBC	; 188
    336e:	f0 e0       	ldi	r31, 0x00	; 0
    3370:	80 81       	ld	r24, Z
    3372:	88 23       	and	r24, r24
    3374:	ec f7       	brge	.-6      	; 0x3370 <twi_readNak+0xa>
    3376:	80 91 bb 00 	lds	r24, 0x00BB	; 0x8000bb <__TEXT_REGION_LENGTH__+0x7000bb>
    337a:	08 95       	ret

0000337c <eepromSavePattern>:
    337c:	4f 92       	push	r4
    337e:	5f 92       	push	r5
    3380:	6f 92       	push	r6
    3382:	7f 92       	push	r7
    3384:	8f 92       	push	r8
    3386:	9f 92       	push	r9
    3388:	af 92       	push	r10
    338a:	bf 92       	push	r11
    338c:	cf 92       	push	r12
    338e:	df 92       	push	r13
    3390:	ef 92       	push	r14
    3392:	ff 92       	push	r15
    3394:	0f 93       	push	r16
    3396:	1f 93       	push	r17
    3398:	cf 93       	push	r28
    339a:	df 93       	push	r29
    339c:	cd b7       	in	r28, 0x3d	; 61
    339e:	de b7       	in	r29, 0x3e	; 62
    33a0:	c4 59       	subi	r28, 0x94	; 148
    33a2:	d1 09       	sbc	r29, r1
    33a4:	0f b6       	in	r0, 0x3f	; 63
    33a6:	f8 94       	cli
    33a8:	de bf       	out	0x3e, r29	; 62
    33aa:	0f be       	out	0x3f, r0	; 63
    33ac:	cd bf       	out	0x3d, r28	; 61
    33ae:	cd 5d       	subi	r28, 0xDD	; 221
    33b0:	dd 4f       	sbci	r29, 0xFD	; 253
    33b2:	48 81       	ld	r20, Y
    33b4:	c3 52       	subi	r28, 0x23	; 35
    33b6:	d2 40       	sbci	r29, 0x02	; 2
    33b8:	c0 59       	subi	r28, 0x90	; 144
    33ba:	de 4f       	sbci	r29, 0xFE	; 254
    33bc:	88 81       	ld	r24, Y
    33be:	c0 57       	subi	r28, 0x70	; 112
    33c0:	d1 40       	sbci	r29, 0x01	; 1
    33c2:	cf 58       	subi	r28, 0x8F	; 143
    33c4:	de 4f       	sbci	r29, 0xFE	; 254
    33c6:	98 81       	ld	r25, Y
    33c8:	c1 57       	subi	r28, 0x71	; 113
    33ca:	d1 40       	sbci	r29, 0x01	; 1
    33cc:	24 2f       	mov	r18, r20
    33ce:	30 e0       	ldi	r19, 0x00	; 0
    33d0:	44 23       	and	r20, r20
    33d2:	8c f0       	brlt	.+34     	; 0x33f6 <eepromSavePattern+0x7a>
    33d4:	21 50       	subi	r18, 0x01	; 1
    33d6:	31 09       	sbc	r19, r1
    33d8:	39 01       	movw	r6, r18
    33da:	66 0c       	add	r6, r6
    33dc:	77 1c       	adc	r7, r7
    33de:	62 0e       	add	r6, r18
    33e0:	73 1e       	adc	r7, r19
    33e2:	76 94       	lsr	r7
    33e4:	76 2c       	mov	r7, r6
    33e6:	66 24       	eor	r6, r6
    33e8:	77 94       	ror	r7
    33ea:	67 94       	ror	r6
    33ec:	0f 2e       	mov	r0, r31
    33ee:	f0 ea       	ldi	r31, 0xA0	; 160
    33f0:	5f 2e       	mov	r5, r31
    33f2:	f0 2d       	mov	r31, r0
    33f4:	11 c0       	rjmp	.+34     	; 0x3418 <eepromSavePattern+0x9c>
    33f6:	20 58       	subi	r18, 0x80	; 128
    33f8:	31 09       	sbc	r19, r1
    33fa:	39 01       	movw	r6, r18
    33fc:	66 0c       	add	r6, r6
    33fe:	77 1c       	adc	r7, r7
    3400:	26 0d       	add	r18, r6
    3402:	37 1d       	adc	r19, r7
    3404:	39 01       	movw	r6, r18
    3406:	76 94       	lsr	r7
    3408:	76 2c       	mov	r7, r6
    340a:	66 24       	eor	r6, r6
    340c:	77 94       	ror	r7
    340e:	67 94       	ror	r6
    3410:	0f 2e       	mov	r0, r31
    3412:	f8 ea       	ldi	r31, 0xA8	; 168
    3414:	5f 2e       	mov	r5, r31
    3416:	f0 2d       	mov	r31, r0
    3418:	be 01       	movw	r22, r28
    341a:	68 55       	subi	r22, 0x58	; 88
    341c:	7f 4f       	sbci	r23, 0xFF	; 255
    341e:	8e 01       	movw	r16, r28
    3420:	0f 5f       	subi	r16, 0xFF	; 255
    3422:	1f 4f       	sbci	r17, 0xFF	; 255
    3424:	fe 01       	movw	r30, r28
    3426:	e0 55       	subi	r30, 0x50	; 80
    3428:	ff 4f       	sbci	r31, 0xFF	; 255
    342a:	98 01       	movw	r18, r16
    342c:	db 01       	movw	r26, r22
    342e:	4d 91       	ld	r20, X+
    3430:	bd 01       	movw	r22, r26
    3432:	d9 01       	movw	r26, r18
    3434:	4d 93       	st	X+, r20
    3436:	9d 01       	movw	r18, r26
    3438:	6e 17       	cp	r22, r30
    343a:	7f 07       	cpc	r23, r31
    343c:	b9 f7       	brne	.-18     	; 0x342c <eepromSavePattern+0xb0>
    343e:	de 01       	movw	r26, r28
    3440:	19 96       	adiw	r26, 0x09	; 9
    3442:	9e 01       	movw	r18, r28
    3444:	28 54       	subi	r18, 0x48	; 72
    3446:	3f 4f       	sbci	r19, 0xFF	; 255
    3448:	41 91       	ld	r20, Z+
    344a:	4d 93       	st	X+, r20
    344c:	e2 17       	cp	r30, r18
    344e:	f3 07       	cpc	r31, r19
    3450:	d9 f7       	brne	.-10     	; 0x3448 <eepromSavePattern+0xcc>
    3452:	4e 01       	movw	r8, r28
    3454:	b1 e1       	ldi	r27, 0x11	; 17
    3456:	8b 0e       	add	r8, r27
    3458:	91 1c       	adc	r9, r1
    345a:	7e 01       	movw	r14, r28
    345c:	e0 ec       	ldi	r30, 0xC0	; 192
    345e:	ee 0e       	add	r14, r30
    3460:	f1 1c       	adc	r15, r1
    3462:	d4 01       	movw	r26, r8
    3464:	f9 01       	movw	r30, r18
    3466:	41 91       	ld	r20, Z+
    3468:	9f 01       	movw	r18, r30
    346a:	4d 93       	st	X+, r20
    346c:	ee 15       	cp	r30, r14
    346e:	ff 05       	cpc	r31, r15
    3470:	c9 f7       	brne	.-14     	; 0x3464 <eepromSavePattern+0xe8>
    3472:	9e 01       	movw	r18, r28
    3474:	27 5e       	subi	r18, 0xE7	; 231
    3476:	3f 4f       	sbci	r19, 0xFF	; 255
    3478:	be 01       	movw	r22, r28
    347a:	60 53       	subi	r22, 0x30	; 48
    347c:	7f 4f       	sbci	r23, 0xFF	; 255
    347e:	d7 01       	movw	r26, r14
    3480:	4d 91       	ld	r20, X+
    3482:	7d 01       	movw	r14, r26
    3484:	f9 01       	movw	r30, r18
    3486:	41 93       	st	Z+, r20
    3488:	9f 01       	movw	r18, r30
    348a:	a6 17       	cp	r26, r22
    348c:	b7 07       	cpc	r27, r23
    348e:	b9 f7       	brne	.-18     	; 0x347e <eepromSavePattern+0x102>
    3490:	9e 01       	movw	r18, r28
    3492:	27 5d       	subi	r18, 0xD7	; 215
    3494:	3f 4f       	sbci	r19, 0xFF	; 255
    3496:	de 01       	movw	r26, r28
    3498:	a0 52       	subi	r26, 0x20	; 32
    349a:	bf 4f       	sbci	r27, 0xFF	; 255
    349c:	fb 01       	movw	r30, r22
    349e:	41 91       	ld	r20, Z+
    34a0:	bf 01       	movw	r22, r30
    34a2:	f9 01       	movw	r30, r18
    34a4:	41 93       	st	Z+, r20
    34a6:	9f 01       	movw	r18, r30
    34a8:	6a 17       	cp	r22, r26
    34aa:	7b 07       	cpc	r23, r27
    34ac:	b9 f7       	brne	.-18     	; 0x349c <eepromSavePattern+0x120>
    34ae:	9e 01       	movw	r18, r28
    34b0:	27 5c       	subi	r18, 0xC7	; 199
    34b2:	3f 4f       	sbci	r19, 0xFF	; 255
    34b4:	be 01       	movw	r22, r28
    34b6:	60 51       	subi	r22, 0x10	; 16
    34b8:	7f 4f       	sbci	r23, 0xFF	; 255
    34ba:	4d 91       	ld	r20, X+
    34bc:	f9 01       	movw	r30, r18
    34be:	41 93       	st	Z+, r20
    34c0:	9f 01       	movw	r18, r30
    34c2:	a6 17       	cp	r26, r22
    34c4:	b7 07       	cpc	r27, r23
    34c6:	c9 f7       	brne	.-14     	; 0x34ba <eepromSavePattern+0x13e>
    34c8:	9e 01       	movw	r18, r28
    34ca:	27 5b       	subi	r18, 0xB7	; 183
    34cc:	3f 4f       	sbci	r19, 0xFF	; 255
    34ce:	de 01       	movw	r26, r28
    34d0:	b3 95       	inc	r27
    34d2:	fb 01       	movw	r30, r22
    34d4:	41 91       	ld	r20, Z+
    34d6:	bf 01       	movw	r22, r30
    34d8:	f9 01       	movw	r30, r18
    34da:	41 93       	st	Z+, r20
    34dc:	9f 01       	movw	r18, r30
    34de:	6a 17       	cp	r22, r26
    34e0:	7b 07       	cpc	r23, r27
    34e2:	b9 f7       	brne	.-18     	; 0x34d2 <eepromSavePattern+0x156>
    34e4:	9e 01       	movw	r18, r28
    34e6:	27 5a       	subi	r18, 0xA7	; 167
    34e8:	3f 4f       	sbci	r19, 0xFF	; 255
    34ea:	be 01       	movw	r22, r28
    34ec:	60 5f       	subi	r22, 0xF0	; 240
    34ee:	7e 4f       	sbci	r23, 0xFE	; 254
    34f0:	4d 91       	ld	r20, X+
    34f2:	f9 01       	movw	r30, r18
    34f4:	41 93       	st	Z+, r20
    34f6:	9f 01       	movw	r18, r30
    34f8:	a6 17       	cp	r26, r22
    34fa:	b7 07       	cpc	r27, r23
    34fc:	c9 f7       	brne	.-14     	; 0x34f0 <eepromSavePattern+0x174>
    34fe:	de 01       	movw	r26, r28
    3500:	a7 59       	subi	r26, 0x97	; 151
    3502:	bf 4f       	sbci	r27, 0xFF	; 255
    3504:	5e 01       	movw	r10, r28
    3506:	f0 ee       	ldi	r31, 0xE0	; 224
    3508:	af 1a       	sub	r10, r31
    350a:	fe ef       	ldi	r31, 0xFE	; 254
    350c:	bf 0a       	sbc	r11, r31
    350e:	fb 01       	movw	r30, r22
    3510:	21 91       	ld	r18, Z+
    3512:	bf 01       	movw	r22, r30
    3514:	2d 93       	st	X+, r18
    3516:	ea 15       	cp	r30, r10
    3518:	fb 05       	cpc	r31, r11
    351a:	c9 f7       	brne	.-14     	; 0x350e <eepromSavePattern+0x192>
    351c:	eb 96       	adiw	r28, 0x3b	; 59
    351e:	9f af       	std	Y+63, r25	; 0x3f
    3520:	eb 97       	sbiw	r28, 0x3b	; 59
    3522:	ec 96       	adiw	r28, 0x3c	; 60
    3524:	8f af       	std	Y+63, r24	; 0x3f
    3526:	ec 97       	sbiw	r28, 0x3c	; 60
    3528:	ce 58       	subi	r28, 0x8E	; 142
    352a:	de 4f       	sbci	r29, 0xFE	; 254
    352c:	88 81       	ld	r24, Y
    352e:	c2 57       	subi	r28, 0x72	; 114
    3530:	d1 40       	sbci	r29, 0x01	; 1
    3532:	ed 96       	adiw	r28, 0x3d	; 61
    3534:	8f af       	std	Y+63, r24	; 0x3f
    3536:	ed 97       	sbiw	r28, 0x3d	; 61
    3538:	85 2d       	mov	r24, r5
    353a:	c8 de       	rcall	.-624    	; 0x32cc <twi_start>
    353c:	81 30       	cpi	r24, 0x01	; 1
    353e:	81 f4       	brne	.+32     	; 0x3560 <eepromSavePattern+0x1e4>
    3540:	84 e1       	ldi	r24, 0x14	; 20
    3542:	ee e0       	ldi	r30, 0x0E	; 14
    3544:	f2 e0       	ldi	r31, 0x02	; 2
    3546:	de 01       	movw	r26, r28
    3548:	af 57       	subi	r26, 0x7F	; 127
    354a:	bf 4f       	sbci	r27, 0xFF	; 255
    354c:	01 90       	ld	r0, Z+
    354e:	0d 92       	st	X+, r0
    3550:	8a 95       	dec	r24
    3552:	e1 f7       	brne	.-8      	; 0x354c <eepromSavePattern+0x1d0>
    3554:	63 e0       	ldi	r22, 0x03	; 3
    3556:	70 e0       	ldi	r23, 0x00	; 0
    3558:	ce 01       	movw	r24, r28
    355a:	8f 57       	subi	r24, 0x7F	; 127
    355c:	9f 4f       	sbci	r25, 0xFF	; 255
    355e:	04 d9       	rcall	.-3576   	; 0x2768 <outputS>
    3560:	87 2d       	mov	r24, r7
    3562:	e4 de       	rcall	.-568    	; 0x332c <twi_write>
    3564:	46 2c       	mov	r4, r6
    3566:	86 2d       	mov	r24, r6
    3568:	e1 de       	rcall	.-574    	; 0x332c <twi_write>
    356a:	6e 01       	movw	r12, r28
    356c:	fd e7       	ldi	r31, 0x7D	; 125
    356e:	cf 0e       	add	r12, r31
    3570:	d1 1c       	adc	r13, r1
    3572:	78 01       	movw	r14, r16
    3574:	d7 01       	movw	r26, r14
    3576:	8d 91       	ld	r24, X+
    3578:	7d 01       	movw	r14, r26
    357a:	d8 de       	rcall	.-592    	; 0x332c <twi_write>
    357c:	ce 14       	cp	r12, r14
    357e:	df 04       	cpc	r13, r15
    3580:	c9 f7       	brne	.-14     	; 0x3574 <eepromSavePattern+0x1f8>
    3582:	cb de       	rcall	.-618    	; 0x331a <twi_stop>
    3584:	ef e1       	ldi	r30, 0x1F	; 31
    3586:	fe e4       	ldi	r31, 0x4E	; 78
    3588:	31 97       	sbiw	r30, 0x01	; 1
    358a:	f1 f7       	brne	.-4      	; 0x3588 <eepromSavePattern+0x20c>
    358c:	00 c0       	rjmp	.+0      	; 0x358e <eepromSavePattern+0x212>
    358e:	00 00       	nop
    3590:	9e 01       	movw	r18, r28
    3592:	20 5d       	subi	r18, 0xD0	; 208
    3594:	3e 4f       	sbci	r19, 0xFE	; 254
    3596:	f8 01       	movw	r30, r16
    3598:	d5 01       	movw	r26, r10
    359a:	8d 91       	ld	r24, X+
    359c:	5d 01       	movw	r10, r26
    359e:	81 93       	st	Z+, r24
    35a0:	2a 17       	cp	r18, r26
    35a2:	3b 07       	cpc	r19, r27
    35a4:	c9 f7       	brne	.-14     	; 0x3598 <eepromSavePattern+0x21c>
    35a6:	de 01       	movw	r26, r28
    35a8:	91 96       	adiw	r26, 0x21	; 33
    35aa:	f9 01       	movw	r30, r18
    35ac:	81 91       	ld	r24, Z+
    35ae:	9f 01       	movw	r18, r30
    35b0:	f4 01       	movw	r30, r8
    35b2:	81 93       	st	Z+, r24
    35b4:	4f 01       	movw	r8, r30
    35b6:	ae 17       	cp	r26, r30
    35b8:	bf 07       	cpc	r27, r31
    35ba:	b9 f7       	brne	.-18     	; 0x35aa <eepromSavePattern+0x22e>
    35bc:	ce 01       	movw	r24, r28
    35be:	80 5c       	subi	r24, 0xC0	; 192
    35c0:	9e 4f       	sbci	r25, 0xFE	; 254
    35c2:	ae 01       	movw	r20, r28
    35c4:	4f 5c       	subi	r20, 0xCF	; 207
    35c6:	5f 4f       	sbci	r21, 0xFF	; 255
    35c8:	fc 01       	movw	r30, r24
    35ca:	21 91       	ld	r18, Z+
    35cc:	cf 01       	movw	r24, r30
    35ce:	2d 93       	st	X+, r18
    35d0:	a4 17       	cp	r26, r20
    35d2:	b5 07       	cpc	r27, r21
    35d4:	c9 f7       	brne	.-14     	; 0x35c8 <eepromSavePattern+0x24c>
    35d6:	ce 01       	movw	r24, r28
    35d8:	80 5b       	subi	r24, 0xB0	; 176
    35da:	9e 4f       	sbci	r25, 0xFE	; 254
    35dc:	de 01       	movw	r26, r28
    35de:	af 5b       	subi	r26, 0xBF	; 191
    35e0:	bf 4f       	sbci	r27, 0xFF	; 255
    35e2:	fc 01       	movw	r30, r24
    35e4:	21 91       	ld	r18, Z+
    35e6:	cf 01       	movw	r24, r30
    35e8:	fa 01       	movw	r30, r20
    35ea:	21 93       	st	Z+, r18
    35ec:	af 01       	movw	r20, r30
    35ee:	ea 17       	cp	r30, r26
    35f0:	fb 07       	cpc	r31, r27
    35f2:	b9 f7       	brne	.-18     	; 0x35e2 <eepromSavePattern+0x266>
    35f4:	fe 01       	movw	r30, r28
    35f6:	e0 5a       	subi	r30, 0xA0	; 160
    35f8:	fe 4f       	sbci	r31, 0xFE	; 254
    35fa:	9e 01       	movw	r18, r28
    35fc:	20 59       	subi	r18, 0x90	; 144
    35fe:	3e 4f       	sbci	r19, 0xFE	; 254
    3600:	81 91       	ld	r24, Z+
    3602:	8d 93       	st	X+, r24
    3604:	2e 17       	cp	r18, r30
    3606:	3f 07       	cpc	r19, r31
    3608:	d9 f7       	brne	.-10     	; 0x3600 <eepromSavePattern+0x284>
    360a:	ae 01       	movw	r20, r28
    360c:	4d 58       	subi	r20, 0x8D	; 141
    360e:	5e 4f       	sbci	r21, 0xFE	; 254
    3610:	ce 01       	movw	r24, r28
    3612:	8f 5a       	subi	r24, 0xAF	; 175
    3614:	9f 4f       	sbci	r25, 0xFF	; 255
    3616:	de 01       	movw	r26, r28
    3618:	ad 57       	subi	r26, 0x7D	; 125
    361a:	be 4f       	sbci	r27, 0xFE	; 254
    361c:	fa 01       	movw	r30, r20
    361e:	21 91       	ld	r18, Z+
    3620:	af 01       	movw	r20, r30
    3622:	fc 01       	movw	r30, r24
    3624:	21 93       	st	Z+, r18
    3626:	cf 01       	movw	r24, r30
    3628:	a4 17       	cp	r26, r20
    362a:	b5 07       	cpc	r27, r21
    362c:	b9 f7       	brne	.-18     	; 0x361c <eepromSavePattern+0x2a0>
    362e:	ce 01       	movw	r24, r28
    3630:	8f 59       	subi	r24, 0x9F	; 159
    3632:	9f 4f       	sbci	r25, 0xFF	; 255
    3634:	ae 01       	movw	r20, r28
    3636:	4d 56       	subi	r20, 0x6D	; 109
    3638:	5e 4f       	sbci	r21, 0xFE	; 254
    363a:	2d 91       	ld	r18, X+
    363c:	fc 01       	movw	r30, r24
    363e:	21 93       	st	Z+, r18
    3640:	cf 01       	movw	r24, r30
    3642:	a4 17       	cp	r26, r20
    3644:	b5 07       	cpc	r27, r21
    3646:	c9 f7       	brne	.-14     	; 0x363a <eepromSavePattern+0x2be>
    3648:	de 01       	movw	r26, r28
    364a:	af 58       	subi	r26, 0x8F	; 143
    364c:	bf 4f       	sbci	r27, 0xFF	; 255
    364e:	7e 01       	movw	r14, r28
    3650:	fd e5       	ldi	r31, 0x5D	; 93
    3652:	ef 1a       	sub	r14, r31
    3654:	fe ef       	ldi	r31, 0xFE	; 254
    3656:	ff 0a       	sbc	r15, r31
    3658:	fa 01       	movw	r30, r20
    365a:	81 91       	ld	r24, Z+
    365c:	af 01       	movw	r20, r30
    365e:	8d 93       	st	X+, r24
    3660:	ee 16       	cp	r14, r30
    3662:	ff 06       	cpc	r15, r31
    3664:	c9 f7       	brne	.-14     	; 0x3658 <eepromSavePattern+0x2dc>
    3666:	85 2d       	mov	r24, r5
    3668:	31 de       	rcall	.-926    	; 0x32cc <twi_start>
    366a:	81 30       	cpi	r24, 0x01	; 1
    366c:	81 f4       	brne	.+32     	; 0x368e <eepromSavePattern+0x312>
    366e:	84 e1       	ldi	r24, 0x14	; 20
    3670:	e3 e2       	ldi	r30, 0x23	; 35
    3672:	f2 e0       	ldi	r31, 0x02	; 2
    3674:	de 01       	movw	r26, r28
    3676:	af 57       	subi	r26, 0x7F	; 127
    3678:	bf 4f       	sbci	r27, 0xFF	; 255
    367a:	01 90       	ld	r0, Z+
    367c:	0d 92       	st	X+, r0
    367e:	8a 95       	dec	r24
    3680:	e1 f7       	brne	.-8      	; 0x367a <eepromSavePattern+0x2fe>
    3682:	63 e0       	ldi	r22, 0x03	; 3
    3684:	70 e0       	ldi	r23, 0x00	; 0
    3686:	ce 01       	movw	r24, r28
    3688:	8f 57       	subi	r24, 0x7F	; 127
    368a:	9f 4f       	sbci	r25, 0xFF	; 255
    368c:	6d d8       	rcall	.-3878   	; 0x2768 <outputS>
    368e:	c3 01       	movw	r24, r6
    3690:	80 58       	subi	r24, 0x80	; 128
    3692:	9f 4f       	sbci	r25, 0xFF	; 255
    3694:	89 2f       	mov	r24, r25
    3696:	4a de       	rcall	.-876    	; 0x332c <twi_write>
    3698:	80 e8       	ldi	r24, 0x80	; 128
    369a:	84 0d       	add	r24, r4
    369c:	47 de       	rcall	.-882    	; 0x332c <twi_write>
    369e:	6e 01       	movw	r12, r28
    36a0:	f1 e8       	ldi	r31, 0x81	; 129
    36a2:	cf 0e       	add	r12, r31
    36a4:	d1 1c       	adc	r13, r1
    36a6:	d8 01       	movw	r26, r16
    36a8:	8d 91       	ld	r24, X+
    36aa:	8d 01       	movw	r16, r26
    36ac:	3f de       	rcall	.-898    	; 0x332c <twi_write>
    36ae:	c0 16       	cp	r12, r16
    36b0:	d1 06       	cpc	r13, r17
    36b2:	c9 f7       	brne	.-14     	; 0x36a6 <eepromSavePattern+0x32a>
    36b4:	32 de       	rcall	.-924    	; 0x331a <twi_stop>
    36b6:	ef e1       	ldi	r30, 0x1F	; 31
    36b8:	fe e4       	ldi	r31, 0x4E	; 78
    36ba:	31 97       	sbiw	r30, 0x01	; 1
    36bc:	f1 f7       	brne	.-4      	; 0x36ba <eepromSavePattern+0x33e>
    36be:	00 c0       	rjmp	.+0      	; 0x36c0 <eepromSavePattern+0x344>
    36c0:	00 00       	nop
    36c2:	85 2d       	mov	r24, r5
    36c4:	03 de       	rcall	.-1018   	; 0x32cc <twi_start>
    36c6:	81 30       	cpi	r24, 0x01	; 1
    36c8:	81 f4       	brne	.+32     	; 0x36ea <eepromSavePattern+0x36e>
    36ca:	84 e1       	ldi	r24, 0x14	; 20
    36cc:	e8 e3       	ldi	r30, 0x38	; 56
    36ce:	f2 e0       	ldi	r31, 0x02	; 2
    36d0:	de 01       	movw	r26, r28
    36d2:	af 57       	subi	r26, 0x7F	; 127
    36d4:	bf 4f       	sbci	r27, 0xFF	; 255
    36d6:	01 90       	ld	r0, Z+
    36d8:	0d 92       	st	X+, r0
    36da:	8a 95       	dec	r24
    36dc:	e1 f7       	brne	.-8      	; 0x36d6 <eepromSavePattern+0x35a>
    36de:	63 e0       	ldi	r22, 0x03	; 3
    36e0:	70 e0       	ldi	r23, 0x00	; 0
    36e2:	ce 01       	movw	r24, r28
    36e4:	8f 57       	subi	r24, 0x7F	; 127
    36e6:	9f 4f       	sbci	r25, 0xFF	; 255
    36e8:	3f d8       	rcall	.-3970   	; 0x2768 <outputS>
    36ea:	73 94       	inc	r7
    36ec:	87 2d       	mov	r24, r7
    36ee:	1e de       	rcall	.-964    	; 0x332c <twi_write>
    36f0:	84 2d       	mov	r24, r4
    36f2:	1c de       	rcall	.-968    	; 0x332c <twi_write>
    36f4:	6e 01       	movw	r12, r28
    36f6:	2d ed       	ldi	r18, 0xDD	; 221
    36f8:	c2 1a       	sub	r12, r18
    36fa:	2d ef       	ldi	r18, 0xFD	; 253
    36fc:	d2 0a       	sbc	r13, r18
    36fe:	d7 01       	movw	r26, r14
    3700:	1c 91       	ld	r17, X
    3702:	11 96       	adiw	r26, 0x01	; 1
    3704:	8c 91       	ld	r24, X
    3706:	b2 e0       	ldi	r27, 0x02	; 2
    3708:	eb 0e       	add	r14, r27
    370a:	f1 1c       	adc	r15, r1
    370c:	0f de       	rcall	.-994    	; 0x332c <twi_write>
    370e:	81 2f       	mov	r24, r17
    3710:	0d de       	rcall	.-998    	; 0x332c <twi_write>
    3712:	ce 14       	cp	r12, r14
    3714:	df 04       	cpc	r13, r15
    3716:	99 f7       	brne	.-26     	; 0x36fe <eepromSavePattern+0x382>
    3718:	00 de       	rcall	.-1024   	; 0x331a <twi_stop>
    371a:	ef e1       	ldi	r30, 0x1F	; 31
    371c:	fe e4       	ldi	r31, 0x4E	; 78
    371e:	31 97       	sbiw	r30, 0x01	; 1
    3720:	f1 f7       	brne	.-4      	; 0x371e <eepromSavePattern+0x3a2>
    3722:	00 c0       	rjmp	.+0      	; 0x3724 <eepromSavePattern+0x3a8>
    3724:	00 00       	nop
    3726:	cc 56       	subi	r28, 0x6C	; 108
    3728:	df 4f       	sbci	r29, 0xFF	; 255
    372a:	0f b6       	in	r0, 0x3f	; 63
    372c:	f8 94       	cli
    372e:	de bf       	out	0x3e, r29	; 62
    3730:	0f be       	out	0x3f, r0	; 63
    3732:	cd bf       	out	0x3d, r28	; 61
    3734:	df 91       	pop	r29
    3736:	cf 91       	pop	r28
    3738:	1f 91       	pop	r17
    373a:	0f 91       	pop	r16
    373c:	ff 90       	pop	r15
    373e:	ef 90       	pop	r14
    3740:	df 90       	pop	r13
    3742:	cf 90       	pop	r12
    3744:	bf 90       	pop	r11
    3746:	af 90       	pop	r10
    3748:	9f 90       	pop	r9
    374a:	8f 90       	pop	r8
    374c:	7f 90       	pop	r7
    374e:	6f 90       	pop	r6
    3750:	5f 90       	pop	r5
    3752:	4f 90       	pop	r4
    3754:	08 95       	ret

00003756 <eepromLoadPattern>:
    3756:	8f 92       	push	r8
    3758:	9f 92       	push	r9
    375a:	af 92       	push	r10
    375c:	bf 92       	push	r11
    375e:	cf 92       	push	r12
    3760:	df 92       	push	r13
    3762:	ef 92       	push	r14
    3764:	ff 92       	push	r15
    3766:	0f 93       	push	r16
    3768:	1f 93       	push	r17
    376a:	cf 93       	push	r28
    376c:	df 93       	push	r29
    376e:	cd b7       	in	r28, 0x3d	; 61
    3770:	de b7       	in	r29, 0x3e	; 62
    3772:	c4 59       	subi	r28, 0x94	; 148
    3774:	d1 40       	sbci	r29, 0x01	; 1
    3776:	0f b6       	in	r0, 0x3f	; 63
    3778:	f8 94       	cli
    377a:	de bf       	out	0x3e, r29	; 62
    377c:	0f be       	out	0x3f, r0	; 63
    377e:	cd bf       	out	0x3d, r28	; 61
    3780:	7c 01       	movw	r14, r24
    3782:	86 2f       	mov	r24, r22
    3784:	90 e0       	ldi	r25, 0x00	; 0
    3786:	66 23       	and	r22, r22
    3788:	84 f0       	brlt	.+32     	; 0x37aa <eepromLoadPattern+0x54>
    378a:	01 97       	sbiw	r24, 0x01	; 1
    378c:	9c 01       	movw	r18, r24
    378e:	22 0f       	add	r18, r18
    3790:	33 1f       	adc	r19, r19
    3792:	82 0f       	add	r24, r18
    3794:	93 1f       	adc	r25, r19
    3796:	96 95       	lsr	r25
    3798:	98 2f       	mov	r25, r24
    379a:	88 27       	eor	r24, r24
    379c:	97 95       	ror	r25
    379e:	87 95       	ror	r24
    37a0:	08 2f       	mov	r16, r24
    37a2:	d9 2e       	mov	r13, r25
    37a4:	80 ea       	ldi	r24, 0xA0	; 160
    37a6:	11 ea       	ldi	r17, 0xA1	; 161
    37a8:	10 c0       	rjmp	.+32     	; 0x37ca <eepromLoadPattern+0x74>
    37aa:	80 58       	subi	r24, 0x80	; 128
    37ac:	91 09       	sbc	r25, r1
    37ae:	9c 01       	movw	r18, r24
    37b0:	22 0f       	add	r18, r18
    37b2:	33 1f       	adc	r19, r19
    37b4:	82 0f       	add	r24, r18
    37b6:	93 1f       	adc	r25, r19
    37b8:	96 95       	lsr	r25
    37ba:	98 2f       	mov	r25, r24
    37bc:	88 27       	eor	r24, r24
    37be:	97 95       	ror	r25
    37c0:	87 95       	ror	r24
    37c2:	08 2f       	mov	r16, r24
    37c4:	d9 2e       	mov	r13, r25
    37c6:	88 ea       	ldi	r24, 0xA8	; 168
    37c8:	19 ea       	ldi	r17, 0xA9	; 169
    37ca:	80 dd       	rcall	.-1280   	; 0x32cc <twi_start>
    37cc:	81 30       	cpi	r24, 0x01	; 1
    37ce:	31 f4       	brne	.+12     	; 0x37dc <eepromLoadPattern+0x86>
    37d0:	63 e0       	ldi	r22, 0x03	; 3
    37d2:	70 e0       	ldi	r23, 0x00	; 0
    37d4:	8e eb       	ldi	r24, 0xBE	; 190
    37d6:	93 e0       	ldi	r25, 0x03	; 3
    37d8:	0e 94 b4 13 	call	0x2768	; 0x2768 <outputS>
    37dc:	8d 2d       	mov	r24, r13
    37de:	a6 dd       	rcall	.-1204   	; 0x332c <twi_write>
    37e0:	80 2f       	mov	r24, r16
    37e2:	a4 dd       	rcall	.-1208   	; 0x332c <twi_write>
    37e4:	81 2f       	mov	r24, r17
    37e6:	72 dd       	rcall	.-1308   	; 0x32cc <twi_start>
    37e8:	81 30       	cpi	r24, 0x01	; 1
    37ea:	09 f0       	breq	.+2      	; 0x37ee <eepromLoadPattern+0x98>
    37ec:	48 c1       	rjmp	.+656    	; 0x3a7e <eepromLoadPattern+0x328>
    37ee:	84 e1       	ldi	r24, 0x14	; 20
    37f0:	ed e4       	ldi	r30, 0x4D	; 77
    37f2:	f2 e0       	ldi	r31, 0x02	; 2
    37f4:	de 01       	movw	r26, r28
    37f6:	af 57       	subi	r26, 0x7F	; 127
    37f8:	be 4f       	sbci	r27, 0xFE	; 254
    37fa:	01 90       	ld	r0, Z+
    37fc:	0d 92       	st	X+, r0
    37fe:	8a 95       	dec	r24
    3800:	e1 f7       	brne	.-8      	; 0x37fa <eepromLoadPattern+0xa4>
    3802:	63 e0       	ldi	r22, 0x03	; 3
    3804:	70 e0       	ldi	r23, 0x00	; 0
    3806:	ce 01       	movw	r24, r28
    3808:	8f 57       	subi	r24, 0x7F	; 127
    380a:	9e 4f       	sbci	r25, 0xFE	; 254
    380c:	0e 94 b4 13 	call	0x2768	; 0x2768 <outputS>
    3810:	36 c1       	rjmp	.+620    	; 0x3a7e <eepromLoadPattern+0x328>
    3812:	9e dd       	rcall	.-1220   	; 0x3350 <twi_readAck>
    3814:	d8 01       	movw	r26, r16
    3816:	8d 93       	st	X+, r24
    3818:	8d 01       	movw	r16, r26
    381a:	ac 15       	cp	r26, r12
    381c:	bd 05       	cpc	r27, r13
    381e:	c9 f7       	brne	.-14     	; 0x3812 <eepromLoadPattern+0xbc>
    3820:	a2 dd       	rcall	.-1212   	; 0x3366 <twi_readNak>
    3822:	c0 58       	subi	r28, 0x80	; 128
    3824:	de 4f       	sbci	r29, 0xFE	; 254
    3826:	88 83       	st	Y, r24
    3828:	c0 58       	subi	r28, 0x80	; 128
    382a:	d1 40       	sbci	r29, 0x01	; 1
    382c:	76 dd       	rcall	.-1300   	; 0x331a <twi_stop>
    382e:	87 01       	movw	r16, r14
    3830:	4e 01       	movw	r8, r28
    3832:	b9 e0       	ldi	r27, 0x09	; 9
    3834:	8b 0e       	add	r8, r27
    3836:	91 1c       	adc	r9, r1
    3838:	f7 01       	movw	r30, r14
    383a:	d5 01       	movw	r26, r10
    383c:	8d 91       	ld	r24, X+
    383e:	5d 01       	movw	r10, r26
    3840:	81 93       	st	Z+, r24
    3842:	a8 15       	cp	r26, r8
    3844:	b9 05       	cpc	r27, r9
    3846:	c9 f7       	brne	.-14     	; 0x383a <eepromLoadPattern+0xe4>
    3848:	d1 2c       	mov	r13, r1
    384a:	f4 01       	movw	r30, r8
    384c:	81 91       	ld	r24, Z+
    384e:	4f 01       	movw	r8, r30
    3850:	f8 01       	movw	r30, r16
    3852:	80 87       	std	Z+8, r24	; 0x08
    3854:	4d 2d       	mov	r20, r13
    3856:	60 81       	ld	r22, Z
    3858:	0f 5f       	subi	r16, 0xFF	; 255
    385a:	1f 4f       	sbci	r17, 0xFF	; 255
    385c:	bb da       	rcall	.-2698   	; 0x2dd4 <setOutputVolume>
    385e:	d3 94       	inc	r13
    3860:	f8 e0       	ldi	r31, 0x08	; 8
    3862:	df 12       	cpse	r13, r31
    3864:	f2 cf       	rjmp	.-28     	; 0x384a <eepromLoadPattern+0xf4>
    3866:	5e 01       	movw	r10, r28
    3868:	81 e1       	ldi	r24, 0x11	; 17
    386a:	a8 0e       	add	r10, r24
    386c:	b1 1c       	adc	r11, r1
    386e:	67 01       	movw	r12, r14
    3870:	90 e1       	ldi	r25, 0x10	; 16
    3872:	c9 0e       	add	r12, r25
    3874:	d1 1c       	adc	r13, r1
    3876:	10 e0       	ldi	r17, 0x00	; 0
    3878:	d5 01       	movw	r26, r10
    387a:	4d 91       	ld	r20, X+
    387c:	5d 01       	movw	r10, r26
    387e:	f6 01       	movw	r30, r12
    3880:	41 93       	st	Z+, r20
    3882:	6f 01       	movw	r12, r30
    3884:	60 e0       	ldi	r22, 0x00	; 0
    3886:	81 2f       	mov	r24, r17
    3888:	1c db       	rcall	.-2504   	; 0x2ec2 <outputSampleRate>
    388a:	1f 5f       	subi	r17, 0xFF	; 255
    388c:	18 30       	cpi	r17, 0x08	; 8
    388e:	a1 f7       	brne	.-24     	; 0x3878 <eepromLoadPattern+0x122>
    3890:	fe 01       	movw	r30, r28
    3892:	79 96       	adiw	r30, 0x19	; 25
    3894:	c7 01       	movw	r24, r14
    3896:	48 96       	adiw	r24, 0x18	; 24
    3898:	ae 01       	movw	r20, r28
    389a:	47 5d       	subi	r20, 0xD7	; 215
    389c:	5f 4f       	sbci	r21, 0xFF	; 255
    389e:	21 91       	ld	r18, Z+
    38a0:	dc 01       	movw	r26, r24
    38a2:	2d 93       	st	X+, r18
    38a4:	cd 01       	movw	r24, r26
    38a6:	e4 17       	cp	r30, r20
    38a8:	f5 07       	cpc	r31, r21
    38aa:	c9 f7       	brne	.-14     	; 0x389e <eepromLoadPattern+0x148>
    38ac:	57 01       	movw	r10, r14
    38ae:	b8 e2       	ldi	r27, 0x28	; 40
    38b0:	ab 0e       	add	r10, r27
    38b2:	b1 1c       	adc	r11, r1
    38b4:	de 01       	movw	r26, r28
    38b6:	d9 96       	adiw	r26, 0x39	; 57
    38b8:	c5 01       	movw	r24, r10
    38ba:	fa 01       	movw	r30, r20
    38bc:	21 91       	ld	r18, Z+
    38be:	af 01       	movw	r20, r30
    38c0:	fc 01       	movw	r30, r24
    38c2:	21 93       	st	Z+, r18
    38c4:	cf 01       	movw	r24, r30
    38c6:	4a 17       	cp	r20, r26
    38c8:	5b 07       	cpc	r21, r27
    38ca:	b9 f7       	brne	.-18     	; 0x38ba <eepromLoadPattern+0x164>
    38cc:	c7 01       	movw	r24, r14
    38ce:	c8 96       	adiw	r24, 0x38	; 56
    38d0:	ae 01       	movw	r20, r28
    38d2:	47 5b       	subi	r20, 0xB7	; 183
    38d4:	5f 4f       	sbci	r21, 0xFF	; 255
    38d6:	2d 91       	ld	r18, X+
    38d8:	fc 01       	movw	r30, r24
    38da:	21 93       	st	Z+, r18
    38dc:	cf 01       	movw	r24, r30
    38de:	a4 17       	cp	r26, r20
    38e0:	b5 07       	cpc	r27, r21
    38e2:	c9 f7       	brne	.-14     	; 0x38d6 <eepromLoadPattern+0x180>
    38e4:	c7 01       	movw	r24, r14
    38e6:	88 5b       	subi	r24, 0xB8	; 184
    38e8:	9f 4f       	sbci	r25, 0xFF	; 255
    38ea:	de 01       	movw	r26, r28
    38ec:	a7 5a       	subi	r26, 0xA7	; 167
    38ee:	bf 4f       	sbci	r27, 0xFF	; 255
    38f0:	fa 01       	movw	r30, r20
    38f2:	21 91       	ld	r18, Z+
    38f4:	af 01       	movw	r20, r30
    38f6:	fc 01       	movw	r30, r24
    38f8:	21 93       	st	Z+, r18
    38fa:	cf 01       	movw	r24, r30
    38fc:	4a 17       	cp	r20, r26
    38fe:	5b 07       	cpc	r21, r27
    3900:	b9 f7       	brne	.-18     	; 0x38f0 <eepromLoadPattern+0x19a>
    3902:	c7 01       	movw	r24, r14
    3904:	88 5a       	subi	r24, 0xA8	; 168
    3906:	9f 4f       	sbci	r25, 0xFF	; 255
    3908:	ae 01       	movw	r20, r28
    390a:	47 59       	subi	r20, 0x97	; 151
    390c:	5f 4f       	sbci	r21, 0xFF	; 255
    390e:	2d 91       	ld	r18, X+
    3910:	fc 01       	movw	r30, r24
    3912:	21 93       	st	Z+, r18
    3914:	cf 01       	movw	r24, r30
    3916:	a4 17       	cp	r26, r20
    3918:	b5 07       	cpc	r27, r21
    391a:	c9 f7       	brne	.-14     	; 0x390e <eepromLoadPattern+0x1b8>
    391c:	d7 01       	movw	r26, r14
    391e:	a8 59       	subi	r26, 0x98	; 152
    3920:	bf 4f       	sbci	r27, 0xFF	; 255
    3922:	9e 01       	movw	r18, r28
    3924:	27 58       	subi	r18, 0x87	; 135
    3926:	3f 4f       	sbci	r19, 0xFF	; 255
    3928:	fa 01       	movw	r30, r20
    392a:	81 91       	ld	r24, Z+
    392c:	af 01       	movw	r20, r30
    392e:	8d 93       	st	X+, r24
    3930:	e2 17       	cp	r30, r18
    3932:	f3 07       	cpc	r31, r19
    3934:	c9 f7       	brne	.-14     	; 0x3928 <eepromLoadPattern+0x1d2>
    3936:	f7 01       	movw	r30, r14
    3938:	e8 53       	subi	r30, 0x38	; 56
    393a:	ff 4f       	sbci	r31, 0xFF	; 255
    393c:	eb 96       	adiw	r28, 0x3b	; 59
    393e:	8f ad       	ldd	r24, Y+63	; 0x3f
    3940:	eb 97       	sbiw	r28, 0x3b	; 59
    3942:	90 e0       	ldi	r25, 0x00	; 0
    3944:	98 2f       	mov	r25, r24
    3946:	88 27       	eor	r24, r24
    3948:	ec 96       	adiw	r28, 0x3c	; 60
    394a:	2f ad       	ldd	r18, Y+63	; 0x3f
    394c:	ec 97       	sbiw	r28, 0x3c	; 60
    394e:	82 2b       	or	r24, r18
    3950:	91 83       	std	Z+1, r25	; 0x01
    3952:	80 83       	st	Z, r24
    3954:	ed 96       	adiw	r28, 0x3d	; 61
    3956:	8f ad       	ldd	r24, Y+63	; 0x3f
    3958:	ed 97       	sbiw	r28, 0x3d	; 61
    395a:	32 96       	adiw	r30, 0x02	; 2
    395c:	80 83       	st	Z, r24
    395e:	ae 01       	movw	r20, r28
    3960:	4f 57       	subi	r20, 0x7F	; 127
    3962:	5f 4f       	sbci	r21, 0xFF	; 255
    3964:	c7 01       	movw	r24, r14
    3966:	88 58       	subi	r24, 0x88	; 136
    3968:	9f 4f       	sbci	r25, 0xFF	; 255
    396a:	fe 01       	movw	r30, r28
    396c:	ef 56       	subi	r30, 0x6F	; 111
    396e:	ff 4f       	sbci	r31, 0xFF	; 255
    3970:	da 01       	movw	r26, r20
    3972:	2d 91       	ld	r18, X+
    3974:	ad 01       	movw	r20, r26
    3976:	dc 01       	movw	r26, r24
    3978:	2d 93       	st	X+, r18
    397a:	cd 01       	movw	r24, r26
    397c:	e4 17       	cp	r30, r20
    397e:	f5 07       	cpc	r31, r21
    3980:	b9 f7       	brne	.-18     	; 0x3970 <eepromLoadPattern+0x21a>
    3982:	c7 01       	movw	r24, r14
    3984:	88 57       	subi	r24, 0x78	; 120
    3986:	9f 4f       	sbci	r25, 0xFF	; 255
    3988:	ae 01       	movw	r20, r28
    398a:	4f 55       	subi	r20, 0x5F	; 95
    398c:	5f 4f       	sbci	r21, 0xFF	; 255
    398e:	21 91       	ld	r18, Z+
    3990:	dc 01       	movw	r26, r24
    3992:	2d 93       	st	X+, r18
    3994:	cd 01       	movw	r24, r26
    3996:	4e 17       	cp	r20, r30
    3998:	5f 07       	cpc	r21, r31
    399a:	c9 f7       	brne	.-14     	; 0x398e <eepromLoadPattern+0x238>
    399c:	87 01       	movw	r16, r14
    399e:	08 56       	subi	r16, 0x68	; 104
    39a0:	1f 4f       	sbci	r17, 0xFF	; 255
    39a2:	4e 01       	movw	r8, r28
    39a4:	b1 eb       	ldi	r27, 0xB1	; 177
    39a6:	8b 0e       	add	r8, r27
    39a8:	91 1c       	adc	r9, r1
    39aa:	f8 01       	movw	r30, r16
    39ac:	da 01       	movw	r26, r20
    39ae:	8d 91       	ld	r24, X+
    39b0:	ad 01       	movw	r20, r26
    39b2:	81 93       	st	Z+, r24
    39b4:	8a 16       	cp	r8, r26
    39b6:	9b 06       	cpc	r9, r27
    39b8:	c9 f7       	brne	.-14     	; 0x39ac <eepromLoadPattern+0x256>
    39ba:	6e 01       	movw	r12, r28
    39bc:	b1 ec       	ldi	r27, 0xC1	; 193
    39be:	cb 0e       	add	r12, r27
    39c0:	d1 1c       	adc	r13, r1
    39c2:	f4 01       	movw	r30, r8
    39c4:	81 91       	ld	r24, Z+
    39c6:	4f 01       	movw	r8, r30
    39c8:	f8 01       	movw	r30, r16
    39ca:	80 8b       	std	Z+16, r24	; 0x10
    39cc:	d5 01       	movw	r26, r10
    39ce:	2d 91       	ld	r18, X+
    39d0:	5d 01       	movw	r10, r26
    39d2:	1f 96       	adiw	r26, 0x0f	; 15
    39d4:	4c 91       	ld	r20, X
    39d6:	60 81       	ld	r22, Z
    39d8:	0f 5f       	subi	r16, 0xFF	; 255
    39da:	1f 4f       	sbci	r17, 0xFF	; 255
    39dc:	1f da       	rcall	.-3010   	; 0x2e1c <setTrackVolume>
    39de:	c8 14       	cp	r12, r8
    39e0:	d9 04       	cpc	r13, r9
    39e2:	79 f7       	brne	.-34     	; 0x39c2 <eepromLoadPattern+0x26c>
    39e4:	97 01       	movw	r18, r14
    39e6:	28 54       	subi	r18, 0x48	; 72
    39e8:	3f 4f       	sbci	r19, 0xFF	; 255
    39ea:	de 01       	movw	r26, r28
    39ec:	af 52       	subi	r26, 0x2F	; 47
    39ee:	bf 4f       	sbci	r27, 0xFF	; 255
    39f0:	f6 01       	movw	r30, r12
    39f2:	81 91       	ld	r24, Z+
    39f4:	6f 01       	movw	r12, r30
    39f6:	f9 01       	movw	r30, r18
    39f8:	81 93       	st	Z+, r24
    39fa:	9f 01       	movw	r18, r30
    39fc:	ca 16       	cp	r12, r26
    39fe:	db 06       	cpc	r13, r27
    3a00:	b9 f7       	brne	.-18     	; 0x39f0 <eepromLoadPattern+0x29a>
    3a02:	c7 01       	movw	r24, r14
    3a04:	85 53       	subi	r24, 0x35	; 53
    3a06:	9f 4f       	sbci	r25, 0xFF	; 255
    3a08:	ae 01       	movw	r20, r28
    3a0a:	4f 51       	subi	r20, 0x1F	; 31
    3a0c:	5f 4f       	sbci	r21, 0xFF	; 255
    3a0e:	2d 91       	ld	r18, X+
    3a10:	fc 01       	movw	r30, r24
    3a12:	21 93       	st	Z+, r18
    3a14:	cf 01       	movw	r24, r30
    3a16:	4a 17       	cp	r20, r26
    3a18:	5b 07       	cpc	r21, r27
    3a1a:	c9 f7       	brne	.-14     	; 0x3a0e <eepromLoadPattern+0x2b8>
    3a1c:	c7 01       	movw	r24, r14
    3a1e:	85 52       	subi	r24, 0x25	; 37
    3a20:	9f 4f       	sbci	r25, 0xFF	; 255
    3a22:	be 01       	movw	r22, r28
    3a24:	6f 50       	subi	r22, 0x0F	; 15
    3a26:	7f 4f       	sbci	r23, 0xFF	; 255
    3a28:	da 01       	movw	r26, r20
    3a2a:	2d 91       	ld	r18, X+
    3a2c:	ad 01       	movw	r20, r26
    3a2e:	fc 01       	movw	r30, r24
    3a30:	21 93       	st	Z+, r18
    3a32:	cf 01       	movw	r24, r30
    3a34:	a6 17       	cp	r26, r22
    3a36:	b7 07       	cpc	r27, r23
    3a38:	b9 f7       	brne	.-18     	; 0x3a28 <eepromLoadPattern+0x2d2>
    3a3a:	c7 01       	movw	r24, r14
    3a3c:	85 51       	subi	r24, 0x15	; 21
    3a3e:	9f 4f       	sbci	r25, 0xFF	; 255
    3a40:	fe 01       	movw	r30, r28
    3a42:	ef 5f       	subi	r30, 0xFF	; 255
    3a44:	fe 4f       	sbci	r31, 0xFE	; 254
    3a46:	db 01       	movw	r26, r22
    3a48:	2d 91       	ld	r18, X+
    3a4a:	bd 01       	movw	r22, r26
    3a4c:	dc 01       	movw	r26, r24
    3a4e:	2d 93       	st	X+, r18
    3a50:	cd 01       	movw	r24, r26
    3a52:	e6 17       	cp	r30, r22
    3a54:	f7 07       	cpc	r31, r23
    3a56:	b9 f7       	brne	.-18     	; 0x3a46 <eepromLoadPattern+0x2f0>
    3a58:	d7 01       	movw	r26, r14
    3a5a:	a5 50       	subi	r26, 0x05	; 5
    3a5c:	bf 4f       	sbci	r27, 0xFF	; 255
    3a5e:	ae 01       	movw	r20, r28
    3a60:	4f 57       	subi	r20, 0x7F	; 127
    3a62:	5e 4f       	sbci	r21, 0xFE	; 254
    3a64:	80 81       	ld	r24, Z
    3a66:	90 e0       	ldi	r25, 0x00	; 0
    3a68:	98 2f       	mov	r25, r24
    3a6a:	88 27       	eor	r24, r24
    3a6c:	21 81       	ldd	r18, Z+1	; 0x01
    3a6e:	82 2b       	or	r24, r18
    3a70:	8d 93       	st	X+, r24
    3a72:	9d 93       	st	X+, r25
    3a74:	32 96       	adiw	r30, 0x02	; 2
    3a76:	4e 17       	cp	r20, r30
    3a78:	5f 07       	cpc	r21, r31
    3a7a:	a1 f7       	brne	.-24     	; 0x3a64 <eepromLoadPattern+0x30e>
    3a7c:	0a c0       	rjmp	.+20     	; 0x3a92 <eepromLoadPattern+0x33c>
    3a7e:	fe 01       	movw	r30, r28
    3a80:	31 96       	adiw	r30, 0x01	; 1
    3a82:	5f 01       	movw	r10, r30
    3a84:	6e 01       	movw	r12, r28
    3a86:	f0 e8       	ldi	r31, 0x80	; 128
    3a88:	cf 1a       	sub	r12, r31
    3a8a:	fe ef       	ldi	r31, 0xFE	; 254
    3a8c:	df 0a       	sbc	r13, r31
    3a8e:	85 01       	movw	r16, r10
    3a90:	c0 ce       	rjmp	.-640    	; 0x3812 <eepromLoadPattern+0xbc>
    3a92:	cc 56       	subi	r28, 0x6C	; 108
    3a94:	de 4f       	sbci	r29, 0xFE	; 254
    3a96:	0f b6       	in	r0, 0x3f	; 63
    3a98:	f8 94       	cli
    3a9a:	de bf       	out	0x3e, r29	; 62
    3a9c:	0f be       	out	0x3f, r0	; 63
    3a9e:	cd bf       	out	0x3d, r28	; 61
    3aa0:	df 91       	pop	r29
    3aa2:	cf 91       	pop	r28
    3aa4:	1f 91       	pop	r17
    3aa6:	0f 91       	pop	r16
    3aa8:	ff 90       	pop	r15
    3aaa:	ef 90       	pop	r14
    3aac:	df 90       	pop	r13
    3aae:	cf 90       	pop	r12
    3ab0:	bf 90       	pop	r11
    3ab2:	af 90       	pop	r10
    3ab4:	9f 90       	pop	r9
    3ab6:	8f 90       	pop	r8
    3ab8:	08 95       	ret

00003aba <factoryResetEeprom>:
    3aba:	ff 92       	push	r15
    3abc:	0f 93       	push	r16
    3abe:	1f 93       	push	r17
    3ac0:	cf 93       	push	r28
    3ac2:	df 93       	push	r29
    3ac4:	cd b7       	in	r28, 0x3d	; 61
    3ac6:	de b7       	in	r29, 0x3e	; 62
    3ac8:	65 97       	sbiw	r28, 0x15	; 21
    3aca:	0f b6       	in	r0, 0x3f	; 63
    3acc:	f8 94       	cli
    3ace:	de bf       	out	0x3e, r29	; 62
    3ad0:	0f be       	out	0x3f, r0	; 63
    3ad2:	cd bf       	out	0x3d, r28	; 61
    3ad4:	85 e1       	ldi	r24, 0x15	; 21
    3ad6:	e3 ed       	ldi	r30, 0xD3	; 211
    3ad8:	f3 e0       	ldi	r31, 0x03	; 3
    3ada:	de 01       	movw	r26, r28
    3adc:	11 96       	adiw	r26, 0x01	; 1
    3ade:	01 90       	ld	r0, Z+
    3ae0:	0d 92       	st	X+, r0
    3ae2:	8a 95       	dec	r24
    3ae4:	e1 f7       	brne	.-8      	; 0x3ade <factoryResetEeprom+0x24>
    3ae6:	10 e0       	ldi	r17, 0x00	; 0
    3ae8:	0f 2e       	mov	r0, r31
    3aea:	ff e4       	ldi	r31, 0x4F	; 79
    3aec:	ff 2e       	mov	r15, r31
    3aee:	f0 2d       	mov	r31, r0
    3af0:	0b ed       	ldi	r16, 0xDB	; 219
    3af2:	1f 93       	push	r17
    3af4:	8d b7       	in	r24, 0x3d	; 61
    3af6:	9e b7       	in	r25, 0x3e	; 62
    3af8:	8b 57       	subi	r24, 0x7B	; 123
    3afa:	91 40       	sbci	r25, 0x01	; 1
    3afc:	0f b6       	in	r0, 0x3f	; 63
    3afe:	f8 94       	cli
    3b00:	9e bf       	out	0x3e, r25	; 62
    3b02:	0f be       	out	0x3f, r0	; 63
    3b04:	8d bf       	out	0x3d, r24	; 61
    3b06:	ad b7       	in	r26, 0x3d	; 61
    3b08:	be b7       	in	r27, 0x3e	; 62
    3b0a:	11 96       	adiw	r26, 0x01	; 1
    3b0c:	8b e7       	ldi	r24, 0x7B	; 123
    3b0e:	91 e0       	ldi	r25, 0x01	; 1
    3b10:	fe 01       	movw	r30, r28
    3b12:	7e 96       	adiw	r30, 0x1e	; 30
    3b14:	01 90       	ld	r0, Z+
    3b16:	0d 92       	st	X+, r0
    3b18:	01 97       	sbiw	r24, 0x01	; 1
    3b1a:	e1 f7       	brne	.-8      	; 0x3b14 <factoryResetEeprom+0x5a>
    3b1c:	2f dc       	rcall	.-1954   	; 0x337c <eepromSavePattern>
    3b1e:	8f e1       	ldi	r24, 0x1F	; 31
    3b20:	9e e4       	ldi	r25, 0x4E	; 78
    3b22:	01 97       	sbiw	r24, 0x01	; 1
    3b24:	f1 f7       	brne	.-4      	; 0x3b22 <factoryResetEeprom+0x68>
    3b26:	00 c0       	rjmp	.+0      	; 0x3b28 <factoryResetEeprom+0x6e>
    3b28:	00 00       	nop
    3b2a:	1f 9d       	mul	r17, r15
    3b2c:	81 2d       	mov	r24, r1
    3b2e:	11 24       	eor	r1, r1
    3b30:	86 95       	lsr	r24
    3b32:	86 95       	lsr	r24
    3b34:	e1 e0       	ldi	r30, 0x01	; 1
    3b36:	f0 e0       	ldi	r31, 0x00	; 0
    3b38:	ec 0f       	add	r30, r28
    3b3a:	fd 1f       	adc	r31, r29
    3b3c:	e8 0f       	add	r30, r24
    3b3e:	f1 1d       	adc	r31, r1
    3b40:	00 83       	st	Z, r16
    3b42:	0f b6       	in	r0, 0x3f	; 63
    3b44:	f8 94       	cli
    3b46:	de bf       	out	0x3e, r29	; 62
    3b48:	0f be       	out	0x3f, r0	; 63
    3b4a:	cd bf       	out	0x3d, r28	; 61
    3b4c:	63 e0       	ldi	r22, 0x03	; 3
    3b4e:	70 e0       	ldi	r23, 0x00	; 0
    3b50:	ce 01       	movw	r24, r28
    3b52:	01 96       	adiw	r24, 0x01	; 1
    3b54:	0e 94 b4 13 	call	0x2768	; 0x2768 <outputS>
    3b58:	1f 5f       	subi	r17, 0xFF	; 255
    3b5a:	1f 3f       	cpi	r17, 0xFF	; 255
    3b5c:	51 f6       	brne	.-108    	; 0x3af2 <factoryResetEeprom+0x38>
    3b5e:	65 96       	adiw	r28, 0x15	; 21
    3b60:	0f b6       	in	r0, 0x3f	; 63
    3b62:	f8 94       	cli
    3b64:	de bf       	out	0x3e, r29	; 62
    3b66:	0f be       	out	0x3f, r0	; 63
    3b68:	cd bf       	out	0x3d, r28	; 61
    3b6a:	df 91       	pop	r29
    3b6c:	cf 91       	pop	r28
    3b6e:	1f 91       	pop	r17
    3b70:	0f 91       	pop	r16
    3b72:	ff 90       	pop	r15
    3b74:	08 95       	ret

00003b76 <globalWrite>:

//this happens when save button is pressed on global menu. 
void globalWrite(Globals *currentGlobals)
{
    3b76:	cf 93       	push	r28
    3b78:	df 93       	push	r29
    3b7a:	ec 01       	movw	r28, r24
	eeprom_write_byte(0,currentGlobals->midiChannel); //this may be wrong, but it does get rid of the warning. 
    3b7c:	6c 85       	ldd	r22, Y+12	; 0x0c
    3b7e:	80 e0       	ldi	r24, 0x00	; 0
    3b80:	90 e0       	ldi	r25, 0x00	; 0
    3b82:	46 d2       	rcall	.+1164   	; 0x4010 <eeprom_write_byte>
	eeprom_write_block(currentGlobals->midiTrackNote,1,16);
    3b84:	40 e1       	ldi	r20, 0x10	; 16
    3b86:	50 e0       	ldi	r21, 0x00	; 0
    3b88:	61 e0       	ldi	r22, 0x01	; 1
    3b8a:	70 e0       	ldi	r23, 0x00	; 0
    3b8c:	ce 01       	movw	r24, r28
    3b8e:	0d 96       	adiw	r24, 0x0d	; 13
    3b90:	36 d2       	rcall	.+1132   	; 0x3ffe <eeprom_write_block>
}
    3b92:	df 91       	pop	r29
    3b94:	cf 91       	pop	r28
    3b96:	08 95       	ret

00003b98 <globalLoad>:
//This happens at startup only, in function "initGlobals"

void globalLoad(Globals *currentGlobals, uint8_t factoryReset)
{
    3b98:	cf 93       	push	r28
    3b9a:	df 93       	push	r29
	//we need to load all of the global midi settings here. 
	//we can also check the factory reset bit here. 
	//if the program has not gone through the initial state, and had the internal eeprom formatted, then this will return garbage. 
	if(factoryReset==0)
    3b9c:	61 11       	cpse	r22, r1
    3b9e:	0c c0       	rjmp	.+24     	; 0x3bb8 <globalLoad+0x20>
    3ba0:	ec 01       	movw	r28, r24
	{
		currentGlobals->midiChannel = eeprom_read_byte(0);
    3ba2:	80 e0       	ldi	r24, 0x00	; 0
    3ba4:	90 e0       	ldi	r25, 0x00	; 0
    3ba6:	23 d2       	rcall	.+1094   	; 0x3fee <eeprom_read_byte>
    3ba8:	8c 87       	std	Y+12, r24	; 0x0c
		eeprom_read_block(currentGlobals->midiTrackNote,1,16);
    3baa:	40 e1       	ldi	r20, 0x10	; 16
    3bac:	50 e0       	ldi	r21, 0x00	; 0
    3bae:	61 e0       	ldi	r22, 0x01	; 1
    3bb0:	70 e0       	ldi	r23, 0x00	; 0
    3bb2:	ce 01       	movw	r24, r28
    3bb4:	0d 96       	adiw	r24, 0x0d	; 13
    3bb6:	0b d2       	rcall	.+1046   	; 0x3fce <eeprom_read_block>
	}
}
    3bb8:	df 91       	pop	r29
    3bba:	cf 91       	pop	r28
    3bbc:	08 95       	ret

00003bbe <__subsf3>:
    3bbe:	50 58       	subi	r21, 0x80	; 128

00003bc0 <__addsf3>:
    3bc0:	bb 27       	eor	r27, r27
    3bc2:	aa 27       	eor	r26, r26
    3bc4:	0e d0       	rcall	.+28     	; 0x3be2 <__addsf3x>
    3bc6:	4d c1       	rjmp	.+666    	; 0x3e62 <__fp_round>
    3bc8:	3e d1       	rcall	.+636    	; 0x3e46 <__fp_pscA>
    3bca:	30 f0       	brcs	.+12     	; 0x3bd8 <__addsf3+0x18>
    3bcc:	43 d1       	rcall	.+646    	; 0x3e54 <__fp_pscB>
    3bce:	20 f0       	brcs	.+8      	; 0x3bd8 <__addsf3+0x18>
    3bd0:	31 f4       	brne	.+12     	; 0x3bde <__addsf3+0x1e>
    3bd2:	9f 3f       	cpi	r25, 0xFF	; 255
    3bd4:	11 f4       	brne	.+4      	; 0x3bda <__addsf3+0x1a>
    3bd6:	1e f4       	brtc	.+6      	; 0x3bde <__addsf3+0x1e>
    3bd8:	33 c1       	rjmp	.+614    	; 0x3e40 <__fp_nan>
    3bda:	0e f4       	brtc	.+2      	; 0x3bde <__addsf3+0x1e>
    3bdc:	e0 95       	com	r30
    3bde:	e7 fb       	bst	r30, 7
    3be0:	29 c1       	rjmp	.+594    	; 0x3e34 <__fp_inf>

00003be2 <__addsf3x>:
    3be2:	e9 2f       	mov	r30, r25
    3be4:	4f d1       	rcall	.+670    	; 0x3e84 <__fp_split3>
    3be6:	80 f3       	brcs	.-32     	; 0x3bc8 <__addsf3+0x8>
    3be8:	ba 17       	cp	r27, r26
    3bea:	62 07       	cpc	r22, r18
    3bec:	73 07       	cpc	r23, r19
    3bee:	84 07       	cpc	r24, r20
    3bf0:	95 07       	cpc	r25, r21
    3bf2:	18 f0       	brcs	.+6      	; 0x3bfa <__addsf3x+0x18>
    3bf4:	71 f4       	brne	.+28     	; 0x3c12 <__addsf3x+0x30>
    3bf6:	9e f5       	brtc	.+102    	; 0x3c5e <__addsf3x+0x7c>
    3bf8:	67 c1       	rjmp	.+718    	; 0x3ec8 <__fp_zero>
    3bfa:	0e f4       	brtc	.+2      	; 0x3bfe <__addsf3x+0x1c>
    3bfc:	e0 95       	com	r30
    3bfe:	0b 2e       	mov	r0, r27
    3c00:	ba 2f       	mov	r27, r26
    3c02:	a0 2d       	mov	r26, r0
    3c04:	0b 01       	movw	r0, r22
    3c06:	b9 01       	movw	r22, r18
    3c08:	90 01       	movw	r18, r0
    3c0a:	0c 01       	movw	r0, r24
    3c0c:	ca 01       	movw	r24, r20
    3c0e:	a0 01       	movw	r20, r0
    3c10:	11 24       	eor	r1, r1
    3c12:	ff 27       	eor	r31, r31
    3c14:	59 1b       	sub	r21, r25
    3c16:	99 f0       	breq	.+38     	; 0x3c3e <__addsf3x+0x5c>
    3c18:	59 3f       	cpi	r21, 0xF9	; 249
    3c1a:	50 f4       	brcc	.+20     	; 0x3c30 <__addsf3x+0x4e>
    3c1c:	50 3e       	cpi	r21, 0xE0	; 224
    3c1e:	68 f1       	brcs	.+90     	; 0x3c7a <__addsf3x+0x98>
    3c20:	1a 16       	cp	r1, r26
    3c22:	f0 40       	sbci	r31, 0x00	; 0
    3c24:	a2 2f       	mov	r26, r18
    3c26:	23 2f       	mov	r18, r19
    3c28:	34 2f       	mov	r19, r20
    3c2a:	44 27       	eor	r20, r20
    3c2c:	58 5f       	subi	r21, 0xF8	; 248
    3c2e:	f3 cf       	rjmp	.-26     	; 0x3c16 <__addsf3x+0x34>
    3c30:	46 95       	lsr	r20
    3c32:	37 95       	ror	r19
    3c34:	27 95       	ror	r18
    3c36:	a7 95       	ror	r26
    3c38:	f0 40       	sbci	r31, 0x00	; 0
    3c3a:	53 95       	inc	r21
    3c3c:	c9 f7       	brne	.-14     	; 0x3c30 <__addsf3x+0x4e>
    3c3e:	7e f4       	brtc	.+30     	; 0x3c5e <__addsf3x+0x7c>
    3c40:	1f 16       	cp	r1, r31
    3c42:	ba 0b       	sbc	r27, r26
    3c44:	62 0b       	sbc	r22, r18
    3c46:	73 0b       	sbc	r23, r19
    3c48:	84 0b       	sbc	r24, r20
    3c4a:	ba f0       	brmi	.+46     	; 0x3c7a <__addsf3x+0x98>
    3c4c:	91 50       	subi	r25, 0x01	; 1
    3c4e:	a1 f0       	breq	.+40     	; 0x3c78 <__addsf3x+0x96>
    3c50:	ff 0f       	add	r31, r31
    3c52:	bb 1f       	adc	r27, r27
    3c54:	66 1f       	adc	r22, r22
    3c56:	77 1f       	adc	r23, r23
    3c58:	88 1f       	adc	r24, r24
    3c5a:	c2 f7       	brpl	.-16     	; 0x3c4c <__addsf3x+0x6a>
    3c5c:	0e c0       	rjmp	.+28     	; 0x3c7a <__addsf3x+0x98>
    3c5e:	ba 0f       	add	r27, r26
    3c60:	62 1f       	adc	r22, r18
    3c62:	73 1f       	adc	r23, r19
    3c64:	84 1f       	adc	r24, r20
    3c66:	48 f4       	brcc	.+18     	; 0x3c7a <__addsf3x+0x98>
    3c68:	87 95       	ror	r24
    3c6a:	77 95       	ror	r23
    3c6c:	67 95       	ror	r22
    3c6e:	b7 95       	ror	r27
    3c70:	f7 95       	ror	r31
    3c72:	9e 3f       	cpi	r25, 0xFE	; 254
    3c74:	08 f0       	brcs	.+2      	; 0x3c78 <__addsf3x+0x96>
    3c76:	b3 cf       	rjmp	.-154    	; 0x3bde <__addsf3+0x1e>
    3c78:	93 95       	inc	r25
    3c7a:	88 0f       	add	r24, r24
    3c7c:	08 f0       	brcs	.+2      	; 0x3c80 <__addsf3x+0x9e>
    3c7e:	99 27       	eor	r25, r25
    3c80:	ee 0f       	add	r30, r30
    3c82:	97 95       	ror	r25
    3c84:	87 95       	ror	r24
    3c86:	08 95       	ret

00003c88 <__divsf3>:
    3c88:	0c d0       	rcall	.+24     	; 0x3ca2 <__divsf3x>
    3c8a:	eb c0       	rjmp	.+470    	; 0x3e62 <__fp_round>
    3c8c:	e3 d0       	rcall	.+454    	; 0x3e54 <__fp_pscB>
    3c8e:	40 f0       	brcs	.+16     	; 0x3ca0 <__divsf3+0x18>
    3c90:	da d0       	rcall	.+436    	; 0x3e46 <__fp_pscA>
    3c92:	30 f0       	brcs	.+12     	; 0x3ca0 <__divsf3+0x18>
    3c94:	21 f4       	brne	.+8      	; 0x3c9e <__divsf3+0x16>
    3c96:	5f 3f       	cpi	r21, 0xFF	; 255
    3c98:	19 f0       	breq	.+6      	; 0x3ca0 <__divsf3+0x18>
    3c9a:	cc c0       	rjmp	.+408    	; 0x3e34 <__fp_inf>
    3c9c:	51 11       	cpse	r21, r1
    3c9e:	15 c1       	rjmp	.+554    	; 0x3eca <__fp_szero>
    3ca0:	cf c0       	rjmp	.+414    	; 0x3e40 <__fp_nan>

00003ca2 <__divsf3x>:
    3ca2:	f0 d0       	rcall	.+480    	; 0x3e84 <__fp_split3>
    3ca4:	98 f3       	brcs	.-26     	; 0x3c8c <__divsf3+0x4>

00003ca6 <__divsf3_pse>:
    3ca6:	99 23       	and	r25, r25
    3ca8:	c9 f3       	breq	.-14     	; 0x3c9c <__divsf3+0x14>
    3caa:	55 23       	and	r21, r21
    3cac:	b1 f3       	breq	.-20     	; 0x3c9a <__divsf3+0x12>
    3cae:	95 1b       	sub	r25, r21
    3cb0:	55 0b       	sbc	r21, r21
    3cb2:	bb 27       	eor	r27, r27
    3cb4:	aa 27       	eor	r26, r26
    3cb6:	62 17       	cp	r22, r18
    3cb8:	73 07       	cpc	r23, r19
    3cba:	84 07       	cpc	r24, r20
    3cbc:	38 f0       	brcs	.+14     	; 0x3ccc <__divsf3_pse+0x26>
    3cbe:	9f 5f       	subi	r25, 0xFF	; 255
    3cc0:	5f 4f       	sbci	r21, 0xFF	; 255
    3cc2:	22 0f       	add	r18, r18
    3cc4:	33 1f       	adc	r19, r19
    3cc6:	44 1f       	adc	r20, r20
    3cc8:	aa 1f       	adc	r26, r26
    3cca:	a9 f3       	breq	.-22     	; 0x3cb6 <__divsf3_pse+0x10>
    3ccc:	33 d0       	rcall	.+102    	; 0x3d34 <__divsf3_pse+0x8e>
    3cce:	0e 2e       	mov	r0, r30
    3cd0:	3a f0       	brmi	.+14     	; 0x3ce0 <__divsf3_pse+0x3a>
    3cd2:	e0 e8       	ldi	r30, 0x80	; 128
    3cd4:	30 d0       	rcall	.+96     	; 0x3d36 <__divsf3_pse+0x90>
    3cd6:	91 50       	subi	r25, 0x01	; 1
    3cd8:	50 40       	sbci	r21, 0x00	; 0
    3cda:	e6 95       	lsr	r30
    3cdc:	00 1c       	adc	r0, r0
    3cde:	ca f7       	brpl	.-14     	; 0x3cd2 <__divsf3_pse+0x2c>
    3ce0:	29 d0       	rcall	.+82     	; 0x3d34 <__divsf3_pse+0x8e>
    3ce2:	fe 2f       	mov	r31, r30
    3ce4:	27 d0       	rcall	.+78     	; 0x3d34 <__divsf3_pse+0x8e>
    3ce6:	66 0f       	add	r22, r22
    3ce8:	77 1f       	adc	r23, r23
    3cea:	88 1f       	adc	r24, r24
    3cec:	bb 1f       	adc	r27, r27
    3cee:	26 17       	cp	r18, r22
    3cf0:	37 07       	cpc	r19, r23
    3cf2:	48 07       	cpc	r20, r24
    3cf4:	ab 07       	cpc	r26, r27
    3cf6:	b0 e8       	ldi	r27, 0x80	; 128
    3cf8:	09 f0       	breq	.+2      	; 0x3cfc <__divsf3_pse+0x56>
    3cfa:	bb 0b       	sbc	r27, r27
    3cfc:	80 2d       	mov	r24, r0
    3cfe:	bf 01       	movw	r22, r30
    3d00:	ff 27       	eor	r31, r31
    3d02:	93 58       	subi	r25, 0x83	; 131
    3d04:	5f 4f       	sbci	r21, 0xFF	; 255
    3d06:	2a f0       	brmi	.+10     	; 0x3d12 <__divsf3_pse+0x6c>
    3d08:	9e 3f       	cpi	r25, 0xFE	; 254
    3d0a:	51 05       	cpc	r21, r1
    3d0c:	68 f0       	brcs	.+26     	; 0x3d28 <__divsf3_pse+0x82>
    3d0e:	92 c0       	rjmp	.+292    	; 0x3e34 <__fp_inf>
    3d10:	dc c0       	rjmp	.+440    	; 0x3eca <__fp_szero>
    3d12:	5f 3f       	cpi	r21, 0xFF	; 255
    3d14:	ec f3       	brlt	.-6      	; 0x3d10 <__divsf3_pse+0x6a>
    3d16:	98 3e       	cpi	r25, 0xE8	; 232
    3d18:	dc f3       	brlt	.-10     	; 0x3d10 <__divsf3_pse+0x6a>
    3d1a:	86 95       	lsr	r24
    3d1c:	77 95       	ror	r23
    3d1e:	67 95       	ror	r22
    3d20:	b7 95       	ror	r27
    3d22:	f7 95       	ror	r31
    3d24:	9f 5f       	subi	r25, 0xFF	; 255
    3d26:	c9 f7       	brne	.-14     	; 0x3d1a <__divsf3_pse+0x74>
    3d28:	88 0f       	add	r24, r24
    3d2a:	91 1d       	adc	r25, r1
    3d2c:	96 95       	lsr	r25
    3d2e:	87 95       	ror	r24
    3d30:	97 f9       	bld	r25, 7
    3d32:	08 95       	ret
    3d34:	e1 e0       	ldi	r30, 0x01	; 1
    3d36:	66 0f       	add	r22, r22
    3d38:	77 1f       	adc	r23, r23
    3d3a:	88 1f       	adc	r24, r24
    3d3c:	bb 1f       	adc	r27, r27
    3d3e:	62 17       	cp	r22, r18
    3d40:	73 07       	cpc	r23, r19
    3d42:	84 07       	cpc	r24, r20
    3d44:	ba 07       	cpc	r27, r26
    3d46:	20 f0       	brcs	.+8      	; 0x3d50 <__divsf3_pse+0xaa>
    3d48:	62 1b       	sub	r22, r18
    3d4a:	73 0b       	sbc	r23, r19
    3d4c:	84 0b       	sbc	r24, r20
    3d4e:	ba 0b       	sbc	r27, r26
    3d50:	ee 1f       	adc	r30, r30
    3d52:	88 f7       	brcc	.-30     	; 0x3d36 <__divsf3_pse+0x90>
    3d54:	e0 95       	com	r30
    3d56:	08 95       	ret

00003d58 <__fixsfsi>:
    3d58:	04 d0       	rcall	.+8      	; 0x3d62 <__fixunssfsi>
    3d5a:	68 94       	set
    3d5c:	b1 11       	cpse	r27, r1
    3d5e:	b5 c0       	rjmp	.+362    	; 0x3eca <__fp_szero>
    3d60:	08 95       	ret

00003d62 <__fixunssfsi>:
    3d62:	98 d0       	rcall	.+304    	; 0x3e94 <__fp_splitA>
    3d64:	88 f0       	brcs	.+34     	; 0x3d88 <__fixunssfsi+0x26>
    3d66:	9f 57       	subi	r25, 0x7F	; 127
    3d68:	90 f0       	brcs	.+36     	; 0x3d8e <__fixunssfsi+0x2c>
    3d6a:	b9 2f       	mov	r27, r25
    3d6c:	99 27       	eor	r25, r25
    3d6e:	b7 51       	subi	r27, 0x17	; 23
    3d70:	a0 f0       	brcs	.+40     	; 0x3d9a <__fixunssfsi+0x38>
    3d72:	d1 f0       	breq	.+52     	; 0x3da8 <__fixunssfsi+0x46>
    3d74:	66 0f       	add	r22, r22
    3d76:	77 1f       	adc	r23, r23
    3d78:	88 1f       	adc	r24, r24
    3d7a:	99 1f       	adc	r25, r25
    3d7c:	1a f0       	brmi	.+6      	; 0x3d84 <__fixunssfsi+0x22>
    3d7e:	ba 95       	dec	r27
    3d80:	c9 f7       	brne	.-14     	; 0x3d74 <__fixunssfsi+0x12>
    3d82:	12 c0       	rjmp	.+36     	; 0x3da8 <__fixunssfsi+0x46>
    3d84:	b1 30       	cpi	r27, 0x01	; 1
    3d86:	81 f0       	breq	.+32     	; 0x3da8 <__fixunssfsi+0x46>
    3d88:	9f d0       	rcall	.+318    	; 0x3ec8 <__fp_zero>
    3d8a:	b1 e0       	ldi	r27, 0x01	; 1
    3d8c:	08 95       	ret
    3d8e:	9c c0       	rjmp	.+312    	; 0x3ec8 <__fp_zero>
    3d90:	67 2f       	mov	r22, r23
    3d92:	78 2f       	mov	r23, r24
    3d94:	88 27       	eor	r24, r24
    3d96:	b8 5f       	subi	r27, 0xF8	; 248
    3d98:	39 f0       	breq	.+14     	; 0x3da8 <__fixunssfsi+0x46>
    3d9a:	b9 3f       	cpi	r27, 0xF9	; 249
    3d9c:	cc f3       	brlt	.-14     	; 0x3d90 <__fixunssfsi+0x2e>
    3d9e:	86 95       	lsr	r24
    3da0:	77 95       	ror	r23
    3da2:	67 95       	ror	r22
    3da4:	b3 95       	inc	r27
    3da6:	d9 f7       	brne	.-10     	; 0x3d9e <__fixunssfsi+0x3c>
    3da8:	3e f4       	brtc	.+14     	; 0x3db8 <__fixunssfsi+0x56>
    3daa:	90 95       	com	r25
    3dac:	80 95       	com	r24
    3dae:	70 95       	com	r23
    3db0:	61 95       	neg	r22
    3db2:	7f 4f       	sbci	r23, 0xFF	; 255
    3db4:	8f 4f       	sbci	r24, 0xFF	; 255
    3db6:	9f 4f       	sbci	r25, 0xFF	; 255
    3db8:	08 95       	ret

00003dba <__floatunsisf>:
    3dba:	e8 94       	clt
    3dbc:	09 c0       	rjmp	.+18     	; 0x3dd0 <__floatsisf+0x12>

00003dbe <__floatsisf>:
    3dbe:	97 fb       	bst	r25, 7
    3dc0:	3e f4       	brtc	.+14     	; 0x3dd0 <__floatsisf+0x12>
    3dc2:	90 95       	com	r25
    3dc4:	80 95       	com	r24
    3dc6:	70 95       	com	r23
    3dc8:	61 95       	neg	r22
    3dca:	7f 4f       	sbci	r23, 0xFF	; 255
    3dcc:	8f 4f       	sbci	r24, 0xFF	; 255
    3dce:	9f 4f       	sbci	r25, 0xFF	; 255
    3dd0:	99 23       	and	r25, r25
    3dd2:	a9 f0       	breq	.+42     	; 0x3dfe <__floatsisf+0x40>
    3dd4:	f9 2f       	mov	r31, r25
    3dd6:	96 e9       	ldi	r25, 0x96	; 150
    3dd8:	bb 27       	eor	r27, r27
    3dda:	93 95       	inc	r25
    3ddc:	f6 95       	lsr	r31
    3dde:	87 95       	ror	r24
    3de0:	77 95       	ror	r23
    3de2:	67 95       	ror	r22
    3de4:	b7 95       	ror	r27
    3de6:	f1 11       	cpse	r31, r1
    3de8:	f8 cf       	rjmp	.-16     	; 0x3dda <__floatsisf+0x1c>
    3dea:	fa f4       	brpl	.+62     	; 0x3e2a <__floatsisf+0x6c>
    3dec:	bb 0f       	add	r27, r27
    3dee:	11 f4       	brne	.+4      	; 0x3df4 <__floatsisf+0x36>
    3df0:	60 ff       	sbrs	r22, 0
    3df2:	1b c0       	rjmp	.+54     	; 0x3e2a <__floatsisf+0x6c>
    3df4:	6f 5f       	subi	r22, 0xFF	; 255
    3df6:	7f 4f       	sbci	r23, 0xFF	; 255
    3df8:	8f 4f       	sbci	r24, 0xFF	; 255
    3dfa:	9f 4f       	sbci	r25, 0xFF	; 255
    3dfc:	16 c0       	rjmp	.+44     	; 0x3e2a <__floatsisf+0x6c>
    3dfe:	88 23       	and	r24, r24
    3e00:	11 f0       	breq	.+4      	; 0x3e06 <__floatsisf+0x48>
    3e02:	96 e9       	ldi	r25, 0x96	; 150
    3e04:	11 c0       	rjmp	.+34     	; 0x3e28 <__floatsisf+0x6a>
    3e06:	77 23       	and	r23, r23
    3e08:	21 f0       	breq	.+8      	; 0x3e12 <__floatsisf+0x54>
    3e0a:	9e e8       	ldi	r25, 0x8E	; 142
    3e0c:	87 2f       	mov	r24, r23
    3e0e:	76 2f       	mov	r23, r22
    3e10:	05 c0       	rjmp	.+10     	; 0x3e1c <__floatsisf+0x5e>
    3e12:	66 23       	and	r22, r22
    3e14:	71 f0       	breq	.+28     	; 0x3e32 <__floatsisf+0x74>
    3e16:	96 e8       	ldi	r25, 0x86	; 134
    3e18:	86 2f       	mov	r24, r22
    3e1a:	70 e0       	ldi	r23, 0x00	; 0
    3e1c:	60 e0       	ldi	r22, 0x00	; 0
    3e1e:	2a f0       	brmi	.+10     	; 0x3e2a <__floatsisf+0x6c>
    3e20:	9a 95       	dec	r25
    3e22:	66 0f       	add	r22, r22
    3e24:	77 1f       	adc	r23, r23
    3e26:	88 1f       	adc	r24, r24
    3e28:	da f7       	brpl	.-10     	; 0x3e20 <__floatsisf+0x62>
    3e2a:	88 0f       	add	r24, r24
    3e2c:	96 95       	lsr	r25
    3e2e:	87 95       	ror	r24
    3e30:	97 f9       	bld	r25, 7
    3e32:	08 95       	ret

00003e34 <__fp_inf>:
    3e34:	97 f9       	bld	r25, 7
    3e36:	9f 67       	ori	r25, 0x7F	; 127
    3e38:	80 e8       	ldi	r24, 0x80	; 128
    3e3a:	70 e0       	ldi	r23, 0x00	; 0
    3e3c:	60 e0       	ldi	r22, 0x00	; 0
    3e3e:	08 95       	ret

00003e40 <__fp_nan>:
    3e40:	9f ef       	ldi	r25, 0xFF	; 255
    3e42:	80 ec       	ldi	r24, 0xC0	; 192
    3e44:	08 95       	ret

00003e46 <__fp_pscA>:
    3e46:	00 24       	eor	r0, r0
    3e48:	0a 94       	dec	r0
    3e4a:	16 16       	cp	r1, r22
    3e4c:	17 06       	cpc	r1, r23
    3e4e:	18 06       	cpc	r1, r24
    3e50:	09 06       	cpc	r0, r25
    3e52:	08 95       	ret

00003e54 <__fp_pscB>:
    3e54:	00 24       	eor	r0, r0
    3e56:	0a 94       	dec	r0
    3e58:	12 16       	cp	r1, r18
    3e5a:	13 06       	cpc	r1, r19
    3e5c:	14 06       	cpc	r1, r20
    3e5e:	05 06       	cpc	r0, r21
    3e60:	08 95       	ret

00003e62 <__fp_round>:
    3e62:	09 2e       	mov	r0, r25
    3e64:	03 94       	inc	r0
    3e66:	00 0c       	add	r0, r0
    3e68:	11 f4       	brne	.+4      	; 0x3e6e <__fp_round+0xc>
    3e6a:	88 23       	and	r24, r24
    3e6c:	52 f0       	brmi	.+20     	; 0x3e82 <__fp_round+0x20>
    3e6e:	bb 0f       	add	r27, r27
    3e70:	40 f4       	brcc	.+16     	; 0x3e82 <__fp_round+0x20>
    3e72:	bf 2b       	or	r27, r31
    3e74:	11 f4       	brne	.+4      	; 0x3e7a <__fp_round+0x18>
    3e76:	60 ff       	sbrs	r22, 0
    3e78:	04 c0       	rjmp	.+8      	; 0x3e82 <__fp_round+0x20>
    3e7a:	6f 5f       	subi	r22, 0xFF	; 255
    3e7c:	7f 4f       	sbci	r23, 0xFF	; 255
    3e7e:	8f 4f       	sbci	r24, 0xFF	; 255
    3e80:	9f 4f       	sbci	r25, 0xFF	; 255
    3e82:	08 95       	ret

00003e84 <__fp_split3>:
    3e84:	57 fd       	sbrc	r21, 7
    3e86:	90 58       	subi	r25, 0x80	; 128
    3e88:	44 0f       	add	r20, r20
    3e8a:	55 1f       	adc	r21, r21
    3e8c:	59 f0       	breq	.+22     	; 0x3ea4 <__fp_splitA+0x10>
    3e8e:	5f 3f       	cpi	r21, 0xFF	; 255
    3e90:	71 f0       	breq	.+28     	; 0x3eae <__fp_splitA+0x1a>
    3e92:	47 95       	ror	r20

00003e94 <__fp_splitA>:
    3e94:	88 0f       	add	r24, r24
    3e96:	97 fb       	bst	r25, 7
    3e98:	99 1f       	adc	r25, r25
    3e9a:	61 f0       	breq	.+24     	; 0x3eb4 <__fp_splitA+0x20>
    3e9c:	9f 3f       	cpi	r25, 0xFF	; 255
    3e9e:	79 f0       	breq	.+30     	; 0x3ebe <__fp_splitA+0x2a>
    3ea0:	87 95       	ror	r24
    3ea2:	08 95       	ret
    3ea4:	12 16       	cp	r1, r18
    3ea6:	13 06       	cpc	r1, r19
    3ea8:	14 06       	cpc	r1, r20
    3eaa:	55 1f       	adc	r21, r21
    3eac:	f2 cf       	rjmp	.-28     	; 0x3e92 <__fp_split3+0xe>
    3eae:	46 95       	lsr	r20
    3eb0:	f1 df       	rcall	.-30     	; 0x3e94 <__fp_splitA>
    3eb2:	08 c0       	rjmp	.+16     	; 0x3ec4 <__fp_splitA+0x30>
    3eb4:	16 16       	cp	r1, r22
    3eb6:	17 06       	cpc	r1, r23
    3eb8:	18 06       	cpc	r1, r24
    3eba:	99 1f       	adc	r25, r25
    3ebc:	f1 cf       	rjmp	.-30     	; 0x3ea0 <__fp_splitA+0xc>
    3ebe:	86 95       	lsr	r24
    3ec0:	71 05       	cpc	r23, r1
    3ec2:	61 05       	cpc	r22, r1
    3ec4:	08 94       	sec
    3ec6:	08 95       	ret

00003ec8 <__fp_zero>:
    3ec8:	e8 94       	clt

00003eca <__fp_szero>:
    3eca:	bb 27       	eor	r27, r27
    3ecc:	66 27       	eor	r22, r22
    3ece:	77 27       	eor	r23, r23
    3ed0:	cb 01       	movw	r24, r22
    3ed2:	97 f9       	bld	r25, 7
    3ed4:	08 95       	ret

00003ed6 <__divmodhi4>:
    3ed6:	97 fb       	bst	r25, 7
    3ed8:	07 2e       	mov	r0, r23
    3eda:	16 f4       	brtc	.+4      	; 0x3ee0 <__divmodhi4+0xa>
    3edc:	00 94       	com	r0
    3ede:	06 d0       	rcall	.+12     	; 0x3eec <__divmodhi4_neg1>
    3ee0:	77 fd       	sbrc	r23, 7
    3ee2:	08 d0       	rcall	.+16     	; 0x3ef4 <__divmodhi4_neg2>
    3ee4:	60 d0       	rcall	.+192    	; 0x3fa6 <__udivmodhi4>
    3ee6:	07 fc       	sbrc	r0, 7
    3ee8:	05 d0       	rcall	.+10     	; 0x3ef4 <__divmodhi4_neg2>
    3eea:	3e f4       	brtc	.+14     	; 0x3efa <__divmodhi4_exit>

00003eec <__divmodhi4_neg1>:
    3eec:	90 95       	com	r25
    3eee:	81 95       	neg	r24
    3ef0:	9f 4f       	sbci	r25, 0xFF	; 255
    3ef2:	08 95       	ret

00003ef4 <__divmodhi4_neg2>:
    3ef4:	70 95       	com	r23
    3ef6:	61 95       	neg	r22
    3ef8:	7f 4f       	sbci	r23, 0xFF	; 255

00003efa <__divmodhi4_exit>:
    3efa:	08 95       	ret

00003efc <__udivmodsi4>:
    3efc:	a1 e2       	ldi	r26, 0x21	; 33
    3efe:	1a 2e       	mov	r1, r26
    3f00:	aa 1b       	sub	r26, r26
    3f02:	bb 1b       	sub	r27, r27
    3f04:	fd 01       	movw	r30, r26
    3f06:	0d c0       	rjmp	.+26     	; 0x3f22 <__udivmodsi4_ep>

00003f08 <__udivmodsi4_loop>:
    3f08:	aa 1f       	adc	r26, r26
    3f0a:	bb 1f       	adc	r27, r27
    3f0c:	ee 1f       	adc	r30, r30
    3f0e:	ff 1f       	adc	r31, r31
    3f10:	a2 17       	cp	r26, r18
    3f12:	b3 07       	cpc	r27, r19
    3f14:	e4 07       	cpc	r30, r20
    3f16:	f5 07       	cpc	r31, r21
    3f18:	20 f0       	brcs	.+8      	; 0x3f22 <__udivmodsi4_ep>
    3f1a:	a2 1b       	sub	r26, r18
    3f1c:	b3 0b       	sbc	r27, r19
    3f1e:	e4 0b       	sbc	r30, r20
    3f20:	f5 0b       	sbc	r31, r21

00003f22 <__udivmodsi4_ep>:
    3f22:	66 1f       	adc	r22, r22
    3f24:	77 1f       	adc	r23, r23
    3f26:	88 1f       	adc	r24, r24
    3f28:	99 1f       	adc	r25, r25
    3f2a:	1a 94       	dec	r1
    3f2c:	69 f7       	brne	.-38     	; 0x3f08 <__udivmodsi4_loop>
    3f2e:	60 95       	com	r22
    3f30:	70 95       	com	r23
    3f32:	80 95       	com	r24
    3f34:	90 95       	com	r25
    3f36:	9b 01       	movw	r18, r22
    3f38:	ac 01       	movw	r20, r24
    3f3a:	bd 01       	movw	r22, r26
    3f3c:	cf 01       	movw	r24, r30
    3f3e:	08 95       	ret

00003f40 <__divmodsi4>:
    3f40:	05 2e       	mov	r0, r21
    3f42:	97 fb       	bst	r25, 7
    3f44:	16 f4       	brtc	.+4      	; 0x3f4a <__divmodsi4+0xa>
    3f46:	00 94       	com	r0
    3f48:	0f d0       	rcall	.+30     	; 0x3f68 <__negsi2>
    3f4a:	57 fd       	sbrc	r21, 7
    3f4c:	05 d0       	rcall	.+10     	; 0x3f58 <__divmodsi4_neg2>
    3f4e:	d6 df       	rcall	.-84     	; 0x3efc <__udivmodsi4>
    3f50:	07 fc       	sbrc	r0, 7
    3f52:	02 d0       	rcall	.+4      	; 0x3f58 <__divmodsi4_neg2>
    3f54:	46 f4       	brtc	.+16     	; 0x3f66 <__divmodsi4_exit>
    3f56:	08 c0       	rjmp	.+16     	; 0x3f68 <__negsi2>

00003f58 <__divmodsi4_neg2>:
    3f58:	50 95       	com	r21
    3f5a:	40 95       	com	r20
    3f5c:	30 95       	com	r19
    3f5e:	21 95       	neg	r18
    3f60:	3f 4f       	sbci	r19, 0xFF	; 255
    3f62:	4f 4f       	sbci	r20, 0xFF	; 255
    3f64:	5f 4f       	sbci	r21, 0xFF	; 255

00003f66 <__divmodsi4_exit>:
    3f66:	08 95       	ret

00003f68 <__negsi2>:
    3f68:	90 95       	com	r25
    3f6a:	80 95       	com	r24
    3f6c:	70 95       	com	r23
    3f6e:	61 95       	neg	r22
    3f70:	7f 4f       	sbci	r23, 0xFF	; 255
    3f72:	8f 4f       	sbci	r24, 0xFF	; 255
    3f74:	9f 4f       	sbci	r25, 0xFF	; 255
    3f76:	08 95       	ret

00003f78 <__tablejump2__>:
    3f78:	ee 0f       	add	r30, r30
    3f7a:	ff 1f       	adc	r31, r31
    3f7c:	88 1f       	adc	r24, r24
    3f7e:	8b bf       	out	0x3b, r24	; 59
    3f80:	07 90       	elpm	r0, Z+
    3f82:	f6 91       	elpm	r31, Z
    3f84:	e0 2d       	mov	r30, r0
    3f86:	19 94       	eijmp

00003f88 <__umulhisi3>:
    3f88:	a2 9f       	mul	r26, r18
    3f8a:	b0 01       	movw	r22, r0
    3f8c:	b3 9f       	mul	r27, r19
    3f8e:	c0 01       	movw	r24, r0
    3f90:	a3 9f       	mul	r26, r19
    3f92:	70 0d       	add	r23, r0
    3f94:	81 1d       	adc	r24, r1
    3f96:	11 24       	eor	r1, r1
    3f98:	91 1d       	adc	r25, r1
    3f9a:	b2 9f       	mul	r27, r18
    3f9c:	70 0d       	add	r23, r0
    3f9e:	81 1d       	adc	r24, r1
    3fa0:	11 24       	eor	r1, r1
    3fa2:	91 1d       	adc	r25, r1
    3fa4:	08 95       	ret

00003fa6 <__udivmodhi4>:
    3fa6:	aa 1b       	sub	r26, r26
    3fa8:	bb 1b       	sub	r27, r27
    3faa:	51 e1       	ldi	r21, 0x11	; 17
    3fac:	07 c0       	rjmp	.+14     	; 0x3fbc <__udivmodhi4_ep>

00003fae <__udivmodhi4_loop>:
    3fae:	aa 1f       	adc	r26, r26
    3fb0:	bb 1f       	adc	r27, r27
    3fb2:	a6 17       	cp	r26, r22
    3fb4:	b7 07       	cpc	r27, r23
    3fb6:	10 f0       	brcs	.+4      	; 0x3fbc <__udivmodhi4_ep>
    3fb8:	a6 1b       	sub	r26, r22
    3fba:	b7 0b       	sbc	r27, r23

00003fbc <__udivmodhi4_ep>:
    3fbc:	88 1f       	adc	r24, r24
    3fbe:	99 1f       	adc	r25, r25
    3fc0:	5a 95       	dec	r21
    3fc2:	a9 f7       	brne	.-22     	; 0x3fae <__udivmodhi4_loop>
    3fc4:	80 95       	com	r24
    3fc6:	90 95       	com	r25
    3fc8:	bc 01       	movw	r22, r24
    3fca:	cd 01       	movw	r24, r26
    3fcc:	08 95       	ret

00003fce <eeprom_read_block>:
    3fce:	dc 01       	movw	r26, r24
    3fd0:	cb 01       	movw	r24, r22

00003fd2 <eeprom_read_blraw>:
    3fd2:	fc 01       	movw	r30, r24
    3fd4:	f9 99       	sbic	0x1f, 1	; 31
    3fd6:	fe cf       	rjmp	.-4      	; 0x3fd4 <eeprom_read_blraw+0x2>
    3fd8:	06 c0       	rjmp	.+12     	; 0x3fe6 <eeprom_read_blraw+0x14>
    3fda:	f2 bd       	out	0x22, r31	; 34
    3fdc:	e1 bd       	out	0x21, r30	; 33
    3fde:	f8 9a       	sbi	0x1f, 0	; 31
    3fe0:	31 96       	adiw	r30, 0x01	; 1
    3fe2:	00 b4       	in	r0, 0x20	; 32
    3fe4:	0d 92       	st	X+, r0
    3fe6:	41 50       	subi	r20, 0x01	; 1
    3fe8:	50 40       	sbci	r21, 0x00	; 0
    3fea:	b8 f7       	brcc	.-18     	; 0x3fda <eeprom_read_blraw+0x8>
    3fec:	08 95       	ret

00003fee <eeprom_read_byte>:
    3fee:	f9 99       	sbic	0x1f, 1	; 31
    3ff0:	fe cf       	rjmp	.-4      	; 0x3fee <eeprom_read_byte>
    3ff2:	92 bd       	out	0x22, r25	; 34
    3ff4:	81 bd       	out	0x21, r24	; 33
    3ff6:	f8 9a       	sbi	0x1f, 0	; 31
    3ff8:	99 27       	eor	r25, r25
    3ffa:	80 b5       	in	r24, 0x20	; 32
    3ffc:	08 95       	ret

00003ffe <eeprom_write_block>:
    3ffe:	dc 01       	movw	r26, r24
    4000:	cb 01       	movw	r24, r22
    4002:	02 c0       	rjmp	.+4      	; 0x4008 <eeprom_write_block+0xa>
    4004:	2d 91       	ld	r18, X+
    4006:	05 d0       	rcall	.+10     	; 0x4012 <eeprom_write_r18>
    4008:	41 50       	subi	r20, 0x01	; 1
    400a:	50 40       	sbci	r21, 0x00	; 0
    400c:	d8 f7       	brcc	.-10     	; 0x4004 <eeprom_write_block+0x6>
    400e:	08 95       	ret

00004010 <eeprom_write_byte>:
    4010:	26 2f       	mov	r18, r22

00004012 <eeprom_write_r18>:
    4012:	f9 99       	sbic	0x1f, 1	; 31
    4014:	fe cf       	rjmp	.-4      	; 0x4012 <eeprom_write_r18>
    4016:	1f ba       	out	0x1f, r1	; 31
    4018:	92 bd       	out	0x22, r25	; 34
    401a:	81 bd       	out	0x21, r24	; 33
    401c:	20 bd       	out	0x20, r18	; 32
    401e:	0f b6       	in	r0, 0x3f	; 63
    4020:	f8 94       	cli
    4022:	fa 9a       	sbi	0x1f, 2	; 31
    4024:	f9 9a       	sbi	0x1f, 1	; 31
    4026:	0f be       	out	0x3f, r0	; 63
    4028:	01 96       	adiw	r24, 0x01	; 1
    402a:	08 95       	ret

0000402c <_exit>:
    402c:	f8 94       	cli

0000402e <__stop_program>:
    402e:	ff cf       	rjmp	.-2      	; 0x402e <__stop_program>
