
TsunamiCS1Master.elf:     file format elf32-avr

Sections:
Idx Name          Size      VMA       LMA       File off  Algn
  0 .data         000001a4  00800200  000011e4  00001278  2**0
                  CONTENTS, ALLOC, LOAD, DATA
  1 .text         000011e4  00000000  00000000  00000094  2**1
                  CONTENTS, ALLOC, LOAD, READONLY, CODE
  2 .bss          00000288  008003a4  008003a4  0000141c  2**0
                  ALLOC
  3 .comment      00000030  00000000  00000000  0000141c  2**0
                  CONTENTS, READONLY
  4 .note.gnu.avr.deviceinfo 00000040  00000000  00000000  0000144c  2**2
                  CONTENTS, READONLY
  5 .debug_aranges 00000210  00000000  00000000  0000148c  2**0
                  CONTENTS, READONLY, DEBUGGING
  6 .debug_info   0000310b  00000000  00000000  0000169c  2**0
                  CONTENTS, READONLY, DEBUGGING
  7 .debug_abbrev 000014ad  00000000  00000000  000047a7  2**0
                  CONTENTS, READONLY, DEBUGGING
  8 .debug_line   0000127c  00000000  00000000  00005c54  2**0
                  CONTENTS, READONLY, DEBUGGING
  9 .debug_frame  000004a0  00000000  00000000  00006ed0  2**2
                  CONTENTS, READONLY, DEBUGGING
 10 .debug_str    00000d3a  00000000  00000000  00007370  2**0
                  CONTENTS, READONLY, DEBUGGING
 11 .debug_loc    000017eb  00000000  00000000  000080aa  2**0
                  CONTENTS, READONLY, DEBUGGING
 12 .debug_ranges 00000180  00000000  00000000  00009895  2**0
                  CONTENTS, READONLY, DEBUGGING

Disassembly of section .text:

00000000 <__vectors>:
       0:	71 c0       	rjmp	.+226    	; 0xe4 <__ctors_end>
       2:	00 00       	nop
       4:	8f c0       	rjmp	.+286    	; 0x124 <__bad_interrupt>
       6:	00 00       	nop
       8:	8d c0       	rjmp	.+282    	; 0x124 <__bad_interrupt>
       a:	00 00       	nop
       c:	8b c0       	rjmp	.+278    	; 0x124 <__bad_interrupt>
       e:	00 00       	nop
      10:	89 c0       	rjmp	.+274    	; 0x124 <__bad_interrupt>
      12:	00 00       	nop
      14:	87 c0       	rjmp	.+270    	; 0x124 <__bad_interrupt>
      16:	00 00       	nop
      18:	85 c0       	rjmp	.+266    	; 0x124 <__bad_interrupt>
      1a:	00 00       	nop
      1c:	83 c0       	rjmp	.+262    	; 0x124 <__bad_interrupt>
      1e:	00 00       	nop
      20:	81 c0       	rjmp	.+258    	; 0x124 <__bad_interrupt>
      22:	00 00       	nop
      24:	7f c0       	rjmp	.+254    	; 0x124 <__bad_interrupt>
      26:	00 00       	nop
      28:	7d c0       	rjmp	.+250    	; 0x124 <__bad_interrupt>
      2a:	00 00       	nop
      2c:	7b c0       	rjmp	.+246    	; 0x124 <__bad_interrupt>
      2e:	00 00       	nop
      30:	79 c0       	rjmp	.+242    	; 0x124 <__bad_interrupt>
      32:	00 00       	nop
      34:	77 c0       	rjmp	.+238    	; 0x124 <__bad_interrupt>
      36:	00 00       	nop
      38:	75 c0       	rjmp	.+234    	; 0x124 <__bad_interrupt>
      3a:	00 00       	nop
      3c:	73 c0       	rjmp	.+230    	; 0x124 <__bad_interrupt>
      3e:	00 00       	nop
      40:	71 c0       	rjmp	.+226    	; 0x124 <__bad_interrupt>
      42:	00 00       	nop
      44:	6f c0       	rjmp	.+222    	; 0x124 <__bad_interrupt>
      46:	00 00       	nop
      48:	6d c0       	rjmp	.+218    	; 0x124 <__bad_interrupt>
      4a:	00 00       	nop
      4c:	6b c0       	rjmp	.+214    	; 0x124 <__bad_interrupt>
      4e:	00 00       	nop
      50:	69 c0       	rjmp	.+210    	; 0x124 <__bad_interrupt>
      52:	00 00       	nop
      54:	67 c0       	rjmp	.+206    	; 0x124 <__bad_interrupt>
      56:	00 00       	nop
      58:	65 c0       	rjmp	.+202    	; 0x124 <__bad_interrupt>
      5a:	00 00       	nop
      5c:	63 c0       	rjmp	.+198    	; 0x124 <__bad_interrupt>
      5e:	00 00       	nop
      60:	61 c0       	rjmp	.+194    	; 0x124 <__bad_interrupt>
      62:	00 00       	nop
      64:	5f c0       	rjmp	.+190    	; 0x124 <__bad_interrupt>
      66:	00 00       	nop
      68:	5d c0       	rjmp	.+186    	; 0x124 <__bad_interrupt>
      6a:	00 00       	nop
      6c:	f2 c5       	rjmp	.+3044   	; 0xc52 <__vector_27>
      6e:	00 00       	nop
      70:	59 c0       	rjmp	.+178    	; 0x124 <__bad_interrupt>
      72:	00 00       	nop
      74:	57 c0       	rjmp	.+174    	; 0x124 <__bad_interrupt>
      76:	00 00       	nop
      78:	55 c0       	rjmp	.+170    	; 0x124 <__bad_interrupt>
      7a:	00 00       	nop
      7c:	53 c0       	rjmp	.+166    	; 0x124 <__bad_interrupt>
      7e:	00 00       	nop
      80:	51 c0       	rjmp	.+162    	; 0x124 <__bad_interrupt>
      82:	00 00       	nop
      84:	4f c0       	rjmp	.+158    	; 0x124 <__bad_interrupt>
      86:	00 00       	nop
      88:	4d c0       	rjmp	.+154    	; 0x124 <__bad_interrupt>
      8a:	00 00       	nop
      8c:	4b c0       	rjmp	.+150    	; 0x124 <__bad_interrupt>
      8e:	00 00       	nop
      90:	49 c0       	rjmp	.+146    	; 0x124 <__bad_interrupt>
      92:	00 00       	nop
      94:	47 c0       	rjmp	.+142    	; 0x124 <__bad_interrupt>
      96:	00 00       	nop
      98:	45 c0       	rjmp	.+138    	; 0x124 <__bad_interrupt>
      9a:	00 00       	nop
      9c:	43 c0       	rjmp	.+134    	; 0x124 <__bad_interrupt>
      9e:	00 00       	nop
      a0:	41 c0       	rjmp	.+130    	; 0x124 <__bad_interrupt>
      a2:	00 00       	nop
      a4:	3f c0       	rjmp	.+126    	; 0x124 <__bad_interrupt>
      a6:	00 00       	nop
      a8:	3d c0       	rjmp	.+122    	; 0x124 <__bad_interrupt>
      aa:	00 00       	nop
      ac:	3b c0       	rjmp	.+118    	; 0x124 <__bad_interrupt>
      ae:	00 00       	nop
      b0:	39 c0       	rjmp	.+114    	; 0x124 <__bad_interrupt>
      b2:	00 00       	nop
      b4:	37 c0       	rjmp	.+110    	; 0x124 <__bad_interrupt>
      b6:	00 00       	nop
      b8:	35 c0       	rjmp	.+106    	; 0x124 <__bad_interrupt>
      ba:	00 00       	nop
      bc:	33 c0       	rjmp	.+102    	; 0x124 <__bad_interrupt>
      be:	00 00       	nop
      c0:	31 c0       	rjmp	.+98     	; 0x124 <__bad_interrupt>
      c2:	00 00       	nop
      c4:	2f c0       	rjmp	.+94     	; 0x124 <__bad_interrupt>
      c6:	00 00       	nop
      c8:	2d c0       	rjmp	.+90     	; 0x124 <__bad_interrupt>
      ca:	00 00       	nop
      cc:	2b c0       	rjmp	.+86     	; 0x124 <__bad_interrupt>
      ce:	00 00       	nop
      d0:	29 c0       	rjmp	.+82     	; 0x124 <__bad_interrupt>
      d2:	00 00       	nop
      d4:	27 c0       	rjmp	.+78     	; 0x124 <__bad_interrupt>
      d6:	00 00       	nop
      d8:	25 c0       	rjmp	.+74     	; 0x124 <__bad_interrupt>
      da:	00 00       	nop
      dc:	23 c0       	rjmp	.+70     	; 0x124 <__bad_interrupt>
      de:	00 00       	nop
      e0:	21 c0       	rjmp	.+66     	; 0x124 <__bad_interrupt>
	...

000000e4 <__ctors_end>:
      e4:	11 24       	eor	r1, r1
      e6:	1f be       	out	0x3f, r1	; 63
      e8:	cf ef       	ldi	r28, 0xFF	; 255
      ea:	d1 e2       	ldi	r29, 0x21	; 33
      ec:	de bf       	out	0x3e, r29	; 62
      ee:	cd bf       	out	0x3d, r28	; 61
      f0:	00 e0       	ldi	r16, 0x00	; 0
      f2:	0c bf       	out	0x3c, r16	; 60

000000f4 <__do_copy_data>:
      f4:	13 e0       	ldi	r17, 0x03	; 3
      f6:	a0 e0       	ldi	r26, 0x00	; 0
      f8:	b2 e0       	ldi	r27, 0x02	; 2
      fa:	e4 ee       	ldi	r30, 0xE4	; 228
      fc:	f1 e1       	ldi	r31, 0x11	; 17
      fe:	00 e0       	ldi	r16, 0x00	; 0
     100:	0b bf       	out	0x3b, r16	; 59
     102:	02 c0       	rjmp	.+4      	; 0x108 <__do_copy_data+0x14>
     104:	07 90       	elpm	r0, Z+
     106:	0d 92       	st	X+, r0
     108:	a4 3a       	cpi	r26, 0xA4	; 164
     10a:	b1 07       	cpc	r27, r17
     10c:	d9 f7       	brne	.-10     	; 0x104 <__do_copy_data+0x10>

0000010e <__do_clear_bss>:
     10e:	26 e0       	ldi	r18, 0x06	; 6
     110:	a4 ea       	ldi	r26, 0xA4	; 164
     112:	b3 e0       	ldi	r27, 0x03	; 3
     114:	01 c0       	rjmp	.+2      	; 0x118 <.do_clear_bss_start>

00000116 <.do_clear_bss_loop>:
     116:	1d 92       	st	X+, r1

00000118 <.do_clear_bss_start>:
     118:	ac 32       	cpi	r26, 0x2C	; 44
     11a:	b2 07       	cpc	r27, r18
     11c:	e1 f7       	brne	.-8      	; 0x116 <.do_clear_bss_loop>
     11e:	c8 d2       	rcall	.+1424   	; 0x6b0 <main>
     120:	0c 94 f0 08 	jmp	0x11e0	; 0x11e0 <_exit>

00000124 <__bad_interrupt>:
     124:	6d cf       	rjmp	.-294    	; 0x0 <__vectors>

00000126 <initButtons>:

void initButtons()
{
	//this will initialize all of the buttons on the front panel
	//main trigger buttons
	PORTA = 0xFF;
     126:	8f ef       	ldi	r24, 0xFF	; 255
     128:	82 b9       	out	0x02, r24	; 2
	PORTL = 0xFF;
     12a:	80 93 0b 01 	sts	0x010B, r24	; 0x80010b <__TEXT_REGION_LENGTH__+0x70010b>

	//GPButtons
	PORTB = 0B00011111;
     12e:	8f e1       	ldi	r24, 0x1F	; 31
     130:	85 b9       	out	0x05, r24	; 5
     132:	08 95       	ret

00000134 <listenTrigButtons>:

}


void listenTrigButtons()
{
     134:	cf 92       	push	r12
     136:	df 92       	push	r13
     138:	ef 92       	push	r14
     13a:	ff 92       	push	r15
     13c:	0f 93       	push	r16
     13e:	1f 93       	push	r17
     140:	cf 93       	push	r28
     142:	df 93       	push	r29
	buttonsCurrentCycle = (PINL^255); //^ = bitwise XOR operation.
     144:	c0 91 09 01 	lds	r28, 0x0109	; 0x800109 <__TEXT_REGION_LENGTH__+0x700109>
     148:	c0 95       	com	r28
     14a:	c0 93 f5 04 	sts	0x04F5, r28	; 0x8004f5 <buttonsCurrentCycle>
	fullBits = (buttonsCurrentCycle << 8) | (PINA^255);
     14e:	80 b1       	in	r24, 0x00	; 0
     150:	d0 e0       	ldi	r29, 0x00	; 0
     152:	dc 2f       	mov	r29, r28
     154:	cc 27       	eor	r28, r28
     156:	80 95       	com	r24
     158:	c8 2b       	or	r28, r24
     15a:	d0 93 a8 05 	sts	0x05A8, r29	; 0x8005a8 <fullBits+0x1>
     15e:	c0 93 a7 05 	sts	0x05A7, r28	; 0x8005a7 <fullBits>
	if(fullBits!=lastFullBits) //we do read the buttons every cycle, but we don't need to update everything base on the buttons if they haven't changed.
     162:	80 91 a4 03 	lds	r24, 0x03A4	; 0x8003a4 <__data_end>
     166:	90 91 a5 03 	lds	r25, 0x03A5	; 0x8003a5 <__data_end+0x1>
     16a:	c8 17       	cp	r28, r24
     16c:	d9 07       	cpc	r29, r25
     16e:	09 f4       	brne	.+2      	; 0x172 <listenTrigButtons+0x3e>
     170:	3d c0       	rjmp	.+122    	; 0x1ec <listenTrigButtons+0xb8>
	{
		lastFullBits = fullBits;
     172:	d0 93 a5 03 	sts	0x03A5, r29	; 0x8003a5 <__data_end+0x1>
     176:	c0 93 a4 03 	sts	0x03A4, r28	; 0x8003a4 <__data_end>
     17a:	05 e3       	ldi	r16, 0x35	; 53
     17c:	14 e0       	ldi	r17, 0x04	; 4
     17e:	0f 2e       	mov	r0, r31
     180:	f5 e4       	ldi	r31, 0x45	; 69
     182:	ef 2e       	mov	r14, r31
     184:	f4 e0       	ldi	r31, 0x04	; 4
     186:	ff 2e       	mov	r15, r31
     188:	f0 2d       	mov	r31, r0
				//for "perfrmance mode", we should just use the default case, and only have code for the cases where things are outside of that use case.
				case 0: //performance mode
				//we trigger a sound here based on the location of bc
				trackControl(currentPattern.trackSampleLSB[bc], currentPattern.trackSampleMSB[bc], currentPattern.trackOutputRoute[bc], currentPattern.trackPlayMode[bc]);
				//trackControl(3,0,0,1);
				numPrinter(buttonTest,9, 2,bc);
     18a:	88 e7       	ldi	r24, 0x78	; 120
     18c:	9f ef       	ldi	r25, 0xFF	; 255
     18e:	9c 01       	movw	r18, r24
     190:	2d 5a       	subi	r18, 0xAD	; 173
     192:	33 40       	sbci	r19, 0x03	; 3
     194:	69 01       	movw	r12, r18
		uint16_t fullBitsParse = fullBits;
		//play sounds, if that is the switch case on the encoder
	//updateLEDs
	for(uint8_t bc = 0; bc<16; bc++)//bc for buttonCounter
	{
		currentTrig = (fullBitsParse&1);
     196:	8c 2f       	mov	r24, r28
     198:	81 70       	andi	r24, 0x01	; 1
     19a:	80 93 aa 05 	sts	0x05AA, r24	; 0x8005aa <currentTrig>
		if(currentTrig)
     19e:	88 23       	and	r24, r24
     1a0:	f1 f0       	breq	.+60     	; 0x1de <listenTrigButtons+0xaa>
		{
			switch (encoderAValue)
     1a2:	80 91 ac 03 	lds	r24, 0x03AC	; 0x8003ac <encoderAValue>
     1a6:	81 11       	cpse	r24, r1
     1a8:	1a c0       	rjmp	.+52     	; 0x1de <listenTrigButtons+0xaa>
			{
				
				//for "perfrmance mode", we should just use the default case, and only have code for the cases where things are outside of that use case.
				case 0: //performance mode
				//we trigger a sound here based on the location of bc
				trackControl(currentPattern.trackSampleLSB[bc], currentPattern.trackSampleMSB[bc], currentPattern.trackOutputRoute[bc], currentPattern.trackPlayMode[bc]);
     1aa:	f8 01       	movw	r30, r16
     1ac:	20 81       	ld	r18, Z
     1ae:	30 e0       	ldi	r19, 0x00	; 0
     1b0:	e0 57       	subi	r30, 0x70	; 112
     1b2:	f1 09       	sbc	r31, r1
     1b4:	40 81       	ld	r20, Z
     1b6:	50 e0       	ldi	r21, 0x00	; 0
     1b8:	f8 01       	movw	r30, r16
     1ba:	60 89       	ldd	r22, Z+16	; 0x10
     1bc:	70 e0       	ldi	r23, 0x00	; 0
     1be:	80 a1       	ldd	r24, Z+32	; 0x20
     1c0:	90 e0       	ldi	r25, 0x00	; 0
     1c2:	bd d5       	rcall	.+2938   	; 0xd3e <trackControl>
				//trackControl(3,0,0,1);
				numPrinter(buttonTest,9, 2,bc);
     1c4:	96 01       	movw	r18, r12
     1c6:	20 0f       	add	r18, r16
     1c8:	31 1f       	adc	r19, r17
     1ca:	42 e0       	ldi	r20, 0x02	; 2
     1cc:	69 e0       	ldi	r22, 0x09	; 9
     1ce:	80 e0       	ldi	r24, 0x00	; 0
     1d0:	92 e0       	ldi	r25, 0x02	; 2
     1d2:	8e d3       	rcall	.+1820   	; 0x8f0 <numPrinter>
				outputS(buttonTest, 2);
     1d4:	62 e0       	ldi	r22, 0x02	; 2
     1d6:	70 e0       	ldi	r23, 0x00	; 0
     1d8:	80 e0       	ldi	r24, 0x00	; 0
     1da:	92 e0       	ldi	r25, 0x02	; 2
     1dc:	71 d3       	rcall	.+1762   	; 0x8c0 <outputS>
			}
		
		
		}
		
		fullBitsParse = fullBitsParse>>1;
     1de:	d6 95       	lsr	r29
     1e0:	c7 95       	ror	r28
     1e2:	0f 5f       	subi	r16, 0xFF	; 255
     1e4:	1f 4f       	sbci	r17, 0xFF	; 255
	{
		lastFullBits = fullBits;
		uint16_t fullBitsParse = fullBits;
		//play sounds, if that is the switch case on the encoder
	//updateLEDs
	for(uint8_t bc = 0; bc<16; bc++)//bc for buttonCounter
     1e6:	0e 15       	cp	r16, r14
     1e8:	1f 05       	cpc	r17, r15
     1ea:	a9 f6       	brne	.-86     	; 0x196 <listenTrigButtons+0x62>
		fullBitsParse = fullBitsParse>>1;
	}
	}


}
     1ec:	df 91       	pop	r29
     1ee:	cf 91       	pop	r28
     1f0:	1f 91       	pop	r17
     1f2:	0f 91       	pop	r16
     1f4:	ff 90       	pop	r15
     1f6:	ef 90       	pop	r14
     1f8:	df 90       	pop	r13
     1fa:	cf 90       	pop	r12
     1fc:	08 95       	ret

000001fe <listenGPButtons>:

void listenGPButtons() // are the encoder buttons here also?
{
     1fe:	08 95       	ret

00000200 <initEncoders>:
#include "globalVariables.h"

void initEncoders()
{
	//this is where we set the encoder pins to where they need to be
PORTH = 0B01111000; // enable internal pullup resistors.
     200:	88 e7       	ldi	r24, 0x78	; 120
     202:	80 93 02 01 	sts	0x0102, r24	; 0x800102 <__TEXT_REGION_LENGTH__+0x700102>
     206:	08 95       	ret

00000208 <pollEncoder0>:

}

void pollEncoder0(uint8_t *encoderC0)
{
	if(~PINH&(1<<PH6))
     208:	20 91 00 01 	lds	r18, 0x0100	; 0x800100 <__TEXT_REGION_LENGTH__+0x700100>
     20c:	26 fd       	sbrc	r18, 6
     20e:	12 c0       	rjmp	.+36     	; 0x234 <pollEncoder0+0x2c>
	{
		if(~PINH&(1<<PH5))
     210:	20 91 00 01 	lds	r18, 0x0100	; 0x800100 <__TEXT_REGION_LENGTH__+0x700100>
     214:	25 fd       	sbrc	r18, 5
     216:	05 c0       	rjmp	.+10     	; 0x222 <pollEncoder0+0x1a>
		{
			//left turn?
			*encoderC0= (*encoderC0)+1;
     218:	fc 01       	movw	r30, r24
     21a:	20 81       	ld	r18, Z
     21c:	2f 5f       	subi	r18, 0xFF	; 255
     21e:	20 83       	st	Z, r18
     220:	04 c0       	rjmp	.+8      	; 0x22a <pollEncoder0+0x22>
		}
		else
		{
			*encoderC0= (*encoderC0)-1;
     222:	fc 01       	movw	r30, r24
     224:	20 81       	ld	r18, Z
     226:	21 50       	subi	r18, 0x01	; 1
     228:	20 83       	st	Z, r18
		}
		//_delay_ms(2); // seems un-necesary with while loop
		while(~PINH&(1<<PH6)){} // this does make things smoother, but we need to be sure we have interupts for important things.
     22a:	e0 e0       	ldi	r30, 0x00	; 0
     22c:	f1 e0       	ldi	r31, 0x01	; 1
     22e:	80 81       	ld	r24, Z
     230:	86 ff       	sbrs	r24, 6
     232:	fd cf       	rjmp	.-6      	; 0x22e <pollEncoder0+0x26>
     234:	08 95       	ret

00000236 <pollEncoder1>:

}

void pollEncoder1(uint8_t *encoderC1)
{
	if(~PINH&(1<<PH3))
     236:	20 91 00 01 	lds	r18, 0x0100	; 0x800100 <__TEXT_REGION_LENGTH__+0x700100>
     23a:	23 fd       	sbrc	r18, 3
     23c:	12 c0       	rjmp	.+36     	; 0x262 <pollEncoder1+0x2c>
	{
		if(~PINH&(1<<PH4))
     23e:	20 91 00 01 	lds	r18, 0x0100	; 0x800100 <__TEXT_REGION_LENGTH__+0x700100>
     242:	24 fd       	sbrc	r18, 4
     244:	05 c0       	rjmp	.+10     	; 0x250 <pollEncoder1+0x1a>
		{
			//left turn?
			*encoderC1=(*encoderC1)-1;
     246:	fc 01       	movw	r30, r24
     248:	20 81       	ld	r18, Z
     24a:	21 50       	subi	r18, 0x01	; 1
     24c:	20 83       	st	Z, r18
     24e:	04 c0       	rjmp	.+8      	; 0x258 <pollEncoder1+0x22>
		}
		else
		{
			*encoderC1=(*encoderC1)+1;
     250:	fc 01       	movw	r30, r24
     252:	20 81       	ld	r18, Z
     254:	2f 5f       	subi	r18, 0xFF	; 255
     256:	20 83       	st	Z, r18
		}
		//_delay_ms(2); // seems un-necesary with while loop
		while(~PINH&(1<<PH3)){} // this does make things smoother, but we need to be sure we have interupts for important things.
     258:	e0 e0       	ldi	r30, 0x00	; 0
     25a:	f1 e0       	ldi	r31, 0x01	; 1
     25c:	80 81       	ld	r24, Z
     25e:	83 ff       	sbrs	r24, 3
     260:	fd cf       	rjmp	.-6      	; 0x25c <pollEncoder1+0x26>
     262:	08 95       	ret

00000264 <listenEncoders>:


void listenEncoders()
{
	//this is where we update the encoder variables.
	pollEncoder0(&encoderAValue);
     264:	8c ea       	ldi	r24, 0xAC	; 172
     266:	93 e0       	ldi	r25, 0x03	; 3
     268:	cf df       	rcall	.-98     	; 0x208 <pollEncoder0>
	pollEncoder1(&encoderBValue);
     26a:	8b ea       	ldi	r24, 0xAB	; 171
     26c:	95 e0       	ldi	r25, 0x05	; 5
     26e:	e3 cf       	rjmp	.-58     	; 0x236 <pollEncoder1>
     270:	08 95       	ret

00000272 <initBank>:

#include <avr/io.h>
#include "globalVariables.h"

void initBank()
{
     272:	e5 e5       	ldi	r30, 0x55	; 85
     274:	f4 e0       	ldi	r31, 0x04	; 4
	for(uint8_t i = 0; i<16; i++)
     276:	80 e0       	ldi	r24, 0x00	; 0
	{
		currentPattern.trackSampleLSB[i] = i+1;
     278:	8f 5f       	subi	r24, 0xFF	; 255
     27a:	81 93       	st	Z+, r24
#include <avr/io.h>
#include "globalVariables.h"

void initBank()
{
	for(uint8_t i = 0; i<16; i++)
     27c:	80 31       	cpi	r24, 0x10	; 16
     27e:	e1 f7       	brne	.-8      	; 0x278 <initBank+0x6>
	{
		currentPattern.trackSampleLSB[i] = i+1;
	}


     280:	08 95       	ret

00000282 <startADCConversion>:
char trackVolumePrint[20] = "TrakVolume x = xxxdb";

uint8_t startADCConversion()
{
	
	ADCSRA |= (1 << ADSC); //this moves the read instruction bit to the ADC Register.
     282:	ea e7       	ldi	r30, 0x7A	; 122
     284:	f0 e0       	ldi	r31, 0x00	; 0
     286:	80 81       	ld	r24, Z
     288:	80 64       	ori	r24, 0x40	; 64
     28a:	80 83       	st	Z, r24
	while (ADCSRA & (1 << ADSC));
     28c:	80 81       	ld	r24, Z
     28e:	86 fd       	sbrc	r24, 6
     290:	fd cf       	rjmp	.-6      	; 0x28c <startADCConversion+0xa>
	return ADCH; //this is the top 8 bits of the 10 bit ADC Read.
     292:	80 91 79 00 	lds	r24, 0x0079	; 0x800079 <__TEXT_REGION_LENGTH__+0x700079>
	
}
     296:	08 95       	ret

00000298 <initADC>:

void initADC()
{
	DDRE = 0B00111000; //init pins E5, 4, and 3 as select pins on the external mux.
     298:	88 e3       	ldi	r24, 0x38	; 56
     29a:	8d b9       	out	0x0d, r24	; 13
	
	ADMUX = (1 << ADLAR);//we're using the AREF pin to reduce analog noise, and only grabbing 8 bits from the ADC
     29c:	80 e2       	ldi	r24, 0x20	; 32
     29e:	80 93 7c 00 	sts	0x007C, r24	; 0x80007c <__TEXT_REGION_LENGTH__+0x70007c>
	ADCSRA = (1 <<  ADEN) | (1 <<ADPS2) | (1 << ADPS1) | (1 << ADPS0);
     2a2:	87 e8       	ldi	r24, 0x87	; 135
     2a4:	80 93 7a 00 	sts	0x007A, r24	; 0x80007a <__TEXT_REGION_LENGTH__+0x70007a>
	ADCSRB = (1 << MUX5);
     2a8:	88 e0       	ldi	r24, 0x08	; 8
     2aa:	80 93 7b 00 	sts	0x007B, r24	; 0x80007b <__TEXT_REGION_LENGTH__+0x70007b>
	DIDR0 = 0xff; // we should set this register to all 1s, so there is no digital input triggering.
     2ae:	8f ef       	ldi	r24, 0xFF	; 255
     2b0:	80 93 7e 00 	sts	0x007E, r24	; 0x80007e <__TEXT_REGION_LENGTH__+0x70007e>
	DIDR2 = 0xff;
     2b4:	80 93 7d 00 	sts	0x007D, r24	; 0x80007d <__TEXT_REGION_LENGTH__+0x70007d>
	startADCConversion();
     2b8:	e4 cf       	rjmp	.-56     	; 0x282 <startADCConversion>
     2ba:	08 95       	ret

000002bc <selectKnob>:
}

void selectKnob(uint8_t select)
{ 
     2bc:	cf 93       	push	r28
	select = select%44; //accounts for overflows, may be unnecessary
     2be:	98 2f       	mov	r25, r24
     2c0:	96 95       	lsr	r25
     2c2:	96 95       	lsr	r25
     2c4:	2f e2       	ldi	r18, 0x2F	; 47
     2c6:	92 9f       	mul	r25, r18
     2c8:	91 2d       	mov	r25, r1
     2ca:	11 24       	eor	r1, r1
     2cc:	96 95       	lsr	r25
     2ce:	2c e2       	ldi	r18, 0x2C	; 44
     2d0:	92 9f       	mul	r25, r18
     2d2:	80 19       	sub	r24, r0
     2d4:	11 24       	eor	r1, r1
     2d6:	98 2f       	mov	r25, r24
	if(select<40)
     2d8:	88 32       	cpi	r24, 0x28	; 40
     2da:	18 f5       	brcc	.+70     	; 0x322 <selectKnob+0x66>
	{
		ADCSRB = (1 << MUX5);
     2dc:	88 e0       	ldi	r24, 0x08	; 8
     2de:	80 93 7b 00 	sts	0x007B, r24	; 0x80007b <__TEXT_REGION_LENGTH__+0x70007b>
		uint8_t muxSelect = select%8; //this should produce a number between 1 and 7.
     2e2:	c9 2f       	mov	r28, r25
     2e4:	c7 70       	andi	r28, 0x07	; 7
		uint8_t tempMuxSelect = muxSelect;

	//we need to set the internal multiplxer
		uint8_t internalMuxSelect = select/8;
		
		ADMUX = internalMuxSelect|(1 << ADLAR);   
     2e6:	96 95       	lsr	r25
     2e8:	96 95       	lsr	r25
     2ea:	96 95       	lsr	r25
     2ec:	90 62       	ori	r25, 0x20	; 32
     2ee:	90 93 7c 00 	sts	0x007C, r25	; 0x80007c <__TEXT_REGION_LENGTH__+0x70007c>
		startADCConversion();//this should throw away our first read after the mux changover.
     2f2:	c7 df       	rcall	.-114    	; 0x282 <startADCConversion>
		//we might need to worry about the delay, but that's fine.
		
		//we put our select0 and select2 pins in the opposite ports, so we need to do some math to fix that.
		//easy stupid fix:
		switch (tempMuxSelect)
     2f4:	c3 30       	cpi	r28, 0x03	; 3
     2f6:	59 f0       	breq	.+22     	; 0x30e <selectKnob+0x52>
     2f8:	18 f4       	brcc	.+6      	; 0x300 <selectKnob+0x44>
     2fa:	c1 30       	cpi	r28, 0x01	; 1
     2fc:	31 f0       	breq	.+12     	; 0x30a <selectKnob+0x4e>
     2fe:	0c c0       	rjmp	.+24     	; 0x318 <selectKnob+0x5c>
     300:	c4 30       	cpi	r28, 0x04	; 4
     302:	39 f0       	breq	.+14     	; 0x312 <selectKnob+0x56>
     304:	c6 30       	cpi	r28, 0x06	; 6
     306:	39 f0       	breq	.+14     	; 0x316 <selectKnob+0x5a>
     308:	07 c0       	rjmp	.+14     	; 0x318 <selectKnob+0x5c>
		{
			case 1: muxSelect = 4;
     30a:	c4 e0       	ldi	r28, 0x04	; 4
     30c:	05 c0       	rjmp	.+10     	; 0x318 <selectKnob+0x5c>
			break;
			
			case 3:	muxSelect = 6;
     30e:	c6 e0       	ldi	r28, 0x06	; 6
			break;
     310:	03 c0       	rjmp	.+6      	; 0x318 <selectKnob+0x5c>
			
			case 4: muxSelect = 1;
     312:	c1 e0       	ldi	r28, 0x01	; 1
			break;
     314:	01 c0       	rjmp	.+2      	; 0x318 <selectKnob+0x5c>
			
			case 6: muxSelect = 3;
     316:	c3 e0       	ldi	r28, 0x03	; 3
			break;
		}

	//then the external multiplexer
		PORTE = (muxSelect << 3);
     318:	cc 0f       	add	r28, r28
     31a:	cc 0f       	add	r28, r28
     31c:	cc 0f       	add	r28, r28
     31e:	ce b9       	out	0x0e, r28	; 14
     320:	20 c0       	rjmp	.+64     	; 0x362 <selectKnob+0xa6>
	
	}else
	{ //we only have to change the ADC Register, since these knobs are wired directly into our microcontroller.
		switch (select){
     322:	89 32       	cpi	r24, 0x29	; 41
     324:	71 f0       	breq	.+28     	; 0x342 <selectKnob+0x86>
     326:	18 f4       	brcc	.+6      	; 0x32e <selectKnob+0x72>
     328:	88 32       	cpi	r24, 0x28	; 40
     32a:	31 f0       	breq	.+12     	; 0x338 <selectKnob+0x7c>
     32c:	1a c0       	rjmp	.+52     	; 0x362 <selectKnob+0xa6>
     32e:	8a 32       	cpi	r24, 0x2A	; 42
     330:	69 f0       	breq	.+26     	; 0x34c <selectKnob+0x90>
     332:	8b 32       	cpi	r24, 0x2B	; 43
     334:	81 f0       	breq	.+32     	; 0x356 <selectKnob+0x9a>
     336:	15 c0       	rjmp	.+42     	; 0x362 <selectKnob+0xa6>
		case 40:
		ADMUX = 5|(1 << ADLAR);
     338:	85 e2       	ldi	r24, 0x25	; 37
     33a:	80 93 7c 00 	sts	0x007C, r24	; 0x80007c <__TEXT_REGION_LENGTH__+0x70007c>
		startADCConversion();
     33e:	a1 df       	rcall	.-190    	; 0x282 <startADCConversion>
		break;
     340:	10 c0       	rjmp	.+32     	; 0x362 <selectKnob+0xa6>
		
		case 41:
		ADMUX = 6|(1 << ADLAR);
     342:	86 e2       	ldi	r24, 0x26	; 38
     344:	80 93 7c 00 	sts	0x007C, r24	; 0x80007c <__TEXT_REGION_LENGTH__+0x70007c>
		startADCConversion();
     348:	9c df       	rcall	.-200    	; 0x282 <startADCConversion>
		break;
     34a:	0b c0       	rjmp	.+22     	; 0x362 <selectKnob+0xa6>
		
		case 42:
		ADMUX = 7|(1 << ADLAR);
     34c:	87 e2       	ldi	r24, 0x27	; 39
     34e:	80 93 7c 00 	sts	0x007C, r24	; 0x80007c <__TEXT_REGION_LENGTH__+0x70007c>
		startADCConversion();
     352:	97 df       	rcall	.-210    	; 0x282 <startADCConversion>
		break;
     354:	06 c0       	rjmp	.+12     	; 0x362 <selectKnob+0xa6>
		
		case 43:
		//remember, this knob is in port A0.
		ADMUX = 0|(1 << ADLAR);
     356:	80 e2       	ldi	r24, 0x20	; 32
     358:	80 93 7c 00 	sts	0x007C, r24	; 0x80007c <__TEXT_REGION_LENGTH__+0x70007c>
		ADCSRB = (0 << MUX5); 
     35c:	10 92 7b 00 	sts	0x007B, r1	; 0x80007b <__TEXT_REGION_LENGTH__+0x70007b>
		startADCConversion();
     360:	90 df       	rcall	.-224    	; 0x282 <startADCConversion>
		break;
		}
	
	}
	
}
     362:	cf 91       	pop	r28
     364:	08 95       	ret

00000366 <updateKnob>:

void updateKnob(uint8_t select)
{
     366:	cf 93       	push	r28
     368:	df 93       	push	r29
for (int i = 3; i > 0; i--) {
	knobBuffer[i][select] = knobBuffer[i - 1][select];//shift everyone up one.
     36a:	c8 2f       	mov	r28, r24
     36c:	d0 e0       	ldi	r29, 0x00	; 0
     36e:	c9 50       	subi	r28, 0x09	; 9
     370:	db 4f       	sbci	r29, 0xFB	; 251
     372:	de 01       	movw	r26, r28
     374:	ac 57       	subi	r26, 0x7C	; 124
     376:	bf 4f       	sbci	r27, 0xFF	; 255
     378:	fe 01       	movw	r30, r28
     37a:	e8 5a       	subi	r30, 0xA8	; 168
     37c:	ff 4f       	sbci	r31, 0xFF	; 255
     37e:	80 81       	ld	r24, Z
     380:	8c 93       	st	X, r24
     382:	8c a5       	ldd	r24, Y+44	; 0x2c
     384:	80 83       	st	Z, r24
     386:	88 81       	ld	r24, Y
     388:	8c a7       	std	Y+44, r24	; 0x2c
}
knobBuffer[0][select] = startADCConversion(); 
     38a:	7b df       	rcall	.-266    	; 0x282 <startADCConversion>
     38c:	88 83       	st	Y, r24

}
     38e:	df 91       	pop	r29
     390:	cf 91       	pop	r28
     392:	08 95       	ret

00000394 <interperetKnob>:

void interperetKnob(uint8_t select)
{//this function will compare outputs, and write to our struct.
     394:	ef 92       	push	r14
     396:	ff 92       	push	r15
     398:	0f 93       	push	r16
     39a:	1f 93       	push	r17
     39c:	cf 93       	push	r28
	select = select%44;
     39e:	98 2f       	mov	r25, r24
     3a0:	96 95       	lsr	r25
     3a2:	96 95       	lsr	r25
     3a4:	2f e2       	ldi	r18, 0x2F	; 47
     3a6:	92 9f       	mul	r25, r18
     3a8:	91 2d       	mov	r25, r1
     3aa:	11 24       	eor	r1, r1
     3ac:	96 95       	lsr	r25
     3ae:	2c e2       	ldi	r18, 0x2C	; 44
     3b0:	92 9f       	mul	r25, r18
     3b2:	80 19       	sub	r24, r0
     3b4:	11 24       	eor	r1, r1
     3b6:	98 2f       	mov	r25, r24
	float volumeDivisor = 3.1875;
	checkValue = (knobBuffer[0][select])+(knobBuffer[1][select])+(knobBuffer[2][select])+(knobBuffer[3][select]);
     3b8:	e8 2f       	mov	r30, r24
     3ba:	f0 e0       	ldi	r31, 0x00	; 0
     3bc:	e9 50       	subi	r30, 0x09	; 9
     3be:	fb 4f       	sbci	r31, 0xFB	; 251
	checkValue = (checkValue >> 2); //this gets us the 8 bit value for to check against 
     3c0:	80 81       	ld	r24, Z
     3c2:	64 a5       	ldd	r22, Z+44	; 0x2c
     3c4:	70 e0       	ldi	r23, 0x00	; 0
     3c6:	68 0f       	add	r22, r24
     3c8:	71 1d       	adc	r23, r1

void interperetKnob(uint8_t select)
{//this function will compare outputs, and write to our struct.
	select = select%44;
	float volumeDivisor = 3.1875;
	checkValue = (knobBuffer[0][select])+(knobBuffer[1][select])+(knobBuffer[2][select])+(knobBuffer[3][select]);
     3ca:	df 01       	movw	r26, r30
     3cc:	a8 5a       	subi	r26, 0xA8	; 168
     3ce:	bf 4f       	sbci	r27, 0xFF	; 255
	checkValue = (checkValue >> 2); //this gets us the 8 bit value for to check against 
     3d0:	8c 91       	ld	r24, X
     3d2:	68 0f       	add	r22, r24
     3d4:	71 1d       	adc	r23, r1

void interperetKnob(uint8_t select)
{//this function will compare outputs, and write to our struct.
	select = select%44;
	float volumeDivisor = 3.1875;
	checkValue = (knobBuffer[0][select])+(knobBuffer[1][select])+(knobBuffer[2][select])+(knobBuffer[3][select]);
     3d6:	ec 57       	subi	r30, 0x7C	; 124
     3d8:	ff 4f       	sbci	r31, 0xFF	; 255
	checkValue = (checkValue >> 2); //this gets us the 8 bit value for to check against 
     3da:	80 81       	ld	r24, Z
     3dc:	68 0f       	add	r22, r24
     3de:	71 1d       	adc	r23, r1
     3e0:	75 95       	asr	r23
     3e2:	67 95       	ror	r22
     3e4:	75 95       	asr	r23
     3e6:	67 95       	ror	r22
     3e8:	70 93 a7 03 	sts	0x03A7, r23	; 0x8003a7 <checkValue+0x1>
     3ec:	60 93 a6 03 	sts	0x03A6, r22	; 0x8003a6 <checkValue>
	if (select<40)
     3f0:	98 32       	cpi	r25, 0x28	; 40
     3f2:	08 f0       	brcs	.+2      	; 0x3f6 <interperetKnob+0x62>
     3f4:	4a c1       	rjmp	.+660    	; 0x68a <__LOCK_REGION_LENGTH__+0x28a>
	{
		uint8_t positionSelect = select%8;
     3f6:	c9 2f       	mov	r28, r25
     3f8:	c7 70       	andi	r28, 0x07	; 7
		uint8_t bankSwitch = select/8;
		switch (bankSwitch)
     3fa:	96 95       	lsr	r25
     3fc:	96 95       	lsr	r25
     3fe:	96 95       	lsr	r25
     400:	91 30       	cpi	r25, 0x01	; 1
     402:	09 f4       	brne	.+2      	; 0x406 <__LOCK_REGION_LENGTH__+0x6>
     404:	8a c0       	rjmp	.+276    	; 0x51a <__LOCK_REGION_LENGTH__+0x11a>
     406:	20 f0       	brcs	.+8      	; 0x410 <__LOCK_REGION_LENGTH__+0x10>
     408:	94 30       	cpi	r25, 0x04	; 4
     40a:	09 f4       	brne	.+2      	; 0x40e <__LOCK_REGION_LENGTH__+0xe>
     40c:	b2 c0       	rjmp	.+356    	; 0x572 <__LOCK_REGION_LENGTH__+0x172>
     40e:	3d c1       	rjmp	.+634    	; 0x68a <__LOCK_REGION_LENGTH__+0x28a>
		{
			
			case 0:; //switch cases are "labels", used for goto stuff. so, you have to end the label before declaring variables. should be fine?
			
			int16_t currentOutVoulume = ((currentPattern.outputLevelMSB[positionSelect]<<8)|(currentPattern.outputLevelLSB[positionSelect])); 
     410:	0c 2f       	mov	r16, r28
     412:	10 e0       	ldi	r17, 0x00	; 0
			//this should be a regular integer between -70 and +10
			int16_t negCheckValue = (checkValue / volumeDivisor)-70; //we need negative check values here, so this is what we have to do I guess?
     414:	07 2e       	mov	r0, r23
     416:	00 0c       	add	r0, r0
     418:	88 0b       	sbc	r24, r24
     41a:	99 0b       	sbc	r25, r25
     41c:	1f d6       	rcall	.+3134   	; 0x105c <__floatsisf>
     41e:	20 e0       	ldi	r18, 0x00	; 0
     420:	30 e0       	ldi	r19, 0x00	; 0
     422:	4c e4       	ldi	r20, 0x4C	; 76
     424:	50 e4       	ldi	r21, 0x40	; 64
     426:	7f d5       	rcall	.+2814   	; 0xf26 <__divsf3>
     428:	20 e0       	ldi	r18, 0x00	; 0
     42a:	30 e0       	ldi	r19, 0x00	; 0
     42c:	4c e8       	ldi	r20, 0x8C	; 140
     42e:	52 e4       	ldi	r21, 0x42	; 66
     430:	15 d5       	rcall	.+2602   	; 0xe5c <__subsf3>
     432:	e1 d5       	rcall	.+3010   	; 0xff6 <__fixsfsi>
     434:	86 2f       	mov	r24, r22
     436:	97 2f       	mov	r25, r23
		switch (bankSwitch)
		{
			
			case 0:; //switch cases are "labels", used for goto stuff. so, you have to end the label before declaring variables. should be fine?
			
			int16_t currentOutVoulume = ((currentPattern.outputLevelMSB[positionSelect]<<8)|(currentPattern.outputLevelLSB[positionSelect])); 
     438:	f8 01       	movw	r30, r16
     43a:	e3 55       	subi	r30, 0x53	; 83
     43c:	fc 4f       	sbci	r31, 0xFC	; 252
			//this should be a regular integer between -70 and +10
			int16_t negCheckValue = (checkValue / volumeDivisor)-70; //we need negative check values here, so this is what we have to do I guess?
			if(currentOutVoulume!=negCheckValue)
     43e:	20 81       	ld	r18, Z
     440:	30 e0       	ldi	r19, 0x00	; 0
     442:	32 2f       	mov	r19, r18
     444:	22 27       	eor	r18, r18
     446:	40 85       	ldd	r20, Z+8	; 0x08
     448:	24 2b       	or	r18, r20
     44a:	28 17       	cp	r18, r24
     44c:	39 07       	cpc	r19, r25
     44e:	09 f4       	brne	.+2      	; 0x452 <__LOCK_REGION_LENGTH__+0x52>
     450:	1c c1       	rjmp	.+568    	; 0x68a <__LOCK_REGION_LENGTH__+0x28a>
			{
				currentPattern.outputLevelLSB[positionSelect] = (negCheckValue);
     452:	f8 01       	movw	r30, r16
     454:	e3 55       	subi	r30, 0x53	; 83
     456:	fc 4f       	sbci	r31, 0xFC	; 252
     458:	60 87       	std	Z+8, r22	; 0x08
				if(negCheckValue>(-1))
     45a:	99 23       	and	r25, r25
     45c:	64 f1       	brlt	.+88     	; 0x4b6 <__LOCK_REGION_LENGTH__+0xb6>
				{
					currentPattern.outputLevelMSB[positionSelect] = 0;
     45e:	f8 01       	movw	r30, r16
     460:	e3 55       	subi	r30, 0x53	; 83
     462:	fc 4f       	sbci	r31, 0xFC	; 252
     464:	10 82       	st	Z, r1
					//just hard coding this for now until we make a function.
					outVolumePrint[14] = 48;
     466:	e8 e2       	ldi	r30, 0x28	; 40
     468:	f2 e0       	ldi	r31, 0x02	; 2
     46a:	80 e3       	ldi	r24, 0x30	; 48
     46c:	86 87       	std	Z+14, r24	; 0x0e
					outVolumePrint[16] = (currentPattern.outputLevelLSB[positionSelect]%10)+48;
     46e:	2d ec       	ldi	r18, 0xCD	; 205
     470:	62 9f       	mul	r22, r18
     472:	81 2d       	mov	r24, r1
     474:	11 24       	eor	r1, r1
     476:	86 95       	lsr	r24
     478:	86 95       	lsr	r24
     47a:	86 95       	lsr	r24
     47c:	88 0f       	add	r24, r24
     47e:	98 2f       	mov	r25, r24
     480:	99 0f       	add	r25, r25
     482:	99 0f       	add	r25, r25
     484:	89 0f       	add	r24, r25
     486:	96 2f       	mov	r25, r22
     488:	98 1b       	sub	r25, r24
     48a:	89 2f       	mov	r24, r25
     48c:	80 5d       	subi	r24, 0xD0	; 208
     48e:	80 8b       	std	Z+16, r24	; 0x10
					outVolumePrint[15] = ((currentPattern.outputLevelLSB[positionSelect]%100)/10)+48;
     490:	89 e2       	ldi	r24, 0x29	; 41
     492:	68 9f       	mul	r22, r24
     494:	81 2d       	mov	r24, r1
     496:	11 24       	eor	r1, r1
     498:	82 95       	swap	r24
     49a:	8f 70       	andi	r24, 0x0F	; 15
     49c:	94 e6       	ldi	r25, 0x64	; 100
     49e:	89 9f       	mul	r24, r25
     4a0:	60 19       	sub	r22, r0
     4a2:	11 24       	eor	r1, r1
     4a4:	62 9f       	mul	r22, r18
     4a6:	61 2d       	mov	r22, r1
     4a8:	11 24       	eor	r1, r1
     4aa:	66 95       	lsr	r22
     4ac:	66 95       	lsr	r22
     4ae:	66 95       	lsr	r22
     4b0:	60 5d       	subi	r22, 0xD0	; 208
     4b2:	67 87       	std	Z+15, r22	; 0x0f
     4b4:	20 c0       	rjmp	.+64     	; 0x4f6 <__LOCK_REGION_LENGTH__+0xf6>
				}else
				{
					currentPattern.outputLevelMSB[positionSelect] = 255;
     4b6:	8f ef       	ldi	r24, 0xFF	; 255
     4b8:	f8 01       	movw	r30, r16
     4ba:	e3 55       	subi	r30, 0x53	; 83
     4bc:	fc 4f       	sbci	r31, 0xFC	; 252
     4be:	80 83       	st	Z, r24
					outVolumePrint[14] = '-';
     4c0:	e8 e2       	ldi	r30, 0x28	; 40
     4c2:	f2 e0       	ldi	r31, 0x02	; 2
     4c4:	8d e2       	ldi	r24, 0x2D	; 45
     4c6:	86 87       	std	Z+14, r24	; 0x0e
					outVolumePrint[15] = ((((currentPattern.outputLevelLSB[positionSelect]^255)+1)%100)/10)+48; //negative 8 bit numbers: flip every bit and add 1.
     4c8:	60 95       	com	r22
     4ca:	26 2f       	mov	r18, r22
     4cc:	30 e0       	ldi	r19, 0x00	; 0
     4ce:	2f 5f       	subi	r18, 0xFF	; 255
     4d0:	3f 4f       	sbci	r19, 0xFF	; 255
     4d2:	c9 01       	movw	r24, r18
     4d4:	64 e6       	ldi	r22, 0x64	; 100
     4d6:	70 e0       	ldi	r23, 0x00	; 0
     4d8:	4d d6       	rcall	.+3226   	; 0x1174 <__divmodhi4>
     4da:	0f 2e       	mov	r0, r31
     4dc:	fa e0       	ldi	r31, 0x0A	; 10
     4de:	ef 2e       	mov	r14, r31
     4e0:	f1 2c       	mov	r15, r1
     4e2:	f0 2d       	mov	r31, r0
     4e4:	b7 01       	movw	r22, r14
     4e6:	46 d6       	rcall	.+3212   	; 0x1174 <__divmodhi4>
     4e8:	60 5d       	subi	r22, 0xD0	; 208
					outVolumePrint[16] = (((currentPattern.outputLevelLSB[positionSelect]^255)+1)%10)+48;
     4ea:	67 87       	std	Z+15, r22	; 0x0f
     4ec:	c9 01       	movw	r24, r18
     4ee:	b7 01       	movw	r22, r14
     4f0:	41 d6       	rcall	.+3202   	; 0x1174 <__divmodhi4>
     4f2:	80 5d       	subi	r24, 0xD0	; 208
     4f4:	80 8b       	std	Z+16, r24	; 0x10
				}
				//then output to screen. 
				outVolumePrint[10] = positionSelect + 49;
     4f6:	cf 5c       	subi	r28, 0xCF	; 207
     4f8:	c0 93 32 02 	sts	0x0232, r28	; 0x800232 <outVolumePrint+0xa>
				outputS(outVolumePrint, 3);
     4fc:	63 e0       	ldi	r22, 0x03	; 3
     4fe:	70 e0       	ldi	r23, 0x00	; 0
     500:	88 e2       	ldi	r24, 0x28	; 40
     502:	92 e0       	ldi	r25, 0x02	; 2
     504:	dd d1       	rcall	.+954    	; 0x8c0 <outputS>
				setOutputVolume(currentPattern.outputLevelLSB[positionSelect], currentPattern.outputLevelMSB[positionSelect], positionSelect);
     506:	f8 01       	movw	r30, r16
     508:	e3 55       	subi	r30, 0x53	; 83
     50a:	fc 4f       	sbci	r31, 0xFC	; 252
     50c:	60 81       	ld	r22, Z
     50e:	70 e0       	ldi	r23, 0x00	; 0
     510:	80 85       	ldd	r24, Z+8	; 0x08
     512:	a8 01       	movw	r20, r16
     514:	90 e0       	ldi	r25, 0x00	; 0
     516:	38 d4       	rcall	.+2160   	; 0xd88 <setOutputVolume>
     518:	b8 c0       	rjmp	.+368    	; 0x68a <__LOCK_REGION_LENGTH__+0x28a>
			}
			break;
			
 			case 1:
 			if(currentPattern.outputPitch[positionSelect]!=checkValue)
     51a:	0c 2f       	mov	r16, r28
     51c:	10 e0       	ldi	r17, 0x00	; 0
     51e:	f8 01       	movw	r30, r16
     520:	e3 55       	subi	r30, 0x53	; 83
     522:	fc 4f       	sbci	r31, 0xFC	; 252
     524:	80 89       	ldd	r24, Z+16	; 0x10
     526:	90 e0       	ldi	r25, 0x00	; 0
     528:	68 17       	cp	r22, r24
     52a:	79 07       	cpc	r23, r25
     52c:	09 f4       	brne	.+2      	; 0x530 <__LOCK_REGION_LENGTH__+0x130>
     52e:	ad c0       	rjmp	.+346    	; 0x68a <__LOCK_REGION_LENGTH__+0x28a>
 			{
 				(currentPattern.outputPitch[positionSelect]) = checkValue;
     530:	f8 01       	movw	r30, r16
     532:	e3 55       	subi	r30, 0x53	; 83
     534:	fc 4f       	sbci	r31, 0xFC	; 252
     536:	60 8b       	std	Z+16, r22	; 0x10
				 if(encoderAValue == 0)
     538:	80 91 ac 03 	lds	r24, 0x03AC	; 0x8003ac <encoderAValue>
     53c:	81 11       	cpse	r24, r1
     53e:	0f c0       	rjmp	.+30     	; 0x55e <__LOCK_REGION_LENGTH__+0x15e>
				 {
					 pitchPrint[5] = (positionSelect+49);
     540:	cf 5c       	subi	r28, 0xCF	; 207
     542:	c0 93 41 02 	sts	0x0241, r28	; 0x800241 <pitchPrint+0x5>
					 numPrinter(pitchPrint,8,3,currentPattern.outputPitch[positionSelect]);
     546:	9b 01       	movw	r18, r22
     548:	33 27       	eor	r19, r19
     54a:	43 e0       	ldi	r20, 0x03	; 3
     54c:	68 e0       	ldi	r22, 0x08	; 8
     54e:	8c e3       	ldi	r24, 0x3C	; 60
     550:	92 e0       	ldi	r25, 0x02	; 2
					 outputS(pitchPrint, 3);
     552:	ce d1       	rcall	.+924    	; 0x8f0 <numPrinter>
     554:	63 e0       	ldi	r22, 0x03	; 3
     556:	70 e0       	ldi	r23, 0x00	; 0
     558:	8c e3       	ldi	r24, 0x3C	; 60
     55a:	92 e0       	ldi	r25, 0x02	; 2
				 }
				 outputSampleRate(positionSelect, 0, currentPattern.outputPitch[positionSelect]);
     55c:	b1 d1       	rcall	.+866    	; 0x8c0 <outputS>
     55e:	f8 01       	movw	r30, r16
     560:	e3 55       	subi	r30, 0x53	; 83
     562:	fc 4f       	sbci	r31, 0xFC	; 252
     564:	40 89       	ldd	r20, Z+16	; 0x10
     566:	50 e0       	ldi	r21, 0x00	; 0
     568:	60 e0       	ldi	r22, 0x00	; 0
     56a:	70 e0       	ldi	r23, 0x00	; 0
     56c:	c8 01       	movw	r24, r16
     56e:	53 d4       	rcall	.+2214   	; 0xe16 <outputSampleRate>
// 				(eTime[positionSelect]) = checkValue;
// 			}
// 			break;
// 			
 			case 4:;
 			int16_t currentTrackVolume = ((currentPattern.trackMainVolumeMSB[positionSelect]<<8)|(currentPattern.trackMainVolumeLSB[positionSelect]));
     570:	8c c0       	rjmp	.+280    	; 0x68a <__LOCK_REGION_LENGTH__+0x28a>
     572:	0c 2f       	mov	r16, r28
 			//this should be a regular integer between -70 and +10
 			int16_t negCheckValueTrack = (checkValue / volumeDivisor)-70; //we need negative check values here, so this is what we have to do I guess?
     574:	10 e0       	ldi	r17, 0x00	; 0
     576:	07 2e       	mov	r0, r23
     578:	00 0c       	add	r0, r0
     57a:	88 0b       	sbc	r24, r24
     57c:	99 0b       	sbc	r25, r25
     57e:	6e d5       	rcall	.+2780   	; 0x105c <__floatsisf>
     580:	20 e0       	ldi	r18, 0x00	; 0
     582:	30 e0       	ldi	r19, 0x00	; 0
     584:	4c e4       	ldi	r20, 0x4C	; 76
     586:	50 e4       	ldi	r21, 0x40	; 64
     588:	ce d4       	rcall	.+2460   	; 0xf26 <__divsf3>
     58a:	20 e0       	ldi	r18, 0x00	; 0
     58c:	30 e0       	ldi	r19, 0x00	; 0
     58e:	4c e8       	ldi	r20, 0x8C	; 140
     590:	52 e4       	ldi	r21, 0x42	; 66
     592:	64 d4       	rcall	.+2248   	; 0xe5c <__subsf3>
     594:	30 d5       	rcall	.+2656   	; 0xff6 <__fixsfsi>
     596:	86 2f       	mov	r24, r22
     598:	97 2f       	mov	r25, r23
     59a:	f8 01       	movw	r30, r16
// 				(eTime[positionSelect]) = checkValue;
// 			}
// 			break;
// 			
 			case 4:;
 			int16_t currentTrackVolume = ((currentPattern.trackMainVolumeMSB[positionSelect]<<8)|(currentPattern.trackMainVolumeLSB[positionSelect]));
     59c:	e3 55       	subi	r30, 0x53	; 83
     59e:	fc 4f       	sbci	r31, 0xFC	; 252
     5a0:	20 a5       	ldd	r18, Z+40	; 0x28
 			//this should be a regular integer between -70 and +10
 			int16_t negCheckValueTrack = (checkValue / volumeDivisor)-70; //we need negative check values here, so this is what we have to do I guess?
 			if(currentTrackVolume!=negCheckValueTrack)
     5a2:	30 e0       	ldi	r19, 0x00	; 0
     5a4:	32 2f       	mov	r19, r18
     5a6:	22 27       	eor	r18, r18
     5a8:	40 ad       	ldd	r20, Z+56	; 0x38
     5aa:	24 2b       	or	r18, r20
     5ac:	28 17       	cp	r18, r24
     5ae:	39 07       	cpc	r19, r25
     5b0:	09 f4       	brne	.+2      	; 0x5b4 <__LOCK_REGION_LENGTH__+0x1b4>
     5b2:	6b c0       	rjmp	.+214    	; 0x68a <__LOCK_REGION_LENGTH__+0x28a>
     5b4:	f8 01       	movw	r30, r16
 			{
	 			currentPattern.trackMainVolumeLSB[positionSelect] = (negCheckValueTrack);
     5b6:	e3 55       	subi	r30, 0x53	; 83
     5b8:	fc 4f       	sbci	r31, 0xFC	; 252
     5ba:	60 af       	std	Z+56, r22	; 0x38
     5bc:	99 23       	and	r25, r25
	 			if(negCheckValueTrack>(-1))
     5be:	64 f1       	brlt	.+88     	; 0x618 <__LOCK_REGION_LENGTH__+0x218>
     5c0:	f8 01       	movw	r30, r16
	 			{
		 			currentPattern.trackMainVolumeMSB[positionSelect] = 0;
     5c2:	e3 55       	subi	r30, 0x53	; 83
     5c4:	fc 4f       	sbci	r31, 0xFC	; 252
     5c6:	10 a6       	std	Z+40, r1	; 0x28
     5c8:	e4 e1       	ldi	r30, 0x14	; 20
		 			//just hard coding this for now until we make a function.
		 			trackVolumePrint[14] = 48;
     5ca:	f2 e0       	ldi	r31, 0x02	; 2
     5cc:	80 e3       	ldi	r24, 0x30	; 48
     5ce:	86 87       	std	Z+14, r24	; 0x0e
     5d0:	2d ec       	ldi	r18, 0xCD	; 205
		 			trackVolumePrint[16] = (currentPattern.trackMainVolumeLSB[positionSelect]%10)+48;
     5d2:	62 9f       	mul	r22, r18
     5d4:	81 2d       	mov	r24, r1
     5d6:	11 24       	eor	r1, r1
     5d8:	86 95       	lsr	r24
     5da:	86 95       	lsr	r24
     5dc:	86 95       	lsr	r24
     5de:	88 0f       	add	r24, r24
     5e0:	98 2f       	mov	r25, r24
     5e2:	99 0f       	add	r25, r25
     5e4:	99 0f       	add	r25, r25
     5e6:	89 0f       	add	r24, r25
     5e8:	96 2f       	mov	r25, r22
     5ea:	98 1b       	sub	r25, r24
     5ec:	89 2f       	mov	r24, r25
     5ee:	80 5d       	subi	r24, 0xD0	; 208
     5f0:	80 8b       	std	Z+16, r24	; 0x10
     5f2:	89 e2       	ldi	r24, 0x29	; 41
		 			trackVolumePrint[15] = ((currentPattern.trackMainVolumeLSB[positionSelect]%100)/10)+48;
     5f4:	68 9f       	mul	r22, r24
     5f6:	81 2d       	mov	r24, r1
     5f8:	11 24       	eor	r1, r1
     5fa:	82 95       	swap	r24
     5fc:	8f 70       	andi	r24, 0x0F	; 15
     5fe:	94 e6       	ldi	r25, 0x64	; 100
     600:	89 9f       	mul	r24, r25
     602:	60 19       	sub	r22, r0
     604:	11 24       	eor	r1, r1
     606:	62 9f       	mul	r22, r18
     608:	61 2d       	mov	r22, r1
     60a:	11 24       	eor	r1, r1
     60c:	66 95       	lsr	r22
     60e:	66 95       	lsr	r22
     610:	66 95       	lsr	r22
     612:	60 5d       	subi	r22, 0xD0	; 208
     614:	67 87       	std	Z+15, r22	; 0x0f
     616:	20 c0       	rjmp	.+64     	; 0x658 <__LOCK_REGION_LENGTH__+0x258>
     618:	8f ef       	ldi	r24, 0xFF	; 255
	 			}else
	 			{
		 			currentPattern.trackMainVolumeMSB[positionSelect] = 255;
     61a:	f8 01       	movw	r30, r16
     61c:	e3 55       	subi	r30, 0x53	; 83
     61e:	fc 4f       	sbci	r31, 0xFC	; 252
     620:	80 a7       	std	Z+40, r24	; 0x28
		 			trackVolumePrint[14] = '-';
     622:	e4 e1       	ldi	r30, 0x14	; 20
     624:	f2 e0       	ldi	r31, 0x02	; 2
     626:	8d e2       	ldi	r24, 0x2D	; 45
		 			trackVolumePrint[15] = ((((currentPattern.trackMainVolumeLSB[positionSelect]^255)+1)%100)/10)+48; //negative 8 bit numbers: flip every bit and add 1.
     628:	86 87       	std	Z+14, r24	; 0x0e
     62a:	60 95       	com	r22
     62c:	26 2f       	mov	r18, r22
     62e:	30 e0       	ldi	r19, 0x00	; 0
     630:	2f 5f       	subi	r18, 0xFF	; 255
     632:	3f 4f       	sbci	r19, 0xFF	; 255
     634:	c9 01       	movw	r24, r18
     636:	64 e6       	ldi	r22, 0x64	; 100
     638:	70 e0       	ldi	r23, 0x00	; 0
     63a:	9c d5       	rcall	.+2872   	; 0x1174 <__divmodhi4>
     63c:	0f 2e       	mov	r0, r31
     63e:	fa e0       	ldi	r31, 0x0A	; 10
     640:	ef 2e       	mov	r14, r31
     642:	f1 2c       	mov	r15, r1
     644:	f0 2d       	mov	r31, r0
     646:	b7 01       	movw	r22, r14
     648:	95 d5       	rcall	.+2858   	; 0x1174 <__divmodhi4>
     64a:	60 5d       	subi	r22, 0xD0	; 208
		 			trackVolumePrint[16] = (((currentPattern.trackMainVolumeLSB[positionSelect]^255)+1)%10)+48;
     64c:	67 87       	std	Z+15, r22	; 0x0f
     64e:	c9 01       	movw	r24, r18
     650:	b7 01       	movw	r22, r14
     652:	90 d5       	rcall	.+2848   	; 0x1174 <__divmodhi4>
     654:	80 5d       	subi	r24, 0xD0	; 208
     656:	80 8b       	std	Z+16, r24	; 0x10
	 			}
	 			//then output to screen.
	 			trackVolumePrint[10] = positionSelect + 49;
     658:	cf 5c       	subi	r28, 0xCF	; 207
     65a:	c0 93 1e 02 	sts	0x021E, r28	; 0x80021e <trackVolumePrint+0xa>
	 			outputS(trackVolumePrint, 3);
     65e:	63 e0       	ldi	r22, 0x03	; 3
     660:	70 e0       	ldi	r23, 0x00	; 0
     662:	84 e1       	ldi	r24, 0x14	; 20
     664:	92 e0       	ldi	r25, 0x02	; 2
     666:	2c d1       	rcall	.+600    	; 0x8c0 <outputS>
	 			setTrackVolume(currentPattern.trackSampleLSB[positionSelect], currentPattern.trackSampleMSB[positionSelect],
				 currentPattern.trackMainVolumeLSB[positionSelect], currentPattern.trackMainVolumeMSB[positionSelect]);
     668:	f8 01       	movw	r30, r16
     66a:	e3 55       	subi	r30, 0x53	; 83
     66c:	fc 4f       	sbci	r31, 0xFC	; 252
		 			trackVolumePrint[16] = (((currentPattern.trackMainVolumeLSB[positionSelect]^255)+1)%10)+48;
	 			}
	 			//then output to screen.
	 			trackVolumePrint[10] = positionSelect + 49;
	 			outputS(trackVolumePrint, 3);
	 			setTrackVolume(currentPattern.trackSampleLSB[positionSelect], currentPattern.trackSampleMSB[positionSelect],
     66e:	20 a5       	ldd	r18, Z+40	; 0x28
     670:	30 e0       	ldi	r19, 0x00	; 0
     672:	40 ad       	ldd	r20, Z+56	; 0x38
     674:	50 e0       	ldi	r21, 0x00	; 0
     676:	df 01       	movw	r26, r30
     678:	a8 56       	subi	r26, 0x68	; 104
     67a:	bf 4f       	sbci	r27, 0xFF	; 255
     67c:	6c 91       	ld	r22, X
     67e:	70 e0       	ldi	r23, 0x00	; 0
     680:	e8 55       	subi	r30, 0x58	; 88
     682:	ff 4f       	sbci	r31, 0xFF	; 255
     684:	80 81       	ld	r24, Z
     686:	90 e0       	ldi	r25, 0x00	; 0
     688:	a2 d3       	rcall	.+1860   	; 0xdce <setTrackVolume>
     68a:	cf 91       	pop	r28
		}
		
	}


}
     68c:	1f 91       	pop	r17
     68e:	0f 91       	pop	r16
     690:	ff 90       	pop	r15
     692:	ef 90       	pop	r14
     694:	08 95       	ret

00000696 <listenKnobs>:
     696:	cf 93       	push	r28

void listenKnobs()
{
	for(uint8_t loopCounter = 0; loopCounter<44; loopCounter++)
     698:	c0 e0       	ldi	r28, 0x00	; 0
	{
		selectKnob(loopCounter);
     69a:	8c 2f       	mov	r24, r28
     69c:	0f de       	rcall	.-994    	; 0x2bc <selectKnob>
		updateKnob(loopCounter);
     69e:	8c 2f       	mov	r24, r28
     6a0:	62 de       	rcall	.-828    	; 0x366 <updateKnob>
		interperetKnob(loopCounter);
     6a2:	8c 2f       	mov	r24, r28
     6a4:	77 de       	rcall	.-786    	; 0x394 <interperetKnob>
     6a6:	cf 5f       	subi	r28, 0xFF	; 255

}

void listenKnobs()
{
	for(uint8_t loopCounter = 0; loopCounter<44; loopCounter++)
     6a8:	cc 32       	cpi	r28, 0x2C	; 44
     6aa:	b9 f7       	brne	.-18     	; 0x69a <listenKnobs+0x4>
     6ac:	cf 91       	pop	r28
		updateKnob(loopCounter);
		interperetKnob(loopCounter);
	}


}
     6ae:	08 95       	ret

000006b0 <main>:
     6b0:	aa d0       	rcall	.+340    	; 0x806 <initScreen>
#include <avr/interrupt.h>

int main(void)
{
	initScreen();
	initButtons();
     6b2:	39 dd       	rcall	.-1422   	; 0x126 <initButtons>
	initEncoders();
     6b4:	a5 dd       	rcall	.-1206   	; 0x200 <initEncoders>
	initMenu();
     6b6:	0a d0       	rcall	.+20     	; 0x6cc <initMenu>
	initADC();
     6b8:	ef dd       	rcall	.-1058   	; 0x298 <initADC>
	serialInit0();
     6ba:	35 d3       	rcall	.+1642   	; 0xd26 <serialInit0>
	sei();
	initBank(); //this will be necessary on first startup, but maybe not in the actual program? maybe just something handy to have.
     6bc:	78 94       	sei
     6be:	d9 dd       	rcall	.-1102   	; 0x272 <initBank>
	//loadMemory(); //we need to load in the first struct in locarion 0 of our eeprom.
	//making an edit for GIT
	//more comments to see if we can cause the same problem
	while (1)
	{
		listenTrigButtons();
     6c0:	39 dd       	rcall	.-1422   	; 0x134 <listenTrigButtons>
     6c2:	9d dd       	rcall	.-1222   	; 0x1fe <listenGPButtons>
		listenGPButtons();
     6c4:	cf dd       	rcall	.-1122   	; 0x264 <listenEncoders>
     6c6:	e7 df       	rcall	.-50     	; 0x696 <listenKnobs>
		listenEncoders();
     6c8:	16 d0       	rcall	.+44     	; 0x6f6 <updateScreen>
     6ca:	fa cf       	rjmp	.-12     	; 0x6c0 <main+0x10>

000006cc <initMenu>:
		listenKnobs();
     6cc:	60 e0       	ldi	r22, 0x00	; 0
     6ce:	70 e0       	ldi	r23, 0x00	; 0
		//listenMidi();
		//updateSequence();
		updateScreen();
     6d0:	8b e8       	ldi	r24, 0x8B	; 139
     6d2:	93 e0       	ldi	r25, 0x03	; 3
     6d4:	f5 d0       	rcall	.+490    	; 0x8c0 <outputS>

void initMenu()
{
	
outputS(s0line0, 0);
outputS(s0line1, 1);
     6d6:	61 e0       	ldi	r22, 0x01	; 1
     6d8:	70 e0       	ldi	r23, 0x00	; 0
     6da:	86 e7       	ldi	r24, 0x76	; 118
     6dc:	93 e0       	ldi	r25, 0x03	; 3
     6de:	f0 d0       	rcall	.+480    	; 0x8c0 <outputS>
outputS(s0line2, 2);
     6e0:	62 e0       	ldi	r22, 0x02	; 2
     6e2:	70 e0       	ldi	r23, 0x00	; 0
     6e4:	81 e6       	ldi	r24, 0x61	; 97
     6e6:	93 e0       	ldi	r25, 0x03	; 3
     6e8:	eb d0       	rcall	.+470    	; 0x8c0 <outputS>
outputS(s0line3, 3);
     6ea:	63 e0       	ldi	r22, 0x03	; 3
     6ec:	70 e0       	ldi	r23, 0x00	; 0
     6ee:	8c e4       	ldi	r24, 0x4C	; 76
     6f0:	93 e0       	ldi	r25, 0x03	; 3
     6f2:	e6 c0       	rjmp	.+460    	; 0x8c0 <outputS>
     6f4:	08 95       	ret

000006f6 <updateScreen>:

}

void updateScreen()
{
	if(prevEncoderAValue!=encoderAValue){
     6f6:	80 91 ac 03 	lds	r24, 0x03AC	; 0x8003ac <encoderAValue>
     6fa:	90 91 f6 04 	lds	r25, 0x04F6	; 0x8004f6 <prevEncoderAValue>
     6fe:	98 17       	cp	r25, r24
     700:	09 f4       	brne	.+2      	; 0x704 <updateScreen+0xe>
     702:	63 c0       	rjmp	.+198    	; 0x7ca <updateScreen+0xd4>
	encoderAValue = encoderAValue%4;
     704:	83 70       	andi	r24, 0x03	; 3
     706:	80 93 ac 03 	sts	0x03AC, r24	; 0x8003ac <encoderAValue>
	switch (encoderAValue)
     70a:	81 30       	cpi	r24, 0x01	; 1
     70c:	e1 f0       	breq	.+56     	; 0x746 <updateScreen+0x50>
     70e:	30 f0       	brcs	.+12     	; 0x71c <updateScreen+0x26>
     710:	82 30       	cpi	r24, 0x02	; 2
     712:	71 f1       	breq	.+92     	; 0x770 <updateScreen+0x7a>
     714:	83 30       	cpi	r24, 0x03	; 3
     716:	09 f4       	brne	.+2      	; 0x71a <updateScreen+0x24>
     718:	40 c0       	rjmp	.+128    	; 0x79a <updateScreen+0xa4>
     71a:	53 c0       	rjmp	.+166    	; 0x7c2 <updateScreen+0xcc>
	{
		case 0:
		outputS(s0line0, 0);
     71c:	60 e0       	ldi	r22, 0x00	; 0
     71e:	70 e0       	ldi	r23, 0x00	; 0
     720:	8b e8       	ldi	r24, 0x8B	; 139
     722:	93 e0       	ldi	r25, 0x03	; 3
     724:	cd d0       	rcall	.+410    	; 0x8c0 <outputS>
		outputS(s0line1, 1);
     726:	61 e0       	ldi	r22, 0x01	; 1
     728:	70 e0       	ldi	r23, 0x00	; 0
     72a:	86 e7       	ldi	r24, 0x76	; 118
     72c:	93 e0       	ldi	r25, 0x03	; 3
     72e:	c8 d0       	rcall	.+400    	; 0x8c0 <outputS>
		outputS(s0line2, 2);
     730:	62 e0       	ldi	r22, 0x02	; 2
     732:	70 e0       	ldi	r23, 0x00	; 0
     734:	81 e6       	ldi	r24, 0x61	; 97
     736:	93 e0       	ldi	r25, 0x03	; 3
     738:	c3 d0       	rcall	.+390    	; 0x8c0 <outputS>
		outputS(s0line3, 3);
     73a:	63 e0       	ldi	r22, 0x03	; 3
     73c:	70 e0       	ldi	r23, 0x00	; 0
     73e:	8c e4       	ldi	r24, 0x4C	; 76
     740:	93 e0       	ldi	r25, 0x03	; 3
     742:	be d0       	rcall	.+380    	; 0x8c0 <outputS>
		break;
     744:	3e c0       	rjmp	.+124    	; 0x7c2 <updateScreen+0xcc>
		
		case 1:
 		outputS(s1line0, 0);
     746:	60 e0       	ldi	r22, 0x00	; 0
     748:	70 e0       	ldi	r23, 0x00	; 0
     74a:	87 e3       	ldi	r24, 0x37	; 55
     74c:	93 e0       	ldi	r25, 0x03	; 3
     74e:	b8 d0       	rcall	.+368    	; 0x8c0 <outputS>
 		outputS(s1line1, 1);
     750:	61 e0       	ldi	r22, 0x01	; 1
     752:	70 e0       	ldi	r23, 0x00	; 0
     754:	82 e2       	ldi	r24, 0x22	; 34
     756:	93 e0       	ldi	r25, 0x03	; 3
     758:	b3 d0       	rcall	.+358    	; 0x8c0 <outputS>
 		outputS(s1line2, 2);
     75a:	62 e0       	ldi	r22, 0x02	; 2
     75c:	70 e0       	ldi	r23, 0x00	; 0
     75e:	8d e0       	ldi	r24, 0x0D	; 13
     760:	93 e0       	ldi	r25, 0x03	; 3
     762:	ae d0       	rcall	.+348    	; 0x8c0 <outputS>
 		outputS(s1line3, 3);
     764:	63 e0       	ldi	r22, 0x03	; 3
     766:	70 e0       	ldi	r23, 0x00	; 0
     768:	88 ef       	ldi	r24, 0xF8	; 248
     76a:	92 e0       	ldi	r25, 0x02	; 2
     76c:	a9 d0       	rcall	.+338    	; 0x8c0 <outputS>
 		break;
     76e:	29 c0       	rjmp	.+82     	; 0x7c2 <updateScreen+0xcc>
		 
		case 2:
		outputS(s2line0, 0);
     770:	60 e0       	ldi	r22, 0x00	; 0
     772:	70 e0       	ldi	r23, 0x00	; 0
     774:	83 ee       	ldi	r24, 0xE3	; 227
     776:	92 e0       	ldi	r25, 0x02	; 2
     778:	a3 d0       	rcall	.+326    	; 0x8c0 <outputS>
		outputS(s2line1, 1);
     77a:	61 e0       	ldi	r22, 0x01	; 1
     77c:	70 e0       	ldi	r23, 0x00	; 0
     77e:	8e ec       	ldi	r24, 0xCE	; 206
     780:	92 e0       	ldi	r25, 0x02	; 2
     782:	9e d0       	rcall	.+316    	; 0x8c0 <outputS>
		outputS(s2line2, 2);
     784:	62 e0       	ldi	r22, 0x02	; 2
     786:	70 e0       	ldi	r23, 0x00	; 0
     788:	89 eb       	ldi	r24, 0xB9	; 185
     78a:	92 e0       	ldi	r25, 0x02	; 2
     78c:	99 d0       	rcall	.+306    	; 0x8c0 <outputS>
		outputS(s2line3, 3);
     78e:	63 e0       	ldi	r22, 0x03	; 3
     790:	70 e0       	ldi	r23, 0x00	; 0
     792:	84 ea       	ldi	r24, 0xA4	; 164
     794:	92 e0       	ldi	r25, 0x02	; 2
     796:	94 d0       	rcall	.+296    	; 0x8c0 <outputS>
		break;
     798:	14 c0       	rjmp	.+40     	; 0x7c2 <updateScreen+0xcc>
		 
		case 3:
		outputS(s3line0, 0);
     79a:	60 e0       	ldi	r22, 0x00	; 0
     79c:	70 e0       	ldi	r23, 0x00	; 0
     79e:	8f e8       	ldi	r24, 0x8F	; 143
     7a0:	92 e0       	ldi	r25, 0x02	; 2
     7a2:	8e d0       	rcall	.+284    	; 0x8c0 <outputS>
		outputS(s3line1, 1);
     7a4:	61 e0       	ldi	r22, 0x01	; 1
     7a6:	70 e0       	ldi	r23, 0x00	; 0
     7a8:	8a e7       	ldi	r24, 0x7A	; 122
     7aa:	92 e0       	ldi	r25, 0x02	; 2
     7ac:	89 d0       	rcall	.+274    	; 0x8c0 <outputS>
		outputS(s3line2, 2);
     7ae:	62 e0       	ldi	r22, 0x02	; 2
     7b0:	70 e0       	ldi	r23, 0x00	; 0
     7b2:	85 e6       	ldi	r24, 0x65	; 101
     7b4:	92 e0       	ldi	r25, 0x02	; 2
     7b6:	84 d0       	rcall	.+264    	; 0x8c0 <outputS>
     7b8:	63 e0       	ldi	r22, 0x03	; 3
		outputS(s3line3, 3);
     7ba:	70 e0       	ldi	r23, 0x00	; 0
     7bc:	80 e5       	ldi	r24, 0x50	; 80
     7be:	92 e0       	ldi	r25, 0x02	; 2
     7c0:	7f d0       	rcall	.+254    	; 0x8c0 <outputS>
     7c2:	80 91 ac 03 	lds	r24, 0x03AC	; 0x8003ac <encoderAValue>
		break;
		 
		 
	}
	prevEncoderAValue = encoderAValue;
     7c6:	80 93 f6 04 	sts	0x04F6, r24	; 0x8004f6 <prevEncoderAValue>
     7ca:	08 95       	ret

000007cc <enableCycle>:
     7cc:	e5 e0       	ldi	r30, 0x05	; 5
     7ce:	f1 e0       	ldi	r31, 0x01	; 1
	//using unsigned int 8 bit values should protect this
	//function from overflow.
	
	//also,this should just work.
	//since we want to send an 8 bit value over an entire port.
	PORTC = value;
     7d0:	80 81       	ld	r24, Z
     7d2:	82 60       	ori	r24, 0x02	; 2
     7d4:	80 83       	st	Z, r24
     7d6:	85 e0       	ldi	r24, 0x05	; 5
     7d8:	8a 95       	dec	r24
     7da:	f1 f7       	brne	.-4      	; 0x7d8 <enableCycle+0xc>
     7dc:	00 00       	nop
     7de:	80 81       	ld	r24, Z
     7e0:	8d 7f       	andi	r24, 0xFD	; 253
     7e2:	80 83       	st	Z, r24
     7e4:	08 95       	ret

000007e6 <command>:
}

void command(uint8_t c)
{
	//digitalWrite(DC, 0);
	PORTJ &= 0B11111110; //set our DC pin low, to get ready to write data.
     7e6:	e5 e0       	ldi	r30, 0x05	; 5
     7e8:	f1 e0       	ldi	r31, 0x01	; 1
     7ea:	90 81       	ld	r25, Z
     7ec:	9e 7f       	andi	r25, 0xFE	; 254
     7ee:	90 83       	st	Z, r25
	//using unsigned int 8 bit values should protect this
	//function from overflow.
	
	//also,this should just work.
	//since we want to send an 8 bit value over an entire port.
	PORTC = value;
     7f0:	88 b9       	out	0x08, r24	; 8
{
	//digitalWrite(DC, 0);
	PORTJ &= 0B11111110; //set our DC pin low, to get ready to write data.
	//we need to figure out where our DC pin is.
	send8bit(c);
	enableCycle();
     7f2:	ec cf       	rjmp	.-40     	; 0x7cc <enableCycle>
     7f4:	08 95       	ret

000007f6 <data>:
}

void data(uint8_t d)
{
	//digitalWrite(DC, 1);
	PORTJ |=0B00000001; //set out DC Pin high, so it's ready to write data.
     7f6:	e5 e0       	ldi	r30, 0x05	; 5
     7f8:	f1 e0       	ldi	r31, 0x01	; 1
     7fa:	90 81       	ld	r25, Z
     7fc:	91 60       	ori	r25, 0x01	; 1
     7fe:	90 83       	st	Z, r25
	//using unsigned int 8 bit values should protect this
	//function from overflow.
	
	//also,this should just work.
	//since we want to send an 8 bit value over an entire port.
	PORTC = value;
     800:	88 b9       	out	0x08, r24	; 8
void data(uint8_t d)
{
	//digitalWrite(DC, 1);
	PORTJ |=0B00000001; //set out DC Pin high, so it's ready to write data.
	send8bit(d);
	enableCycle();
     802:	e4 cf       	rjmp	.-56     	; 0x7cc <enableCycle>
     804:	08 95       	ret

00000806 <initScreen>:

void initScreen()
{
	//this is where we will do all of the screen
	//initialization.
	DDRJ = 0x03; //pins 14 and 15, 14 is Enable (PortJ1), 15 is data/command (PortJ0)
     806:	83 e0       	ldi	r24, 0x03	; 3
     808:	80 93 04 01 	sts	0x0104, r24	; 0x800104 <__TEXT_REGION_LENGTH__+0x700104>
	DDRC =0xFF; //all pins on the LCD Data Bus.
     80c:	8f ef       	ldi	r24, 0xFF	; 255
     80e:	87 b9       	out	0x07, r24	; 7

	
	PORTJ &= 0B11111100;		//set both the DC line and E line of the display to 0. leave all other bits on the ports alone
     810:	e5 e0       	ldi	r30, 0x05	; 5
     812:	f1 e0       	ldi	r31, 0x01	; 1
     814:	80 81       	ld	r24, Z
     816:	8c 7f       	andi	r24, 0xFC	; 252
     818:	80 83       	st	Z, r24
	
	PORTC = 0x00;				// Initializes all Arduino pins for the data bus
     81a:	18 b8       	out	0x08, r1	; 8
	#else
		//round up by default
		__ticks_dc = (uint32_t)(ceil(fabs(__tmp)));
	#endif

	__builtin_avr_delay_cycles(__ticks_dc);
     81c:	8f e1       	ldi	r24, 0x1F	; 31
     81e:	93 e0       	ldi	r25, 0x03	; 3
     820:	01 97       	sbiw	r24, 0x01	; 1
     822:	f1 f7       	brne	.-4      	; 0x820 <initScreen+0x1a>
     824:	00 c0       	rjmp	.+0      	; 0x826 <initScreen+0x20>
     826:	00 00       	nop
	_delay_us(200);				// Waits 200 us for stabilization purpose
	

	uint8_t rows = 0x08;                    // Display mode: 2/4 lines

	command(0x22 | rows); // Function set: extended command set (RE=1), lines #
     828:	8a e2       	ldi	r24, 0x2A	; 42
     82a:	dd df       	rcall	.-70     	; 0x7e6 <command>
	command(0x71);        // Function selection A:
     82c:	81 e7       	ldi	r24, 0x71	; 113
     82e:	db df       	rcall	.-74     	; 0x7e6 <command>
	data(0x5C);           //  enable internal Vdd regulator at 5V I/O mode (def. value) (0x00 for disable, 2.8V I/O)
     830:	8c e5       	ldi	r24, 0x5C	; 92
     832:	e1 df       	rcall	.-62     	; 0x7f6 <data>
	command(0x20 | rows); // Function set: fundamental command set (RE=0) (exit from extended command set), lines #
     834:	88 e2       	ldi	r24, 0x28	; 40
     836:	d7 df       	rcall	.-82     	; 0x7e6 <command>
	command(0x08);        // Display ON/OFF control: display off, cursor off, blink off (default values)
     838:	88 e0       	ldi	r24, 0x08	; 8
     83a:	d5 df       	rcall	.-86     	; 0x7e6 <command>
	command(0x22 | rows); // Function set: extended command set (RE=1), lines #
     83c:	8a e2       	ldi	r24, 0x2A	; 42
     83e:	d3 df       	rcall	.-90     	; 0x7e6 <command>
	command(0x79);        // OLED characterization: OLED command set enabled (SD=1)
     840:	89 e7       	ldi	r24, 0x79	; 121
     842:	d1 df       	rcall	.-94     	; 0x7e6 <command>
	command(0xD5);        // Set display clock divide ratio/oscillator frequency:
     844:	85 ed       	ldi	r24, 0xD5	; 213
     846:	cf df       	rcall	.-98     	; 0x7e6 <command>
	command(0x70);        //  divide ratio=1, frequency=7 (default values)
     848:	80 e7       	ldi	r24, 0x70	; 112
     84a:	cd df       	rcall	.-102    	; 0x7e6 <command>
	command(0x78);        // OLED characterization: OLED command set disabled (SD=0) (exit from OLED command set)
     84c:	88 e7       	ldi	r24, 0x78	; 120
     84e:	cb df       	rcall	.-106    	; 0x7e6 <command>


	command(0x09);     // Extended function set (RE=1): 5-dot font, B/W inverting disabled (def. val.), 3/4 lines
     850:	89 e0       	ldi	r24, 0x09	; 9
     852:	c9 df       	rcall	.-110    	; 0x7e6 <command>

	command(0x06);        // Entry Mode set - COM/SEG direction: COM0->COM31, SEG99->SEG0 (BDC=1, BDS=0)
     854:	86 e0       	ldi	r24, 0x06	; 6
     856:	c7 df       	rcall	.-114    	; 0x7e6 <command>
	command(0x72);        // Function selection B:
     858:	82 e7       	ldi	r24, 0x72	; 114
     85a:	c5 df       	rcall	.-118    	; 0x7e6 <command>
	data(0x0A);           //  ROM/CGRAM selection: ROM C, CGROM=250, CGRAM=6 (ROM=10, OPR=10)
     85c:	8a e0       	ldi	r24, 0x0A	; 10
     85e:	cb df       	rcall	.-106    	; 0x7f6 <data>
	command(0x79);        // OLED characterization: OLED command set enabled (SD=1)
     860:	89 e7       	ldi	r24, 0x79	; 121
     862:	c1 df       	rcall	.-126    	; 0x7e6 <command>
	command(0xDA);        // Set SEG pins hardware configuration:
     864:	8a ed       	ldi	r24, 0xDA	; 218
     866:	bf df       	rcall	.-130    	; 0x7e6 <command>
	command(0x10);        //  alternative odd/even SEG pin, disable SEG left/right remap (default values)
     868:	80 e1       	ldi	r24, 0x10	; 16
     86a:	bd df       	rcall	.-134    	; 0x7e6 <command>
	command(0xDC);        // Function selection C:
     86c:	8c ed       	ldi	r24, 0xDC	; 220
     86e:	bb df       	rcall	.-138    	; 0x7e6 <command>
	command(0x00);        //  internal VSL, GPIO input disable
     870:	80 e0       	ldi	r24, 0x00	; 0
     872:	b9 df       	rcall	.-142    	; 0x7e6 <command>
	command(0x81);        // Set contrast control:
     874:	81 e8       	ldi	r24, 0x81	; 129
     876:	b7 df       	rcall	.-146    	; 0x7e6 <command>
     878:	8f e7       	ldi	r24, 0x7F	; 127
	command(0x7F);        //  contrast=127 (default value)
     87a:	b5 df       	rcall	.-150    	; 0x7e6 <command>
     87c:	89 ed       	ldi	r24, 0xD9	; 217
     87e:	b3 df       	rcall	.-154    	; 0x7e6 <command>
	command(0xD9);        // Set phase length:
     880:	81 ef       	ldi	r24, 0xF1	; 241
     882:	b1 df       	rcall	.-158    	; 0x7e6 <command>
	command(0xF1);        //  phase2=15, phase1=1 (default: 0x78)
     884:	8b ed       	ldi	r24, 0xDB	; 219
     886:	af df       	rcall	.-162    	; 0x7e6 <command>
     888:	80 e4       	ldi	r24, 0x40	; 64
	command(0xDB);        // Set VCOMH deselect level:
     88a:	ad df       	rcall	.-166    	; 0x7e6 <command>
     88c:	88 e7       	ldi	r24, 0x78	; 120
     88e:	ab df       	rcall	.-170    	; 0x7e6 <command>
	command(0x40);        //  VCOMH deselect level=1 x Vcc (default: 0x20=0,77 x Vcc)
     890:	88 e2       	ldi	r24, 0x28	; 40
     892:	a9 df       	rcall	.-174    	; 0x7e6 <command>
     894:	81 e0       	ldi	r24, 0x01	; 1
	command(0x78);        // OLED characterization: OLED command set disabled (SD=0) (exit from OLED command set)
     896:	a7 df       	rcall	.-178    	; 0x7e6 <command>
     898:	8f e3       	ldi	r24, 0x3F	; 63
     89a:	9f e1       	ldi	r25, 0x1F	; 31
	command(0x20 | rows); // Function set: fundamental command set (RE=0) (exit from extended command set), lines #
     89c:	01 97       	sbiw	r24, 0x01	; 1
     89e:	f1 f7       	brne	.-4      	; 0x89c <initScreen+0x96>
     8a0:	00 c0       	rjmp	.+0      	; 0x8a2 <initScreen+0x9c>
	command(0x01);        // Clear display
     8a2:	00 00       	nop
     8a4:	80 e8       	ldi	r24, 0x80	; 128
     8a6:	9f df       	rcall	.-194    	; 0x7e6 <command>
	#else
		//round up by default
		__ticks_dc = (uint32_t)(ceil(fabs(__tmp)));
	#endif

	__builtin_avr_delay_cycles(__ticks_dc);
     8a8:	8c e0       	ldi	r24, 0x0C	; 12
     8aa:	9d df       	rcall	.-198    	; 0x7e6 <command>
     8ac:	9f ef       	ldi	r25, 0xFF	; 255
     8ae:	24 e3       	ldi	r18, 0x34	; 52
     8b0:	8c e0       	ldi	r24, 0x0C	; 12
     8b2:	91 50       	subi	r25, 0x01	; 1
	_delay_ms(2);             // After a clear display, a minimum pause of 1-2 ms is required
	
	command(0x80);        // Set DDRAM address 0x00 in address counter (cursor home) (default value)
     8b4:	20 40       	sbci	r18, 0x00	; 0
     8b6:	80 40       	sbci	r24, 0x00	; 0
     8b8:	e1 f7       	brne	.-8      	; 0x8b2 <initScreen+0xac>
	command(0x0C);        // Display ON/OFF control: display ON, cursor off, blink off
     8ba:	00 c0       	rjmp	.+0      	; 0x8bc <initScreen+0xb6>
     8bc:	00 00       	nop
     8be:	08 95       	ret

000008c0 <outputS>:
     8c0:	0f 93       	push	r16
     8c2:	1f 93       	push	r17
     8c4:	cf 93       	push	r28
     8c6:	df 93       	push	r29
     8c8:	8c 01       	movw	r16, r24
     8ca:	fb 01       	movw	r30, r22
     8cc:	ff 27       	eor	r31, r31
     8ce:	e0 56       	subi	r30, 0x60	; 96
     8d0:	fc 4f       	sbci	r31, 0xFC	; 252
     8d2:	80 81       	ld	r24, Z
void outputS(char* lineIn, int row)
{
	uint8_t r = row;
	uint8_t c = 0;
	
	command(new_line[r]);
     8d4:	88 df       	rcall	.-240    	; 0x7e6 <command>
     8d6:	e8 01       	movw	r28, r16
     8d8:	0c 5e       	subi	r16, 0xEC	; 236
     8da:	1f 4f       	sbci	r17, 0xFF	; 255
	//20, because our display is 20x4.
	for(c=0; c<20; c++)
	{
		data(lineIn[c]);
     8dc:	89 91       	ld	r24, Y+
     8de:	8b df       	rcall	.-234    	; 0x7f6 <data>
	uint8_t r = row;
	uint8_t c = 0;
	
	command(new_line[r]);
	//20, because our display is 20x4.
	for(c=0; c<20; c++)
     8e0:	c0 17       	cp	r28, r16
     8e2:	d1 07       	cpc	r29, r17
     8e4:	d9 f7       	brne	.-10     	; 0x8dc <outputS+0x1c>
	{
		data(lineIn[c]);
	}
}
     8e6:	df 91       	pop	r29
     8e8:	cf 91       	pop	r28
     8ea:	1f 91       	pop	r17
     8ec:	0f 91       	pop	r16
     8ee:	08 95       	ret

000008f0 <numPrinter>:

void numPrinter(char* charArray,uint8_t startingPos, uint8_t numCharacters, uint16_t inputNumber)
{
     8f0:	cf 93       	push	r28
     8f2:	df 93       	push	r29
     8f4:	f9 01       	movw	r30, r18
	uint8_t tensPlace = 0;
	uint8_t hunderedsPlace = 0;
	uint8_t thousandsPlace = 0;
	uint8_t tenThousandsPlace = 0;
	
	switch(numCharacters)
     8f6:	43 30       	cpi	r20, 0x03	; 3
     8f8:	09 f4       	brne	.+2      	; 0x8fc <numPrinter+0xc>
     8fa:	51 c0       	rjmp	.+162    	; 0x99e <numPrinter+0xae>
     8fc:	28 f4       	brcc	.+10     	; 0x908 <numPrinter+0x18>
     8fe:	41 30       	cpi	r20, 0x01	; 1
     900:	51 f0       	breq	.+20     	; 0x916 <numPrinter+0x26>
     902:	42 30       	cpi	r20, 0x02	; 2
     904:	21 f1       	breq	.+72     	; 0x94e <numPrinter+0x5e>
     906:	a2 c1       	rjmp	.+836    	; 0xc4c <numPrinter+0x35c>
     908:	44 30       	cpi	r20, 0x04	; 4
     90a:	09 f4       	brne	.+2      	; 0x90e <numPrinter+0x1e>
     90c:	8e c0       	rjmp	.+284    	; 0xa2a <numPrinter+0x13a>
     90e:	45 30       	cpi	r20, 0x05	; 5
     910:	09 f4       	brne	.+2      	; 0x914 <numPrinter+0x24>
     912:	fd c0       	rjmp	.+506    	; 0xb0e <numPrinter+0x21e>
     914:	9b c1       	rjmp	.+822    	; 0xc4c <numPrinter+0x35c>
		case 0:
		break;
		
		case 1:
		onesPlace = (inputNumber%10)+48; //this should be a value between 1 and 10.
		charArray[startingPos] = onesPlace;
     916:	ec 01       	movw	r28, r24
     918:	c6 0f       	add	r28, r22
     91a:	d1 1d       	adc	r29, r1
     91c:	ad ec       	ldi	r26, 0xCD	; 205
     91e:	bc ec       	ldi	r27, 0xCC	; 204
     920:	3c d4       	rcall	.+2168   	; 0x119a <__umulhisi3>
     922:	96 95       	lsr	r25
     924:	87 95       	ror	r24
     926:	96 95       	lsr	r25
     928:	87 95       	ror	r24
     92a:	96 95       	lsr	r25
     92c:	87 95       	ror	r24
     92e:	9c 01       	movw	r18, r24
     930:	22 0f       	add	r18, r18
     932:	33 1f       	adc	r19, r19
     934:	88 0f       	add	r24, r24
     936:	99 1f       	adc	r25, r25
     938:	88 0f       	add	r24, r24
     93a:	99 1f       	adc	r25, r25
     93c:	88 0f       	add	r24, r24
     93e:	99 1f       	adc	r25, r25
     940:	82 0f       	add	r24, r18
     942:	93 1f       	adc	r25, r19
     944:	e8 1b       	sub	r30, r24
     946:	f9 0b       	sbc	r31, r25
     948:	e0 5d       	subi	r30, 0xD0	; 208
     94a:	e8 83       	st	Y, r30
		break;
     94c:	7f c1       	rjmp	.+766    	; 0xc4c <numPrinter+0x35c>
		
		case 2:
		onesPlace = (inputNumber%10)+48; //this should be a value between 1 and 10.
		tensPlace = (inputNumber/10)+48;
		charArray[(startingPos+1)] = onesPlace;
     94e:	ec 01       	movw	r28, r24
     950:	c6 0f       	add	r28, r22
     952:	d1 1d       	adc	r29, r1
     954:	ad ec       	ldi	r26, 0xCD	; 205
     956:	bc ec       	ldi	r27, 0xCC	; 204
     958:	20 d4       	rcall	.+2112   	; 0x119a <__umulhisi3>
     95a:	96 95       	lsr	r25
     95c:	87 95       	ror	r24
     95e:	96 95       	lsr	r25
     960:	87 95       	ror	r24
     962:	96 95       	lsr	r25
     964:	87 95       	ror	r24
     966:	9c 01       	movw	r18, r24
     968:	22 0f       	add	r18, r18
     96a:	33 1f       	adc	r19, r19
     96c:	88 0f       	add	r24, r24
     96e:	99 1f       	adc	r25, r25
     970:	88 0f       	add	r24, r24
     972:	99 1f       	adc	r25, r25
     974:	88 0f       	add	r24, r24
     976:	99 1f       	adc	r25, r25
     978:	82 0f       	add	r24, r18
     97a:	93 1f       	adc	r25, r19
     97c:	9f 01       	movw	r18, r30
     97e:	28 1b       	sub	r18, r24
     980:	39 0b       	sbc	r19, r25
     982:	c9 01       	movw	r24, r18
     984:	80 5d       	subi	r24, 0xD0	; 208
     986:	89 83       	std	Y+1, r24	; 0x01
		charArray[startingPos] = tensPlace;
     988:	9f 01       	movw	r18, r30
     98a:	07 d4       	rcall	.+2062   	; 0x119a <__umulhisi3>
     98c:	96 95       	lsr	r25
     98e:	87 95       	ror	r24
     990:	96 95       	lsr	r25
     992:	87 95       	ror	r24
     994:	96 95       	lsr	r25
     996:	87 95       	ror	r24
     998:	80 5d       	subi	r24, 0xD0	; 208
     99a:	88 83       	st	Y, r24
     99c:	57 c1       	rjmp	.+686    	; 0xc4c <numPrinter+0x35c>
		break;
     99e:	ec 01       	movw	r28, r24
		
		case 3:
		onesPlace = (inputNumber%10)+48; //this should be a value between 1 and 10.
		tensPlace = ((inputNumber%100)/10)+48;
		hunderedsPlace = (inputNumber/100)+48;
		charArray[(startingPos+2)] = onesPlace;
     9a0:	c6 0f       	add	r28, r22
     9a2:	d1 1d       	adc	r29, r1
     9a4:	ad ec       	ldi	r26, 0xCD	; 205
     9a6:	bc ec       	ldi	r27, 0xCC	; 204
     9a8:	f8 d3       	rcall	.+2032   	; 0x119a <__umulhisi3>
     9aa:	96 95       	lsr	r25
     9ac:	87 95       	ror	r24
     9ae:	96 95       	lsr	r25
     9b0:	87 95       	ror	r24
     9b2:	96 95       	lsr	r25
     9b4:	87 95       	ror	r24
     9b6:	9c 01       	movw	r18, r24
     9b8:	22 0f       	add	r18, r18
     9ba:	33 1f       	adc	r19, r19
     9bc:	88 0f       	add	r24, r24
     9be:	99 1f       	adc	r25, r25
     9c0:	88 0f       	add	r24, r24
     9c2:	99 1f       	adc	r25, r25
     9c4:	88 0f       	add	r24, r24
     9c6:	99 1f       	adc	r25, r25
     9c8:	82 0f       	add	r24, r18
     9ca:	93 1f       	adc	r25, r19
     9cc:	9f 01       	movw	r18, r30
     9ce:	28 1b       	sub	r18, r24
     9d0:	39 0b       	sbc	r19, r25
     9d2:	c9 01       	movw	r24, r18
     9d4:	80 5d       	subi	r24, 0xD0	; 208
     9d6:	8a 83       	std	Y+2, r24	; 0x02
     9d8:	af 01       	movw	r20, r30
		charArray[(startingPos+1)] = tensPlace;
     9da:	56 95       	lsr	r21
     9dc:	47 95       	ror	r20
     9de:	56 95       	lsr	r21
     9e0:	47 95       	ror	r20
     9e2:	9a 01       	movw	r18, r20
     9e4:	ab e7       	ldi	r26, 0x7B	; 123
     9e6:	b4 e1       	ldi	r27, 0x14	; 20
     9e8:	d8 d3       	rcall	.+1968   	; 0x119a <__umulhisi3>
     9ea:	96 95       	lsr	r25
     9ec:	87 95       	ror	r24
     9ee:	64 e6       	ldi	r22, 0x64	; 100
     9f0:	68 9f       	mul	r22, r24
     9f2:	90 01       	movw	r18, r0
     9f4:	69 9f       	mul	r22, r25
     9f6:	30 0d       	add	r19, r0
     9f8:	11 24       	eor	r1, r1
     9fa:	cf 01       	movw	r24, r30
     9fc:	82 1b       	sub	r24, r18
     9fe:	93 0b       	sbc	r25, r19
     a00:	9c 01       	movw	r18, r24
     a02:	ad ec       	ldi	r26, 0xCD	; 205
     a04:	bc ec       	ldi	r27, 0xCC	; 204
     a06:	c9 d3       	rcall	.+1938   	; 0x119a <__umulhisi3>
     a08:	96 95       	lsr	r25
     a0a:	87 95       	ror	r24
     a0c:	96 95       	lsr	r25
     a0e:	87 95       	ror	r24
     a10:	96 95       	lsr	r25
     a12:	87 95       	ror	r24
     a14:	80 5d       	subi	r24, 0xD0	; 208
     a16:	89 83       	std	Y+1, r24	; 0x01
		charArray[startingPos] = hunderedsPlace;
     a18:	9a 01       	movw	r18, r20
     a1a:	ab e7       	ldi	r26, 0x7B	; 123
     a1c:	b4 e1       	ldi	r27, 0x14	; 20
     a1e:	bd d3       	rcall	.+1914   	; 0x119a <__umulhisi3>
     a20:	96 95       	lsr	r25
     a22:	87 95       	ror	r24
     a24:	80 5d       	subi	r24, 0xD0	; 208
     a26:	88 83       	st	Y, r24
		break;
     a28:	11 c1       	rjmp	.+546    	; 0xc4c <numPrinter+0x35c>
		case 4:
		onesPlace = (inputNumber%10)+48; //this should be a value between 1 and 10.
		tensPlace = ((inputNumber%100)/10)+48;
		hunderedsPlace = ((inputNumber%1000)/100)+48;
		thousandsPlace = (inputNumber/1000)+48;
		charArray[(startingPos+3)] = onesPlace;
     a2a:	ec 01       	movw	r28, r24
     a2c:	c6 0f       	add	r28, r22
     a2e:	d1 1d       	adc	r29, r1
     a30:	ad ec       	ldi	r26, 0xCD	; 205
     a32:	bc ec       	ldi	r27, 0xCC	; 204
     a34:	b2 d3       	rcall	.+1892   	; 0x119a <__umulhisi3>
     a36:	96 95       	lsr	r25
     a38:	87 95       	ror	r24
     a3a:	96 95       	lsr	r25
     a3c:	87 95       	ror	r24
     a3e:	96 95       	lsr	r25
     a40:	87 95       	ror	r24
     a42:	9c 01       	movw	r18, r24
     a44:	22 0f       	add	r18, r18
     a46:	33 1f       	adc	r19, r19
     a48:	88 0f       	add	r24, r24
     a4a:	99 1f       	adc	r25, r25
     a4c:	88 0f       	add	r24, r24
     a4e:	99 1f       	adc	r25, r25
     a50:	88 0f       	add	r24, r24
     a52:	99 1f       	adc	r25, r25
     a54:	82 0f       	add	r24, r18
     a56:	93 1f       	adc	r25, r19
     a58:	9f 01       	movw	r18, r30
     a5a:	28 1b       	sub	r18, r24
     a5c:	39 0b       	sbc	r19, r25
     a5e:	c9 01       	movw	r24, r18
     a60:	80 5d       	subi	r24, 0xD0	; 208
     a62:	8b 83       	std	Y+3, r24	; 0x03
		charArray[(startingPos+2)] = tensPlace;
     a64:	9f 01       	movw	r18, r30
     a66:	36 95       	lsr	r19
     a68:	27 95       	ror	r18
     a6a:	36 95       	lsr	r19
     a6c:	27 95       	ror	r18
     a6e:	ab e7       	ldi	r26, 0x7B	; 123
     a70:	b4 e1       	ldi	r27, 0x14	; 20
     a72:	93 d3       	rcall	.+1830   	; 0x119a <__umulhisi3>
     a74:	96 95       	lsr	r25
     a76:	87 95       	ror	r24
     a78:	44 e6       	ldi	r20, 0x64	; 100
     a7a:	48 9f       	mul	r20, r24
     a7c:	90 01       	movw	r18, r0
     a7e:	49 9f       	mul	r20, r25
     a80:	30 0d       	add	r19, r0
     a82:	11 24       	eor	r1, r1
     a84:	cf 01       	movw	r24, r30
     a86:	82 1b       	sub	r24, r18
     a88:	93 0b       	sbc	r25, r19
     a8a:	9c 01       	movw	r18, r24
     a8c:	ad ec       	ldi	r26, 0xCD	; 205
     a8e:	bc ec       	ldi	r27, 0xCC	; 204
     a90:	84 d3       	rcall	.+1800   	; 0x119a <__umulhisi3>
     a92:	96 95       	lsr	r25
     a94:	87 95       	ror	r24
     a96:	96 95       	lsr	r25
     a98:	87 95       	ror	r24
     a9a:	96 95       	lsr	r25
     a9c:	87 95       	ror	r24
     a9e:	80 5d       	subi	r24, 0xD0	; 208
     aa0:	8a 83       	std	Y+2, r24	; 0x02
     aa2:	af 01       	movw	r20, r30
		charArray[(startingPos+1)] = hunderedsPlace;
     aa4:	56 95       	lsr	r21
     aa6:	47 95       	ror	r20
     aa8:	56 95       	lsr	r21
     aaa:	47 95       	ror	r20
     aac:	56 95       	lsr	r21
     aae:	47 95       	ror	r20
     ab0:	9a 01       	movw	r18, r20
     ab2:	a5 ec       	ldi	r26, 0xC5	; 197
     ab4:	b0 e2       	ldi	r27, 0x20	; 32
     ab6:	71 d3       	rcall	.+1762   	; 0x119a <__umulhisi3>
     ab8:	92 95       	swap	r25
     aba:	82 95       	swap	r24
     abc:	8f 70       	andi	r24, 0x0F	; 15
     abe:	89 27       	eor	r24, r25
     ac0:	9f 70       	andi	r25, 0x0F	; 15
     ac2:	89 27       	eor	r24, r25
     ac4:	68 ee       	ldi	r22, 0xE8	; 232
     ac6:	73 e0       	ldi	r23, 0x03	; 3
     ac8:	86 9f       	mul	r24, r22
     aca:	90 01       	movw	r18, r0
     acc:	87 9f       	mul	r24, r23
     ace:	30 0d       	add	r19, r0
     ad0:	96 9f       	mul	r25, r22
     ad2:	30 0d       	add	r19, r0
     ad4:	11 24       	eor	r1, r1
     ad6:	cf 01       	movw	r24, r30
     ad8:	82 1b       	sub	r24, r18
     ada:	93 0b       	sbc	r25, r19
     adc:	9c 01       	movw	r18, r24
     ade:	36 95       	lsr	r19
     ae0:	27 95       	ror	r18
     ae2:	36 95       	lsr	r19
     ae4:	27 95       	ror	r18
     ae6:	ab e7       	ldi	r26, 0x7B	; 123
     ae8:	b4 e1       	ldi	r27, 0x14	; 20
     aea:	57 d3       	rcall	.+1710   	; 0x119a <__umulhisi3>
     aec:	96 95       	lsr	r25
     aee:	87 95       	ror	r24
     af0:	80 5d       	subi	r24, 0xD0	; 208
     af2:	89 83       	std	Y+1, r24	; 0x01
		charArray[startingPos] = thousandsPlace;
     af4:	9a 01       	movw	r18, r20
     af6:	a5 ec       	ldi	r26, 0xC5	; 197
     af8:	b0 e2       	ldi	r27, 0x20	; 32
     afa:	4f d3       	rcall	.+1694   	; 0x119a <__umulhisi3>
     afc:	92 95       	swap	r25
     afe:	82 95       	swap	r24
     b00:	8f 70       	andi	r24, 0x0F	; 15
     b02:	89 27       	eor	r24, r25
     b04:	9f 70       	andi	r25, 0x0F	; 15
     b06:	89 27       	eor	r24, r25
     b08:	80 5d       	subi	r24, 0xD0	; 208
     b0a:	88 83       	st	Y, r24
		break;
     b0c:	9f c0       	rjmp	.+318    	; 0xc4c <numPrinter+0x35c>
		onesPlace = (inputNumber%10)+48; //this should be a value between 1 and 10.
		tensPlace = ((inputNumber%100)/10)+48;
		hunderedsPlace = ((inputNumber%1000)/100)+48;
		thousandsPlace = ((inputNumber%10000)/1000)+48;
		tenThousandsPlace = (inputNumber/10000)+48;
		charArray[(startingPos+4)] = onesPlace;
     b0e:	ec 01       	movw	r28, r24
     b10:	c6 0f       	add	r28, r22
     b12:	d1 1d       	adc	r29, r1
     b14:	ad ec       	ldi	r26, 0xCD	; 205
     b16:	bc ec       	ldi	r27, 0xCC	; 204
     b18:	40 d3       	rcall	.+1664   	; 0x119a <__umulhisi3>
     b1a:	96 95       	lsr	r25
     b1c:	87 95       	ror	r24
     b1e:	96 95       	lsr	r25
     b20:	87 95       	ror	r24
     b22:	96 95       	lsr	r25
     b24:	87 95       	ror	r24
     b26:	9c 01       	movw	r18, r24
     b28:	22 0f       	add	r18, r18
     b2a:	33 1f       	adc	r19, r19
     b2c:	88 0f       	add	r24, r24
     b2e:	99 1f       	adc	r25, r25
     b30:	88 0f       	add	r24, r24
     b32:	99 1f       	adc	r25, r25
     b34:	88 0f       	add	r24, r24
     b36:	99 1f       	adc	r25, r25
     b38:	82 0f       	add	r24, r18
     b3a:	93 1f       	adc	r25, r19
     b3c:	9f 01       	movw	r18, r30
     b3e:	28 1b       	sub	r18, r24
     b40:	39 0b       	sbc	r19, r25
     b42:	c9 01       	movw	r24, r18
     b44:	80 5d       	subi	r24, 0xD0	; 208
     b46:	8c 83       	std	Y+4, r24	; 0x04
		charArray[(startingPos+3)] = tensPlace;
     b48:	9f 01       	movw	r18, r30
     b4a:	36 95       	lsr	r19
     b4c:	27 95       	ror	r18
     b4e:	36 95       	lsr	r19
     b50:	27 95       	ror	r18
     b52:	ab e7       	ldi	r26, 0x7B	; 123
     b54:	b4 e1       	ldi	r27, 0x14	; 20
     b56:	21 d3       	rcall	.+1602   	; 0x119a <__umulhisi3>
     b58:	96 95       	lsr	r25
     b5a:	87 95       	ror	r24
     b5c:	44 e6       	ldi	r20, 0x64	; 100
     b5e:	48 9f       	mul	r20, r24
     b60:	90 01       	movw	r18, r0
     b62:	49 9f       	mul	r20, r25
     b64:	30 0d       	add	r19, r0
     b66:	11 24       	eor	r1, r1
     b68:	cf 01       	movw	r24, r30
     b6a:	82 1b       	sub	r24, r18
     b6c:	93 0b       	sbc	r25, r19
     b6e:	9c 01       	movw	r18, r24
     b70:	ad ec       	ldi	r26, 0xCD	; 205
     b72:	bc ec       	ldi	r27, 0xCC	; 204
     b74:	12 d3       	rcall	.+1572   	; 0x119a <__umulhisi3>
     b76:	96 95       	lsr	r25
     b78:	87 95       	ror	r24
     b7a:	96 95       	lsr	r25
     b7c:	87 95       	ror	r24
     b7e:	96 95       	lsr	r25
     b80:	87 95       	ror	r24
     b82:	80 5d       	subi	r24, 0xD0	; 208
     b84:	8b 83       	std	Y+3, r24	; 0x03
		charArray[(startingPos+2)] = hunderedsPlace;
     b86:	9f 01       	movw	r18, r30
     b88:	36 95       	lsr	r19
     b8a:	27 95       	ror	r18
     b8c:	36 95       	lsr	r19
     b8e:	27 95       	ror	r18
     b90:	36 95       	lsr	r19
     b92:	27 95       	ror	r18
     b94:	a5 ec       	ldi	r26, 0xC5	; 197
     b96:	b0 e2       	ldi	r27, 0x20	; 32
     b98:	00 d3       	rcall	.+1536   	; 0x119a <__umulhisi3>
     b9a:	92 95       	swap	r25
     b9c:	82 95       	swap	r24
     b9e:	8f 70       	andi	r24, 0x0F	; 15
     ba0:	89 27       	eor	r24, r25
     ba2:	9f 70       	andi	r25, 0x0F	; 15
     ba4:	89 27       	eor	r24, r25
     ba6:	48 ee       	ldi	r20, 0xE8	; 232
     ba8:	53 e0       	ldi	r21, 0x03	; 3
     baa:	84 9f       	mul	r24, r20
     bac:	90 01       	movw	r18, r0
     bae:	85 9f       	mul	r24, r21
     bb0:	30 0d       	add	r19, r0
     bb2:	94 9f       	mul	r25, r20
     bb4:	30 0d       	add	r19, r0
     bb6:	11 24       	eor	r1, r1
     bb8:	cf 01       	movw	r24, r30
     bba:	82 1b       	sub	r24, r18
     bbc:	93 0b       	sbc	r25, r19
     bbe:	9c 01       	movw	r18, r24
     bc0:	36 95       	lsr	r19
     bc2:	27 95       	ror	r18
     bc4:	36 95       	lsr	r19
     bc6:	27 95       	ror	r18
     bc8:	ab e7       	ldi	r26, 0x7B	; 123
     bca:	b4 e1       	ldi	r27, 0x14	; 20
     bcc:	e6 d2       	rcall	.+1484   	; 0x119a <__umulhisi3>
     bce:	96 95       	lsr	r25
     bd0:	87 95       	ror	r24
     bd2:	80 5d       	subi	r24, 0xD0	; 208
     bd4:	8a 83       	std	Y+2, r24	; 0x02
		charArray[(startingPos+1)] = thousandsPlace;
     bd6:	af 01       	movw	r20, r30
     bd8:	52 95       	swap	r21
     bda:	42 95       	swap	r20
     bdc:	4f 70       	andi	r20, 0x0F	; 15
     bde:	45 27       	eor	r20, r21
     be0:	5f 70       	andi	r21, 0x0F	; 15
     be2:	45 27       	eor	r20, r21
     be4:	9a 01       	movw	r18, r20
     be6:	a7 e4       	ldi	r26, 0x47	; 71
     be8:	b3 e0       	ldi	r27, 0x03	; 3
     bea:	d7 d2       	rcall	.+1454   	; 0x119a <__umulhisi3>
     bec:	96 95       	lsr	r25
     bee:	87 95       	ror	r24
     bf0:	96 95       	lsr	r25
     bf2:	87 95       	ror	r24
     bf4:	96 95       	lsr	r25
     bf6:	87 95       	ror	r24
     bf8:	60 e1       	ldi	r22, 0x10	; 16
     bfa:	77 e2       	ldi	r23, 0x27	; 39
     bfc:	86 9f       	mul	r24, r22
     bfe:	90 01       	movw	r18, r0
     c00:	87 9f       	mul	r24, r23
     c02:	30 0d       	add	r19, r0
     c04:	96 9f       	mul	r25, r22
     c06:	30 0d       	add	r19, r0
     c08:	11 24       	eor	r1, r1
     c0a:	cf 01       	movw	r24, r30
     c0c:	82 1b       	sub	r24, r18
     c0e:	93 0b       	sbc	r25, r19
     c10:	9c 01       	movw	r18, r24
     c12:	36 95       	lsr	r19
     c14:	27 95       	ror	r18
     c16:	36 95       	lsr	r19
     c18:	27 95       	ror	r18
     c1a:	36 95       	lsr	r19
     c1c:	27 95       	ror	r18
     c1e:	a5 ec       	ldi	r26, 0xC5	; 197
     c20:	b0 e2       	ldi	r27, 0x20	; 32
     c22:	bb d2       	rcall	.+1398   	; 0x119a <__umulhisi3>
     c24:	92 95       	swap	r25
     c26:	82 95       	swap	r24
     c28:	8f 70       	andi	r24, 0x0F	; 15
     c2a:	89 27       	eor	r24, r25
     c2c:	9f 70       	andi	r25, 0x0F	; 15
     c2e:	89 27       	eor	r24, r25
     c30:	80 5d       	subi	r24, 0xD0	; 208
     c32:	89 83       	std	Y+1, r24	; 0x01
		charArray[startingPos] = tenThousandsPlace;
     c34:	9a 01       	movw	r18, r20
     c36:	a7 e4       	ldi	r26, 0x47	; 71
     c38:	b3 e0       	ldi	r27, 0x03	; 3
     c3a:	af d2       	rcall	.+1374   	; 0x119a <__umulhisi3>
     c3c:	96 95       	lsr	r25
     c3e:	87 95       	ror	r24
     c40:	96 95       	lsr	r25
     c42:	87 95       	ror	r24
     c44:	96 95       	lsr	r25
     c46:	87 95       	ror	r24
     c48:	80 5d       	subi	r24, 0xD0	; 208
     c4a:	88 83       	st	Y, r24
     c4c:	df 91       	pop	r29
		break;
		
	}


     c4e:	cf 91       	pop	r28
     c50:	08 95       	ret

00000c52 <__vector_27>:

int serialReadPos = 0;////this is a necessary global for the serial Library
int serialWritePos = 0;//this is a necessary global for the serial Library

ISR (USART0_TX_vect)
{
     c52:	1f 92       	push	r1
     c54:	0f 92       	push	r0
     c56:	0f b6       	in	r0, 0x3f	; 63
     c58:	0f 92       	push	r0
     c5a:	11 24       	eor	r1, r1
     c5c:	0b b6       	in	r0, 0x3b	; 59
     c5e:	0f 92       	push	r0
     c60:	2f 93       	push	r18
     c62:	3f 93       	push	r19
     c64:	8f 93       	push	r24
     c66:	9f 93       	push	r25
     c68:	ef 93       	push	r30
     c6a:	ff 93       	push	r31
	if(serialReadPos != serialWritePos)
     c6c:	80 91 aa 03 	lds	r24, 0x03AA	; 0x8003aa <serialReadPos>
     c70:	90 91 ab 03 	lds	r25, 0x03AB	; 0x8003ab <serialReadPos+0x1>
     c74:	20 91 a8 03 	lds	r18, 0x03A8	; 0x8003a8 <serialWritePos>
     c78:	30 91 a9 03 	lds	r19, 0x03A9	; 0x8003a9 <serialWritePos+0x1>
     c7c:	82 17       	cp	r24, r18
     c7e:	93 07       	cpc	r25, r19
     c80:	b9 f0       	breq	.+46     	; 0xcb0 <__vector_27+0x5e>
	{
		UDR0 = serial0Buffer[serialReadPos];
     c82:	fc 01       	movw	r30, r24
     c84:	e4 55       	subi	r30, 0x54	; 84
     c86:	fa 4f       	sbci	r31, 0xFA	; 250
     c88:	80 81       	ld	r24, Z
     c8a:	80 93 c6 00 	sts	0x00C6, r24	; 0x8000c6 <__TEXT_REGION_LENGTH__+0x7000c6>
		serialReadPos++;
     c8e:	80 91 aa 03 	lds	r24, 0x03AA	; 0x8003aa <serialReadPos>
     c92:	90 91 ab 03 	lds	r25, 0x03AB	; 0x8003ab <serialReadPos+0x1>
     c96:	01 96       	adiw	r24, 0x01	; 1
		
		if(serialReadPos >= TX_BUFFER_SIZE)
     c98:	80 38       	cpi	r24, 0x80	; 128
     c9a:	91 05       	cpc	r25, r1
     c9c:	2c f4       	brge	.+10     	; 0xca8 <__vector_27+0x56>
ISR (USART0_TX_vect)
{
	if(serialReadPos != serialWritePos)
	{
		UDR0 = serial0Buffer[serialReadPos];
		serialReadPos++;
     c9e:	90 93 ab 03 	sts	0x03AB, r25	; 0x8003ab <serialReadPos+0x1>
     ca2:	80 93 aa 03 	sts	0x03AA, r24	; 0x8003aa <serialReadPos>
     ca6:	04 c0       	rjmp	.+8      	; 0xcb0 <__vector_27+0x5e>
		
		if(serialReadPos >= TX_BUFFER_SIZE)
		{
			serialReadPos=0; //this seems wrong, I think we should be setting this to 0.
     ca8:	10 92 ab 03 	sts	0x03AB, r1	; 0x8003ab <serialReadPos+0x1>
     cac:	10 92 aa 03 	sts	0x03AA, r1	; 0x8003aa <serialReadPos>
		}
	}
}
     cb0:	ff 91       	pop	r31
     cb2:	ef 91       	pop	r30
     cb4:	9f 91       	pop	r25
     cb6:	8f 91       	pop	r24
     cb8:	3f 91       	pop	r19
     cba:	2f 91       	pop	r18
     cbc:	0f 90       	pop	r0
     cbe:	0b be       	out	0x3b, r0	; 59
     cc0:	0f 90       	pop	r0
     cc2:	0f be       	out	0x3f, r0	; 63
     cc4:	0f 90       	pop	r0
     cc6:	1f 90       	pop	r1
     cc8:	18 95       	reti

00000cca <appendSerial0>:

void appendSerial0(char c)
{
	serial0Buffer[serialWritePos] = c;
     cca:	20 91 a8 03 	lds	r18, 0x03A8	; 0x8003a8 <serialWritePos>
     cce:	30 91 a9 03 	lds	r19, 0x03A9	; 0x8003a9 <serialWritePos+0x1>
     cd2:	f9 01       	movw	r30, r18
     cd4:	e4 55       	subi	r30, 0x54	; 84
     cd6:	fa 4f       	sbci	r31, 0xFA	; 250
     cd8:	80 83       	st	Z, r24
	serialWritePos++;
     cda:	2f 5f       	subi	r18, 0xFF	; 255
     cdc:	3f 4f       	sbci	r19, 0xFF	; 255
	if(serialWritePos >= TX_BUFFER_SIZE)
     cde:	20 38       	cpi	r18, 0x80	; 128
     ce0:	31 05       	cpc	r19, r1
     ce2:	2c f4       	brge	.+10     	; 0xcee <appendSerial0+0x24>
}

void appendSerial0(char c)
{
	serial0Buffer[serialWritePos] = c;
	serialWritePos++;
     ce4:	30 93 a9 03 	sts	0x03A9, r19	; 0x8003a9 <serialWritePos+0x1>
     ce8:	20 93 a8 03 	sts	0x03A8, r18	; 0x8003a8 <serialWritePos>
     cec:	08 95       	ret
	if(serialWritePos >= TX_BUFFER_SIZE)
	{
		serialWritePos = 0;
     cee:	10 92 a9 03 	sts	0x03A9, r1	; 0x8003a9 <serialWritePos+0x1>
     cf2:	10 92 a8 03 	sts	0x03A8, r1	; 0x8003a8 <serialWritePos>
     cf6:	08 95       	ret

00000cf8 <serialWrite0>:
	}
}

void serialWrite0(char c[])
{
     cf8:	0f 93       	push	r16
     cfa:	1f 93       	push	r17
     cfc:	cf 93       	push	r28
     cfe:	df 93       	push	r29
     d00:	ec 01       	movw	r28, r24
     d02:	8c 01       	movw	r16, r24
     d04:	06 5f       	subi	r16, 0xF6	; 246
     d06:	1f 4f       	sbci	r17, 0xFF	; 255
	for (uint8_t i = 0; i<10; i++) //this may need to be 11
	{
		appendSerial0(c[i]);
     d08:	89 91       	ld	r24, Y+
     d0a:	df df       	rcall	.-66     	; 0xcca <appendSerial0>
	}
}

void serialWrite0(char c[])
{
	for (uint8_t i = 0; i<10; i++) //this may need to be 11
     d0c:	c0 17       	cp	r28, r16
     d0e:	d1 07       	cpc	r29, r17
     d10:	d9 f7       	brne	.-10     	; 0xd08 <serialWrite0+0x10>
	{
		appendSerial0(c[i]);
		
	}
	
	if(UCSR0A & (1 << UDRE0))
     d12:	80 91 c0 00 	lds	r24, 0x00C0	; 0x8000c0 <__TEXT_REGION_LENGTH__+0x7000c0>
     d16:	85 fd       	sbrc	r24, 5
	{
		UDR0 = 0;
     d18:	10 92 c6 00 	sts	0x00C6, r1	; 0x8000c6 <__TEXT_REGION_LENGTH__+0x7000c6>
	}
}
     d1c:	df 91       	pop	r29
     d1e:	cf 91       	pop	r28
     d20:	1f 91       	pop	r17
     d22:	0f 91       	pop	r16
     d24:	08 95       	ret

00000d26 <serialInit0>:

void serialInit0()
{
UBRR0H = (BRC >> 8);
     d26:	10 92 c5 00 	sts	0x00C5, r1	; 0x8000c5 <__TEXT_REGION_LENGTH__+0x7000c5>
UBRR0L = BRC;
     d2a:	80 e1       	ldi	r24, 0x10	; 16
     d2c:	80 93 c4 00 	sts	0x00C4, r24	; 0x8000c4 <__TEXT_REGION_LENGTH__+0x7000c4>

UCSR0B = (1 << TXEN0)  | (1 << TXCIE0);
     d30:	88 e4       	ldi	r24, 0x48	; 72
     d32:	80 93 c1 00 	sts	0x00C1, r24	; 0x8000c1 <__TEXT_REGION_LENGTH__+0x7000c1>
UCSR0C = (1 << UCSZ01) | (1 << UCSZ00);
     d36:	86 e0       	ldi	r24, 0x06	; 6
     d38:	80 93 c2 00 	sts	0x00C2, r24	; 0x8000c2 <__TEXT_REGION_LENGTH__+0x7000c2>
     d3c:	08 95       	ret

00000d3e <trackControl>:
void resumeAll()
{
	char resumePlay[5] = {0xf0, 0xaa, 0x05, 0x0b, 0x55};
	serialWrite0(resumePlay);
	
}
     d3e:	cf 93       	push	r28
     d40:	df 93       	push	r29
     d42:	cd b7       	in	r28, 0x3d	; 61
     d44:	de b7       	in	r29, 0x3e	; 62
     d46:	2a 97       	sbiw	r28, 0x0a	; 10
     d48:	0f b6       	in	r0, 0x3f	; 63
     d4a:	f8 94       	cli
     d4c:	de bf       	out	0x3e, r29	; 62
     d4e:	0f be       	out	0x3f, r0	; 63
     d50:	cd bf       	out	0x3d, r28	; 61
     d52:	90 ef       	ldi	r25, 0xF0	; 240
     d54:	99 83       	std	Y+1, r25	; 0x01
     d56:	9a ea       	ldi	r25, 0xAA	; 170
     d58:	9a 83       	std	Y+2, r25	; 0x02
     d5a:	9a e0       	ldi	r25, 0x0A	; 10
     d5c:	9b 83       	std	Y+3, r25	; 0x03
     d5e:	93 e0       	ldi	r25, 0x03	; 3
     d60:	9c 83       	std	Y+4, r25	; 0x04
     d62:	2d 83       	std	Y+5, r18	; 0x05
     d64:	8e 83       	std	Y+6, r24	; 0x06
     d66:	6f 83       	std	Y+7, r22	; 0x07
     d68:	48 87       	std	Y+8, r20	; 0x08
     d6a:	19 86       	std	Y+9, r1	; 0x09
     d6c:	85 e5       	ldi	r24, 0x55	; 85
     d6e:	8a 87       	std	Y+10, r24	; 0x0a
     d70:	ce 01       	movw	r24, r28
     d72:	01 96       	adiw	r24, 0x01	; 1
     d74:	c1 df       	rcall	.-126    	; 0xcf8 <serialWrite0>
     d76:	2a 96       	adiw	r28, 0x0a	; 10
     d78:	0f b6       	in	r0, 0x3f	; 63
     d7a:	f8 94       	cli
     d7c:	de bf       	out	0x3e, r29	; 62
     d7e:	0f be       	out	0x3f, r0	; 63
     d80:	cd bf       	out	0x3d, r28	; 61
     d82:	df 91       	pop	r29
     d84:	cf 91       	pop	r28
     d86:	08 95       	ret

00000d88 <setOutputVolume>:
     d88:	cf 93       	push	r28
     d8a:	df 93       	push	r29
     d8c:	cd b7       	in	r28, 0x3d	; 61
     d8e:	de b7       	in	r29, 0x3e	; 62
     d90:	28 97       	sbiw	r28, 0x08	; 8
     d92:	0f b6       	in	r0, 0x3f	; 63
     d94:	f8 94       	cli
     d96:	de bf       	out	0x3e, r29	; 62
     d98:	0f be       	out	0x3f, r0	; 63
     d9a:	cd bf       	out	0x3d, r28	; 61
     d9c:	90 ef       	ldi	r25, 0xF0	; 240
     d9e:	99 83       	std	Y+1, r25	; 0x01
     da0:	9a ea       	ldi	r25, 0xAA	; 170
     da2:	9a 83       	std	Y+2, r25	; 0x02
     da4:	98 e0       	ldi	r25, 0x08	; 8
     da6:	9b 83       	std	Y+3, r25	; 0x03
     da8:	95 e0       	ldi	r25, 0x05	; 5
     daa:	9c 83       	std	Y+4, r25	; 0x04
     dac:	4d 83       	std	Y+5, r20	; 0x05
     dae:	8e 83       	std	Y+6, r24	; 0x06
     db0:	6f 83       	std	Y+7, r22	; 0x07
     db2:	85 e5       	ldi	r24, 0x55	; 85
     db4:	88 87       	std	Y+8, r24	; 0x08
     db6:	ce 01       	movw	r24, r28
     db8:	01 96       	adiw	r24, 0x01	; 1
     dba:	9e df       	rcall	.-196    	; 0xcf8 <serialWrite0>
     dbc:	28 96       	adiw	r28, 0x08	; 8
     dbe:	0f b6       	in	r0, 0x3f	; 63
     dc0:	f8 94       	cli
     dc2:	de bf       	out	0x3e, r29	; 62
     dc4:	0f be       	out	0x3f, r0	; 63
     dc6:	cd bf       	out	0x3d, r28	; 61
     dc8:	df 91       	pop	r29
     dca:	cf 91       	pop	r28
     dcc:	08 95       	ret

00000dce <setTrackVolume>:
     dce:	cf 93       	push	r28
     dd0:	df 93       	push	r29
     dd2:	cd b7       	in	r28, 0x3d	; 61
     dd4:	de b7       	in	r29, 0x3e	; 62
     dd6:	29 97       	sbiw	r28, 0x09	; 9
     dd8:	0f b6       	in	r0, 0x3f	; 63
     dda:	f8 94       	cli
     ddc:	de bf       	out	0x3e, r29	; 62
     dde:	0f be       	out	0x3f, r0	; 63
     de0:	cd bf       	out	0x3d, r28	; 61
     de2:	90 ef       	ldi	r25, 0xF0	; 240
     de4:	99 83       	std	Y+1, r25	; 0x01
     de6:	9a ea       	ldi	r25, 0xAA	; 170
     de8:	9a 83       	std	Y+2, r25	; 0x02
     dea:	99 e0       	ldi	r25, 0x09	; 9
     dec:	9b 83       	std	Y+3, r25	; 0x03
     dee:	98 e0       	ldi	r25, 0x08	; 8
     df0:	9c 83       	std	Y+4, r25	; 0x04
     df2:	8d 83       	std	Y+5, r24	; 0x05
     df4:	6e 83       	std	Y+6, r22	; 0x06
     df6:	4f 83       	std	Y+7, r20	; 0x07
     df8:	28 87       	std	Y+8, r18	; 0x08
     dfa:	85 e5       	ldi	r24, 0x55	; 85
     dfc:	89 87       	std	Y+9, r24	; 0x09
     dfe:	ce 01       	movw	r24, r28
     e00:	01 96       	adiw	r24, 0x01	; 1
     e02:	7a df       	rcall	.-268    	; 0xcf8 <serialWrite0>
     e04:	29 96       	adiw	r28, 0x09	; 9
     e06:	0f b6       	in	r0, 0x3f	; 63
     e08:	f8 94       	cli
     e0a:	de bf       	out	0x3e, r29	; 62
     e0c:	0f be       	out	0x3f, r0	; 63
     e0e:	cd bf       	out	0x3d, r28	; 61
     e10:	df 91       	pop	r29
     e12:	cf 91       	pop	r28
     e14:	08 95       	ret

00000e16 <outputSampleRate>:

void outputSampleRate(uint8_t outputSelect, uint8_t offsetLSB, uint8_t offsetMSB)
{
     e16:	cf 93       	push	r28
     e18:	df 93       	push	r29
     e1a:	cd b7       	in	r28, 0x3d	; 61
     e1c:	de b7       	in	r29, 0x3e	; 62
     e1e:	28 97       	sbiw	r28, 0x08	; 8
     e20:	0f b6       	in	r0, 0x3f	; 63
     e22:	f8 94       	cli
     e24:	de bf       	out	0x3e, r29	; 62
     e26:	0f be       	out	0x3f, r0	; 63
     e28:	cd bf       	out	0x3d, r28	; 61
	char pitchChange[8] = {0xf0, 0xaa, 0x08, 0x0c, outputSelect, offsetLSB, offsetMSB, 0x55};
     e2a:	90 ef       	ldi	r25, 0xF0	; 240
     e2c:	99 83       	std	Y+1, r25	; 0x01
     e2e:	9a ea       	ldi	r25, 0xAA	; 170
     e30:	9a 83       	std	Y+2, r25	; 0x02
     e32:	98 e0       	ldi	r25, 0x08	; 8
     e34:	9b 83       	std	Y+3, r25	; 0x03
     e36:	9c e0       	ldi	r25, 0x0C	; 12
     e38:	9c 83       	std	Y+4, r25	; 0x04
     e3a:	8d 83       	std	Y+5, r24	; 0x05
     e3c:	6e 83       	std	Y+6, r22	; 0x06
     e3e:	4f 83       	std	Y+7, r20	; 0x07
     e40:	85 e5       	ldi	r24, 0x55	; 85
     e42:	88 87       	std	Y+8, r24	; 0x08
	serialWrite0(pitchChange);
     e44:	ce 01       	movw	r24, r28
     e46:	01 96       	adiw	r24, 0x01	; 1
     e48:	57 df       	rcall	.-338    	; 0xcf8 <serialWrite0>
}
     e4a:	28 96       	adiw	r28, 0x08	; 8
     e4c:	0f b6       	in	r0, 0x3f	; 63
     e4e:	f8 94       	cli
     e50:	de bf       	out	0x3e, r29	; 62
     e52:	0f be       	out	0x3f, r0	; 63
     e54:	cd bf       	out	0x3d, r28	; 61
     e56:	df 91       	pop	r29
     e58:	cf 91       	pop	r28
     e5a:	08 95       	ret

00000e5c <__subsf3>:
     e5c:	50 58       	subi	r21, 0x80	; 128

00000e5e <__addsf3>:
     e5e:	bb 27       	eor	r27, r27
     e60:	aa 27       	eor	r26, r26
     e62:	0e d0       	rcall	.+28     	; 0xe80 <__addsf3x>
     e64:	4d c1       	rjmp	.+666    	; 0x1100 <__fp_round>
     e66:	3e d1       	rcall	.+636    	; 0x10e4 <__fp_pscA>
     e68:	30 f0       	brcs	.+12     	; 0xe76 <__addsf3+0x18>
     e6a:	43 d1       	rcall	.+646    	; 0x10f2 <__fp_pscB>
     e6c:	20 f0       	brcs	.+8      	; 0xe76 <__addsf3+0x18>
     e6e:	31 f4       	brne	.+12     	; 0xe7c <__addsf3+0x1e>
     e70:	9f 3f       	cpi	r25, 0xFF	; 255
     e72:	11 f4       	brne	.+4      	; 0xe78 <__addsf3+0x1a>
     e74:	1e f4       	brtc	.+6      	; 0xe7c <__addsf3+0x1e>
     e76:	33 c1       	rjmp	.+614    	; 0x10de <__fp_nan>
     e78:	0e f4       	brtc	.+2      	; 0xe7c <__addsf3+0x1e>
     e7a:	e0 95       	com	r30
     e7c:	e7 fb       	bst	r30, 7
     e7e:	29 c1       	rjmp	.+594    	; 0x10d2 <__fp_inf>

00000e80 <__addsf3x>:
     e80:	e9 2f       	mov	r30, r25
     e82:	4f d1       	rcall	.+670    	; 0x1122 <__fp_split3>
     e84:	80 f3       	brcs	.-32     	; 0xe66 <__addsf3+0x8>
     e86:	ba 17       	cp	r27, r26
     e88:	62 07       	cpc	r22, r18
     e8a:	73 07       	cpc	r23, r19
     e8c:	84 07       	cpc	r24, r20
     e8e:	95 07       	cpc	r25, r21
     e90:	18 f0       	brcs	.+6      	; 0xe98 <__addsf3x+0x18>
     e92:	71 f4       	brne	.+28     	; 0xeb0 <__addsf3x+0x30>
     e94:	9e f5       	brtc	.+102    	; 0xefc <__addsf3x+0x7c>
     e96:	67 c1       	rjmp	.+718    	; 0x1166 <__fp_zero>
     e98:	0e f4       	brtc	.+2      	; 0xe9c <__addsf3x+0x1c>
     e9a:	e0 95       	com	r30
     e9c:	0b 2e       	mov	r0, r27
     e9e:	ba 2f       	mov	r27, r26
     ea0:	a0 2d       	mov	r26, r0
     ea2:	0b 01       	movw	r0, r22
     ea4:	b9 01       	movw	r22, r18
     ea6:	90 01       	movw	r18, r0
     ea8:	0c 01       	movw	r0, r24
     eaa:	ca 01       	movw	r24, r20
     eac:	a0 01       	movw	r20, r0
     eae:	11 24       	eor	r1, r1
     eb0:	ff 27       	eor	r31, r31
     eb2:	59 1b       	sub	r21, r25
     eb4:	99 f0       	breq	.+38     	; 0xedc <__addsf3x+0x5c>
     eb6:	59 3f       	cpi	r21, 0xF9	; 249
     eb8:	50 f4       	brcc	.+20     	; 0xece <__addsf3x+0x4e>
     eba:	50 3e       	cpi	r21, 0xE0	; 224
     ebc:	68 f1       	brcs	.+90     	; 0xf18 <__addsf3x+0x98>
     ebe:	1a 16       	cp	r1, r26
     ec0:	f0 40       	sbci	r31, 0x00	; 0
     ec2:	a2 2f       	mov	r26, r18
     ec4:	23 2f       	mov	r18, r19
     ec6:	34 2f       	mov	r19, r20
     ec8:	44 27       	eor	r20, r20
     eca:	58 5f       	subi	r21, 0xF8	; 248
     ecc:	f3 cf       	rjmp	.-26     	; 0xeb4 <__addsf3x+0x34>
     ece:	46 95       	lsr	r20
     ed0:	37 95       	ror	r19
     ed2:	27 95       	ror	r18
     ed4:	a7 95       	ror	r26
     ed6:	f0 40       	sbci	r31, 0x00	; 0
     ed8:	53 95       	inc	r21
     eda:	c9 f7       	brne	.-14     	; 0xece <__addsf3x+0x4e>
     edc:	7e f4       	brtc	.+30     	; 0xefc <__addsf3x+0x7c>
     ede:	1f 16       	cp	r1, r31
     ee0:	ba 0b       	sbc	r27, r26
     ee2:	62 0b       	sbc	r22, r18
     ee4:	73 0b       	sbc	r23, r19
     ee6:	84 0b       	sbc	r24, r20
     ee8:	ba f0       	brmi	.+46     	; 0xf18 <__addsf3x+0x98>
     eea:	91 50       	subi	r25, 0x01	; 1
     eec:	a1 f0       	breq	.+40     	; 0xf16 <__addsf3x+0x96>
     eee:	ff 0f       	add	r31, r31
     ef0:	bb 1f       	adc	r27, r27
     ef2:	66 1f       	adc	r22, r22
     ef4:	77 1f       	adc	r23, r23
     ef6:	88 1f       	adc	r24, r24
     ef8:	c2 f7       	brpl	.-16     	; 0xeea <__addsf3x+0x6a>
     efa:	0e c0       	rjmp	.+28     	; 0xf18 <__addsf3x+0x98>
     efc:	ba 0f       	add	r27, r26
     efe:	62 1f       	adc	r22, r18
     f00:	73 1f       	adc	r23, r19
     f02:	84 1f       	adc	r24, r20
     f04:	48 f4       	brcc	.+18     	; 0xf18 <__addsf3x+0x98>
     f06:	87 95       	ror	r24
     f08:	77 95       	ror	r23
     f0a:	67 95       	ror	r22
     f0c:	b7 95       	ror	r27
     f0e:	f7 95       	ror	r31
     f10:	9e 3f       	cpi	r25, 0xFE	; 254
     f12:	08 f0       	brcs	.+2      	; 0xf16 <__addsf3x+0x96>
     f14:	b3 cf       	rjmp	.-154    	; 0xe7c <__addsf3+0x1e>
     f16:	93 95       	inc	r25
     f18:	88 0f       	add	r24, r24
     f1a:	08 f0       	brcs	.+2      	; 0xf1e <__addsf3x+0x9e>
     f1c:	99 27       	eor	r25, r25
     f1e:	ee 0f       	add	r30, r30
     f20:	97 95       	ror	r25
     f22:	87 95       	ror	r24
     f24:	08 95       	ret

00000f26 <__divsf3>:
     f26:	0c d0       	rcall	.+24     	; 0xf40 <__divsf3x>
     f28:	eb c0       	rjmp	.+470    	; 0x1100 <__fp_round>
     f2a:	e3 d0       	rcall	.+454    	; 0x10f2 <__fp_pscB>
     f2c:	40 f0       	brcs	.+16     	; 0xf3e <__divsf3+0x18>
     f2e:	da d0       	rcall	.+436    	; 0x10e4 <__fp_pscA>
     f30:	30 f0       	brcs	.+12     	; 0xf3e <__divsf3+0x18>
     f32:	21 f4       	brne	.+8      	; 0xf3c <__divsf3+0x16>
     f34:	5f 3f       	cpi	r21, 0xFF	; 255
     f36:	19 f0       	breq	.+6      	; 0xf3e <__divsf3+0x18>
     f38:	cc c0       	rjmp	.+408    	; 0x10d2 <__fp_inf>
     f3a:	51 11       	cpse	r21, r1
     f3c:	15 c1       	rjmp	.+554    	; 0x1168 <__fp_szero>
     f3e:	cf c0       	rjmp	.+414    	; 0x10de <__fp_nan>

00000f40 <__divsf3x>:
     f40:	f0 d0       	rcall	.+480    	; 0x1122 <__fp_split3>
     f42:	98 f3       	brcs	.-26     	; 0xf2a <__divsf3+0x4>

00000f44 <__divsf3_pse>:
     f44:	99 23       	and	r25, r25
     f46:	c9 f3       	breq	.-14     	; 0xf3a <__divsf3+0x14>
     f48:	55 23       	and	r21, r21
     f4a:	b1 f3       	breq	.-20     	; 0xf38 <__divsf3+0x12>
     f4c:	95 1b       	sub	r25, r21
     f4e:	55 0b       	sbc	r21, r21
     f50:	bb 27       	eor	r27, r27
     f52:	aa 27       	eor	r26, r26
     f54:	62 17       	cp	r22, r18
     f56:	73 07       	cpc	r23, r19
     f58:	84 07       	cpc	r24, r20
     f5a:	38 f0       	brcs	.+14     	; 0xf6a <__divsf3_pse+0x26>
     f5c:	9f 5f       	subi	r25, 0xFF	; 255
     f5e:	5f 4f       	sbci	r21, 0xFF	; 255
     f60:	22 0f       	add	r18, r18
     f62:	33 1f       	adc	r19, r19
     f64:	44 1f       	adc	r20, r20
     f66:	aa 1f       	adc	r26, r26
     f68:	a9 f3       	breq	.-22     	; 0xf54 <__divsf3_pse+0x10>
     f6a:	33 d0       	rcall	.+102    	; 0xfd2 <__divsf3_pse+0x8e>
     f6c:	0e 2e       	mov	r0, r30
     f6e:	3a f0       	brmi	.+14     	; 0xf7e <__divsf3_pse+0x3a>
     f70:	e0 e8       	ldi	r30, 0x80	; 128
     f72:	30 d0       	rcall	.+96     	; 0xfd4 <__divsf3_pse+0x90>
     f74:	91 50       	subi	r25, 0x01	; 1
     f76:	50 40       	sbci	r21, 0x00	; 0
     f78:	e6 95       	lsr	r30
     f7a:	00 1c       	adc	r0, r0
     f7c:	ca f7       	brpl	.-14     	; 0xf70 <__divsf3_pse+0x2c>
     f7e:	29 d0       	rcall	.+82     	; 0xfd2 <__divsf3_pse+0x8e>
     f80:	fe 2f       	mov	r31, r30
     f82:	27 d0       	rcall	.+78     	; 0xfd2 <__divsf3_pse+0x8e>
     f84:	66 0f       	add	r22, r22
     f86:	77 1f       	adc	r23, r23
     f88:	88 1f       	adc	r24, r24
     f8a:	bb 1f       	adc	r27, r27
     f8c:	26 17       	cp	r18, r22
     f8e:	37 07       	cpc	r19, r23
     f90:	48 07       	cpc	r20, r24
     f92:	ab 07       	cpc	r26, r27
     f94:	b0 e8       	ldi	r27, 0x80	; 128
     f96:	09 f0       	breq	.+2      	; 0xf9a <__divsf3_pse+0x56>
     f98:	bb 0b       	sbc	r27, r27
     f9a:	80 2d       	mov	r24, r0
     f9c:	bf 01       	movw	r22, r30
     f9e:	ff 27       	eor	r31, r31
     fa0:	93 58       	subi	r25, 0x83	; 131
     fa2:	5f 4f       	sbci	r21, 0xFF	; 255
     fa4:	2a f0       	brmi	.+10     	; 0xfb0 <__divsf3_pse+0x6c>
     fa6:	9e 3f       	cpi	r25, 0xFE	; 254
     fa8:	51 05       	cpc	r21, r1
     faa:	68 f0       	brcs	.+26     	; 0xfc6 <__divsf3_pse+0x82>
     fac:	92 c0       	rjmp	.+292    	; 0x10d2 <__fp_inf>
     fae:	dc c0       	rjmp	.+440    	; 0x1168 <__fp_szero>
     fb0:	5f 3f       	cpi	r21, 0xFF	; 255
     fb2:	ec f3       	brlt	.-6      	; 0xfae <__divsf3_pse+0x6a>
     fb4:	98 3e       	cpi	r25, 0xE8	; 232
     fb6:	dc f3       	brlt	.-10     	; 0xfae <__divsf3_pse+0x6a>
     fb8:	86 95       	lsr	r24
     fba:	77 95       	ror	r23
     fbc:	67 95       	ror	r22
     fbe:	b7 95       	ror	r27
     fc0:	f7 95       	ror	r31
     fc2:	9f 5f       	subi	r25, 0xFF	; 255
     fc4:	c9 f7       	brne	.-14     	; 0xfb8 <__divsf3_pse+0x74>
     fc6:	88 0f       	add	r24, r24
     fc8:	91 1d       	adc	r25, r1
     fca:	96 95       	lsr	r25
     fcc:	87 95       	ror	r24
     fce:	97 f9       	bld	r25, 7
     fd0:	08 95       	ret
     fd2:	e1 e0       	ldi	r30, 0x01	; 1
     fd4:	66 0f       	add	r22, r22
     fd6:	77 1f       	adc	r23, r23
     fd8:	88 1f       	adc	r24, r24
     fda:	bb 1f       	adc	r27, r27
     fdc:	62 17       	cp	r22, r18
     fde:	73 07       	cpc	r23, r19
     fe0:	84 07       	cpc	r24, r20
     fe2:	ba 07       	cpc	r27, r26
     fe4:	20 f0       	brcs	.+8      	; 0xfee <__divsf3_pse+0xaa>
     fe6:	62 1b       	sub	r22, r18
     fe8:	73 0b       	sbc	r23, r19
     fea:	84 0b       	sbc	r24, r20
     fec:	ba 0b       	sbc	r27, r26
     fee:	ee 1f       	adc	r30, r30
     ff0:	88 f7       	brcc	.-30     	; 0xfd4 <__divsf3_pse+0x90>
     ff2:	e0 95       	com	r30
     ff4:	08 95       	ret

00000ff6 <__fixsfsi>:
     ff6:	04 d0       	rcall	.+8      	; 0x1000 <__fixunssfsi>
     ff8:	68 94       	set
     ffa:	b1 11       	cpse	r27, r1
     ffc:	b5 c0       	rjmp	.+362    	; 0x1168 <__fp_szero>
     ffe:	08 95       	ret

00001000 <__fixunssfsi>:
    1000:	98 d0       	rcall	.+304    	; 0x1132 <__fp_splitA>
    1002:	88 f0       	brcs	.+34     	; 0x1026 <__fixunssfsi+0x26>
    1004:	9f 57       	subi	r25, 0x7F	; 127
    1006:	90 f0       	brcs	.+36     	; 0x102c <__fixunssfsi+0x2c>
    1008:	b9 2f       	mov	r27, r25
    100a:	99 27       	eor	r25, r25
    100c:	b7 51       	subi	r27, 0x17	; 23
    100e:	a0 f0       	brcs	.+40     	; 0x1038 <__fixunssfsi+0x38>
    1010:	d1 f0       	breq	.+52     	; 0x1046 <__fixunssfsi+0x46>
    1012:	66 0f       	add	r22, r22
    1014:	77 1f       	adc	r23, r23
    1016:	88 1f       	adc	r24, r24
    1018:	99 1f       	adc	r25, r25
    101a:	1a f0       	brmi	.+6      	; 0x1022 <__fixunssfsi+0x22>
    101c:	ba 95       	dec	r27
    101e:	c9 f7       	brne	.-14     	; 0x1012 <__fixunssfsi+0x12>
    1020:	12 c0       	rjmp	.+36     	; 0x1046 <__fixunssfsi+0x46>
    1022:	b1 30       	cpi	r27, 0x01	; 1
    1024:	81 f0       	breq	.+32     	; 0x1046 <__fixunssfsi+0x46>
    1026:	9f d0       	rcall	.+318    	; 0x1166 <__fp_zero>
    1028:	b1 e0       	ldi	r27, 0x01	; 1
    102a:	08 95       	ret
    102c:	9c c0       	rjmp	.+312    	; 0x1166 <__fp_zero>
    102e:	67 2f       	mov	r22, r23
    1030:	78 2f       	mov	r23, r24
    1032:	88 27       	eor	r24, r24
    1034:	b8 5f       	subi	r27, 0xF8	; 248
    1036:	39 f0       	breq	.+14     	; 0x1046 <__fixunssfsi+0x46>
    1038:	b9 3f       	cpi	r27, 0xF9	; 249
    103a:	cc f3       	brlt	.-14     	; 0x102e <__fixunssfsi+0x2e>
    103c:	86 95       	lsr	r24
    103e:	77 95       	ror	r23
    1040:	67 95       	ror	r22
    1042:	b3 95       	inc	r27
    1044:	d9 f7       	brne	.-10     	; 0x103c <__fixunssfsi+0x3c>
    1046:	3e f4       	brtc	.+14     	; 0x1056 <__fixunssfsi+0x56>
    1048:	90 95       	com	r25
    104a:	80 95       	com	r24
    104c:	70 95       	com	r23
    104e:	61 95       	neg	r22
    1050:	7f 4f       	sbci	r23, 0xFF	; 255
    1052:	8f 4f       	sbci	r24, 0xFF	; 255
    1054:	9f 4f       	sbci	r25, 0xFF	; 255
    1056:	08 95       	ret

00001058 <__floatunsisf>:
    1058:	e8 94       	clt
    105a:	09 c0       	rjmp	.+18     	; 0x106e <__floatsisf+0x12>

0000105c <__floatsisf>:
    105c:	97 fb       	bst	r25, 7
    105e:	3e f4       	brtc	.+14     	; 0x106e <__floatsisf+0x12>
    1060:	90 95       	com	r25
    1062:	80 95       	com	r24
    1064:	70 95       	com	r23
    1066:	61 95       	neg	r22
    1068:	7f 4f       	sbci	r23, 0xFF	; 255
    106a:	8f 4f       	sbci	r24, 0xFF	; 255
    106c:	9f 4f       	sbci	r25, 0xFF	; 255
    106e:	99 23       	and	r25, r25
    1070:	a9 f0       	breq	.+42     	; 0x109c <__floatsisf+0x40>
    1072:	f9 2f       	mov	r31, r25
    1074:	96 e9       	ldi	r25, 0x96	; 150
    1076:	bb 27       	eor	r27, r27
    1078:	93 95       	inc	r25
    107a:	f6 95       	lsr	r31
    107c:	87 95       	ror	r24
    107e:	77 95       	ror	r23
    1080:	67 95       	ror	r22
    1082:	b7 95       	ror	r27
    1084:	f1 11       	cpse	r31, r1
    1086:	f8 cf       	rjmp	.-16     	; 0x1078 <__floatsisf+0x1c>
    1088:	fa f4       	brpl	.+62     	; 0x10c8 <__floatsisf+0x6c>
    108a:	bb 0f       	add	r27, r27
    108c:	11 f4       	brne	.+4      	; 0x1092 <__floatsisf+0x36>
    108e:	60 ff       	sbrs	r22, 0
    1090:	1b c0       	rjmp	.+54     	; 0x10c8 <__floatsisf+0x6c>
    1092:	6f 5f       	subi	r22, 0xFF	; 255
    1094:	7f 4f       	sbci	r23, 0xFF	; 255
    1096:	8f 4f       	sbci	r24, 0xFF	; 255
    1098:	9f 4f       	sbci	r25, 0xFF	; 255
    109a:	16 c0       	rjmp	.+44     	; 0x10c8 <__floatsisf+0x6c>
    109c:	88 23       	and	r24, r24
    109e:	11 f0       	breq	.+4      	; 0x10a4 <__floatsisf+0x48>
    10a0:	96 e9       	ldi	r25, 0x96	; 150
    10a2:	11 c0       	rjmp	.+34     	; 0x10c6 <__floatsisf+0x6a>
    10a4:	77 23       	and	r23, r23
    10a6:	21 f0       	breq	.+8      	; 0x10b0 <__floatsisf+0x54>
    10a8:	9e e8       	ldi	r25, 0x8E	; 142
    10aa:	87 2f       	mov	r24, r23
    10ac:	76 2f       	mov	r23, r22
    10ae:	05 c0       	rjmp	.+10     	; 0x10ba <__floatsisf+0x5e>
    10b0:	66 23       	and	r22, r22
    10b2:	71 f0       	breq	.+28     	; 0x10d0 <__floatsisf+0x74>
    10b4:	96 e8       	ldi	r25, 0x86	; 134
    10b6:	86 2f       	mov	r24, r22
    10b8:	70 e0       	ldi	r23, 0x00	; 0
    10ba:	60 e0       	ldi	r22, 0x00	; 0
    10bc:	2a f0       	brmi	.+10     	; 0x10c8 <__floatsisf+0x6c>
    10be:	9a 95       	dec	r25
    10c0:	66 0f       	add	r22, r22
    10c2:	77 1f       	adc	r23, r23
    10c4:	88 1f       	adc	r24, r24
    10c6:	da f7       	brpl	.-10     	; 0x10be <__floatsisf+0x62>
    10c8:	88 0f       	add	r24, r24
    10ca:	96 95       	lsr	r25
    10cc:	87 95       	ror	r24
    10ce:	97 f9       	bld	r25, 7
    10d0:	08 95       	ret

000010d2 <__fp_inf>:
    10d2:	97 f9       	bld	r25, 7
    10d4:	9f 67       	ori	r25, 0x7F	; 127
    10d6:	80 e8       	ldi	r24, 0x80	; 128
    10d8:	70 e0       	ldi	r23, 0x00	; 0
    10da:	60 e0       	ldi	r22, 0x00	; 0
    10dc:	08 95       	ret

000010de <__fp_nan>:
    10de:	9f ef       	ldi	r25, 0xFF	; 255
    10e0:	80 ec       	ldi	r24, 0xC0	; 192
    10e2:	08 95       	ret

000010e4 <__fp_pscA>:
    10e4:	00 24       	eor	r0, r0
    10e6:	0a 94       	dec	r0
    10e8:	16 16       	cp	r1, r22
    10ea:	17 06       	cpc	r1, r23
    10ec:	18 06       	cpc	r1, r24
    10ee:	09 06       	cpc	r0, r25
    10f0:	08 95       	ret

000010f2 <__fp_pscB>:
    10f2:	00 24       	eor	r0, r0
    10f4:	0a 94       	dec	r0
    10f6:	12 16       	cp	r1, r18
    10f8:	13 06       	cpc	r1, r19
    10fa:	14 06       	cpc	r1, r20
    10fc:	05 06       	cpc	r0, r21
    10fe:	08 95       	ret

00001100 <__fp_round>:
    1100:	09 2e       	mov	r0, r25
    1102:	03 94       	inc	r0
    1104:	00 0c       	add	r0, r0
    1106:	11 f4       	brne	.+4      	; 0x110c <__fp_round+0xc>
    1108:	88 23       	and	r24, r24
    110a:	52 f0       	brmi	.+20     	; 0x1120 <__fp_round+0x20>
    110c:	bb 0f       	add	r27, r27
    110e:	40 f4       	brcc	.+16     	; 0x1120 <__fp_round+0x20>
    1110:	bf 2b       	or	r27, r31
    1112:	11 f4       	brne	.+4      	; 0x1118 <__fp_round+0x18>
    1114:	60 ff       	sbrs	r22, 0
    1116:	04 c0       	rjmp	.+8      	; 0x1120 <__fp_round+0x20>
    1118:	6f 5f       	subi	r22, 0xFF	; 255
    111a:	7f 4f       	sbci	r23, 0xFF	; 255
    111c:	8f 4f       	sbci	r24, 0xFF	; 255
    111e:	9f 4f       	sbci	r25, 0xFF	; 255
    1120:	08 95       	ret

00001122 <__fp_split3>:
    1122:	57 fd       	sbrc	r21, 7
    1124:	90 58       	subi	r25, 0x80	; 128
    1126:	44 0f       	add	r20, r20
    1128:	55 1f       	adc	r21, r21
    112a:	59 f0       	breq	.+22     	; 0x1142 <__fp_splitA+0x10>
    112c:	5f 3f       	cpi	r21, 0xFF	; 255
    112e:	71 f0       	breq	.+28     	; 0x114c <__fp_splitA+0x1a>
    1130:	47 95       	ror	r20

00001132 <__fp_splitA>:
    1132:	88 0f       	add	r24, r24
    1134:	97 fb       	bst	r25, 7
    1136:	99 1f       	adc	r25, r25
    1138:	61 f0       	breq	.+24     	; 0x1152 <__fp_splitA+0x20>
    113a:	9f 3f       	cpi	r25, 0xFF	; 255
    113c:	79 f0       	breq	.+30     	; 0x115c <__fp_splitA+0x2a>
    113e:	87 95       	ror	r24
    1140:	08 95       	ret
    1142:	12 16       	cp	r1, r18
    1144:	13 06       	cpc	r1, r19
    1146:	14 06       	cpc	r1, r20
    1148:	55 1f       	adc	r21, r21
    114a:	f2 cf       	rjmp	.-28     	; 0x1130 <__fp_split3+0xe>
    114c:	46 95       	lsr	r20
    114e:	f1 df       	rcall	.-30     	; 0x1132 <__fp_splitA>
    1150:	08 c0       	rjmp	.+16     	; 0x1162 <__fp_splitA+0x30>
    1152:	16 16       	cp	r1, r22
    1154:	17 06       	cpc	r1, r23
    1156:	18 06       	cpc	r1, r24
    1158:	99 1f       	adc	r25, r25
    115a:	f1 cf       	rjmp	.-30     	; 0x113e <__fp_splitA+0xc>
    115c:	86 95       	lsr	r24
    115e:	71 05       	cpc	r23, r1
    1160:	61 05       	cpc	r22, r1
    1162:	08 94       	sec
    1164:	08 95       	ret

00001166 <__fp_zero>:
    1166:	e8 94       	clt

00001168 <__fp_szero>:
    1168:	bb 27       	eor	r27, r27
    116a:	66 27       	eor	r22, r22
    116c:	77 27       	eor	r23, r23
    116e:	cb 01       	movw	r24, r22
    1170:	97 f9       	bld	r25, 7
    1172:	08 95       	ret

00001174 <__divmodhi4>:
    1174:	97 fb       	bst	r25, 7
    1176:	07 2e       	mov	r0, r23
    1178:	16 f4       	brtc	.+4      	; 0x117e <__divmodhi4+0xa>
    117a:	00 94       	com	r0
    117c:	06 d0       	rcall	.+12     	; 0x118a <__divmodhi4_neg1>
    117e:	77 fd       	sbrc	r23, 7
    1180:	08 d0       	rcall	.+16     	; 0x1192 <__divmodhi4_neg2>
    1182:	1a d0       	rcall	.+52     	; 0x11b8 <__udivmodhi4>
    1184:	07 fc       	sbrc	r0, 7
    1186:	05 d0       	rcall	.+10     	; 0x1192 <__divmodhi4_neg2>
    1188:	3e f4       	brtc	.+14     	; 0x1198 <__divmodhi4_exit>

0000118a <__divmodhi4_neg1>:
    118a:	90 95       	com	r25
    118c:	81 95       	neg	r24
    118e:	9f 4f       	sbci	r25, 0xFF	; 255
    1190:	08 95       	ret

00001192 <__divmodhi4_neg2>:
    1192:	70 95       	com	r23
    1194:	61 95       	neg	r22
    1196:	7f 4f       	sbci	r23, 0xFF	; 255

00001198 <__divmodhi4_exit>:
    1198:	08 95       	ret

0000119a <__umulhisi3>:
    119a:	a2 9f       	mul	r26, r18
    119c:	b0 01       	movw	r22, r0
    119e:	b3 9f       	mul	r27, r19
    11a0:	c0 01       	movw	r24, r0
    11a2:	a3 9f       	mul	r26, r19
    11a4:	70 0d       	add	r23, r0
    11a6:	81 1d       	adc	r24, r1
    11a8:	11 24       	eor	r1, r1
    11aa:	91 1d       	adc	r25, r1
    11ac:	b2 9f       	mul	r27, r18
    11ae:	70 0d       	add	r23, r0
    11b0:	81 1d       	adc	r24, r1
    11b2:	11 24       	eor	r1, r1
    11b4:	91 1d       	adc	r25, r1
    11b6:	08 95       	ret

000011b8 <__udivmodhi4>:
    11b8:	aa 1b       	sub	r26, r26
    11ba:	bb 1b       	sub	r27, r27
    11bc:	51 e1       	ldi	r21, 0x11	; 17
    11be:	07 c0       	rjmp	.+14     	; 0x11ce <__udivmodhi4_ep>

000011c0 <__udivmodhi4_loop>:
    11c0:	aa 1f       	adc	r26, r26
    11c2:	bb 1f       	adc	r27, r27
    11c4:	a6 17       	cp	r26, r22
    11c6:	b7 07       	cpc	r27, r23
    11c8:	10 f0       	brcs	.+4      	; 0x11ce <__udivmodhi4_ep>
    11ca:	a6 1b       	sub	r26, r22
    11cc:	b7 0b       	sbc	r27, r23

000011ce <__udivmodhi4_ep>:
    11ce:	88 1f       	adc	r24, r24
    11d0:	99 1f       	adc	r25, r25
    11d2:	5a 95       	dec	r21
    11d4:	a9 f7       	brne	.-22     	; 0x11c0 <__udivmodhi4_loop>
    11d6:	80 95       	com	r24
    11d8:	90 95       	com	r25
    11da:	bc 01       	movw	r22, r24
    11dc:	cd 01       	movw	r24, r26
    11de:	08 95       	ret

000011e0 <_exit>:
    11e0:	f8 94       	cli

000011e2 <__stop_program>:
    11e2:	ff cf       	rjmp	.-2      	; 0x11e2 <__stop_program>
