
C:\Users\OurBl\AppData\Local\Temp\VMBuilds\Teensy4.1Port\teensy41\Release/Teensy4.1Port.ino.elf:     file format elf32-littlearm


Disassembly of section .text.progmem:

60000000 <FlexSPI_NOR_Config>:
60000000:	46 43 46 42 00 00 01 56 00 00 00 00 01 01 02 00     FCFB...V........
	...
60000044:	01 04 03 00 00 00 00 00 00 00 00 00 00 00 80 00     ................
	...
60000080:	eb 04 18 0a 06 32 04 26 00 00 00 00 00 00 00 00     .....2.&........
60000090:	05 04 04 24 00 00 00 00 00 00 00 00 00 00 00 00     ...$............
	...
600000b0:	06 04 00 00 00 00 00 00 00 00 00 00 00 00 00 00     ................
	...
600000d0:	20 04 18 08 00 00 00 00 00 00 00 00 00 00 00 00      ...............
	...
60000100:	d8 04 18 08 00 00 00 00 00 00 00 00 00 00 00 00     ................
60000110:	02 04 18 08 04 20 00 00 00 00 00 00 00 00 00 00     ..... ..........
	...
60000130:	60 04 00 00 00 00 00 00 00 00 00 00 00 00 00 00     `...............
	...
600001c0:	00 01 00 00 00 10 00 00 01 00 00 00 00 00 00 00     ................
600001d0:	00 00 01 00 00 00 00 00 00 00 00 00 00 00 00 00     ................
	...
60000200:	ff ff ff ff ff ff ff ff ff ff ff ff ff ff ff ff     ................
60000210:	ff ff ff ff ff ff ff ff ff ff ff ff ff ff ff ff     ................
60000220:	ff ff ff ff ff ff ff ff ff ff ff ff ff ff ff ff     ................
60000230:	ff ff ff ff ff ff ff ff ff ff ff ff ff ff ff ff     ................
60000240:	ff ff ff ff ff ff ff ff ff ff ff ff ff ff ff ff     ................
60000250:	ff ff ff ff ff ff ff ff ff ff ff ff ff ff ff ff     ................
60000260:	ff ff ff ff ff ff ff ff ff ff ff ff ff ff ff ff     ................
60000270:	ff ff ff ff ff ff ff ff ff ff ff ff ff ff ff ff     ................
60000280:	ff ff ff ff ff ff ff ff ff ff ff ff ff ff ff ff     ................
60000290:	ff ff ff ff ff ff ff ff ff ff ff ff ff ff ff ff     ................
600002a0:	ff ff ff ff ff ff ff ff ff ff ff ff ff ff ff ff     ................
600002b0:	ff ff ff ff ff ff ff ff ff ff ff ff ff ff ff ff     ................
600002c0:	ff ff ff ff ff ff ff ff ff ff ff ff ff ff ff ff     ................
600002d0:	ff ff ff ff ff ff ff ff ff ff ff ff ff ff ff ff     ................
600002e0:	ff ff ff ff ff ff ff ff ff ff ff ff ff ff ff ff     ................
600002f0:	ff ff ff ff ff ff ff ff ff ff ff ff ff ff ff ff     ................
60000300:	ff ff ff ff ff ff ff ff ff ff ff ff ff ff ff ff     ................
60000310:	ff ff ff ff ff ff ff ff ff ff ff ff ff ff ff ff     ................
60000320:	ff ff ff ff ff ff ff ff ff ff ff ff ff ff ff ff     ................
60000330:	ff ff ff ff ff ff ff ff ff ff ff ff ff ff ff ff     ................
60000340:	ff ff ff ff ff ff ff ff ff ff ff ff ff ff ff ff     ................
60000350:	ff ff ff ff ff ff ff ff ff ff ff ff ff ff ff ff     ................
60000360:	ff ff ff ff ff ff ff ff ff ff ff ff ff ff ff ff     ................
60000370:	ff ff ff ff ff ff ff ff ff ff ff ff ff ff ff ff     ................
60000380:	ff ff ff ff ff ff ff ff ff ff ff ff ff ff ff ff     ................
60000390:	ff ff ff ff ff ff ff ff ff ff ff ff ff ff ff ff     ................
600003a0:	ff ff ff ff ff ff ff ff ff ff ff ff ff ff ff ff     ................
600003b0:	ff ff ff ff ff ff ff ff ff ff ff ff ff ff ff ff     ................
600003c0:	ff ff ff ff ff ff ff ff ff ff ff ff ff ff ff ff     ................
600003d0:	ff ff ff ff ff ff ff ff ff ff ff ff ff ff ff ff     ................
600003e0:	ff ff ff ff ff ff ff ff ff ff ff ff ff ff ff ff     ................
600003f0:	ff ff ff ff ff ff ff ff ff ff ff ff ff ff ff ff     ................
60000400:	ff ff ff ff ff ff ff ff ff ff ff ff ff ff ff ff     ................
60000410:	ff ff ff ff ff ff ff ff ff ff ff ff ff ff ff ff     ................
60000420:	ff ff ff ff ff ff ff ff ff ff ff ff ff ff ff ff     ................
60000430:	ff ff ff ff ff ff ff ff ff ff ff ff ff ff ff ff     ................
60000440:	ff ff ff ff ff ff ff ff ff ff ff ff ff ff ff ff     ................
60000450:	ff ff ff ff ff ff ff ff ff ff ff ff ff ff ff ff     ................
60000460:	ff ff ff ff ff ff ff ff ff ff ff ff ff ff ff ff     ................
60000470:	ff ff ff ff ff ff ff ff ff ff ff ff ff ff ff ff     ................
60000480:	ff ff ff ff ff ff ff ff ff ff ff ff ff ff ff ff     ................
60000490:	ff ff ff ff ff ff ff ff ff ff ff ff ff ff ff ff     ................
600004a0:	ff ff ff ff ff ff ff ff ff ff ff ff ff ff ff ff     ................
600004b0:	ff ff ff ff ff ff ff ff ff ff ff ff ff ff ff ff     ................
600004c0:	ff ff ff ff ff ff ff ff ff ff ff ff ff ff ff ff     ................
600004d0:	ff ff ff ff ff ff ff ff ff ff ff ff ff ff ff ff     ................
600004e0:	ff ff ff ff ff ff ff ff ff ff ff ff ff ff ff ff     ................
600004f0:	ff ff ff ff ff ff ff ff ff ff ff ff ff ff ff ff     ................
60000500:	ff ff ff ff ff ff ff ff ff ff ff ff ff ff ff ff     ................
60000510:	ff ff ff ff ff ff ff ff ff ff ff ff ff ff ff ff     ................
60000520:	ff ff ff ff ff ff ff ff ff ff ff ff ff ff ff ff     ................
60000530:	ff ff ff ff ff ff ff ff ff ff ff ff ff ff ff ff     ................
60000540:	ff ff ff ff ff ff ff ff ff ff ff ff ff ff ff ff     ................
60000550:	ff ff ff ff ff ff ff ff ff ff ff ff ff ff ff ff     ................
60000560:	ff ff ff ff ff ff ff ff ff ff ff ff ff ff ff ff     ................
60000570:	ff ff ff ff ff ff ff ff ff ff ff ff ff ff ff ff     ................
60000580:	ff ff ff ff ff ff ff ff ff ff ff ff ff ff ff ff     ................
60000590:	ff ff ff ff ff ff ff ff ff ff ff ff ff ff ff ff     ................
600005a0:	ff ff ff ff ff ff ff ff ff ff ff ff ff ff ff ff     ................
600005b0:	ff ff ff ff ff ff ff ff ff ff ff ff ff ff ff ff     ................
600005c0:	ff ff ff ff ff ff ff ff ff ff ff ff ff ff ff ff     ................
600005d0:	ff ff ff ff ff ff ff ff ff ff ff ff ff ff ff ff     ................
600005e0:	ff ff ff ff ff ff ff ff ff ff ff ff ff ff ff ff     ................
600005f0:	ff ff ff ff ff ff ff ff ff ff ff ff ff ff ff ff     ................
60000600:	ff ff ff ff ff ff ff ff ff ff ff ff ff ff ff ff     ................
60000610:	ff ff ff ff ff ff ff ff ff ff ff ff ff ff ff ff     ................
60000620:	ff ff ff ff ff ff ff ff ff ff ff ff ff ff ff ff     ................
60000630:	ff ff ff ff ff ff ff ff ff ff ff ff ff ff ff ff     ................
60000640:	ff ff ff ff ff ff ff ff ff ff ff ff ff ff ff ff     ................
60000650:	ff ff ff ff ff ff ff ff ff ff ff ff ff ff ff ff     ................
60000660:	ff ff ff ff ff ff ff ff ff ff ff ff ff ff ff ff     ................
60000670:	ff ff ff ff ff ff ff ff ff ff ff ff ff ff ff ff     ................
60000680:	ff ff ff ff ff ff ff ff ff ff ff ff ff ff ff ff     ................
60000690:	ff ff ff ff ff ff ff ff ff ff ff ff ff ff ff ff     ................
600006a0:	ff ff ff ff ff ff ff ff ff ff ff ff ff ff ff ff     ................
600006b0:	ff ff ff ff ff ff ff ff ff ff ff ff ff ff ff ff     ................
600006c0:	ff ff ff ff ff ff ff ff ff ff ff ff ff ff ff ff     ................
600006d0:	ff ff ff ff ff ff ff ff ff ff ff ff ff ff ff ff     ................
600006e0:	ff ff ff ff ff ff ff ff ff ff ff ff ff ff ff ff     ................
600006f0:	ff ff ff ff ff ff ff ff ff ff ff ff ff ff ff ff     ................
60000700:	ff ff ff ff ff ff ff ff ff ff ff ff ff ff ff ff     ................
60000710:	ff ff ff ff ff ff ff ff ff ff ff ff ff ff ff ff     ................
60000720:	ff ff ff ff ff ff ff ff ff ff ff ff ff ff ff ff     ................
60000730:	ff ff ff ff ff ff ff ff ff ff ff ff ff ff ff ff     ................
60000740:	ff ff ff ff ff ff ff ff ff ff ff ff ff ff ff ff     ................
60000750:	ff ff ff ff ff ff ff ff ff ff ff ff ff ff ff ff     ................
60000760:	ff ff ff ff ff ff ff ff ff ff ff ff ff ff ff ff     ................
60000770:	ff ff ff ff ff ff ff ff ff ff ff ff ff ff ff ff     ................
60000780:	ff ff ff ff ff ff ff ff ff ff ff ff ff ff ff ff     ................
60000790:	ff ff ff ff ff ff ff ff ff ff ff ff ff ff ff ff     ................
600007a0:	ff ff ff ff ff ff ff ff ff ff ff ff ff ff ff ff     ................
600007b0:	ff ff ff ff ff ff ff ff ff ff ff ff ff ff ff ff     ................
600007c0:	ff ff ff ff ff ff ff ff ff ff ff ff ff ff ff ff     ................
600007d0:	ff ff ff ff ff ff ff ff ff ff ff ff ff ff ff ff     ................
600007e0:	ff ff ff ff ff ff ff ff ff ff ff ff ff ff ff ff     ................
600007f0:	ff ff ff ff ff ff ff ff ff ff ff ff ff ff ff ff     ................
60000800:	ff ff ff ff ff ff ff ff ff ff ff ff ff ff ff ff     ................
60000810:	ff ff ff ff ff ff ff ff ff ff ff ff ff ff ff ff     ................
60000820:	ff ff ff ff ff ff ff ff ff ff ff ff ff ff ff ff     ................
60000830:	ff ff ff ff ff ff ff ff ff ff ff ff ff ff ff ff     ................
60000840:	ff ff ff ff ff ff ff ff ff ff ff ff ff ff ff ff     ................
60000850:	ff ff ff ff ff ff ff ff ff ff ff ff ff ff ff ff     ................
60000860:	ff ff ff ff ff ff ff ff ff ff ff ff ff ff ff ff     ................
60000870:	ff ff ff ff ff ff ff ff ff ff ff ff ff ff ff ff     ................
60000880:	ff ff ff ff ff ff ff ff ff ff ff ff ff ff ff ff     ................
60000890:	ff ff ff ff ff ff ff ff ff ff ff ff ff ff ff ff     ................
600008a0:	ff ff ff ff ff ff ff ff ff ff ff ff ff ff ff ff     ................
600008b0:	ff ff ff ff ff ff ff ff ff ff ff ff ff ff ff ff     ................
600008c0:	ff ff ff ff ff ff ff ff ff ff ff ff ff ff ff ff     ................
600008d0:	ff ff ff ff ff ff ff ff ff ff ff ff ff ff ff ff     ................
600008e0:	ff ff ff ff ff ff ff ff ff ff ff ff ff ff ff ff     ................
600008f0:	ff ff ff ff ff ff ff ff ff ff ff ff ff ff ff ff     ................
60000900:	ff ff ff ff ff ff ff ff ff ff ff ff ff ff ff ff     ................
60000910:	ff ff ff ff ff ff ff ff ff ff ff ff ff ff ff ff     ................
60000920:	ff ff ff ff ff ff ff ff ff ff ff ff ff ff ff ff     ................
60000930:	ff ff ff ff ff ff ff ff ff ff ff ff ff ff ff ff     ................
60000940:	ff ff ff ff ff ff ff ff ff ff ff ff ff ff ff ff     ................
60000950:	ff ff ff ff ff ff ff ff ff ff ff ff ff ff ff ff     ................
60000960:	ff ff ff ff ff ff ff ff ff ff ff ff ff ff ff ff     ................
60000970:	ff ff ff ff ff ff ff ff ff ff ff ff ff ff ff ff     ................
60000980:	ff ff ff ff ff ff ff ff ff ff ff ff ff ff ff ff     ................
60000990:	ff ff ff ff ff ff ff ff ff ff ff ff ff ff ff ff     ................
600009a0:	ff ff ff ff ff ff ff ff ff ff ff ff ff ff ff ff     ................
600009b0:	ff ff ff ff ff ff ff ff ff ff ff ff ff ff ff ff     ................
600009c0:	ff ff ff ff ff ff ff ff ff ff ff ff ff ff ff ff     ................
600009d0:	ff ff ff ff ff ff ff ff ff ff ff ff ff ff ff ff     ................
600009e0:	ff ff ff ff ff ff ff ff ff ff ff ff ff ff ff ff     ................
600009f0:	ff ff ff ff ff ff ff ff ff ff ff ff ff ff ff ff     ................
60000a00:	ff ff ff ff ff ff ff ff ff ff ff ff ff ff ff ff     ................
60000a10:	ff ff ff ff ff ff ff ff ff ff ff ff ff ff ff ff     ................
60000a20:	ff ff ff ff ff ff ff ff ff ff ff ff ff ff ff ff     ................
60000a30:	ff ff ff ff ff ff ff ff ff ff ff ff ff ff ff ff     ................
60000a40:	ff ff ff ff ff ff ff ff ff ff ff ff ff ff ff ff     ................
60000a50:	ff ff ff ff ff ff ff ff ff ff ff ff ff ff ff ff     ................
60000a60:	ff ff ff ff ff ff ff ff ff ff ff ff ff ff ff ff     ................
60000a70:	ff ff ff ff ff ff ff ff ff ff ff ff ff ff ff ff     ................
60000a80:	ff ff ff ff ff ff ff ff ff ff ff ff ff ff ff ff     ................
60000a90:	ff ff ff ff ff ff ff ff ff ff ff ff ff ff ff ff     ................
60000aa0:	ff ff ff ff ff ff ff ff ff ff ff ff ff ff ff ff     ................
60000ab0:	ff ff ff ff ff ff ff ff ff ff ff ff ff ff ff ff     ................
60000ac0:	ff ff ff ff ff ff ff ff ff ff ff ff ff ff ff ff     ................
60000ad0:	ff ff ff ff ff ff ff ff ff ff ff ff ff ff ff ff     ................
60000ae0:	ff ff ff ff ff ff ff ff ff ff ff ff ff ff ff ff     ................
60000af0:	ff ff ff ff ff ff ff ff ff ff ff ff ff ff ff ff     ................
60000b00:	ff ff ff ff ff ff ff ff ff ff ff ff ff ff ff ff     ................
60000b10:	ff ff ff ff ff ff ff ff ff ff ff ff ff ff ff ff     ................
60000b20:	ff ff ff ff ff ff ff ff ff ff ff ff ff ff ff ff     ................
60000b30:	ff ff ff ff ff ff ff ff ff ff ff ff ff ff ff ff     ................
60000b40:	ff ff ff ff ff ff ff ff ff ff ff ff ff ff ff ff     ................
60000b50:	ff ff ff ff ff ff ff ff ff ff ff ff ff ff ff ff     ................
60000b60:	ff ff ff ff ff ff ff ff ff ff ff ff ff ff ff ff     ................
60000b70:	ff ff ff ff ff ff ff ff ff ff ff ff ff ff ff ff     ................
60000b80:	ff ff ff ff ff ff ff ff ff ff ff ff ff ff ff ff     ................
60000b90:	ff ff ff ff ff ff ff ff ff ff ff ff ff ff ff ff     ................
60000ba0:	ff ff ff ff ff ff ff ff ff ff ff ff ff ff ff ff     ................
60000bb0:	ff ff ff ff ff ff ff ff ff ff ff ff ff ff ff ff     ................
60000bc0:	ff ff ff ff ff ff ff ff ff ff ff ff ff ff ff ff     ................
60000bd0:	ff ff ff ff ff ff ff ff ff ff ff ff ff ff ff ff     ................
60000be0:	ff ff ff ff ff ff ff ff ff ff ff ff ff ff ff ff     ................
60000bf0:	ff ff ff ff ff ff ff ff ff ff ff ff ff ff ff ff     ................
60000c00:	ff ff ff ff ff ff ff ff ff ff ff ff ff ff ff ff     ................
60000c10:	ff ff ff ff ff ff ff ff ff ff ff ff ff ff ff ff     ................
60000c20:	ff ff ff ff ff ff ff ff ff ff ff ff ff ff ff ff     ................
60000c30:	ff ff ff ff ff ff ff ff ff ff ff ff ff ff ff ff     ................
60000c40:	ff ff ff ff ff ff ff ff ff ff ff ff ff ff ff ff     ................
60000c50:	ff ff ff ff ff ff ff ff ff ff ff ff ff ff ff ff     ................
60000c60:	ff ff ff ff ff ff ff ff ff ff ff ff ff ff ff ff     ................
60000c70:	ff ff ff ff ff ff ff ff ff ff ff ff ff ff ff ff     ................
60000c80:	ff ff ff ff ff ff ff ff ff ff ff ff ff ff ff ff     ................
60000c90:	ff ff ff ff ff ff ff ff ff ff ff ff ff ff ff ff     ................
60000ca0:	ff ff ff ff ff ff ff ff ff ff ff ff ff ff ff ff     ................
60000cb0:	ff ff ff ff ff ff ff ff ff ff ff ff ff ff ff ff     ................
60000cc0:	ff ff ff ff ff ff ff ff ff ff ff ff ff ff ff ff     ................
60000cd0:	ff ff ff ff ff ff ff ff ff ff ff ff ff ff ff ff     ................
60000ce0:	ff ff ff ff ff ff ff ff ff ff ff ff ff ff ff ff     ................
60000cf0:	ff ff ff ff ff ff ff ff ff ff ff ff ff ff ff ff     ................
60000d00:	ff ff ff ff ff ff ff ff ff ff ff ff ff ff ff ff     ................
60000d10:	ff ff ff ff ff ff ff ff ff ff ff ff ff ff ff ff     ................
60000d20:	ff ff ff ff ff ff ff ff ff ff ff ff ff ff ff ff     ................
60000d30:	ff ff ff ff ff ff ff ff ff ff ff ff ff ff ff ff     ................
60000d40:	ff ff ff ff ff ff ff ff ff ff ff ff ff ff ff ff     ................
60000d50:	ff ff ff ff ff ff ff ff ff ff ff ff ff ff ff ff     ................
60000d60:	ff ff ff ff ff ff ff ff ff ff ff ff ff ff ff ff     ................
60000d70:	ff ff ff ff ff ff ff ff ff ff ff ff ff ff ff ff     ................
60000d80:	ff ff ff ff ff ff ff ff ff ff ff ff ff ff ff ff     ................
60000d90:	ff ff ff ff ff ff ff ff ff ff ff ff ff ff ff ff     ................
60000da0:	ff ff ff ff ff ff ff ff ff ff ff ff ff ff ff ff     ................
60000db0:	ff ff ff ff ff ff ff ff ff ff ff ff ff ff ff ff     ................
60000dc0:	ff ff ff ff ff ff ff ff ff ff ff ff ff ff ff ff     ................
60000dd0:	ff ff ff ff ff ff ff ff ff ff ff ff ff ff ff ff     ................
60000de0:	ff ff ff ff ff ff ff ff ff ff ff ff ff ff ff ff     ................
60000df0:	ff ff ff ff ff ff ff ff ff ff ff ff ff ff ff ff     ................
60000e00:	ff ff ff ff ff ff ff ff ff ff ff ff ff ff ff ff     ................
60000e10:	ff ff ff ff ff ff ff ff ff ff ff ff ff ff ff ff     ................
60000e20:	ff ff ff ff ff ff ff ff ff ff ff ff ff ff ff ff     ................
60000e30:	ff ff ff ff ff ff ff ff ff ff ff ff ff ff ff ff     ................
60000e40:	ff ff ff ff ff ff ff ff ff ff ff ff ff ff ff ff     ................
60000e50:	ff ff ff ff ff ff ff ff ff ff ff ff ff ff ff ff     ................
60000e60:	ff ff ff ff ff ff ff ff ff ff ff ff ff ff ff ff     ................
60000e70:	ff ff ff ff ff ff ff ff ff ff ff ff ff ff ff ff     ................
60000e80:	ff ff ff ff ff ff ff ff ff ff ff ff ff ff ff ff     ................
60000e90:	ff ff ff ff ff ff ff ff ff ff ff ff ff ff ff ff     ................
60000ea0:	ff ff ff ff ff ff ff ff ff ff ff ff ff ff ff ff     ................
60000eb0:	ff ff ff ff ff ff ff ff ff ff ff ff ff ff ff ff     ................
60000ec0:	ff ff ff ff ff ff ff ff ff ff ff ff ff ff ff ff     ................
60000ed0:	ff ff ff ff ff ff ff ff ff ff ff ff ff ff ff ff     ................
60000ee0:	ff ff ff ff ff ff ff ff ff ff ff ff ff ff ff ff     ................
60000ef0:	ff ff ff ff ff ff ff ff ff ff ff ff ff ff ff ff     ................
60000f00:	ff ff ff ff ff ff ff ff ff ff ff ff ff ff ff ff     ................
60000f10:	ff ff ff ff ff ff ff ff ff ff ff ff ff ff ff ff     ................
60000f20:	ff ff ff ff ff ff ff ff ff ff ff ff ff ff ff ff     ................
60000f30:	ff ff ff ff ff ff ff ff ff ff ff ff ff ff ff ff     ................
60000f40:	ff ff ff ff ff ff ff ff ff ff ff ff ff ff ff ff     ................
60000f50:	ff ff ff ff ff ff ff ff ff ff ff ff ff ff ff ff     ................
60000f60:	ff ff ff ff ff ff ff ff ff ff ff ff ff ff ff ff     ................
60000f70:	ff ff ff ff ff ff ff ff ff ff ff ff ff ff ff ff     ................
60000f80:	ff ff ff ff ff ff ff ff ff ff ff ff ff ff ff ff     ................
60000f90:	ff ff ff ff ff ff ff ff ff ff ff ff ff ff ff ff     ................
60000fa0:	ff ff ff ff ff ff ff ff ff ff ff ff ff ff ff ff     ................
60000fb0:	ff ff ff ff ff ff ff ff ff ff ff ff ff ff ff ff     ................
60000fc0:	ff ff ff ff ff ff ff ff ff ff ff ff ff ff ff ff     ................
60000fd0:	ff ff ff ff ff ff ff ff ff ff ff ff ff ff ff ff     ................
60000fe0:	ff ff ff ff ff ff ff ff ff ff ff ff ff ff ff ff     ................
60000ff0:	ff ff ff ff ff ff ff ff ff ff ff ff ff ff ff ff     ................

60001000 <ImageVectorTable>:
60001000:	d1 00 20 40 2c 10 00 60 00 00 00 00 00 00 00 00     .. @,..`........
60001010:	20 10 00 60 00 10 00 60 00 00 00 00 00 00 00 00      ..`...`........

60001020 <BootData>:
60001020:	00 00 00 60 b8 86 00 00 00 00 00 00                 ...`........

6000102c <vector_table>:
6000102c:	00 00 01 20 35 10 00 60                             ... 5..`

60001034 <ResetHandler>:
void ResetHandler(void)
{
	unsigned int i;

#if defined(__IMXRT1062__)
	IOMUXC_GPR_GPR17 = (uint32_t)&_flexram_bank_config;
60001034:	4b77      	ldr	r3, [pc, #476]	; (60001214 <ResetHandler+0x1e0>)
	IOMUXC_GPR_GPR16 = 0x00200007;
	IOMUXC_GPR_GPR14 = 0x00AA0000;
60001036:	f44f 012a 	mov.w	r1, #11141120	; 0xaa0000
void ResetHandler(void)
{
	unsigned int i;

#if defined(__IMXRT1062__)
	IOMUXC_GPR_GPR17 = (uint32_t)&_flexram_bank_config;
6000103a:	4a77      	ldr	r2, [pc, #476]	; (60001218 <ResetHandler+0x1e4>)
	IOMUXC_GPR_GPR16 = 0x00200007;
6000103c:	4877      	ldr	r0, [pc, #476]	; (6000121c <ResetHandler+0x1e8>)
void ResetHandler(void)
{
	unsigned int i;

#if defined(__IMXRT1062__)
	IOMUXC_GPR_GPR17 = (uint32_t)&_flexram_bank_config;
6000103e:	645a      	str	r2, [r3, #68]	; 0x44
	IOMUXC_GPR_GPR16 = 0x00200007;
60001040:	6418      	str	r0, [r3, #64]	; 0x40
	IOMUXC_GPR_GPR14 = 0x00AA0000;
	__asm__ volatile("mov sp, %0" : : "r" ((uint32_t)&_estack) : );
60001042:	4a77      	ldr	r2, [pc, #476]	; (60001220 <ResetHandler+0x1ec>)
	unsigned int i;

#if defined(__IMXRT1062__)
	IOMUXC_GPR_GPR17 = (uint32_t)&_flexram_bank_config;
	IOMUXC_GPR_GPR16 = 0x00200007;
	IOMUXC_GPR_GPR14 = 0x00AA0000;
60001044:	6399      	str	r1, [r3, #56]	; 0x38
	__asm__ volatile("mov sp, %0" : : "r" ((uint32_t)&_estack) : );
60001046:	4695      	mov	sp, r2
}

__attribute__((section(".startup"), optimize("no-tree-loop-distribute-patterns")))
static void memory_copy(uint32_t *dest, const uint32_t *src, uint32_t *dest_end)
{
	if (dest == src) return;
60001048:	4a76      	ldr	r2, [pc, #472]	; (60001224 <ResetHandler+0x1f0>)
	IOMUXC_GPR_GPR17 = (uint32_t)&_flexram_bank_config;
	IOMUXC_GPR_GPR16 = 0x00200007;
	IOMUXC_GPR_GPR14 = 0x00AA0000;
	__asm__ volatile("mov sp, %0" : : "r" ((uint32_t)&_estack) : );
#endif
	PMU_MISC0_SET = 1<<3; //Use bandgap-based bias currents for best performance (Page 1175)
6000104a:	f503 3330 	add.w	r3, r3, #180224	; 0x2c000
}

__attribute__((section(".startup"), optimize("no-tree-loop-distribute-patterns")))
static void memory_copy(uint32_t *dest, const uint32_t *src, uint32_t *dest_end)
{
	if (dest == src) return;
6000104e:	4976      	ldr	r1, [pc, #472]	; (60001228 <ResetHandler+0x1f4>)
	IOMUXC_GPR_GPR17 = (uint32_t)&_flexram_bank_config;
	IOMUXC_GPR_GPR16 = 0x00200007;
	IOMUXC_GPR_GPR14 = 0x00AA0000;
	__asm__ volatile("mov sp, %0" : : "r" ((uint32_t)&_estack) : );
#endif
	PMU_MISC0_SET = 1<<3; //Use bandgap-based bias currents for best performance (Page 1175)
60001050:	2008      	movs	r0, #8
}

__attribute__((section(".startup"), optimize("no-tree-loop-distribute-patterns")))
static void memory_copy(uint32_t *dest, const uint32_t *src, uint32_t *dest_end)
{
	if (dest == src) return;
60001052:	428a      	cmp	r2, r1
	IOMUXC_GPR_GPR17 = (uint32_t)&_flexram_bank_config;
	IOMUXC_GPR_GPR16 = 0x00200007;
	IOMUXC_GPR_GPR14 = 0x00AA0000;
	__asm__ volatile("mov sp, %0" : : "r" ((uint32_t)&_estack) : );
#endif
	PMU_MISC0_SET = 1<<3; //Use bandgap-based bias currents for best performance (Page 1175)
60001054:	f8c3 0154 	str.w	r0, [r3, #340]	; 0x154
}

__attribute__((section(".startup"), optimize("no-tree-loop-distribute-patterns")))
static void memory_copy(uint32_t *dest, const uint32_t *src, uint32_t *dest_end)
{
	if (dest == src) return;
60001058:	d00f      	beq.n	6000107a <ResetHandler+0x46>
	while (dest < dest_end) {
6000105a:	4b74      	ldr	r3, [pc, #464]	; (6000122c <ResetHandler+0x1f8>)
6000105c:	429a      	cmp	r2, r3
6000105e:	d20c      	bcs.n	6000107a <ResetHandler+0x46>
60001060:	43d4      	mvns	r4, r2
60001062:	4608      	mov	r0, r1
60001064:	4423      	add	r3, r4
60001066:	f023 0303 	bic.w	r3, r3, #3
6000106a:	3304      	adds	r3, #4
6000106c:	440b      	add	r3, r1
		*dest++ = *src++;
6000106e:	f850 1b04 	ldr.w	r1, [r0], #4

__attribute__((section(".startup"), optimize("no-tree-loop-distribute-patterns")))
static void memory_copy(uint32_t *dest, const uint32_t *src, uint32_t *dest_end)
{
	if (dest == src) return;
	while (dest < dest_end) {
60001072:	4298      	cmp	r0, r3
		*dest++ = *src++;
60001074:	f842 1b04 	str.w	r1, [r2], #4

__attribute__((section(".startup"), optimize("no-tree-loop-distribute-patterns")))
static void memory_copy(uint32_t *dest, const uint32_t *src, uint32_t *dest_end)
{
	if (dest == src) return;
	while (dest < dest_end) {
60001078:	d1f9      	bne.n	6000106e <ResetHandler+0x3a>
}

__attribute__((section(".startup"), optimize("no-tree-loop-distribute-patterns")))
static void memory_copy(uint32_t *dest, const uint32_t *src, uint32_t *dest_end)
{
	if (dest == src) return;
6000107a:	4a6d      	ldr	r2, [pc, #436]	; (60001230 <ResetHandler+0x1fc>)
6000107c:	496d      	ldr	r1, [pc, #436]	; (60001234 <ResetHandler+0x200>)
6000107e:	428a      	cmp	r2, r1
60001080:	d00f      	beq.n	600010a2 <ResetHandler+0x6e>
	while (dest < dest_end) {
60001082:	4b6d      	ldr	r3, [pc, #436]	; (60001238 <ResetHandler+0x204>)
60001084:	429a      	cmp	r2, r3
60001086:	d20c      	bcs.n	600010a2 <ResetHandler+0x6e>
60001088:	43d4      	mvns	r4, r2
6000108a:	4608      	mov	r0, r1
6000108c:	4423      	add	r3, r4
6000108e:	f023 0303 	bic.w	r3, r3, #3
60001092:	3304      	adds	r3, #4
60001094:	440b      	add	r3, r1
		*dest++ = *src++;
60001096:	f850 1b04 	ldr.w	r1, [r0], #4

__attribute__((section(".startup"), optimize("no-tree-loop-distribute-patterns")))
static void memory_copy(uint32_t *dest, const uint32_t *src, uint32_t *dest_end)
{
	if (dest == src) return;
	while (dest < dest_end) {
6000109a:	4298      	cmp	r0, r3
		*dest++ = *src++;
6000109c:	f842 1b04 	str.w	r1, [r2], #4

__attribute__((section(".startup"), optimize("no-tree-loop-distribute-patterns")))
static void memory_copy(uint32_t *dest, const uint32_t *src, uint32_t *dest_end)
{
	if (dest == src) return;
	while (dest < dest_end) {
600010a0:	d1f9      	bne.n	60001096 <ResetHandler+0x62>
}

__attribute__((section(".startup"), optimize("no-tree-loop-distribute-patterns")))
static void memory_clear(uint32_t *dest, uint32_t *dest_end)
{
	while (dest < dest_end) {
600010a2:	4a66      	ldr	r2, [pc, #408]	; (6000123c <ResetHandler+0x208>)
600010a4:	4b66      	ldr	r3, [pc, #408]	; (60001240 <ResetHandler+0x20c>)
600010a6:	429a      	cmp	r2, r3
600010a8:	d20b      	bcs.n	600010c2 <ResetHandler+0x8e>
600010aa:	43d0      	mvns	r0, r2
600010ac:	4611      	mov	r1, r2
		*dest++ = 0;
600010ae:	2400      	movs	r4, #0
600010b0:	4403      	add	r3, r0
600010b2:	f023 0303 	bic.w	r3, r3, #3
600010b6:	3304      	adds	r3, #4
600010b8:	4413      	add	r3, r2
600010ba:	f841 4b04 	str.w	r4, [r1], #4
}

__attribute__((section(".startup"), optimize("no-tree-loop-distribute-patterns")))
static void memory_clear(uint32_t *dest, uint32_t *dest_end)
{
	while (dest < dest_end) {
600010be:	4299      	cmp	r1, r3
600010c0:	d1fb      	bne.n	600010ba <ResetHandler+0x86>
	memory_copy(&_stext, &_stextload, &_etext);
	memory_copy(&_sdata, &_sdataload, &_edata);
	memory_clear(&_sbss, &_ebss);

	// enable FPU
	SCB_CPACR = 0x00F00000;
600010c2:	4a60      	ldr	r2, [pc, #384]	; (60001244 <ResetHandler+0x210>)
600010c4:	f44f 0170 	mov.w	r1, #15728640	; 0xf00000
600010c8:	4b5f      	ldr	r3, [pc, #380]	; (60001248 <ResetHandler+0x214>)
600010ca:	6011      	str	r1, [r2, #0]
600010cc:	f503 7130 	add.w	r1, r3, #704	; 0x2c0
600010d0:	4a5e      	ldr	r2, [pc, #376]	; (6000124c <ResetHandler+0x218>)

	// set up blank interrupt & exception vector table
	for (i=0; i < NVIC_NUM_INTERRUPTS + 16; i++) _VectorsRam[i] = &unused_interrupt_vector;
600010d2:	f843 2f04 	str.w	r2, [r3, #4]!
600010d6:	428b      	cmp	r3, r1
600010d8:	d1fb      	bne.n	600010d2 <ResetHandler+0x9e>
600010da:	4b5d      	ldr	r3, [pc, #372]	; (60001250 <ResetHandler+0x21c>)
	for (i=0; i < NVIC_NUM_INTERRUPTS; i++) NVIC_SET_PRIORITY(i, 128);
600010dc:	2180      	movs	r1, #128	; 0x80
600010de:	4a5d      	ldr	r2, [pc, #372]	; (60001254 <ResetHandler+0x220>)
600010e0:	f803 1b01 	strb.w	r1, [r3], #1
600010e4:	4293      	cmp	r3, r2
600010e6:	d1fb      	bne.n	600010e0 <ResetHandler+0xac>
}

FLASHMEM void reset_PFD()
{	
	//Reset PLL2 PFDs, set default frequencies:
	CCM_ANALOG_PFD_528_SET = (1 << 31) | (1 << 23) | (1 << 15) | (1 << 7);
600010e8:	4c5b      	ldr	r4, [pc, #364]	; (60001258 <ResetHandler+0x224>)
600010ea:	f04f 3780 	mov.w	r7, #2155905152	; 0x80808080
	reset_PFD();
	
	// Configure clocks
	// TODO: make sure all affected peripherals are turned off!
	// PIT & GPT timers to run from 24 MHz clock (independent of CPU speed)
	CCM_CSCMR1 = (CCM_CSCMR1 & ~CCM_CSCMR1_PERCLK_PODF(0x3F)) | CCM_CSCMR1_PERCLK_CLK_SEL;
600010ee:	4e5b      	ldr	r6, [pc, #364]	; (6000125c <ResetHandler+0x228>)
	// UARTs run from 24 MHz clock (works if PLL3 off or bypassed)
	CCM_CSCDR1 = (CCM_CSCDR1 & ~CCM_CSCDR1_UART_CLK_PODF(0x3F)) | CCM_CSCDR1_UART_CLK_SEL;

#if defined(__IMXRT1062__)
	// Use fast GPIO6, GPIO7, GPIO8, GPIO9
	IOMUXC_GPR_GPR26 = 0xFFFFFFFF;
600010f0:	f04f 32ff 	mov.w	r2, #4294967295
	SCB_CPACR = 0x00F00000;

	// set up blank interrupt & exception vector table
	for (i=0; i < NVIC_NUM_INTERRUPTS + 16; i++) _VectorsRam[i] = &unused_interrupt_vector;
	for (i=0; i < NVIC_NUM_INTERRUPTS; i++) NVIC_SET_PRIORITY(i, 128);
	SCB_VTOR = (uint32_t)_VectorsRam;
600010f4:	f8df a1a4 	ldr.w	sl, [pc, #420]	; 6000129c <ResetHandler+0x268>
static void configure_systick(void)
{
	_VectorsRam[14] = pendablesrvreq_isr;
	_VectorsRam[15] = systick_isr;
	SYST_RVR = (SYSTICK_EXT_FREQ / 1000) - 1;
	SYST_CVR = 0;
600010f8:	2500      	movs	r5, #0

FLASHMEM void reset_PFD()
{	
	//Reset PLL2 PFDs, set default frequencies:
	CCM_ANALOG_PFD_528_SET = (1 << 31) | (1 << 23) | (1 << 15) | (1 << 7);
	CCM_ANALOG_PFD_528 = 0x2018101B; // PFD0:352, PFD1:594, PFD2:396, PFD3:297 MHz 	
600010fa:	f8df 91a4 	ldr.w	r9, [pc, #420]	; 600012a0 <ResetHandler+0x26c>
	//PLL3:
	CCM_ANALOG_PFD_480_SET = (1 << 31) | (1 << 23) | (1 << 15) | (1 << 7);	
	CCM_ANALOG_PFD_480 = 0x13110D0C; // PFD0:720, PFD1:664, PFD2:508, PFD3:454 MHz
600010fe:	f8df 81a4 	ldr.w	r8, [pc, #420]	; 600012a4 <ResetHandler+0x270>
	SCB_CPACR = 0x00F00000;

	// set up blank interrupt & exception vector table
	for (i=0; i < NVIC_NUM_INTERRUPTS + 16; i++) _VectorsRam[i] = &unused_interrupt_vector;
	for (i=0; i < NVIC_NUM_INTERRUPTS; i++) NVIC_SET_PRIORITY(i, 128);
	SCB_VTOR = (uint32_t)_VectorsRam;
60001102:	4b57      	ldr	r3, [pc, #348]	; (60001260 <ResetHandler+0x22c>)
	// UARTs run from 24 MHz clock (works if PLL3 off or bypassed)
	CCM_CSCDR1 = (CCM_CSCDR1 & ~CCM_CSCDR1_UART_CLK_PODF(0x3F)) | CCM_CSCDR1_UART_CLK_SEL;

#if defined(__IMXRT1062__)
	// Use fast GPIO6, GPIO7, GPIO8, GPIO9
	IOMUXC_GPR_GPR26 = 0xFFFFFFFF;
60001104:	4943      	ldr	r1, [pc, #268]	; (60001214 <ResetHandler+0x1e0>)
	SCB_CPACR = 0x00F00000;

	// set up blank interrupt & exception vector table
	for (i=0; i < NVIC_NUM_INTERRUPTS + 16; i++) _VectorsRam[i] = &unused_interrupt_vector;
	for (i=0; i < NVIC_NUM_INTERRUPTS; i++) NVIC_SET_PRIORITY(i, 128);
	SCB_VTOR = (uint32_t)_VectorsRam;
60001106:	f8c3 a000 	str.w	sl, [r3]
}

FLASHMEM void reset_PFD()
{	
	//Reset PLL2 PFDs, set default frequencies:
	CCM_ANALOG_PFD_528_SET = (1 << 31) | (1 << 23) | (1 << 15) | (1 << 7);
6000110a:	f8c4 7104 	str.w	r7, [r4, #260]	; 0x104
	CCM_ANALOG_PFD_528 = 0x2018101B; // PFD0:352, PFD1:594, PFD2:396, PFD3:297 MHz 	
6000110e:	f8c4 9100 	str.w	r9, [r4, #256]	; 0x100
	//PLL3:
	CCM_ANALOG_PFD_480_SET = (1 << 31) | (1 << 23) | (1 << 15) | (1 << 7);	
60001112:	f8c4 70f4 	str.w	r7, [r4, #244]	; 0xf4
	CCM_ANALOG_PFD_480 = 0x13110D0C; // PFD0:720, PFD1:664, PFD2:508, PFD3:454 MHz
60001116:	f8c4 80f0 	str.w	r8, [r4, #240]	; 0xf0
	reset_PFD();
	
	// Configure clocks
	// TODO: make sure all affected peripherals are turned off!
	// PIT & GPT timers to run from 24 MHz clock (independent of CPU speed)
	CCM_CSCMR1 = (CCM_CSCMR1 & ~CCM_CSCMR1_PERCLK_PODF(0x3F)) | CCM_CSCMR1_PERCLK_CLK_SEL;
6000111a:	69f3      	ldr	r3, [r6, #28]
6000111c:	f023 037f 	bic.w	r3, r3, #127	; 0x7f
60001120:	f043 0340 	orr.w	r3, r3, #64	; 0x40
60001124:	61f3      	str	r3, [r6, #28]
	// UARTs run from 24 MHz clock (works if PLL3 off or bypassed)
	CCM_CSCDR1 = (CCM_CSCDR1 & ~CCM_CSCDR1_UART_CLK_PODF(0x3F)) | CCM_CSCDR1_UART_CLK_SEL;
60001126:	6a73      	ldr	r3, [r6, #36]	; 0x24
60001128:	f023 037f 	bic.w	r3, r3, #127	; 0x7f
6000112c:	f043 0340 	orr.w	r3, r3, #64	; 0x40
60001130:	6273      	str	r3, [r6, #36]	; 0x24

#if defined(__IMXRT1062__)
	// Use fast GPIO6, GPIO7, GPIO8, GPIO9
	IOMUXC_GPR_GPR26 = 0xFFFFFFFF;
60001132:	668a      	str	r2, [r1, #104]	; 0x68
	IOMUXC_GPR_GPR27 = 0xFFFFFFFF;
60001134:	66ca      	str	r2, [r1, #108]	; 0x6c
	IOMUXC_GPR_GPR28 = 0xFFFFFFFF;
60001136:	670a      	str	r2, [r1, #112]	; 0x70
	IOMUXC_GPR_GPR29 = 0xFFFFFFFF;
60001138:	674a      	str	r2, [r1, #116]	; 0x74
	// must enable PRINT_DEBUG_STUFF in debug/print.h
	printf_debug_init();
	printf("\n***********IMXRT Startup**********\n");
	printf("test %d %d %d\n", 1, -1234567, 3);

	configure_cache();
6000113a:	f000 f8b5 	bl	600012a8 <configure_cache>
extern volatile uint32_t systick_cycle_count;
static void configure_systick(void)
{
	_VectorsRam[14] = pendablesrvreq_isr;
	_VectorsRam[15] = systick_isr;
	SYST_RVR = (SYSTICK_EXT_FREQ / 1000) - 1;
6000113e:	4a49      	ldr	r2, [pc, #292]	; (60001264 <ResetHandler+0x230>)
60001140:	2063      	movs	r0, #99	; 0x63
	SYST_CVR = 0;
60001142:	4b49      	ldr	r3, [pc, #292]	; (60001268 <ResetHandler+0x234>)
#define SYSTICK_EXT_FREQ 100000

extern volatile uint32_t systick_cycle_count;
static void configure_systick(void)
{
	_VectorsRam[14] = pendablesrvreq_isr;
60001144:	4949      	ldr	r1, [pc, #292]	; (6000126c <ResetHandler+0x238>)
	_VectorsRam[15] = systick_isr;
	SYST_RVR = (SYSTICK_EXT_FREQ / 1000) - 1;
60001146:	6010      	str	r0, [r2, #0]
	SYST_CVR = 0;
	SYST_CSR = SYST_CSR_TICKINT | SYST_CSR_ENABLE;
60001148:	2203      	movs	r2, #3
static void configure_systick(void)
{
	_VectorsRam[14] = pendablesrvreq_isr;
	_VectorsRam[15] = systick_isr;
	SYST_RVR = (SYSTICK_EXT_FREQ / 1000) - 1;
	SYST_CVR = 0;
6000114a:	601d      	str	r5, [r3, #0]
#define SYSTICK_EXT_FREQ 100000

extern volatile uint32_t systick_cycle_count;
static void configure_systick(void)
{
	_VectorsRam[14] = pendablesrvreq_isr;
6000114c:	f8ca 1038 	str.w	r1, [sl, #56]	; 0x38
	_VectorsRam[15] = systick_isr;
	SYST_RVR = (SYSTICK_EXT_FREQ / 1000) - 1;
	SYST_CVR = 0;
	SYST_CSR = SYST_CSR_TICKINT | SYST_CSR_ENABLE;
60001150:	f843 2c08 	str.w	r2, [r3, #-8]
	SCB_SHPR3 = 0x20200000;  // Systick, pendablesrvreq_isr = priority 32;
	ARM_DEMCR |= ARM_DEMCR_TRCENA;
60001154:	4946      	ldr	r1, [pc, #280]	; (60001270 <ResetHandler+0x23c>)
	_VectorsRam[14] = pendablesrvreq_isr;
	_VectorsRam[15] = systick_isr;
	SYST_RVR = (SYSTICK_EXT_FREQ / 1000) - 1;
	SYST_CVR = 0;
	SYST_CSR = SYST_CSR_TICKINT | SYST_CSR_ENABLE;
	SCB_SHPR3 = 0x20200000;  // Systick, pendablesrvreq_isr = priority 32;
60001156:	4a47      	ldr	r2, [pc, #284]	; (60001274 <ResetHandler+0x240>)

extern volatile uint32_t systick_cycle_count;
static void configure_systick(void)
{
	_VectorsRam[14] = pendablesrvreq_isr;
	_VectorsRam[15] = systick_isr;
60001158:	4847      	ldr	r0, [pc, #284]	; (60001278 <ResetHandler+0x244>)
	SYST_RVR = (SYSTICK_EXT_FREQ / 1000) - 1;
	SYST_CVR = 0;
	SYST_CSR = SYST_CSR_TICKINT | SYST_CSR_ENABLE;
	SCB_SHPR3 = 0x20200000;  // Systick, pendablesrvreq_isr = priority 32;
6000115a:	f8c3 2d08 	str.w	r2, [r3, #3336]	; 0xd08
	ARM_DEMCR |= ARM_DEMCR_TRCENA;
6000115e:	680b      	ldr	r3, [r1, #0]
	ARM_DWT_CTRL |= ARM_DWT_CTRL_CYCCNTENA; // turn on cycle counter
60001160:	4a46      	ldr	r2, [pc, #280]	; (6000127c <ResetHandler+0x248>)
	_VectorsRam[15] = systick_isr;
	SYST_RVR = (SYSTICK_EXT_FREQ / 1000) - 1;
	SYST_CVR = 0;
	SYST_CSR = SYST_CSR_TICKINT | SYST_CSR_ENABLE;
	SCB_SHPR3 = 0x20200000;  // Systick, pendablesrvreq_isr = priority 32;
	ARM_DEMCR |= ARM_DEMCR_TRCENA;
60001162:	f043 7380 	orr.w	r3, r3, #16777216	; 0x1000000

extern volatile uint32_t systick_cycle_count;
static void configure_systick(void)
{
	_VectorsRam[14] = pendablesrvreq_isr;
	_VectorsRam[15] = systick_isr;
60001166:	f8ca 003c 	str.w	r0, [sl, #60]	; 0x3c
	SYST_CVR = 0;
	SYST_CSR = SYST_CSR_TICKINT | SYST_CSR_ENABLE;
	SCB_SHPR3 = 0x20200000;  // Systick, pendablesrvreq_isr = priority 32;
	ARM_DEMCR |= ARM_DEMCR_TRCENA;
	ARM_DWT_CTRL |= ARM_DWT_CTRL_CYCCNTENA; // turn on cycle counter
	systick_cycle_count = ARM_DWT_CYCCNT; // compiled 0, corrected w/1st systick
6000116a:	4845      	ldr	r0, [pc, #276]	; (60001280 <ResetHandler+0x24c>)
	_VectorsRam[15] = systick_isr;
	SYST_RVR = (SYSTICK_EXT_FREQ / 1000) - 1;
	SYST_CVR = 0;
	SYST_CSR = SYST_CSR_TICKINT | SYST_CSR_ENABLE;
	SCB_SHPR3 = 0x20200000;  // Systick, pendablesrvreq_isr = priority 32;
	ARM_DEMCR |= ARM_DEMCR_TRCENA;
6000116c:	600b      	str	r3, [r1, #0]
	ARM_DWT_CTRL |= ARM_DWT_CTRL_CYCCNTENA; // turn on cycle counter
6000116e:	6813      	ldr	r3, [r2, #0]
	systick_cycle_count = ARM_DWT_CYCCNT; // compiled 0, corrected w/1st systick
60001170:	4944      	ldr	r1, [pc, #272]	; (60001284 <ResetHandler+0x250>)
	SYST_RVR = (SYSTICK_EXT_FREQ / 1000) - 1;
	SYST_CVR = 0;
	SYST_CSR = SYST_CSR_TICKINT | SYST_CSR_ENABLE;
	SCB_SHPR3 = 0x20200000;  // Systick, pendablesrvreq_isr = priority 32;
	ARM_DEMCR |= ARM_DEMCR_TRCENA;
	ARM_DWT_CTRL |= ARM_DWT_CTRL_CYCCNTENA; // turn on cycle counter
60001172:	f043 0301 	orr.w	r3, r3, #1
60001176:	6013      	str	r3, [r2, #0]
	systick_cycle_count = ARM_DWT_CYCCNT; // compiled 0, corrected w/1st systick
60001178:	6803      	ldr	r3, [r0, #0]
6000117a:	600b      	str	r3, [r1, #0]
	printf("\n***********IMXRT Startup**********\n");
	printf("test %d %d %d\n", 1, -1234567, 3);

	configure_cache();
	configure_systick();
	usb_pll_start();	
6000117c:	f000 face 	bl	6000171c <usb_pll_start>
}

FLASHMEM void reset_PFD()
{	
	//Reset PLL2 PFDs, set default frequencies:
	CCM_ANALOG_PFD_528_SET = (1 << 31) | (1 << 23) | (1 << 15) | (1 << 7);
60001180:	f8c4 7104 	str.w	r7, [r4, #260]	; 0x104
	configure_cache();
	configure_systick();
	usb_pll_start();	
	reset_PFD(); //TODO: is this really needed?
#ifdef F_CPU
	set_arm_clock(F_CPU);
60001184:	4840      	ldr	r0, [pc, #256]	; (60001288 <ResetHandler+0x254>)

FLASHMEM void reset_PFD()
{	
	//Reset PLL2 PFDs, set default frequencies:
	CCM_ANALOG_PFD_528_SET = (1 << 31) | (1 << 23) | (1 << 15) | (1 << 7);
	CCM_ANALOG_PFD_528 = 0x2018101B; // PFD0:352, PFD1:594, PFD2:396, PFD3:297 MHz 	
60001186:	f8c4 9100 	str.w	r9, [r4, #256]	; 0x100
	//PLL3:
	CCM_ANALOG_PFD_480_SET = (1 << 31) | (1 << 23) | (1 << 15) | (1 << 7);	
6000118a:	f8c4 70f4 	str.w	r7, [r4, #244]	; 0xf4
	CCM_ANALOG_PFD_480 = 0x13110D0C; // PFD0:720, PFD1:664, PFD2:508, PFD3:454 MHz
6000118e:	f8c4 80f0 	str.w	r8, [r4, #240]	; 0xf0
	configure_cache();
	configure_systick();
	usb_pll_start();	
	reset_PFD(); //TODO: is this really needed?
#ifdef F_CPU
	set_arm_clock(F_CPU);
60001192:	f000 fc9d 	bl	60001ad0 <__set_arm_clock_veneer>
#endif

	asm volatile("nop\n nop\n nop\n nop": : :"memory"); // why oh why?
60001196:	bf00      	nop
60001198:	bf00      	nop
6000119a:	bf00      	nop
6000119c:	bf00      	nop

	// Undo PIT timer usage by ROM startup
	CCM_CCGR1 |= CCM_CCGR1_PIT(CCM_CCGR_ON);
6000119e:	6ef1      	ldr	r1, [r6, #108]	; 0x6c
	PIT_MCR = 0;
600011a0:	4a3a      	ldr	r2, [pc, #232]	; (6000128c <ResetHandler+0x258>)
#endif

	asm volatile("nop\n nop\n nop\n nop": : :"memory"); // why oh why?

	// Undo PIT timer usage by ROM startup
	CCM_CCGR1 |= CCM_CCGR1_PIT(CCM_CCGR_ON);
600011a2:	f441 5140 	orr.w	r1, r1, #12288	; 0x3000
	PIT_TCTRL1 = 0;
	PIT_TCTRL2 = 0;
	PIT_TCTRL3 = 0;

	// initialize RTC
	if (!(SNVS_LPCR & SNVS_LPCR_SRTC_ENV)) {
600011a6:	4b3a      	ldr	r3, [pc, #232]	; (60001290 <ResetHandler+0x25c>)
#endif

	asm volatile("nop\n nop\n nop\n nop": : :"memory"); // why oh why?

	// Undo PIT timer usage by ROM startup
	CCM_CCGR1 |= CCM_CCGR1_PIT(CCM_CCGR_ON);
600011a8:	66f1      	str	r1, [r6, #108]	; 0x6c
	PIT_MCR = 0;
600011aa:	6015      	str	r5, [r2, #0]
	PIT_TCTRL0 = 0;
600011ac:	f8c2 5108 	str.w	r5, [r2, #264]	; 0x108
	PIT_TCTRL1 = 0;
600011b0:	f8c2 5118 	str.w	r5, [r2, #280]	; 0x118
	PIT_TCTRL2 = 0;
600011b4:	f8c2 5128 	str.w	r5, [r2, #296]	; 0x128
	PIT_TCTRL3 = 0;
600011b8:	f8c2 5138 	str.w	r5, [r2, #312]	; 0x138

	// initialize RTC
	if (!(SNVS_LPCR & SNVS_LPCR_SRTC_ENV)) {
600011bc:	6b9a      	ldr	r2, [r3, #56]	; 0x38
600011be:	07d2      	lsls	r2, r2, #31
600011c0:	d408      	bmi.n	600011d4 <ResetHandler+0x1a0>
		// if SRTC isn't running, start it with default Jan 1, 2019
		SNVS_LPSRTCLR = 1546300800u << 15;
		SNVS_LPSRTCMR = 1546300800u >> 17;
600011c2:	f642 6215 	movw	r2, #11797	; 0x2e15
	PIT_TCTRL3 = 0;

	// initialize RTC
	if (!(SNVS_LPCR & SNVS_LPCR_SRTC_ENV)) {
		// if SRTC isn't running, start it with default Jan 1, 2019
		SNVS_LPSRTCLR = 1546300800u << 15;
600011c6:	4933      	ldr	r1, [pc, #204]	; (60001294 <ResetHandler+0x260>)
600011c8:	6559      	str	r1, [r3, #84]	; 0x54
		SNVS_LPSRTCMR = 1546300800u >> 17;
600011ca:	651a      	str	r2, [r3, #80]	; 0x50
		SNVS_LPCR |= SNVS_LPCR_SRTC_ENV;
600011cc:	6b9a      	ldr	r2, [r3, #56]	; 0x38
600011ce:	f042 0201 	orr.w	r2, r2, #1
600011d2:	639a      	str	r2, [r3, #56]	; 0x38
	}
	SNVS_HPCR |= SNVS_HPCR_RTC_EN | SNVS_HPCR_HP_TS;
600011d4:	4a2e      	ldr	r2, [pc, #184]	; (60001290 <ResetHandler+0x25c>)
600011d6:	4c30      	ldr	r4, [pc, #192]	; (60001298 <ResetHandler+0x264>)
600011d8:	6893      	ldr	r3, [r2, #8]
600011da:	f043 1301 	orr.w	r3, r3, #65537	; 0x10001
600011de:	6093      	str	r3, [r2, #8]

#ifdef ARDUINO_TEENSY41
	configure_external_ram();
600011e0:	f000 f8de 	bl	600013a0 <configure_external_ram>
#endif
	startup_early_hook();
600011e4:	f000 fc7c 	bl	60001ae0 <__startup_early_hook_veneer>
extern volatile uint32_t systick_millis_count;

static inline uint32_t millis(void) __attribute__((always_inline, unused));
static inline uint32_t millis(void)
{
	return systick_millis_count;
600011e8:	6823      	ldr	r3, [r4, #0]
	while (millis() < 20) ; // wait at least 20ms before starting USB
600011ea:	2b13      	cmp	r3, #19
600011ec:	d9fc      	bls.n	600011e8 <ResetHandler+0x1b4>
	usb_init();
600011ee:	f000 fb55 	bl	6000189c <usb_init>
	analog_init();
600011f2:	f000 fbc9 	bl	60001988 <analog_init>
	pwm_init();
600011f6:	f000 fc77 	bl	60001ae8 <__pwm_init_veneer>
	tempmon_init();
600011fa:	f000 fac1 	bl	60001780 <tempmon_init>

	startup_late_hook();
600011fe:	f000 fc5f 	bl	60001ac0 <__startup_late_hook_veneer>
60001202:	6823      	ldr	r3, [r4, #0]
	while (millis() < 300) ; // wait at least 300ms before calling user code
60001204:	f5b3 7f96 	cmp.w	r3, #300	; 0x12c
60001208:	d3fb      	bcc.n	60001202 <ResetHandler+0x1ce>
	//printf("before C++ constructors\n");
	__libc_init_array();
6000120a:	f000 fc75 	bl	60001af8 <____libc_init_array_veneer>
	//printf("after C++ constructors\n");
	//printf("before setup\n");
	main();
6000120e:	f000 fc63 	bl	60001ad8 <__main_veneer>
60001212:	e7fe      	b.n	60001212 <ResetHandler+0x1de>
60001214:	400ac000 	.word	0x400ac000
60001218:	aaaaaaab 	.word	0xaaaaaaab
6000121c:	00200007 	.word	0x00200007
60001220:	20078000 	.word	0x20078000
60001224:	00000000 	.word	0x00000000
60001228:	60001b20 	.word	0x60001b20
6000122c:	00005c48 	.word	0x00005c48
60001230:	20000000 	.word	0x20000000
60001234:	6000776c 	.word	0x6000776c
60001238:	20000f50 	.word	0x20000f50
6000123c:	20000f50 	.word	0x20000f50
60001240:	200042c0 	.word	0x200042c0
60001244:	e000ed88 	.word	0xe000ed88
60001248:	20001ffc 	.word	0x20001ffc
6000124c:	000038d5 	.word	0x000038d5
60001250:	e000e400 	.word	0xe000e400
60001254:	e000e4a0 	.word	0xe000e4a0
60001258:	400d8000 	.word	0x400d8000
6000125c:	400fc000 	.word	0x400fc000
60001260:	e000ed08 	.word	0xe000ed08
60001264:	e000e014 	.word	0xe000e014
60001268:	e000e018 	.word	0xe000e018
6000126c:	00004905 	.word	0x00004905
60001270:	e000edfc 	.word	0xe000edfc
60001274:	20200000 	.word	0x20200000
60001278:	000049b1 	.word	0x000049b1
6000127c:	e0001000 	.word	0xe0001000
60001280:	e0001004 	.word	0xe0001004
60001284:	20001a88 	.word	0x20001a88
60001288:	23c34600 	.word	0x23c34600
6000128c:	40084000 	.word	0x40084000
60001290:	400d4000 	.word	0x400d4000
60001294:	56c00000 	.word	0x56c00000
60001298:	20001a90 	.word	0x20001a90
6000129c:	20002000 	.word	0x20002000
600012a0:	2018101b 	.word	0x2018101b
600012a4:	13110d0c 	.word	0x13110d0c

600012a8 <configure_cache>:
#define SIZE_2G		(SCB_MPU_RASR_SIZE(30) | SCB_MPU_RASR_ENABLE)
#define SIZE_4G		(SCB_MPU_RASR_SIZE(31) | SCB_MPU_RASR_ENABLE)
#define REGION(n)	(SCB_MPU_RBAR_REGION(n) | SCB_MPU_RBAR_VALID)

FLASHMEM void configure_cache(void)
{
600012a8:	b5f0      	push	{r4, r5, r6, r7, lr}
	// TODO: check if caches already active - skip?

	SCB_MPU_CTRL = 0; // turn off MPU

	uint32_t i = 0;
	SCB_MPU_RBAR = 0x00000000 | REGION(i++); //https://developer.arm.com/docs/146793866/10/why-does-the-cortex-m7-initiate-axim-read-accesses-to-memory-addresses-that-do-not-fall-under-a-defined-mpu-region
600012aa:	4a28      	ldr	r2, [pc, #160]	; (6000134c <configure_cache+0xa4>)
	//printf("MPU_TYPE = %08lX\n", SCB_MPU_TYPE);
	//printf("CCR = %08lX\n", SCB_CCR);

	// TODO: check if caches already active - skip?

	SCB_MPU_CTRL = 0; // turn off MPU
600012ac:	2000      	movs	r0, #0

	uint32_t i = 0;
	SCB_MPU_RBAR = 0x00000000 | REGION(i++); //https://developer.arm.com/docs/146793866/10/why-does-the-cortex-m7-initiate-axim-read-accesses-to-memory-addresses-that-do-not-fall-under-a-defined-mpu-region
	SCB_MPU_RASR = SCB_MPU_RASR_TEX(0) | NOACCESS | NOEXEC | SIZE_4G;
600012ae:	4b28      	ldr	r3, [pc, #160]	; (60001350 <configure_cache+0xa8>)
	// TODO: check if caches already active - skip?

	SCB_MPU_CTRL = 0; // turn off MPU

	uint32_t i = 0;
	SCB_MPU_RBAR = 0x00000000 | REGION(i++); //https://developer.arm.com/docs/146793866/10/why-does-the-cortex-m7-initiate-axim-read-accesses-to-memory-addresses-that-do-not-fall-under-a-defined-mpu-region
600012b0:	f04f 0c10 	mov.w	ip, #16
	//printf("MPU_TYPE = %08lX\n", SCB_MPU_TYPE);
	//printf("CCR = %08lX\n", SCB_CCR);

	// TODO: check if caches already active - skip?

	SCB_MPU_CTRL = 0; // turn off MPU
600012b4:	4c27      	ldr	r4, [pc, #156]	; (60001354 <configure_cache+0xac>)

	uint32_t i = 0;
	SCB_MPU_RBAR = 0x00000000 | REGION(i++); //https://developer.arm.com/docs/146793866/10/why-does-the-cortex-m7-initiate-axim-read-accesses-to-memory-addresses-that-do-not-fall-under-a-defined-mpu-region
	SCB_MPU_RASR = SCB_MPU_RASR_TEX(0) | NOACCESS | NOEXEC | SIZE_4G;
	
	SCB_MPU_RBAR = 0x00000000 | REGION(i++); // ITCM
600012b6:	2711      	movs	r7, #17

	SCB_MPU_CTRL = 0; // turn off MPU

	uint32_t i = 0;
	SCB_MPU_RBAR = 0x00000000 | REGION(i++); //https://developer.arm.com/docs/146793866/10/why-does-the-cortex-m7-initiate-axim-read-accesses-to-memory-addresses-that-do-not-fall-under-a-defined-mpu-region
	SCB_MPU_RASR = SCB_MPU_RASR_TEX(0) | NOACCESS | NOEXEC | SIZE_4G;
600012b8:	f8df e0d8 	ldr.w	lr, [pc, #216]	; 60001394 <configure_cache+0xec>
	SCB_MPU_RBAR = 0x00000000 | REGION(i++); // ITCM
	SCB_MPU_RASR = MEM_NOCACHE | READWRITE | SIZE_512K;

	// TODO: trap regions should be created last, because the hardware gives
	//  priority to the higher number ones.
	SCB_MPU_RBAR = 0x00000000 | REGION(i++); // trap NULL pointer deref
600012bc:	2612      	movs	r6, #18
	//printf("MPU_TYPE = %08lX\n", SCB_MPU_TYPE);
	//printf("CCR = %08lX\n", SCB_CCR);

	// TODO: check if caches already active - skip?

	SCB_MPU_CTRL = 0; // turn off MPU
600012be:	6020      	str	r0, [r4, #0]
	SCB_MPU_RBAR = 0x70000000 | REGION(i++); // FlexSPI2
	SCB_MPU_RASR = MEM_CACHE_WBWA | READWRITE | NOEXEC | SIZE_16M;

	// TODO: protect access to power supply config

	SCB_MPU_CTRL = SCB_MPU_CTRL_ENABLE;
600012c0:	2501      	movs	r5, #1
	// TODO: check if caches already active - skip?

	SCB_MPU_CTRL = 0; // turn off MPU

	uint32_t i = 0;
	SCB_MPU_RBAR = 0x00000000 | REGION(i++); //https://developer.arm.com/docs/146793866/10/why-does-the-cortex-m7-initiate-axim-read-accesses-to-memory-addresses-that-do-not-fall-under-a-defined-mpu-region
600012c2:	f8c2 c000 	str.w	ip, [r2]
	SCB_MPU_RASR = SCB_MPU_RASR_TEX(0) | NOACCESS | NOEXEC | SIZE_4G;
600012c6:	f8c3 e000 	str.w	lr, [r3]
	
	SCB_MPU_RBAR = 0x00000000 | REGION(i++); // ITCM
600012ca:	6017      	str	r7, [r2, #0]
	SCB_MPU_RASR = MEM_NOCACHE | READWRITE | SIZE_512K;
600012cc:	f8df e0c8 	ldr.w	lr, [pc, #200]	; 60001398 <configure_cache+0xf0>

	// TODO: trap regions should be created last, because the hardware gives
	//  priority to the higher number ones.
	SCB_MPU_RBAR = 0x00000000 | REGION(i++); // trap NULL pointer deref
	SCB_MPU_RASR =  DEV_NOCACHE | NOACCESS | SIZE_32B;
600012d0:	4f21      	ldr	r7, [pc, #132]	; (60001358 <configure_cache+0xb0>)
	uint32_t i = 0;
	SCB_MPU_RBAR = 0x00000000 | REGION(i++); //https://developer.arm.com/docs/146793866/10/why-does-the-cortex-m7-initiate-axim-read-accesses-to-memory-addresses-that-do-not-fall-under-a-defined-mpu-region
	SCB_MPU_RASR = SCB_MPU_RASR_TEX(0) | NOACCESS | NOEXEC | SIZE_4G;
	
	SCB_MPU_RBAR = 0x00000000 | REGION(i++); // ITCM
	SCB_MPU_RASR = MEM_NOCACHE | READWRITE | SIZE_512K;
600012d2:	f8c3 e000 	str.w	lr, [r3]

	// TODO: trap regions should be created last, because the hardware gives
	//  priority to the higher number ones.
	SCB_MPU_RBAR = 0x00000000 | REGION(i++); // trap NULL pointer deref
600012d6:	6016      	str	r6, [r2, #0]
	SCB_MPU_RASR =  DEV_NOCACHE | NOACCESS | SIZE_32B;
600012d8:	601f      	str	r7, [r3, #0]

	SCB_MPU_RBAR = 0x00200000 | REGION(i++); // Boot ROM
600012da:	4e20      	ldr	r6, [pc, #128]	; (6000135c <configure_cache+0xb4>)
	SCB_MPU_RASR = MEM_CACHE_WT | READONLY | SIZE_128K;
600012dc:	4f20      	ldr	r7, [pc, #128]	; (60001360 <configure_cache+0xb8>)
	// TODO: trap regions should be created last, because the hardware gives
	//  priority to the higher number ones.
	SCB_MPU_RBAR = 0x00000000 | REGION(i++); // trap NULL pointer deref
	SCB_MPU_RASR =  DEV_NOCACHE | NOACCESS | SIZE_32B;

	SCB_MPU_RBAR = 0x00200000 | REGION(i++); // Boot ROM
600012de:	6016      	str	r6, [r2, #0]
	SCB_MPU_RASR = MEM_CACHE_WT | READONLY | SIZE_128K;

	SCB_MPU_RBAR = 0x20000000 | REGION(i++); // DTCM
	SCB_MPU_RASR = MEM_NOCACHE | READWRITE | NOEXEC | SIZE_512K;
	
	SCB_MPU_RBAR = ((uint32_t)&_ebss) | REGION(i++); // trap stack overflow
600012e0:	4920      	ldr	r1, [pc, #128]	; (60001364 <configure_cache+0xbc>)
	//  priority to the higher number ones.
	SCB_MPU_RBAR = 0x00000000 | REGION(i++); // trap NULL pointer deref
	SCB_MPU_RASR =  DEV_NOCACHE | NOACCESS | SIZE_32B;

	SCB_MPU_RBAR = 0x00200000 | REGION(i++); // Boot ROM
	SCB_MPU_RASR = MEM_CACHE_WT | READONLY | SIZE_128K;
600012e2:	601f      	str	r7, [r3, #0]

	SCB_MPU_RBAR = 0x20000000 | REGION(i++); // DTCM
600012e4:	4e20      	ldr	r6, [pc, #128]	; (60001368 <configure_cache+0xc0>)
	SCB_MPU_RASR = MEM_NOCACHE | READWRITE | NOEXEC | SIZE_512K;
	
	SCB_MPU_RBAR = ((uint32_t)&_ebss) | REGION(i++); // trap stack overflow
600012e6:	f041 0115 	orr.w	r1, r1, #21

	SCB_MPU_RBAR = 0x00200000 | REGION(i++); // Boot ROM
	SCB_MPU_RASR = MEM_CACHE_WT | READONLY | SIZE_128K;

	SCB_MPU_RBAR = 0x20000000 | REGION(i++); // DTCM
	SCB_MPU_RASR = MEM_NOCACHE | READWRITE | NOEXEC | SIZE_512K;
600012ea:	4f20      	ldr	r7, [pc, #128]	; (6000136c <configure_cache+0xc4>)
	SCB_MPU_RASR =  DEV_NOCACHE | NOACCESS | SIZE_32B;

	SCB_MPU_RBAR = 0x00200000 | REGION(i++); // Boot ROM
	SCB_MPU_RASR = MEM_CACHE_WT | READONLY | SIZE_128K;

	SCB_MPU_RBAR = 0x20000000 | REGION(i++); // DTCM
600012ec:	6016      	str	r6, [r2, #0]
	SCB_MPU_RASR = MEM_NOCACHE | READWRITE | NOEXEC | SIZE_512K;
600012ee:	601f      	str	r7, [r3, #0]
	
	SCB_MPU_RBAR = ((uint32_t)&_ebss) | REGION(i++); // trap stack overflow
	SCB_MPU_RASR = SCB_MPU_RASR_TEX(0) | NOACCESS | NOEXEC | SIZE_32B;

	SCB_MPU_RBAR = 0x20200000 | REGION(i++); // RAM (AXI bus)
	SCB_MPU_RASR = MEM_CACHE_WBWA | READWRITE | NOEXEC | SIZE_1M;
600012f0:	f507 3740 	add.w	r7, r7, #196608	; 0x30000

	SCB_MPU_RBAR = 0x20000000 | REGION(i++); // DTCM
	SCB_MPU_RASR = MEM_NOCACHE | READWRITE | NOEXEC | SIZE_512K;
	
	SCB_MPU_RBAR = ((uint32_t)&_ebss) | REGION(i++); // trap stack overflow
	SCB_MPU_RASR = SCB_MPU_RASR_TEX(0) | NOACCESS | NOEXEC | SIZE_32B;
600012f4:	4e1e      	ldr	r6, [pc, #120]	; (60001370 <configure_cache+0xc8>)
	SCB_MPU_RASR = MEM_CACHE_WT | READONLY | SIZE_128K;

	SCB_MPU_RBAR = 0x20000000 | REGION(i++); // DTCM
	SCB_MPU_RASR = MEM_NOCACHE | READWRITE | NOEXEC | SIZE_512K;
	
	SCB_MPU_RBAR = ((uint32_t)&_ebss) | REGION(i++); // trap stack overflow
600012f6:	6011      	str	r1, [r2, #0]
	SCB_MPU_RASR = SCB_MPU_RASR_TEX(0) | NOACCESS | NOEXEC | SIZE_32B;

	SCB_MPU_RBAR = 0x20200000 | REGION(i++); // RAM (AXI bus)
	SCB_MPU_RASR = MEM_CACHE_WBWA | READWRITE | NOEXEC | SIZE_1M;
600012f8:	3702      	adds	r7, #2

	SCB_MPU_RBAR = 0x20000000 | REGION(i++); // DTCM
	SCB_MPU_RASR = MEM_NOCACHE | READWRITE | NOEXEC | SIZE_512K;
	
	SCB_MPU_RBAR = ((uint32_t)&_ebss) | REGION(i++); // trap stack overflow
	SCB_MPU_RASR = SCB_MPU_RASR_TEX(0) | NOACCESS | NOEXEC | SIZE_32B;
600012fa:	601e      	str	r6, [r3, #0]

	SCB_MPU_RBAR = 0x20200000 | REGION(i++); // RAM (AXI bus)
600012fc:	f8df e09c 	ldr.w	lr, [pc, #156]	; 6000139c <configure_cache+0xf4>
	SCB_MPU_RASR = MEM_CACHE_WBWA | READWRITE | NOEXEC | SIZE_1M;

	SCB_MPU_RBAR = 0x40000000 | REGION(i++); // Peripherals
60001300:	4e1c      	ldr	r6, [pc, #112]	; (60001374 <configure_cache+0xcc>)
	SCB_MPU_RASR = DEV_NOCACHE | READWRITE | NOEXEC | SIZE_64M;
60001302:	491d      	ldr	r1, [pc, #116]	; (60001378 <configure_cache+0xd0>)
	SCB_MPU_RASR = MEM_NOCACHE | READWRITE | NOEXEC | SIZE_512K;
	
	SCB_MPU_RBAR = ((uint32_t)&_ebss) | REGION(i++); // trap stack overflow
	SCB_MPU_RASR = SCB_MPU_RASR_TEX(0) | NOACCESS | NOEXEC | SIZE_32B;

	SCB_MPU_RBAR = 0x20200000 | REGION(i++); // RAM (AXI bus)
60001304:	f8c2 e000 	str.w	lr, [r2]
	SCB_MPU_RASR = MEM_CACHE_WBWA | READWRITE | NOEXEC | SIZE_1M;
60001308:	601f      	str	r7, [r3, #0]

	SCB_MPU_RBAR = 0x40000000 | REGION(i++); // Peripherals
6000130a:	6016      	str	r6, [r2, #0]
	SCB_MPU_RASR = DEV_NOCACHE | READWRITE | NOEXEC | SIZE_64M;

	SCB_MPU_RBAR = 0x60000000 | REGION(i++); // QSPI Flash
6000130c:	4f1b      	ldr	r7, [pc, #108]	; (6000137c <configure_cache+0xd4>)

	SCB_MPU_RBAR = 0x20200000 | REGION(i++); // RAM (AXI bus)
	SCB_MPU_RASR = MEM_CACHE_WBWA | READWRITE | NOEXEC | SIZE_1M;

	SCB_MPU_RBAR = 0x40000000 | REGION(i++); // Peripherals
	SCB_MPU_RASR = DEV_NOCACHE | READWRITE | NOEXEC | SIZE_64M;
6000130e:	6019      	str	r1, [r3, #0]

	SCB_MPU_RBAR = 0x60000000 | REGION(i++); // QSPI Flash
	SCB_MPU_RASR = MEM_CACHE_WBWA | READONLY | SIZE_16M;
60001310:	4e1b      	ldr	r6, [pc, #108]	; (60001380 <configure_cache+0xd8>)

	SCB_MPU_RBAR = 0x70000000 | REGION(i++); // FlexSPI2
60001312:	491c      	ldr	r1, [pc, #112]	; (60001384 <configure_cache+0xdc>)
	SCB_MPU_RASR = MEM_CACHE_WBWA | READWRITE | NOEXEC | SIZE_1M;

	SCB_MPU_RBAR = 0x40000000 | REGION(i++); // Peripherals
	SCB_MPU_RASR = DEV_NOCACHE | READWRITE | NOEXEC | SIZE_64M;

	SCB_MPU_RBAR = 0x60000000 | REGION(i++); // QSPI Flash
60001314:	6017      	str	r7, [r2, #0]
	SCB_MPU_RASR = MEM_CACHE_WBWA | READONLY | SIZE_16M;
60001316:	601e      	str	r6, [r3, #0]

	SCB_MPU_RBAR = 0x70000000 | REGION(i++); // FlexSPI2
	SCB_MPU_RASR = MEM_CACHE_WBWA | READONLY | NOEXEC | SIZE_256M;
60001318:	4f1b      	ldr	r7, [pc, #108]	; (60001388 <configure_cache+0xe0>)
	SCB_MPU_RASR = DEV_NOCACHE | READWRITE | NOEXEC | SIZE_64M;

	SCB_MPU_RBAR = 0x60000000 | REGION(i++); // QSPI Flash
	SCB_MPU_RASR = MEM_CACHE_WBWA | READONLY | SIZE_16M;

	SCB_MPU_RBAR = 0x70000000 | REGION(i++); // FlexSPI2
6000131a:	6011      	str	r1, [r2, #0]
	SCB_MPU_RASR = MEM_CACHE_WBWA | READONLY | NOEXEC | SIZE_256M;

	SCB_MPU_RBAR = 0x70000000 | REGION(i++); // FlexSPI2
6000131c:	4e1b      	ldr	r6, [pc, #108]	; (6000138c <configure_cache+0xe4>)
	SCB_MPU_RASR = MEM_CACHE_WBWA | READWRITE | NOEXEC | SIZE_16M;
6000131e:	491c      	ldr	r1, [pc, #112]	; (60001390 <configure_cache+0xe8>)

	SCB_MPU_RBAR = 0x60000000 | REGION(i++); // QSPI Flash
	SCB_MPU_RASR = MEM_CACHE_WBWA | READONLY | SIZE_16M;

	SCB_MPU_RBAR = 0x70000000 | REGION(i++); // FlexSPI2
	SCB_MPU_RASR = MEM_CACHE_WBWA | READONLY | NOEXEC | SIZE_256M;
60001320:	601f      	str	r7, [r3, #0]

	SCB_MPU_RBAR = 0x70000000 | REGION(i++); // FlexSPI2
60001322:	6016      	str	r6, [r2, #0]
	SCB_MPU_RASR = MEM_CACHE_WBWA | READWRITE | NOEXEC | SIZE_16M;
60001324:	6019      	str	r1, [r3, #0]

	// TODO: protect access to power supply config

	SCB_MPU_CTRL = SCB_MPU_CTRL_ENABLE;
60001326:	6025      	str	r5, [r4, #0]

	// cache enable, ARM DDI0403E, pg 628
	asm("dsb");
60001328:	f3bf 8f4f 	dsb	sy
	asm("isb");
6000132c:	f3bf 8f6f 	isb	sy
	SCB_CACHE_ICIALLU = 0;
60001330:	f8c3 01b0 	str.w	r0, [r3, #432]	; 0x1b0

	asm("dsb");
60001334:	f3bf 8f4f 	dsb	sy
	asm("isb");
60001338:	f3bf 8f6f 	isb	sy
	SCB_CCR |= (SCB_CCR_IC | SCB_CCR_DC);
6000133c:	f852 3c88 	ldr.w	r3, [r2, #-136]
60001340:	f443 3340 	orr.w	r3, r3, #196608	; 0x30000
60001344:	f842 3c88 	str.w	r3, [r2, #-136]
60001348:	bdf0      	pop	{r4, r5, r6, r7, pc}
6000134a:	bf00      	nop
6000134c:	e000ed9c 	.word	0xe000ed9c
60001350:	e000eda0 	.word	0xe000eda0
60001354:	e000ed94 	.word	0xe000ed94
60001358:	00100009 	.word	0x00100009
6000135c:	00200013 	.word	0x00200013
60001360:	07020021 	.word	0x07020021
60001364:	200042c0 	.word	0x200042c0
60001368:	20000014 	.word	0x20000014
6000136c:	13080025 	.word	0x13080025
60001370:	10000009 	.word	0x10000009
60001374:	40000017 	.word	0x40000017
60001378:	13100033 	.word	0x13100033
6000137c:	60000018 	.word	0x60000018
60001380:	070b002f 	.word	0x070b002f
60001384:	70000019 	.word	0x70000019
60001388:	170b0037 	.word	0x170b0037
6000138c:	7000001a 	.word	0x7000001a
60001390:	130b002f 	.word	0x130b002f
60001394:	1000003f 	.word	0x1000003f
60001398:	03080025 	.word	0x03080025
6000139c:	20200016 	.word	0x20200016

600013a0 <configure_external_ram>:
	FLEXSPI2_INTR = FLEXSPI_INTR_IPCMDDONE | FLEXSPI_INTR_IPRXWA;
	return id & 0xFFFF;
}

FLASHMEM void configure_external_ram()
{
600013a0:	b5f0      	push	{r4, r5, r6, r7, lr}
	// initialize pins
	IOMUXC_SW_PAD_CTL_PAD_GPIO_EMC_22 = 0x1B0F9; // 100K pullup, strong drive, max speed, hyst
600013a2:	4bb8      	ldr	r3, [pc, #736]	; (60001684 <configure_external_ram+0x2e4>)
	IOMUXC_SW_PAD_CTL_PAD_GPIO_EMC_26 = 0x170F9; // 47K pullup, strong drive, max speed, hyst
	IOMUXC_SW_PAD_CTL_PAD_GPIO_EMC_27 = 0x170F9; // 47K pullup, strong drive, max speed, hyst
	IOMUXC_SW_PAD_CTL_PAD_GPIO_EMC_28 = 0x170F9; // 47K pullup, strong drive, max speed, hyst
	IOMUXC_SW_PAD_CTL_PAD_GPIO_EMC_29 = 0x170F9; // 47K pullup, strong drive, max speed, hyst

	IOMUXC_SW_MUX_CTL_PAD_GPIO_EMC_22 = 8 | 0x10; // ALT1 = FLEXSPI2_A_SS1_B (Flash)
600013a4:	2218      	movs	r2, #24
	// initialize pins
	IOMUXC_SW_PAD_CTL_PAD_GPIO_EMC_22 = 0x1B0F9; // 100K pullup, strong drive, max speed, hyst
	IOMUXC_SW_PAD_CTL_PAD_GPIO_EMC_23 = 0x110F9; // keeper, strong drive, max speed, hyst
	IOMUXC_SW_PAD_CTL_PAD_GPIO_EMC_24 = 0x1B0F9; // 100K pullup, strong drive, max speed, hyst
	IOMUXC_SW_PAD_CTL_PAD_GPIO_EMC_25 = 0x100F9; // strong drive, max speed, hyst
	IOMUXC_SW_PAD_CTL_PAD_GPIO_EMC_26 = 0x170F9; // 47K pullup, strong drive, max speed, hyst
600013a6:	4eb8      	ldr	r6, [pc, #736]	; (60001688 <configure_external_ram+0x2e8>)
	IOMUXC_SW_MUX_CTL_PAD_GPIO_EMC_26 = 8 | 0x10; // ALT1 = FLEXSPI2_A_DATA0
	IOMUXC_SW_MUX_CTL_PAD_GPIO_EMC_27 = 8 | 0x10; // ALT1 = FLEXSPI2_A_DATA1
	IOMUXC_SW_MUX_CTL_PAD_GPIO_EMC_28 = 8 | 0x10; // ALT1 = FLEXSPI2_A_DATA2
	IOMUXC_SW_MUX_CTL_PAD_GPIO_EMC_29 = 8 | 0x10; // ALT1 = FLEXSPI2_A_DATA3

	IOMUXC_FLEXSPI2_IPP_IND_DQS_FA_SELECT_INPUT = 1; // GPIO_EMC_23 for Mode: ALT8, pg 986
600013a8:	2001      	movs	r0, #1
}

FLASHMEM void configure_external_ram()
{
	// initialize pins
	IOMUXC_SW_PAD_CTL_PAD_GPIO_EMC_22 = 0x1B0F9; // 100K pullup, strong drive, max speed, hyst
600013aa:	49b8      	ldr	r1, [pc, #736]	; (6000168c <configure_external_ram+0x2ec>)
		 | FLEXSPI_MCR0_IPGRANTWAIT_MASK | FLEXSPI_MCR0_SCKFREERUNEN
		 | FLEXSPI_MCR0_COMBINATIONEN | FLEXSPI_MCR0_DOZEEN
		 | FLEXSPI_MCR0_HSEN | FLEXSPI_MCR0_ATDFEN | FLEXSPI_MCR0_ARDFEN
		 | FLEXSPI_MCR0_RXCLKSRC_MASK | FLEXSPI_MCR0_SWRESET))
		| FLEXSPI_MCR0_AHBGRANTWAIT(0xFF) | FLEXSPI_MCR0_IPGRANTWAIT(0xFF)
		| FLEXSPI_MCR0_RXCLKSRC(1) | FLEXSPI_MCR0_MDIS;
600013ac:	f248 7e0c 	movw	lr, #34572	; 0x870c

FLASHMEM void configure_external_ram()
{
	// initialize pins
	IOMUXC_SW_PAD_CTL_PAD_GPIO_EMC_22 = 0x1B0F9; // 100K pullup, strong drive, max speed, hyst
	IOMUXC_SW_PAD_CTL_PAD_GPIO_EMC_23 = 0x110F9; // keeper, strong drive, max speed, hyst
600013b0:	4db7      	ldr	r5, [pc, #732]	; (60001690 <configure_external_ram+0x2f0>)
		 | FLEXSPI_MCR0_COMBINATIONEN | FLEXSPI_MCR0_DOZEEN
		 | FLEXSPI_MCR0_HSEN | FLEXSPI_MCR0_ATDFEN | FLEXSPI_MCR0_ARDFEN
		 | FLEXSPI_MCR0_RXCLKSRC_MASK | FLEXSPI_MCR0_SWRESET))
		| FLEXSPI_MCR0_AHBGRANTWAIT(0xFF) | FLEXSPI_MCR0_IPGRANTWAIT(0xFF)
		| FLEXSPI_MCR0_RXCLKSRC(1) | FLEXSPI_MCR0_MDIS;
	FLEXSPI2_MCR1 = FLEXSPI_MCR1_SEQWAIT(0xFFFF) | FLEXSPI_MCR1_AHBBUSWAIT(0xFFFF);
600013b2:	f04f 37ff 	mov.w	r7, #4294967295
{
	// initialize pins
	IOMUXC_SW_PAD_CTL_PAD_GPIO_EMC_22 = 0x1B0F9; // 100K pullup, strong drive, max speed, hyst
	IOMUXC_SW_PAD_CTL_PAD_GPIO_EMC_23 = 0x110F9; // keeper, strong drive, max speed, hyst
	IOMUXC_SW_PAD_CTL_PAD_GPIO_EMC_24 = 0x1B0F9; // 100K pullup, strong drive, max speed, hyst
	IOMUXC_SW_PAD_CTL_PAD_GPIO_EMC_25 = 0x100F9; // strong drive, max speed, hyst
600013b6:	4cb7      	ldr	r4, [pc, #732]	; (60001694 <configure_external_ram+0x2f4>)
}

FLASHMEM void configure_external_ram()
{
	// initialize pins
	IOMUXC_SW_PAD_CTL_PAD_GPIO_EMC_22 = 0x1B0F9; // 100K pullup, strong drive, max speed, hyst
600013b8:	f8c3 125c 	str.w	r1, [r3, #604]	; 0x25c
	IOMUXC_SW_PAD_CTL_PAD_GPIO_EMC_23 = 0x110F9; // keeper, strong drive, max speed, hyst
600013bc:	f8c3 5260 	str.w	r5, [r3, #608]	; 0x260
	// RX watermark = one 64 bit line
	FLEXSPI2_IPRXFCR = (FLEXSPI_IPRXFCR & 0xFFFFFFC0) | FLEXSPI_IPRXFCR_CLRIPRXF;
	// TX watermark = one 64 bit line
	FLEXSPI2_IPTXFCR = (FLEXSPI_IPTXFCR & 0xFFFFFFC0) | FLEXSPI_IPTXFCR_CLRIPTXF;

	FLEXSPI2_INTEN = 0;
600013c0:	2500      	movs	r5, #0
FLASHMEM void configure_external_ram()
{
	// initialize pins
	IOMUXC_SW_PAD_CTL_PAD_GPIO_EMC_22 = 0x1B0F9; // 100K pullup, strong drive, max speed, hyst
	IOMUXC_SW_PAD_CTL_PAD_GPIO_EMC_23 = 0x110F9; // keeper, strong drive, max speed, hyst
	IOMUXC_SW_PAD_CTL_PAD_GPIO_EMC_24 = 0x1B0F9; // 100K pullup, strong drive, max speed, hyst
600013c2:	f8c3 1264 	str.w	r1, [r3, #612]	; 0x264
	IOMUXC_SW_PAD_CTL_PAD_GPIO_EMC_25 = 0x100F9; // strong drive, max speed, hyst
600013c6:	f8c3 4268 	str.w	r4, [r3, #616]	; 0x268
	FLEXSPI2_IPRXFCR = (FLEXSPI_IPRXFCR & 0xFFFFFFC0) | FLEXSPI_IPRXFCR_CLRIPRXF;
	// TX watermark = one 64 bit line
	FLEXSPI2_IPTXFCR = (FLEXSPI_IPTXFCR & 0xFFFFFFC0) | FLEXSPI_IPTXFCR_CLRIPTXF;

	FLEXSPI2_INTEN = 0;
	FLEXSPI2_FLSHA1CR0 = 0x2000; // 8 MByte
600013ca:	f44f 5400 	mov.w	r4, #8192	; 0x2000
	// initialize pins
	IOMUXC_SW_PAD_CTL_PAD_GPIO_EMC_22 = 0x1B0F9; // 100K pullup, strong drive, max speed, hyst
	IOMUXC_SW_PAD_CTL_PAD_GPIO_EMC_23 = 0x110F9; // keeper, strong drive, max speed, hyst
	IOMUXC_SW_PAD_CTL_PAD_GPIO_EMC_24 = 0x1B0F9; // 100K pullup, strong drive, max speed, hyst
	IOMUXC_SW_PAD_CTL_PAD_GPIO_EMC_25 = 0x100F9; // strong drive, max speed, hyst
	IOMUXC_SW_PAD_CTL_PAD_GPIO_EMC_26 = 0x170F9; // 47K pullup, strong drive, max speed, hyst
600013ce:	f8c3 626c 	str.w	r6, [r3, #620]	; 0x26c
	IOMUXC_SW_MUX_CTL_PAD_GPIO_EMC_26 = 8 | 0x10; // ALT1 = FLEXSPI2_A_DATA0
	IOMUXC_SW_MUX_CTL_PAD_GPIO_EMC_27 = 8 | 0x10; // ALT1 = FLEXSPI2_A_DATA1
	IOMUXC_SW_MUX_CTL_PAD_GPIO_EMC_28 = 8 | 0x10; // ALT1 = FLEXSPI2_A_DATA2
	IOMUXC_SW_MUX_CTL_PAD_GPIO_EMC_29 = 8 | 0x10; // ALT1 = FLEXSPI2_A_DATA3

	IOMUXC_FLEXSPI2_IPP_IND_DQS_FA_SELECT_INPUT = 1; // GPIO_EMC_23 for Mode: ALT8, pg 986
600013d2:	49b1      	ldr	r1, [pc, #708]	; (60001698 <configure_external_ram+0x2f8>)
	IOMUXC_SW_PAD_CTL_PAD_GPIO_EMC_22 = 0x1B0F9; // 100K pullup, strong drive, max speed, hyst
	IOMUXC_SW_PAD_CTL_PAD_GPIO_EMC_23 = 0x110F9; // keeper, strong drive, max speed, hyst
	IOMUXC_SW_PAD_CTL_PAD_GPIO_EMC_24 = 0x1B0F9; // 100K pullup, strong drive, max speed, hyst
	IOMUXC_SW_PAD_CTL_PAD_GPIO_EMC_25 = 0x100F9; // strong drive, max speed, hyst
	IOMUXC_SW_PAD_CTL_PAD_GPIO_EMC_26 = 0x170F9; // 47K pullup, strong drive, max speed, hyst
	IOMUXC_SW_PAD_CTL_PAD_GPIO_EMC_27 = 0x170F9; // 47K pullup, strong drive, max speed, hyst
600013d4:	f8c3 6270 	str.w	r6, [r3, #624]	; 0x270
	IOMUXC_SW_PAD_CTL_PAD_GPIO_EMC_28 = 0x170F9; // 47K pullup, strong drive, max speed, hyst
600013d8:	f8c3 6274 	str.w	r6, [r3, #628]	; 0x274
	IOMUXC_SW_PAD_CTL_PAD_GPIO_EMC_29 = 0x170F9; // 47K pullup, strong drive, max speed, hyst
600013dc:	f8c3 6278 	str.w	r6, [r3, #632]	; 0x278
	IOMUXC_FLEXSPI2_IPP_IND_IO_FA_BIT2_SELECT_INPUT = 1; // GPIO_EMC_28 for Mode: ALT8
	IOMUXC_FLEXSPI2_IPP_IND_IO_FA_BIT3_SELECT_INPUT = 1; // GPIO_EMC_29 for Mode: ALT8
	IOMUXC_FLEXSPI2_IPP_IND_SCK_FA_SELECT_INPUT = 1; // GPIO_EMC_25 for Mode: ALT8

	// turn on clock  (TODO: increase clock speed later, slow & cautious for first release)
	CCM_CBCMR = (CCM_CBCMR & ~(CCM_CBCMR_FLEXSPI2_PODF_MASK | CCM_CBCMR_FLEXSPI2_CLK_SEL_MASK))
600013e0:	4eae      	ldr	r6, [pc, #696]	; (6000169c <configure_external_ram+0x2fc>)
	IOMUXC_SW_PAD_CTL_PAD_GPIO_EMC_26 = 0x170F9; // 47K pullup, strong drive, max speed, hyst
	IOMUXC_SW_PAD_CTL_PAD_GPIO_EMC_27 = 0x170F9; // 47K pullup, strong drive, max speed, hyst
	IOMUXC_SW_PAD_CTL_PAD_GPIO_EMC_28 = 0x170F9; // 47K pullup, strong drive, max speed, hyst
	IOMUXC_SW_PAD_CTL_PAD_GPIO_EMC_29 = 0x170F9; // 47K pullup, strong drive, max speed, hyst

	IOMUXC_SW_MUX_CTL_PAD_GPIO_EMC_22 = 8 | 0x10; // ALT1 = FLEXSPI2_A_SS1_B (Flash)
600013e2:	66da      	str	r2, [r3, #108]	; 0x6c
	IOMUXC_SW_MUX_CTL_PAD_GPIO_EMC_23 = 8 | 0x10; // ALT1 = FLEXSPI2_A_DQS
600013e4:	671a      	str	r2, [r3, #112]	; 0x70
	IOMUXC_SW_MUX_CTL_PAD_GPIO_EMC_24 = 8 | 0x10; // ALT1 = FLEXSPI2_A_SS0_B (RAM)
600013e6:	675a      	str	r2, [r3, #116]	; 0x74
	IOMUXC_SW_MUX_CTL_PAD_GPIO_EMC_25 = 8 | 0x10; // ALT1 = FLEXSPI2_A_SCLK
600013e8:	679a      	str	r2, [r3, #120]	; 0x78
	IOMUXC_SW_MUX_CTL_PAD_GPIO_EMC_26 = 8 | 0x10; // ALT1 = FLEXSPI2_A_DATA0
600013ea:	67da      	str	r2, [r3, #124]	; 0x7c
	IOMUXC_SW_MUX_CTL_PAD_GPIO_EMC_27 = 8 | 0x10; // ALT1 = FLEXSPI2_A_DATA1
600013ec:	f8c3 2080 	str.w	r2, [r3, #128]	; 0x80
	IOMUXC_SW_MUX_CTL_PAD_GPIO_EMC_28 = 8 | 0x10; // ALT1 = FLEXSPI2_A_DATA2
600013f0:	f8c3 2084 	str.w	r2, [r3, #132]	; 0x84
	IOMUXC_SW_MUX_CTL_PAD_GPIO_EMC_29 = 8 | 0x10; // ALT1 = FLEXSPI2_A_DATA3
600013f4:	f8c3 2088 	str.w	r2, [r3, #136]	; 0x88

	FLEXSPI2_INTEN = 0;
	FLEXSPI2_FLSHA1CR0 = 0x2000; // 8 MByte
	FLEXSPI2_FLSHA1CR1 = FLEXSPI_FLSHCR1_CSINTERVAL(2)
		| FLEXSPI_FLSHCR1_TCSH(3) | FLEXSPI_FLSHCR1_TCSS(3);
	FLEXSPI2_FLSHA1CR2 = FLEXSPI_FLSHCR2_AWRSEQID(6) | FLEXSPI_FLSHCR2_AWRSEQNUM(0)
600013f8:	f240 6205 	movw	r2, #1541	; 0x605
	IOMUXC_SW_MUX_CTL_PAD_GPIO_EMC_26 = 8 | 0x10; // ALT1 = FLEXSPI2_A_DATA0
	IOMUXC_SW_MUX_CTL_PAD_GPIO_EMC_27 = 8 | 0x10; // ALT1 = FLEXSPI2_A_DATA1
	IOMUXC_SW_MUX_CTL_PAD_GPIO_EMC_28 = 8 | 0x10; // ALT1 = FLEXSPI2_A_DATA2
	IOMUXC_SW_MUX_CTL_PAD_GPIO_EMC_29 = 8 | 0x10; // ALT1 = FLEXSPI2_A_DATA3

	IOMUXC_FLEXSPI2_IPP_IND_DQS_FA_SELECT_INPUT = 1; // GPIO_EMC_23 for Mode: ALT8, pg 986
600013fc:	f8c1 032c 	str.w	r0, [r1, #812]	; 0x32c
	IOMUXC_FLEXSPI2_IPP_IND_IO_FA_BIT0_SELECT_INPUT = 1; // GPIO_EMC_26 for Mode: ALT8
60001400:	f8c1 0330 	str.w	r0, [r1, #816]	; 0x330
	IOMUXC_FLEXSPI2_IPP_IND_IO_FA_BIT1_SELECT_INPUT = 1; // GPIO_EMC_27 for Mode: ALT8
60001404:	f8c1 0334 	str.w	r0, [r1, #820]	; 0x334
	IOMUXC_FLEXSPI2_IPP_IND_IO_FA_BIT2_SELECT_INPUT = 1; // GPIO_EMC_28 for Mode: ALT8
60001408:	f8c1 0338 	str.w	r0, [r1, #824]	; 0x338
	IOMUXC_FLEXSPI2_IPP_IND_IO_FA_BIT3_SELECT_INPUT = 1; // GPIO_EMC_29 for Mode: ALT8
6000140c:	f8c1 033c 	str.w	r0, [r1, #828]	; 0x33c
	IOMUXC_FLEXSPI2_IPP_IND_SCK_FA_SELECT_INPUT = 1; // GPIO_EMC_25 for Mode: ALT8
60001410:	f8c1 0350 	str.w	r0, [r1, #848]	; 0x350
	FLEXSPI2_MCR0 &= ~FLEXSPI_MCR0_MDIS;

	FLEXSPI2_LUTKEY = FLEXSPI_LUTKEY_VALUE;
	FLEXSPI2_LUTCR = FLEXSPI_LUTCR_UNLOCK;
	volatile uint32_t *luttable = &FLEXSPI2_LUT0;
	for (int i=0; i < 64; i++) luttable[i] = 0;
60001414:	4629      	mov	r1, r5
	IOMUXC_FLEXSPI2_IPP_IND_IO_FA_BIT2_SELECT_INPUT = 1; // GPIO_EMC_28 for Mode: ALT8
	IOMUXC_FLEXSPI2_IPP_IND_IO_FA_BIT3_SELECT_INPUT = 1; // GPIO_EMC_29 for Mode: ALT8
	IOMUXC_FLEXSPI2_IPP_IND_SCK_FA_SELECT_INPUT = 1; // GPIO_EMC_25 for Mode: ALT8

	// turn on clock  (TODO: increase clock speed later, slow & cautious for first release)
	CCM_CBCMR = (CCM_CBCMR & ~(CCM_CBCMR_FLEXSPI2_PODF_MASK | CCM_CBCMR_FLEXSPI2_CLK_SEL_MASK))
60001416:	69b3      	ldr	r3, [r6, #24]
		| CCM_CBCMR_FLEXSPI2_PODF(5) | CCM_CBCMR_FLEXSPI2_CLK_SEL(3); // 88 MHz
60001418:	48a1      	ldr	r0, [pc, #644]	; (600016a0 <configure_external_ram+0x300>)
6000141a:	4018      	ands	r0, r3
6000141c:	4ba1      	ldr	r3, [pc, #644]	; (600016a4 <configure_external_ram+0x304>)
6000141e:	4303      	orrs	r3, r0
	CCM_CCGR7 |= CCM_CCGR7_FLEXSPI2(CCM_CCGR_ON);

	FLEXSPI2_MCR0 |= FLEXSPI_MCR0_MDIS;
60001420:	48a1      	ldr	r0, [pc, #644]	; (600016a8 <configure_external_ram+0x308>)
	IOMUXC_FLEXSPI2_IPP_IND_IO_FA_BIT2_SELECT_INPUT = 1; // GPIO_EMC_28 for Mode: ALT8
	IOMUXC_FLEXSPI2_IPP_IND_IO_FA_BIT3_SELECT_INPUT = 1; // GPIO_EMC_29 for Mode: ALT8
	IOMUXC_FLEXSPI2_IPP_IND_SCK_FA_SELECT_INPUT = 1; // GPIO_EMC_25 for Mode: ALT8

	// turn on clock  (TODO: increase clock speed later, slow & cautious for first release)
	CCM_CBCMR = (CCM_CBCMR & ~(CCM_CBCMR_FLEXSPI2_PODF_MASK | CCM_CBCMR_FLEXSPI2_CLK_SEL_MASK))
60001422:	61b3      	str	r3, [r6, #24]
		| CCM_CBCMR_FLEXSPI2_PODF(5) | CCM_CBCMR_FLEXSPI2_CLK_SEL(3); // 88 MHz
	CCM_CCGR7 |= CCM_CCGR7_FLEXSPI2(CCM_CCGR_ON);
60001424:	f8d6 3084 	ldr.w	r3, [r6, #132]	; 0x84
60001428:	f043 030c 	orr.w	r3, r3, #12
6000142c:	f8c6 3084 	str.w	r3, [r6, #132]	; 0x84
		| FLEXSPI_FLSHCR2_ARDSEQID(5) | FLEXSPI_FLSHCR2_ARDSEQNUM(0);

	FLEXSPI2_MCR0 &= ~FLEXSPI_MCR0_MDIS;

	FLEXSPI2_LUTKEY = FLEXSPI_LUTKEY_VALUE;
	FLEXSPI2_LUTCR = FLEXSPI_LUTCR_UNLOCK;
60001430:	2602      	movs	r6, #2
	// turn on clock  (TODO: increase clock speed later, slow & cautious for first release)
	CCM_CBCMR = (CCM_CBCMR & ~(CCM_CBCMR_FLEXSPI2_PODF_MASK | CCM_CBCMR_FLEXSPI2_CLK_SEL_MASK))
		| CCM_CBCMR_FLEXSPI2_PODF(5) | CCM_CBCMR_FLEXSPI2_CLK_SEL(3); // 88 MHz
	CCM_CCGR7 |= CCM_CCGR7_FLEXSPI2(CCM_CCGR_ON);

	FLEXSPI2_MCR0 |= FLEXSPI_MCR0_MDIS;
60001432:	6803      	ldr	r3, [r0, #0]
60001434:	4333      	orrs	r3, r6
60001436:	6003      	str	r3, [r0, #0]
	FLEXSPI2_MCR0 = (FLEXSPI2_MCR0 & ~(FLEXSPI_MCR0_AHBGRANTWAIT_MASK
60001438:	6803      	ldr	r3, [r0, #0]
		 | FLEXSPI_MCR0_IPGRANTWAIT_MASK | FLEXSPI_MCR0_SCKFREERUNEN
		 | FLEXSPI_MCR0_COMBINATIONEN | FLEXSPI_MCR0_DOZEEN
		 | FLEXSPI_MCR0_HSEN | FLEXSPI_MCR0_ATDFEN | FLEXSPI_MCR0_ARDFEN
		 | FLEXSPI_MCR0_RXCLKSRC_MASK | FLEXSPI_MCR0_SWRESET))
		| FLEXSPI_MCR0_AHBGRANTWAIT(0xFF) | FLEXSPI_MCR0_IPGRANTWAIT(0xFF)
		| FLEXSPI_MCR0_RXCLKSRC(1) | FLEXSPI_MCR0_MDIS;
6000143a:	ea03 0e0e 	and.w	lr, r3, lr
6000143e:	4b9b      	ldr	r3, [pc, #620]	; (600016ac <configure_external_ram+0x30c>)
60001440:	ea4e 0303 	orr.w	r3, lr, r3
	FLEXSPI2_MCR1 = FLEXSPI_MCR1_SEQWAIT(0xFFFF) | FLEXSPI_MCR1_AHBBUSWAIT(0xFFFF);
	FLEXSPI2_MCR2 = (FLEXSPI_MCR2 & ~(FLEXSPI_MCR2_RESUMEWAIT_MASK
60001444:	f8df e29c 	ldr.w	lr, [pc, #668]	; 600016e4 <configure_external_ram+0x344>
	CCM_CBCMR = (CCM_CBCMR & ~(CCM_CBCMR_FLEXSPI2_PODF_MASK | CCM_CBCMR_FLEXSPI2_CLK_SEL_MASK))
		| CCM_CBCMR_FLEXSPI2_PODF(5) | CCM_CBCMR_FLEXSPI2_CLK_SEL(3); // 88 MHz
	CCM_CCGR7 |= CCM_CCGR7_FLEXSPI2(CCM_CCGR_ON);

	FLEXSPI2_MCR0 |= FLEXSPI_MCR0_MDIS;
	FLEXSPI2_MCR0 = (FLEXSPI2_MCR0 & ~(FLEXSPI_MCR0_AHBGRANTWAIT_MASK
60001448:	6003      	str	r3, [r0, #0]
		| FLEXSPI_MCR0_RXCLKSRC(1) | FLEXSPI_MCR0_MDIS;
	FLEXSPI2_MCR1 = FLEXSPI_MCR1_SEQWAIT(0xFFFF) | FLEXSPI_MCR1_AHBBUSWAIT(0xFFFF);
	FLEXSPI2_MCR2 = (FLEXSPI_MCR2 & ~(FLEXSPI_MCR2_RESUMEWAIT_MASK
		 | FLEXSPI_MCR2_SCKBDIFFOPT | FLEXSPI_MCR2_SAMEDEVICEEN
		 | FLEXSPI_MCR2_CLRLEARNPHASE | FLEXSPI_MCR2_CLRAHBBUFOPT))
		| FLEXSPI_MCR2_RESUMEWAIT(0x20) /*| FLEXSPI_MCR2_SAMEDEVICEEN*/;
6000144a:	4b99      	ldr	r3, [pc, #612]	; (600016b0 <configure_external_ram+0x310>)
		 | FLEXSPI_MCR0_COMBINATIONEN | FLEXSPI_MCR0_DOZEEN
		 | FLEXSPI_MCR0_HSEN | FLEXSPI_MCR0_ATDFEN | FLEXSPI_MCR0_ARDFEN
		 | FLEXSPI_MCR0_RXCLKSRC_MASK | FLEXSPI_MCR0_SWRESET))
		| FLEXSPI_MCR0_AHBGRANTWAIT(0xFF) | FLEXSPI_MCR0_IPGRANTWAIT(0xFF)
		| FLEXSPI_MCR0_RXCLKSRC(1) | FLEXSPI_MCR0_MDIS;
	FLEXSPI2_MCR1 = FLEXSPI_MCR1_SEQWAIT(0xFFFF) | FLEXSPI_MCR1_AHBBUSWAIT(0xFFFF);
6000144c:	6047      	str	r7, [r0, #4]
	FLEXSPI2_MCR2 = (FLEXSPI_MCR2 & ~(FLEXSPI_MCR2_RESUMEWAIT_MASK
6000144e:	f8de 7008 	ldr.w	r7, [lr, #8]
		 | FLEXSPI_MCR2_SCKBDIFFOPT | FLEXSPI_MCR2_SAMEDEVICEEN
		 | FLEXSPI_MCR2_CLRLEARNPHASE | FLEXSPI_MCR2_CLRAHBBUFOPT))
		| FLEXSPI_MCR2_RESUMEWAIT(0x20) /*| FLEXSPI_MCR2_SAMEDEVICEEN*/;
60001452:	403b      	ands	r3, r7
	FLEXSPI2_AHBCR = FLEXSPI2_AHBCR & ~(FLEXSPI_AHBCR_READADDROPT | FLEXSPI_AHBCR_PREFETCHEN
		| FLEXSPI_AHBCR_BUFFERABLEEN | FLEXSPI_AHBCR_CACHABLEEN);
	uint32_t mask = (FLEXSPI_AHBRXBUFCR0_PREFETCHEN | FLEXSPI_AHBRXBUFCR0_PRIORITY_MASK
		| FLEXSPI_AHBRXBUFCR0_MSTRID_MASK | FLEXSPI_AHBRXBUFCR0_BUFSZ_MASK);
	FLEXSPI2_AHBRXBUF0CR0 = (FLEXSPI2_AHBRXBUF0CR0 & ~mask)
		| FLEXSPI_AHBRXBUFCR0_PREFETCHEN | FLEXSPI_AHBRXBUFCR0_BUFSZ(64);
60001454:	4f97      	ldr	r7, [pc, #604]	; (600016b4 <configure_external_ram+0x314>)
		| FLEXSPI_MCR0_RXCLKSRC(1) | FLEXSPI_MCR0_MDIS;
	FLEXSPI2_MCR1 = FLEXSPI_MCR1_SEQWAIT(0xFFFF) | FLEXSPI_MCR1_AHBBUSWAIT(0xFFFF);
	FLEXSPI2_MCR2 = (FLEXSPI_MCR2 & ~(FLEXSPI_MCR2_RESUMEWAIT_MASK
		 | FLEXSPI_MCR2_SCKBDIFFOPT | FLEXSPI_MCR2_SAMEDEVICEEN
		 | FLEXSPI_MCR2_CLRLEARNPHASE | FLEXSPI_MCR2_CLRAHBBUFOPT))
		| FLEXSPI_MCR2_RESUMEWAIT(0x20) /*| FLEXSPI_MCR2_SAMEDEVICEEN*/;
60001456:	f043 5300 	orr.w	r3, r3, #536870912	; 0x20000000
		 | FLEXSPI_MCR0_HSEN | FLEXSPI_MCR0_ATDFEN | FLEXSPI_MCR0_ARDFEN
		 | FLEXSPI_MCR0_RXCLKSRC_MASK | FLEXSPI_MCR0_SWRESET))
		| FLEXSPI_MCR0_AHBGRANTWAIT(0xFF) | FLEXSPI_MCR0_IPGRANTWAIT(0xFF)
		| FLEXSPI_MCR0_RXCLKSRC(1) | FLEXSPI_MCR0_MDIS;
	FLEXSPI2_MCR1 = FLEXSPI_MCR1_SEQWAIT(0xFFFF) | FLEXSPI_MCR1_AHBBUSWAIT(0xFFFF);
	FLEXSPI2_MCR2 = (FLEXSPI_MCR2 & ~(FLEXSPI_MCR2_RESUMEWAIT_MASK
6000145a:	6083      	str	r3, [r0, #8]
		 | FLEXSPI_MCR2_SCKBDIFFOPT | FLEXSPI_MCR2_SAMEDEVICEEN
		 | FLEXSPI_MCR2_CLRLEARNPHASE | FLEXSPI_MCR2_CLRAHBBUFOPT))
		| FLEXSPI_MCR2_RESUMEWAIT(0x20) /*| FLEXSPI_MCR2_SAMEDEVICEEN*/;

	FLEXSPI2_AHBCR = FLEXSPI2_AHBCR & ~(FLEXSPI_AHBCR_READADDROPT | FLEXSPI_AHBCR_PREFETCHEN
6000145c:	68c3      	ldr	r3, [r0, #12]
6000145e:	f023 0378 	bic.w	r3, r3, #120	; 0x78
60001462:	60c3      	str	r3, [r0, #12]
		| FLEXSPI_AHBCR_BUFFERABLEEN | FLEXSPI_AHBCR_CACHABLEEN);
	uint32_t mask = (FLEXSPI_AHBRXBUFCR0_PREFETCHEN | FLEXSPI_AHBRXBUFCR0_PRIORITY_MASK
		| FLEXSPI_AHBRXBUFCR0_MSTRID_MASK | FLEXSPI_AHBRXBUFCR0_BUFSZ_MASK);
	FLEXSPI2_AHBRXBUF0CR0 = (FLEXSPI2_AHBRXBUF0CR0 & ~mask)
60001464:	6a03      	ldr	r3, [r0, #32]
		| FLEXSPI_AHBRXBUFCR0_PREFETCHEN | FLEXSPI_AHBRXBUFCR0_BUFSZ(64);
60001466:	401f      	ands	r7, r3
60001468:	4b93      	ldr	r3, [pc, #588]	; (600016b8 <configure_external_ram+0x318>)
6000146a:	433b      	orrs	r3, r7
	FLEXSPI2_AHBRXBUF1CR0 = (FLEXSPI2_AHBRXBUF0CR0 & ~mask)
		| FLEXSPI_AHBRXBUFCR0_PREFETCHEN | FLEXSPI_AHBRXBUFCR0_BUFSZ(64);
6000146c:	4f91      	ldr	r7, [pc, #580]	; (600016b4 <configure_external_ram+0x314>)

	FLEXSPI2_AHBCR = FLEXSPI2_AHBCR & ~(FLEXSPI_AHBCR_READADDROPT | FLEXSPI_AHBCR_PREFETCHEN
		| FLEXSPI_AHBCR_BUFFERABLEEN | FLEXSPI_AHBCR_CACHABLEEN);
	uint32_t mask = (FLEXSPI_AHBRXBUFCR0_PREFETCHEN | FLEXSPI_AHBRXBUFCR0_PRIORITY_MASK
		| FLEXSPI_AHBRXBUFCR0_MSTRID_MASK | FLEXSPI_AHBRXBUFCR0_BUFSZ_MASK);
	FLEXSPI2_AHBRXBUF0CR0 = (FLEXSPI2_AHBRXBUF0CR0 & ~mask)
6000146e:	6203      	str	r3, [r0, #32]
		| FLEXSPI_AHBRXBUFCR0_PREFETCHEN | FLEXSPI_AHBRXBUFCR0_BUFSZ(64);
	FLEXSPI2_AHBRXBUF1CR0 = (FLEXSPI2_AHBRXBUF0CR0 & ~mask)
60001470:	6a03      	ldr	r3, [r0, #32]
		| FLEXSPI_AHBRXBUFCR0_PREFETCHEN | FLEXSPI_AHBRXBUFCR0_BUFSZ(64);
60001472:	401f      	ands	r7, r3
60001474:	4b90      	ldr	r3, [pc, #576]	; (600016b8 <configure_external_ram+0x318>)
60001476:	433b      	orrs	r3, r7
	FLEXSPI2_AHBRXBUF2CR0 = mask;
60001478:	4f90      	ldr	r7, [pc, #576]	; (600016bc <configure_external_ram+0x31c>)
		| FLEXSPI_AHBCR_BUFFERABLEEN | FLEXSPI_AHBCR_CACHABLEEN);
	uint32_t mask = (FLEXSPI_AHBRXBUFCR0_PREFETCHEN | FLEXSPI_AHBRXBUFCR0_PRIORITY_MASK
		| FLEXSPI_AHBRXBUFCR0_MSTRID_MASK | FLEXSPI_AHBRXBUFCR0_BUFSZ_MASK);
	FLEXSPI2_AHBRXBUF0CR0 = (FLEXSPI2_AHBRXBUF0CR0 & ~mask)
		| FLEXSPI_AHBRXBUFCR0_PREFETCHEN | FLEXSPI_AHBRXBUFCR0_BUFSZ(64);
	FLEXSPI2_AHBRXBUF1CR0 = (FLEXSPI2_AHBRXBUF0CR0 & ~mask)
6000147a:	6243      	str	r3, [r0, #36]	; 0x24
		| FLEXSPI_AHBRXBUFCR0_PREFETCHEN | FLEXSPI_AHBRXBUFCR0_BUFSZ(64);
	FLEXSPI2_AHBRXBUF2CR0 = mask;
6000147c:	6287      	str	r7, [r0, #40]	; 0x28
	FLEXSPI2_AHBRXBUF3CR0 = mask;
6000147e:	62c7      	str	r7, [r0, #44]	; 0x2c

	// RX watermark = one 64 bit line
	FLEXSPI2_IPRXFCR = (FLEXSPI_IPRXFCR & 0xFFFFFFC0) | FLEXSPI_IPRXFCR_CLRIPRXF;
60001480:	f8de 30b8 	ldr.w	r3, [lr, #184]	; 0xb8
	// TX watermark = one 64 bit line
	FLEXSPI2_IPTXFCR = (FLEXSPI_IPTXFCR & 0xFFFFFFC0) | FLEXSPI_IPTXFCR_CLRIPTXF;

	FLEXSPI2_INTEN = 0;
	FLEXSPI2_FLSHA1CR0 = 0x2000; // 8 MByte
	FLEXSPI2_FLSHA1CR1 = FLEXSPI_FLSHCR1_CSINTERVAL(2)
60001484:	4f8e      	ldr	r7, [pc, #568]	; (600016c0 <configure_external_ram+0x320>)
		| FLEXSPI_AHBRXBUFCR0_PREFETCHEN | FLEXSPI_AHBRXBUFCR0_BUFSZ(64);
	FLEXSPI2_AHBRXBUF2CR0 = mask;
	FLEXSPI2_AHBRXBUF3CR0 = mask;

	// RX watermark = one 64 bit line
	FLEXSPI2_IPRXFCR = (FLEXSPI_IPRXFCR & 0xFFFFFFC0) | FLEXSPI_IPRXFCR_CLRIPRXF;
60001486:	f023 033f 	bic.w	r3, r3, #63	; 0x3f
6000148a:	f043 0301 	orr.w	r3, r3, #1
6000148e:	f8c0 30b8 	str.w	r3, [r0, #184]	; 0xb8
	// TX watermark = one 64 bit line
	FLEXSPI2_IPTXFCR = (FLEXSPI_IPTXFCR & 0xFFFFFFC0) | FLEXSPI_IPTXFCR_CLRIPTXF;
60001492:	f8de 30bc 	ldr.w	r3, [lr, #188]	; 0xbc
	FLEXSPI2_FLSHA2CR2 = FLEXSPI_FLSHCR2_AWRSEQID(6) | FLEXSPI_FLSHCR2_AWRSEQNUM(0)
		| FLEXSPI_FLSHCR2_ARDSEQID(5) | FLEXSPI_FLSHCR2_ARDSEQNUM(0);

	FLEXSPI2_MCR0 &= ~FLEXSPI_MCR0_MDIS;

	FLEXSPI2_LUTKEY = FLEXSPI_LUTKEY_VALUE;
60001496:	f8df e234 	ldr.w	lr, [pc, #564]	; 600016cc <configure_external_ram+0x32c>
	FLEXSPI2_AHBRXBUF3CR0 = mask;

	// RX watermark = one 64 bit line
	FLEXSPI2_IPRXFCR = (FLEXSPI_IPRXFCR & 0xFFFFFFC0) | FLEXSPI_IPRXFCR_CLRIPRXF;
	// TX watermark = one 64 bit line
	FLEXSPI2_IPTXFCR = (FLEXSPI_IPTXFCR & 0xFFFFFFC0) | FLEXSPI_IPTXFCR_CLRIPTXF;
6000149a:	f023 033f 	bic.w	r3, r3, #63	; 0x3f
6000149e:	f043 0301 	orr.w	r3, r3, #1
600014a2:	f8c0 30bc 	str.w	r3, [r0, #188]	; 0xbc

	FLEXSPI2_INTEN = 0;
600014a6:	6105      	str	r5, [r0, #16]
	FLEXSPI2_FLSHA1CR0 = 0x2000; // 8 MByte
600014a8:	6604      	str	r4, [r0, #96]	; 0x60
	FLEXSPI2_FLSHA1CR1 = FLEXSPI_FLSHCR1_CSINTERVAL(2)
600014aa:	6707      	str	r7, [r0, #112]	; 0x70
		| FLEXSPI_FLSHCR1_TCSH(3) | FLEXSPI_FLSHCR1_TCSS(3);
	FLEXSPI2_FLSHA1CR2 = FLEXSPI_FLSHCR2_AWRSEQID(6) | FLEXSPI_FLSHCR2_AWRSEQNUM(0)
600014ac:	f8c0 2080 	str.w	r2, [r0, #128]	; 0x80
		| FLEXSPI_FLSHCR2_ARDSEQID(5) | FLEXSPI_FLSHCR2_ARDSEQNUM(0);

	FLEXSPI2_FLSHA2CR0 = 0x2000; // 8 MByte
600014b0:	6644      	str	r4, [r0, #100]	; 0x64
	FLEXSPI2_FLSHA2CR1 = FLEXSPI_FLSHCR1_CSINTERVAL(2)
600014b2:	6747      	str	r7, [r0, #116]	; 0x74
		| FLEXSPI_FLSHCR1_TCSH(3) | FLEXSPI_FLSHCR1_TCSS(3);
	FLEXSPI2_FLSHA2CR2 = FLEXSPI_FLSHCR2_AWRSEQID(6) | FLEXSPI_FLSHCR2_AWRSEQNUM(0)
600014b4:	f8c0 2084 	str.w	r2, [r0, #132]	; 0x84
		| FLEXSPI_FLSHCR2_ARDSEQID(5) | FLEXSPI_FLSHCR2_ARDSEQNUM(0);

	FLEXSPI2_MCR0 &= ~FLEXSPI_MCR0_MDIS;
600014b8:	6804      	ldr	r4, [r0, #0]

	FLEXSPI2_LUTKEY = FLEXSPI_LUTKEY_VALUE;
	FLEXSPI2_LUTCR = FLEXSPI_LUTCR_UNLOCK;
600014ba:	4b82      	ldr	r3, [pc, #520]	; (600016c4 <configure_external_ram+0x324>)
	FLEXSPI2_FLSHA2CR1 = FLEXSPI_FLSHCR1_CSINTERVAL(2)
		| FLEXSPI_FLSHCR1_TCSH(3) | FLEXSPI_FLSHCR1_TCSS(3);
	FLEXSPI2_FLSHA2CR2 = FLEXSPI_FLSHCR2_AWRSEQID(6) | FLEXSPI_FLSHCR2_AWRSEQNUM(0)
		| FLEXSPI_FLSHCR2_ARDSEQID(5) | FLEXSPI_FLSHCR2_ARDSEQNUM(0);

	FLEXSPI2_MCR0 &= ~FLEXSPI_MCR0_MDIS;
600014bc:	f024 0402 	bic.w	r4, r4, #2

	FLEXSPI2_LUTKEY = FLEXSPI_LUTKEY_VALUE;
	FLEXSPI2_LUTCR = FLEXSPI_LUTCR_UNLOCK;
	volatile uint32_t *luttable = &FLEXSPI2_LUT0;
	for (int i=0; i < 64; i++) luttable[i] = 0;
600014c0:	4a81      	ldr	r2, [pc, #516]	; (600016c8 <configure_external_ram+0x328>)
	FLEXSPI2_FLSHA2CR1 = FLEXSPI_FLSHCR1_CSINTERVAL(2)
		| FLEXSPI_FLSHCR1_TCSH(3) | FLEXSPI_FLSHCR1_TCSS(3);
	FLEXSPI2_FLSHA2CR2 = FLEXSPI_FLSHCR2_AWRSEQID(6) | FLEXSPI_FLSHCR2_AWRSEQNUM(0)
		| FLEXSPI_FLSHCR2_ARDSEQID(5) | FLEXSPI_FLSHCR2_ARDSEQNUM(0);

	FLEXSPI2_MCR0 &= ~FLEXSPI_MCR0_MDIS;
600014c2:	6004      	str	r4, [r0, #0]

	FLEXSPI2_LUTKEY = FLEXSPI_LUTKEY_VALUE;
600014c4:	f8c0 e018 	str.w	lr, [r0, #24]
	FLEXSPI2_LUTCR = FLEXSPI_LUTCR_UNLOCK;
600014c8:	61c6      	str	r6, [r0, #28]
	volatile uint32_t *luttable = &FLEXSPI2_LUT0;
	for (int i=0; i < 64; i++) luttable[i] = 0;
600014ca:	f843 1b04 	str.w	r1, [r3], #4
600014ce:	4293      	cmp	r3, r2
600014d0:	d1fb      	bne.n	600014ca <configure_external_ram+0x12a>
	FLEXSPI2_MCR0 |= FLEXSPI_MCR0_SWRESET;
600014d2:	4b75      	ldr	r3, [pc, #468]	; (600016a8 <configure_external_ram+0x308>)
600014d4:	681a      	ldr	r2, [r3, #0]
	while (FLEXSPI2_MCR0 & FLEXSPI_MCR0_SWRESET) ; // wait
600014d6:	4619      	mov	r1, r3

	FLEXSPI2_LUTKEY = FLEXSPI_LUTKEY_VALUE;
	FLEXSPI2_LUTCR = FLEXSPI_LUTCR_UNLOCK;
	volatile uint32_t *luttable = &FLEXSPI2_LUT0;
	for (int i=0; i < 64; i++) luttable[i] = 0;
	FLEXSPI2_MCR0 |= FLEXSPI_MCR0_SWRESET;
600014d8:	f042 0201 	orr.w	r2, r2, #1
600014dc:	601a      	str	r2, [r3, #0]
	while (FLEXSPI2_MCR0 & FLEXSPI_MCR0_SWRESET) ; // wait
600014de:	680b      	ldr	r3, [r1, #0]
600014e0:	4a71      	ldr	r2, [pc, #452]	; (600016a8 <configure_external_ram+0x308>)
600014e2:	f013 0301 	ands.w	r3, r3, #1
600014e6:	d1fa      	bne.n	600014de <configure_external_ram+0x13e>

	FLEXSPI2_LUTKEY = FLEXSPI_LUTKEY_VALUE;
600014e8:	4e78      	ldr	r6, [pc, #480]	; (600016cc <configure_external_ram+0x32c>)
	FLEXSPI2_LUTCR = FLEXSPI_LUTCR_UNLOCK;
600014ea:	2502      	movs	r5, #2

	// cmd index 0 = exit QPI mode
	FLEXSPI2_LUT0 = LUT0(CMD_SDR, PINS4, 0xF5);
600014ec:	f240 64f5 	movw	r4, #1781	; 0x6f5
	// cmd index 1 = reset enable
	FLEXSPI2_LUT4 = LUT0(CMD_SDR, PINS1, 0x66);
600014f0:	f240 4066 	movw	r0, #1126	; 0x466
	// cmd index 2 = reset
	FLEXSPI2_LUT8 = LUT0(CMD_SDR, PINS1, 0x99);
600014f4:	f240 4199 	movw	r1, #1177	; 0x499
	// cmd index 3 = read ID bytes
	FLEXSPI2_LUT12 = LUT0(CMD_SDR, PINS1, 0x9F) | LUT1(DUMMY_SDR, PINS1, 24);
600014f8:	4f75      	ldr	r7, [pc, #468]	; (600016d0 <configure_external_ram+0x330>)
	volatile uint32_t *luttable = &FLEXSPI2_LUT0;
	for (int i=0; i < 64; i++) luttable[i] = 0;
	FLEXSPI2_MCR0 |= FLEXSPI_MCR0_SWRESET;
	while (FLEXSPI2_MCR0 & FLEXSPI_MCR0_SWRESET) ; // wait

	FLEXSPI2_LUTKEY = FLEXSPI_LUTKEY_VALUE;
600014fa:	6196      	str	r6, [r2, #24]
	FLEXSPI2_LUT4 = LUT0(CMD_SDR, PINS1, 0x66);
	// cmd index 2 = reset
	FLEXSPI2_LUT8 = LUT0(CMD_SDR, PINS1, 0x99);
	// cmd index 3 = read ID bytes
	FLEXSPI2_LUT12 = LUT0(CMD_SDR, PINS1, 0x9F) | LUT1(DUMMY_SDR, PINS1, 24);
	FLEXSPI2_LUT13 = LUT0(READ_SDR, PINS1, 1);
600014fc:	f242 4601 	movw	r6, #9217	; 0x2401
	for (int i=0; i < 64; i++) luttable[i] = 0;
	FLEXSPI2_MCR0 |= FLEXSPI_MCR0_SWRESET;
	while (FLEXSPI2_MCR0 & FLEXSPI_MCR0_SWRESET) ; // wait

	FLEXSPI2_LUTKEY = FLEXSPI_LUTKEY_VALUE;
	FLEXSPI2_LUTCR = FLEXSPI_LUTCR_UNLOCK;
60001500:	61d5      	str	r5, [r2, #28]
	FLEXSPI2_LUT8 = LUT0(CMD_SDR, PINS1, 0x99);
	// cmd index 3 = read ID bytes
	FLEXSPI2_LUT12 = LUT0(CMD_SDR, PINS1, 0x9F) | LUT1(DUMMY_SDR, PINS1, 24);
	FLEXSPI2_LUT13 = LUT0(READ_SDR, PINS1, 1);
	// cmd index 4 = enter QPI mode
	FLEXSPI2_LUT16 = LUT0(CMD_SDR, PINS1, 0x35);
60001502:	f240 4535 	movw	r5, #1077	; 0x435

	FLEXSPI2_LUTKEY = FLEXSPI_LUTKEY_VALUE;
	FLEXSPI2_LUTCR = FLEXSPI_LUTCR_UNLOCK;

	// cmd index 0 = exit QPI mode
	FLEXSPI2_LUT0 = LUT0(CMD_SDR, PINS4, 0xF5);
60001506:	f8c2 4200 	str.w	r4, [r2, #512]	; 0x200
	// cmd index 5 = read QPI
	FLEXSPI2_LUT20 = LUT0(CMD_SDR, PINS4, 0xEB) | LUT1(ADDR_SDR, PINS4, 24);
	FLEXSPI2_LUT21 = LUT0(DUMMY_SDR, PINS4, 6) | LUT1(READ_SDR, PINS4, 1);
	// cmd index 6 = write QPI
	FLEXSPI2_LUT24 = LUT0(CMD_SDR, PINS4, 0x38) | LUT1(ADDR_SDR, PINS4, 24);
	FLEXSPI2_LUT25 = LUT0(WRITE_SDR, PINS4, 1);
6000150a:	f242 2401 	movw	r4, #8705	; 0x2201
	FLEXSPI2_LUTCR = FLEXSPI_LUTCR_UNLOCK;

	// cmd index 0 = exit QPI mode
	FLEXSPI2_LUT0 = LUT0(CMD_SDR, PINS4, 0xF5);
	// cmd index 1 = reset enable
	FLEXSPI2_LUT4 = LUT0(CMD_SDR, PINS1, 0x66);
6000150e:	f8c2 0210 	str.w	r0, [r2, #528]	; 0x210

FLASHMEM static void flexspi2_command(uint32_t index, uint32_t addr)
{
	FLEXSPI2_IPCR0 = addr;
	FLEXSPI2_IPCR1 = FLEXSPI_IPCR1_ISEQID(index);
	FLEXSPI2_IPCMD = FLEXSPI_IPCMD_TRG;
60001512:	2001      	movs	r0, #1
	// cmd index 0 = exit QPI mode
	FLEXSPI2_LUT0 = LUT0(CMD_SDR, PINS4, 0xF5);
	// cmd index 1 = reset enable
	FLEXSPI2_LUT4 = LUT0(CMD_SDR, PINS1, 0x66);
	// cmd index 2 = reset
	FLEXSPI2_LUT8 = LUT0(CMD_SDR, PINS1, 0x99);
60001514:	f8c2 1220 	str.w	r1, [r2, #544]	; 0x220
FLASHMEM static void flexspi2_command(uint32_t index, uint32_t addr)
{
	FLEXSPI2_IPCR0 = addr;
	FLEXSPI2_IPCR1 = FLEXSPI_IPCR1_ISEQID(index);
	FLEXSPI2_IPCMD = FLEXSPI_IPCMD_TRG;
	while (!(FLEXSPI2_INTR & FLEXSPI_INTR_IPCMDDONE)); // wait
60001518:	4611      	mov	r1, r2
	// cmd index 1 = reset enable
	FLEXSPI2_LUT4 = LUT0(CMD_SDR, PINS1, 0x66);
	// cmd index 2 = reset
	FLEXSPI2_LUT8 = LUT0(CMD_SDR, PINS1, 0x99);
	// cmd index 3 = read ID bytes
	FLEXSPI2_LUT12 = LUT0(CMD_SDR, PINS1, 0x9F) | LUT1(DUMMY_SDR, PINS1, 24);
6000151a:	f8c2 7230 	str.w	r7, [r2, #560]	; 0x230
	FLEXSPI2_LUT13 = LUT0(READ_SDR, PINS1, 1);
	// cmd index 4 = enter QPI mode
	FLEXSPI2_LUT16 = LUT0(CMD_SDR, PINS1, 0x35);
	// cmd index 5 = read QPI
	FLEXSPI2_LUT20 = LUT0(CMD_SDR, PINS4, 0xEB) | LUT1(ADDR_SDR, PINS4, 24);
6000151e:	f107 475a 	add.w	r7, r7, #3657433088	; 0xda000000
	FLEXSPI2_LUT4 = LUT0(CMD_SDR, PINS1, 0x66);
	// cmd index 2 = reset
	FLEXSPI2_LUT8 = LUT0(CMD_SDR, PINS1, 0x99);
	// cmd index 3 = read ID bytes
	FLEXSPI2_LUT12 = LUT0(CMD_SDR, PINS1, 0x9F) | LUT1(DUMMY_SDR, PINS1, 24);
	FLEXSPI2_LUT13 = LUT0(READ_SDR, PINS1, 1);
60001522:	f8c2 6234 	str.w	r6, [r2, #564]	; 0x234
	// cmd index 4 = enter QPI mode
	FLEXSPI2_LUT16 = LUT0(CMD_SDR, PINS1, 0x35);
	// cmd index 5 = read QPI
	FLEXSPI2_LUT20 = LUT0(CMD_SDR, PINS4, 0xEB) | LUT1(ADDR_SDR, PINS4, 24);
60001526:	f507 7713 	add.w	r7, r7, #588	; 0x24c
	FLEXSPI2_LUT8 = LUT0(CMD_SDR, PINS1, 0x99);
	// cmd index 3 = read ID bytes
	FLEXSPI2_LUT12 = LUT0(CMD_SDR, PINS1, 0x9F) | LUT1(DUMMY_SDR, PINS1, 24);
	FLEXSPI2_LUT13 = LUT0(READ_SDR, PINS1, 1);
	// cmd index 4 = enter QPI mode
	FLEXSPI2_LUT16 = LUT0(CMD_SDR, PINS1, 0x35);
6000152a:	f8c2 5240 	str.w	r5, [r2, #576]	; 0x240
	// cmd index 5 = read QPI
	FLEXSPI2_LUT20 = LUT0(CMD_SDR, PINS4, 0xEB) | LUT1(ADDR_SDR, PINS4, 24);
	FLEXSPI2_LUT21 = LUT0(DUMMY_SDR, PINS4, 6) | LUT1(READ_SDR, PINS4, 1);
6000152e:	4e69      	ldr	r6, [pc, #420]	; (600016d4 <configure_external_ram+0x334>)
	// cmd index 6 = write QPI
	FLEXSPI2_LUT24 = LUT0(CMD_SDR, PINS4, 0x38) | LUT1(ADDR_SDR, PINS4, 24);
60001530:	4d69      	ldr	r5, [pc, #420]	; (600016d8 <configure_external_ram+0x338>)
	FLEXSPI2_LUT12 = LUT0(CMD_SDR, PINS1, 0x9F) | LUT1(DUMMY_SDR, PINS1, 24);
	FLEXSPI2_LUT13 = LUT0(READ_SDR, PINS1, 1);
	// cmd index 4 = enter QPI mode
	FLEXSPI2_LUT16 = LUT0(CMD_SDR, PINS1, 0x35);
	// cmd index 5 = read QPI
	FLEXSPI2_LUT20 = LUT0(CMD_SDR, PINS4, 0xEB) | LUT1(ADDR_SDR, PINS4, 24);
60001532:	f8c2 7250 	str.w	r7, [r2, #592]	; 0x250
	FLEXSPI2_LUT21 = LUT0(DUMMY_SDR, PINS4, 6) | LUT1(READ_SDR, PINS4, 1);
60001536:	f8c2 6254 	str.w	r6, [r2, #596]	; 0x254
	// cmd index 6 = write QPI
	FLEXSPI2_LUT24 = LUT0(CMD_SDR, PINS4, 0x38) | LUT1(ADDR_SDR, PINS4, 24);
6000153a:	f8c2 5260 	str.w	r5, [r2, #608]	; 0x260
	FLEXSPI2_LUT25 = LUT0(WRITE_SDR, PINS4, 1);
6000153e:	f8c2 4264 	str.w	r4, [r2, #612]	; 0x264
#define PINS1           FLEXSPI_LUT_NUM_PADS_1
#define PINS4           FLEXSPI_LUT_NUM_PADS_4

FLASHMEM static void flexspi2_command(uint32_t index, uint32_t addr)
{
	FLEXSPI2_IPCR0 = addr;
60001542:	f8c2 30a0 	str.w	r3, [r2, #160]	; 0xa0
	FLEXSPI2_IPCR1 = FLEXSPI_IPCR1_ISEQID(index);
60001546:	f8c2 30a4 	str.w	r3, [r2, #164]	; 0xa4
	FLEXSPI2_IPCMD = FLEXSPI_IPCMD_TRG;
6000154a:	f8c2 00b0 	str.w	r0, [r2, #176]	; 0xb0
	while (!(FLEXSPI2_INTR & FLEXSPI_INTR_IPCMDDONE)); // wait
6000154e:	694b      	ldr	r3, [r1, #20]
60001550:	4a55      	ldr	r2, [pc, #340]	; (600016a8 <configure_external_ram+0x308>)
60001552:	07dd      	lsls	r5, r3, #31
60001554:	d5fb      	bpl.n	6000154e <configure_external_ram+0x1ae>
	FLEXSPI2_INTR = FLEXSPI_INTR_IPCMDDONE;
60001556:	2301      	movs	r3, #1
#define PINS1           FLEXSPI_LUT_NUM_PADS_1
#define PINS4           FLEXSPI_LUT_NUM_PADS_4

FLASHMEM static void flexspi2_command(uint32_t index, uint32_t addr)
{
	FLEXSPI2_IPCR0 = addr;
60001558:	2400      	movs	r4, #0
	FLEXSPI2_IPCR1 = FLEXSPI_IPCR1_ISEQID(index);
6000155a:	f44f 3080 	mov.w	r0, #65536	; 0x10000
	FLEXSPI2_IPCMD = FLEXSPI_IPCMD_TRG;
	while (!(FLEXSPI2_INTR & FLEXSPI_INTR_IPCMDDONE)); // wait
6000155e:	4611      	mov	r1, r2
	FLEXSPI2_INTR = FLEXSPI_INTR_IPCMDDONE;
60001560:	6153      	str	r3, [r2, #20]
#define PINS1           FLEXSPI_LUT_NUM_PADS_1
#define PINS4           FLEXSPI_LUT_NUM_PADS_4

FLASHMEM static void flexspi2_command(uint32_t index, uint32_t addr)
{
	FLEXSPI2_IPCR0 = addr;
60001562:	f8c2 40a0 	str.w	r4, [r2, #160]	; 0xa0
	FLEXSPI2_IPCR1 = FLEXSPI_IPCR1_ISEQID(index);
60001566:	f8c2 00a4 	str.w	r0, [r2, #164]	; 0xa4
	FLEXSPI2_IPCMD = FLEXSPI_IPCMD_TRG;
6000156a:	f8c2 30b0 	str.w	r3, [r2, #176]	; 0xb0
	while (!(FLEXSPI2_INTR & FLEXSPI_INTR_IPCMDDONE)); // wait
6000156e:	694b      	ldr	r3, [r1, #20]
60001570:	4a4d      	ldr	r2, [pc, #308]	; (600016a8 <configure_external_ram+0x308>)
60001572:	07dc      	lsls	r4, r3, #31
60001574:	d5fb      	bpl.n	6000156e <configure_external_ram+0x1ce>
	FLEXSPI2_INTR = FLEXSPI_INTR_IPCMDDONE;
60001576:	2301      	movs	r3, #1
#define PINS1           FLEXSPI_LUT_NUM_PADS_1
#define PINS4           FLEXSPI_LUT_NUM_PADS_4

FLASHMEM static void flexspi2_command(uint32_t index, uint32_t addr)
{
	FLEXSPI2_IPCR0 = addr;
60001578:	2400      	movs	r4, #0
	FLEXSPI2_IPCR1 = FLEXSPI_IPCR1_ISEQID(index);
6000157a:	f44f 3000 	mov.w	r0, #131072	; 0x20000
	FLEXSPI2_IPCMD = FLEXSPI_IPCMD_TRG;
	while (!(FLEXSPI2_INTR & FLEXSPI_INTR_IPCMDDONE)); // wait
6000157e:	4611      	mov	r1, r2
	FLEXSPI2_INTR = FLEXSPI_INTR_IPCMDDONE;
60001580:	6153      	str	r3, [r2, #20]
#define PINS1           FLEXSPI_LUT_NUM_PADS_1
#define PINS4           FLEXSPI_LUT_NUM_PADS_4

FLASHMEM static void flexspi2_command(uint32_t index, uint32_t addr)
{
	FLEXSPI2_IPCR0 = addr;
60001582:	f8c2 40a0 	str.w	r4, [r2, #160]	; 0xa0
	FLEXSPI2_IPCR1 = FLEXSPI_IPCR1_ISEQID(index);
60001586:	f8c2 00a4 	str.w	r0, [r2, #164]	; 0xa4
	FLEXSPI2_IPCMD = FLEXSPI_IPCMD_TRG;
6000158a:	f8c2 30b0 	str.w	r3, [r2, #176]	; 0xb0
	while (!(FLEXSPI2_INTR & FLEXSPI_INTR_IPCMDDONE)); // wait
6000158e:	694b      	ldr	r3, [r1, #20]
60001590:	4a45      	ldr	r2, [pc, #276]	; (600016a8 <configure_external_ram+0x308>)
60001592:	07d8      	lsls	r0, r3, #31
60001594:	d5fb      	bpl.n	6000158e <configure_external_ram+0x1ee>
	FLEXSPI2_INTR = FLEXSPI_INTR_IPCMDDONE;
60001596:	2301      	movs	r3, #1
}

FLASHMEM static uint32_t flexspi2_psram_id(uint32_t addr)
{
	FLEXSPI2_IPCR0 = addr;
60001598:	2400      	movs	r4, #0
	FLEXSPI2_IPCR1 = FLEXSPI_IPCR1_ISEQID(3) | FLEXSPI_IPCR1_IDATSZ(4);
6000159a:	4850      	ldr	r0, [pc, #320]	; (600016dc <configure_external_ram+0x33c>)
	FLEXSPI2_IPCMD = FLEXSPI_IPCMD_TRG;
	while (!(FLEXSPI2_INTR & FLEXSPI_INTR_IPCMDDONE)); // wait
6000159c:	4611      	mov	r1, r2
{
	FLEXSPI2_IPCR0 = addr;
	FLEXSPI2_IPCR1 = FLEXSPI_IPCR1_ISEQID(index);
	FLEXSPI2_IPCMD = FLEXSPI_IPCMD_TRG;
	while (!(FLEXSPI2_INTR & FLEXSPI_INTR_IPCMDDONE)); // wait
	FLEXSPI2_INTR = FLEXSPI_INTR_IPCMDDONE;
6000159e:	6153      	str	r3, [r2, #20]
}

FLASHMEM static uint32_t flexspi2_psram_id(uint32_t addr)
{
	FLEXSPI2_IPCR0 = addr;
600015a0:	f8c2 40a0 	str.w	r4, [r2, #160]	; 0xa0
	FLEXSPI2_IPCR1 = FLEXSPI_IPCR1_ISEQID(3) | FLEXSPI_IPCR1_IDATSZ(4);
600015a4:	f8c2 00a4 	str.w	r0, [r2, #164]	; 0xa4
	FLEXSPI2_IPCMD = FLEXSPI_IPCMD_TRG;
600015a8:	f8c2 30b0 	str.w	r3, [r2, #176]	; 0xb0
	while (!(FLEXSPI2_INTR & FLEXSPI_INTR_IPCMDDONE)); // wait
600015ac:	694b      	ldr	r3, [r1, #20]
600015ae:	4a3e      	ldr	r2, [pc, #248]	; (600016a8 <configure_external_ram+0x308>)
600015b0:	07db      	lsls	r3, r3, #31
600015b2:	d5fb      	bpl.n	600015ac <configure_external_ram+0x20c>
	uint32_t id = FLEXSPI2_RFDR0;
600015b4:	f8d2 3100 	ldr.w	r3, [r2, #256]	; 0x100

	// look for the first PSRAM chip
	flexspi2_command(0, 0); // exit quad mode
	flexspi2_command(1, 0); // reset enable
	flexspi2_command(2, 0); // reset (is this really necessary?)
	if (flexspi2_psram_id(0) == 0x5D0D) {
600015b8:	f645 510d 	movw	r1, #23821	; 0x5d0d
	FLEXSPI2_IPCR0 = addr;
	FLEXSPI2_IPCR1 = FLEXSPI_IPCR1_ISEQID(3) | FLEXSPI_IPCR1_IDATSZ(4);
	FLEXSPI2_IPCMD = FLEXSPI_IPCMD_TRG;
	while (!(FLEXSPI2_INTR & FLEXSPI_INTR_IPCMDDONE)); // wait
	uint32_t id = FLEXSPI2_RFDR0;
	FLEXSPI2_INTR = FLEXSPI_INTR_IPCMDDONE | FLEXSPI_INTR_IPRXWA;
600015bc:	2021      	movs	r0, #33	; 0x21

	// look for the first PSRAM chip
	flexspi2_command(0, 0); // exit quad mode
	flexspi2_command(1, 0); // reset enable
	flexspi2_command(2, 0); // reset (is this really necessary?)
	if (flexspi2_psram_id(0) == 0x5D0D) {
600015be:	b29b      	uxth	r3, r3
	FLEXSPI2_IPCR0 = addr;
	FLEXSPI2_IPCR1 = FLEXSPI_IPCR1_ISEQID(3) | FLEXSPI_IPCR1_IDATSZ(4);
	FLEXSPI2_IPCMD = FLEXSPI_IPCMD_TRG;
	while (!(FLEXSPI2_INTR & FLEXSPI_INTR_IPCMDDONE)); // wait
	uint32_t id = FLEXSPI2_RFDR0;
	FLEXSPI2_INTR = FLEXSPI_INTR_IPCMDDONE | FLEXSPI_INTR_IPRXWA;
600015c0:	6150      	str	r0, [r2, #20]

	// look for the first PSRAM chip
	flexspi2_command(0, 0); // exit quad mode
	flexspi2_command(1, 0); // reset enable
	flexspi2_command(2, 0); // reset (is this really necessary?)
	if (flexspi2_psram_id(0) == 0x5D0D) {
600015c2:	428b      	cmp	r3, r1
600015c4:	d000      	beq.n	600015c8 <configure_external_ram+0x228>
600015c6:	bdf0      	pop	{r4, r5, r6, r7, pc}
#define PINS1           FLEXSPI_LUT_NUM_PADS_1
#define PINS4           FLEXSPI_LUT_NUM_PADS_4

FLASHMEM static void flexspi2_command(uint32_t index, uint32_t addr)
{
	FLEXSPI2_IPCR0 = addr;
600015c8:	2400      	movs	r4, #0
	FLEXSPI2_IPCR1 = FLEXSPI_IPCR1_ISEQID(index);
600015ca:	f44f 2080 	mov.w	r0, #262144	; 0x40000
	FLEXSPI2_IPCMD = FLEXSPI_IPCMD_TRG;
600015ce:	2301      	movs	r3, #1
	while (!(FLEXSPI2_INTR & FLEXSPI_INTR_IPCMDDONE)); // wait
600015d0:	4611      	mov	r1, r2
#define PINS1           FLEXSPI_LUT_NUM_PADS_1
#define PINS4           FLEXSPI_LUT_NUM_PADS_4

FLASHMEM static void flexspi2_command(uint32_t index, uint32_t addr)
{
	FLEXSPI2_IPCR0 = addr;
600015d2:	f8c2 40a0 	str.w	r4, [r2, #160]	; 0xa0
	FLEXSPI2_IPCR1 = FLEXSPI_IPCR1_ISEQID(index);
600015d6:	f8c2 00a4 	str.w	r0, [r2, #164]	; 0xa4
	FLEXSPI2_IPCMD = FLEXSPI_IPCMD_TRG;
600015da:	f8c2 30b0 	str.w	r3, [r2, #176]	; 0xb0
	while (!(FLEXSPI2_INTR & FLEXSPI_INTR_IPCMDDONE)); // wait
600015de:	694b      	ldr	r3, [r1, #20]
600015e0:	4a31      	ldr	r2, [pc, #196]	; (600016a8 <configure_external_ram+0x308>)
600015e2:	07df      	lsls	r7, r3, #31
600015e4:	d5fb      	bpl.n	600015de <configure_external_ram+0x23e>
	FLEXSPI2_INTR = FLEXSPI_INTR_IPCMDDONE;
600015e6:	2301      	movs	r3, #1
#define PINS1           FLEXSPI_LUT_NUM_PADS_1
#define PINS4           FLEXSPI_LUT_NUM_PADS_4

FLASHMEM static void flexspi2_command(uint32_t index, uint32_t addr)
{
	FLEXSPI2_IPCR0 = addr;
600015e8:	f44f 0400 	mov.w	r4, #8388608	; 0x800000
	FLEXSPI2_IPCR1 = FLEXSPI_IPCR1_ISEQID(index);
600015ec:	2000      	movs	r0, #0
	FLEXSPI2_IPCMD = FLEXSPI_IPCMD_TRG;
	while (!(FLEXSPI2_INTR & FLEXSPI_INTR_IPCMDDONE)); // wait
600015ee:	4611      	mov	r1, r2
	FLEXSPI2_INTR = FLEXSPI_INTR_IPCMDDONE;
600015f0:	6153      	str	r3, [r2, #20]
#define PINS1           FLEXSPI_LUT_NUM_PADS_1
#define PINS4           FLEXSPI_LUT_NUM_PADS_4

FLASHMEM static void flexspi2_command(uint32_t index, uint32_t addr)
{
	FLEXSPI2_IPCR0 = addr;
600015f2:	f8c2 40a0 	str.w	r4, [r2, #160]	; 0xa0
	FLEXSPI2_IPCR1 = FLEXSPI_IPCR1_ISEQID(index);
600015f6:	f8c2 00a4 	str.w	r0, [r2, #164]	; 0xa4
	FLEXSPI2_IPCMD = FLEXSPI_IPCMD_TRG;
600015fa:	f8c2 30b0 	str.w	r3, [r2, #176]	; 0xb0
	while (!(FLEXSPI2_INTR & FLEXSPI_INTR_IPCMDDONE)); // wait
600015fe:	694b      	ldr	r3, [r1, #20]
60001600:	4a29      	ldr	r2, [pc, #164]	; (600016a8 <configure_external_ram+0x308>)
60001602:	07de      	lsls	r6, r3, #31
60001604:	d5fb      	bpl.n	600015fe <configure_external_ram+0x25e>
	FLEXSPI2_INTR = FLEXSPI_INTR_IPCMDDONE;
60001606:	2301      	movs	r3, #1
#define PINS1           FLEXSPI_LUT_NUM_PADS_1
#define PINS4           FLEXSPI_LUT_NUM_PADS_4

FLASHMEM static void flexspi2_command(uint32_t index, uint32_t addr)
{
	FLEXSPI2_IPCR0 = addr;
60001608:	f44f 0400 	mov.w	r4, #8388608	; 0x800000
	FLEXSPI2_IPCR1 = FLEXSPI_IPCR1_ISEQID(index);
6000160c:	f44f 3080 	mov.w	r0, #65536	; 0x10000
	FLEXSPI2_IPCMD = FLEXSPI_IPCMD_TRG;
	while (!(FLEXSPI2_INTR & FLEXSPI_INTR_IPCMDDONE)); // wait
60001610:	4611      	mov	r1, r2
	FLEXSPI2_INTR = FLEXSPI_INTR_IPCMDDONE;
60001612:	6153      	str	r3, [r2, #20]
#define PINS1           FLEXSPI_LUT_NUM_PADS_1
#define PINS4           FLEXSPI_LUT_NUM_PADS_4

FLASHMEM static void flexspi2_command(uint32_t index, uint32_t addr)
{
	FLEXSPI2_IPCR0 = addr;
60001614:	f8c2 40a0 	str.w	r4, [r2, #160]	; 0xa0
	FLEXSPI2_IPCR1 = FLEXSPI_IPCR1_ISEQID(index);
60001618:	f8c2 00a4 	str.w	r0, [r2, #164]	; 0xa4
	FLEXSPI2_IPCMD = FLEXSPI_IPCMD_TRG;
6000161c:	f8c2 30b0 	str.w	r3, [r2, #176]	; 0xb0
	while (!(FLEXSPI2_INTR & FLEXSPI_INTR_IPCMDDONE)); // wait
60001620:	694b      	ldr	r3, [r1, #20]
60001622:	4a21      	ldr	r2, [pc, #132]	; (600016a8 <configure_external_ram+0x308>)
60001624:	07dd      	lsls	r5, r3, #31
60001626:	d5fb      	bpl.n	60001620 <configure_external_ram+0x280>
	FLEXSPI2_INTR = FLEXSPI_INTR_IPCMDDONE;
60001628:	2301      	movs	r3, #1
#define PINS1           FLEXSPI_LUT_NUM_PADS_1
#define PINS4           FLEXSPI_LUT_NUM_PADS_4

FLASHMEM static void flexspi2_command(uint32_t index, uint32_t addr)
{
	FLEXSPI2_IPCR0 = addr;
6000162a:	f44f 0400 	mov.w	r4, #8388608	; 0x800000
	FLEXSPI2_IPCR1 = FLEXSPI_IPCR1_ISEQID(index);
6000162e:	f44f 3000 	mov.w	r0, #131072	; 0x20000
	FLEXSPI2_IPCMD = FLEXSPI_IPCMD_TRG;
	while (!(FLEXSPI2_INTR & FLEXSPI_INTR_IPCMDDONE)); // wait
60001632:	4611      	mov	r1, r2
	FLEXSPI2_INTR = FLEXSPI_INTR_IPCMDDONE;
60001634:	6153      	str	r3, [r2, #20]
#define PINS1           FLEXSPI_LUT_NUM_PADS_1
#define PINS4           FLEXSPI_LUT_NUM_PADS_4

FLASHMEM static void flexspi2_command(uint32_t index, uint32_t addr)
{
	FLEXSPI2_IPCR0 = addr;
60001636:	f8c2 40a0 	str.w	r4, [r2, #160]	; 0xa0
	FLEXSPI2_IPCR1 = FLEXSPI_IPCR1_ISEQID(index);
6000163a:	f8c2 00a4 	str.w	r0, [r2, #164]	; 0xa4
	FLEXSPI2_IPCMD = FLEXSPI_IPCMD_TRG;
6000163e:	f8c2 30b0 	str.w	r3, [r2, #176]	; 0xb0
	while (!(FLEXSPI2_INTR & FLEXSPI_INTR_IPCMDDONE)); // wait
60001642:	694b      	ldr	r3, [r1, #20]
60001644:	4a18      	ldr	r2, [pc, #96]	; (600016a8 <configure_external_ram+0x308>)
60001646:	07dc      	lsls	r4, r3, #31
60001648:	d5fb      	bpl.n	60001642 <configure_external_ram+0x2a2>
	FLEXSPI2_INTR = FLEXSPI_INTR_IPCMDDONE;
6000164a:	2301      	movs	r3, #1
}

FLASHMEM static uint32_t flexspi2_psram_id(uint32_t addr)
{
	FLEXSPI2_IPCR0 = addr;
6000164c:	f44f 0400 	mov.w	r4, #8388608	; 0x800000
	FLEXSPI2_IPCR1 = FLEXSPI_IPCR1_ISEQID(3) | FLEXSPI_IPCR1_IDATSZ(4);
60001650:	4822      	ldr	r0, [pc, #136]	; (600016dc <configure_external_ram+0x33c>)
	FLEXSPI2_IPCMD = FLEXSPI_IPCMD_TRG;
	while (!(FLEXSPI2_INTR & FLEXSPI_INTR_IPCMDDONE)); // wait
60001652:	4611      	mov	r1, r2
{
	FLEXSPI2_IPCR0 = addr;
	FLEXSPI2_IPCR1 = FLEXSPI_IPCR1_ISEQID(index);
	FLEXSPI2_IPCMD = FLEXSPI_IPCMD_TRG;
	while (!(FLEXSPI2_INTR & FLEXSPI_INTR_IPCMDDONE)); // wait
	FLEXSPI2_INTR = FLEXSPI_INTR_IPCMDDONE;
60001654:	6153      	str	r3, [r2, #20]
}

FLASHMEM static uint32_t flexspi2_psram_id(uint32_t addr)
{
	FLEXSPI2_IPCR0 = addr;
60001656:	f8c2 40a0 	str.w	r4, [r2, #160]	; 0xa0
	FLEXSPI2_IPCR1 = FLEXSPI_IPCR1_ISEQID(3) | FLEXSPI_IPCR1_IDATSZ(4);
6000165a:	f8c2 00a4 	str.w	r0, [r2, #164]	; 0xa4
	FLEXSPI2_IPCMD = FLEXSPI_IPCMD_TRG;
6000165e:	f8c2 30b0 	str.w	r3, [r2, #176]	; 0xb0
	while (!(FLEXSPI2_INTR & FLEXSPI_INTR_IPCMDDONE)); // wait
60001662:	694b      	ldr	r3, [r1, #20]
60001664:	4a10      	ldr	r2, [pc, #64]	; (600016a8 <configure_external_ram+0x308>)
60001666:	07d8      	lsls	r0, r3, #31
60001668:	d5fb      	bpl.n	60001662 <configure_external_ram+0x2c2>
	uint32_t id = FLEXSPI2_RFDR0;
6000166a:	f8d2 3100 	ldr.w	r3, [r2, #256]	; 0x100
		// first PSRAM chip is present, look for a second PSRAM chip
		flexspi2_command(4, 0);
		flexspi2_command(0, 0x800000); // exit quad mode
		flexspi2_command(1, 0x800000); // reset enable
		flexspi2_command(2, 0x800000); // reset (is this really necessary?)
		if (flexspi2_psram_id(0x800000) == 0x5D0D) {
6000166e:	f645 510d 	movw	r1, #23821	; 0x5d0d
	FLEXSPI2_IPCR0 = addr;
	FLEXSPI2_IPCR1 = FLEXSPI_IPCR1_ISEQID(3) | FLEXSPI_IPCR1_IDATSZ(4);
	FLEXSPI2_IPCMD = FLEXSPI_IPCMD_TRG;
	while (!(FLEXSPI2_INTR & FLEXSPI_INTR_IPCMDDONE)); // wait
	uint32_t id = FLEXSPI2_RFDR0;
	FLEXSPI2_INTR = FLEXSPI_INTR_IPCMDDONE | FLEXSPI_INTR_IPRXWA;
60001672:	2021      	movs	r0, #33	; 0x21
		// first PSRAM chip is present, look for a second PSRAM chip
		flexspi2_command(4, 0);
		flexspi2_command(0, 0x800000); // exit quad mode
		flexspi2_command(1, 0x800000); // reset enable
		flexspi2_command(2, 0x800000); // reset (is this really necessary?)
		if (flexspi2_psram_id(0x800000) == 0x5D0D) {
60001674:	b29b      	uxth	r3, r3
	FLEXSPI2_IPCR0 = addr;
	FLEXSPI2_IPCR1 = FLEXSPI_IPCR1_ISEQID(3) | FLEXSPI_IPCR1_IDATSZ(4);
	FLEXSPI2_IPCMD = FLEXSPI_IPCMD_TRG;
	while (!(FLEXSPI2_INTR & FLEXSPI_INTR_IPCMDDONE)); // wait
	uint32_t id = FLEXSPI2_RFDR0;
	FLEXSPI2_INTR = FLEXSPI_INTR_IPCMDDONE | FLEXSPI_INTR_IPRXWA;
60001676:	6150      	str	r0, [r2, #20]
		// first PSRAM chip is present, look for a second PSRAM chip
		flexspi2_command(4, 0);
		flexspi2_command(0, 0x800000); // exit quad mode
		flexspi2_command(1, 0x800000); // reset enable
		flexspi2_command(2, 0x800000); // reset (is this really necessary?)
		if (flexspi2_psram_id(0x800000) == 0x5D0D) {
60001678:	428b      	cmp	r3, r1
6000167a:	d035      	beq.n	600016e8 <configure_external_ram+0x348>
			flexspi2_command(4, 0x800000);
			// Two PSRAM chips are present, 16 MByte
			external_psram_size = 16;
		} else {
			// One PSRAM chip is present, 8 MByte
			external_psram_size = 8;
6000167c:	4b18      	ldr	r3, [pc, #96]	; (600016e0 <configure_external_ram+0x340>)
6000167e:	2208      	movs	r2, #8
60001680:	701a      	strb	r2, [r3, #0]
60001682:	bdf0      	pop	{r4, r5, r6, r7, pc}
60001684:	401f8000 	.word	0x401f8000
60001688:	000170f9 	.word	0x000170f9
6000168c:	0001b0f9 	.word	0x0001b0f9
60001690:	000110f9 	.word	0x000110f9
60001694:	000100f9 	.word	0x000100f9
60001698:	401f8400 	.word	0x401f8400
6000169c:	400fc000 	.word	0x400fc000
600016a0:	1ffffcff 	.word	0x1ffffcff
600016a4:	a0000300 	.word	0xa0000300
600016a8:	402a4000 	.word	0x402a4000
600016ac:	ffff0012 	.word	0xffff0012
600016b0:	00f737ff 	.word	0x00f737ff
600016b4:	7cf0ff00 	.word	0x7cf0ff00
600016b8:	80000040 	.word	0x80000040
600016bc:	830f00ff 	.word	0x830f00ff
600016c0:	00020063 	.word	0x00020063
600016c4:	402a4200 	.word	0x402a4200
600016c8:	402a4300 	.word	0x402a4300
600016cc:	5af05af0 	.word	0x5af05af0
600016d0:	3018049f 	.word	0x3018049f
600016d4:	26013206 	.word	0x26013206
600016d8:	0a180638 	.word	0x0a180638
600016dc:	00030004 	.word	0x00030004
600016e0:	20001a94 	.word	0x20001a94
600016e4:	402a8000 	.word	0x402a8000
#define PINS1           FLEXSPI_LUT_NUM_PADS_1
#define PINS4           FLEXSPI_LUT_NUM_PADS_4

FLASHMEM static void flexspi2_command(uint32_t index, uint32_t addr)
{
	FLEXSPI2_IPCR0 = addr;
600016e8:	f44f 0400 	mov.w	r4, #8388608	; 0x800000
	FLEXSPI2_IPCR1 = FLEXSPI_IPCR1_ISEQID(index);
600016ec:	f44f 2080 	mov.w	r0, #262144	; 0x40000
	FLEXSPI2_IPCMD = FLEXSPI_IPCMD_TRG;
600016f0:	2301      	movs	r3, #1
	while (!(FLEXSPI2_INTR & FLEXSPI_INTR_IPCMDDONE)); // wait
600016f2:	4611      	mov	r1, r2
#define PINS1           FLEXSPI_LUT_NUM_PADS_1
#define PINS4           FLEXSPI_LUT_NUM_PADS_4

FLASHMEM static void flexspi2_command(uint32_t index, uint32_t addr)
{
	FLEXSPI2_IPCR0 = addr;
600016f4:	f8c2 40a0 	str.w	r4, [r2, #160]	; 0xa0
	FLEXSPI2_IPCR1 = FLEXSPI_IPCR1_ISEQID(index);
600016f8:	f8c2 00a4 	str.w	r0, [r2, #164]	; 0xa4
	FLEXSPI2_IPCMD = FLEXSPI_IPCMD_TRG;
600016fc:	f8c2 30b0 	str.w	r3, [r2, #176]	; 0xb0
	while (!(FLEXSPI2_INTR & FLEXSPI_INTR_IPCMDDONE)); // wait
60001700:	694b      	ldr	r3, [r1, #20]
60001702:	4a04      	ldr	r2, [pc, #16]	; (60001714 <configure_external_ram+0x374>)
60001704:	07db      	lsls	r3, r3, #31
60001706:	d5fb      	bpl.n	60001700 <configure_external_ram+0x360>
	FLEXSPI2_INTR = FLEXSPI_INTR_IPCMDDONE;
60001708:	2001      	movs	r0, #1
		flexspi2_command(1, 0x800000); // reset enable
		flexspi2_command(2, 0x800000); // reset (is this really necessary?)
		if (flexspi2_psram_id(0x800000) == 0x5D0D) {
			flexspi2_command(4, 0x800000);
			// Two PSRAM chips are present, 16 MByte
			external_psram_size = 16;
6000170a:	4b03      	ldr	r3, [pc, #12]	; (60001718 <configure_external_ram+0x378>)
6000170c:	2110      	movs	r1, #16
{
	FLEXSPI2_IPCR0 = addr;
	FLEXSPI2_IPCR1 = FLEXSPI_IPCR1_ISEQID(index);
	FLEXSPI2_IPCMD = FLEXSPI_IPCMD_TRG;
	while (!(FLEXSPI2_INTR & FLEXSPI_INTR_IPCMDDONE)); // wait
	FLEXSPI2_INTR = FLEXSPI_INTR_IPCMDDONE;
6000170e:	6150      	str	r0, [r2, #20]
		flexspi2_command(1, 0x800000); // reset enable
		flexspi2_command(2, 0x800000); // reset (is this really necessary?)
		if (flexspi2_psram_id(0x800000) == 0x5D0D) {
			flexspi2_command(4, 0x800000);
			// Two PSRAM chips are present, 16 MByte
			external_psram_size = 16;
60001710:	7019      	strb	r1, [r3, #0]
60001712:	bdf0      	pop	{r4, r5, r6, r7, pc}
60001714:	402a4000 	.word	0x402a4000
60001718:	20001a94 	.word	0x20001a94

6000171c <usb_pll_start>:

#endif // ARDUINO_TEENSY41


FLASHMEM void usb_pll_start()
{
6000171c:	b4f0      	push	{r4, r5, r6, r7}
	while (1) {
		uint32_t n = CCM_ANALOG_PLL_USB1; // pg 759
6000171e:	4a17      	ldr	r2, [pc, #92]	; (6000177c <usb_pll_start+0x60>)
			CCM_ANALOG_PLL_USB1_CLR = CCM_ANALOG_PLL_USB1_BYPASS;
			continue;
		}
		if (!(n & CCM_ANALOG_PLL_USB1_EN_USB_CLKS)) {
			printf("  enable USB clocks\n");
			CCM_ANALOG_PLL_USB1_SET = CCM_ANALOG_PLL_USB1_EN_USB_CLKS;
60001720:	2740      	movs	r7, #64	; 0x40
			printf("  wait for lock\n");
			continue;
		}
		if (n & CCM_ANALOG_PLL_USB1_BYPASS) {
			printf("  turn off bypass\n");
			CCM_ANALOG_PLL_USB1_CLR = CCM_ANALOG_PLL_USB1_BYPASS;
60001722:	f44f 3180 	mov.w	r1, #65536	; 0x10000
			CCM_ANALOG_PLL_USB1_SET = CCM_ANALOG_PLL_USB1_ENABLE;
			continue;
		}
		if (!(n & CCM_ANALOG_PLL_USB1_POWER)) {
			printf("  power up PLL\n");
			CCM_ANALOG_PLL_USB1_SET = CCM_ANALOG_PLL_USB1_POWER;
60001726:	f44f 5680 	mov.w	r6, #4096	; 0x1000
			continue;
		}
		if (!(n & CCM_ANALOG_PLL_USB1_ENABLE)) {
			printf("  enable PLL\n");
			// TODO: should this be done so early, or later??
			CCM_ANALOG_PLL_USB1_SET = CCM_ANALOG_PLL_USB1_ENABLE;
6000172a:	f44f 5500 	mov.w	r5, #8192	; 0x2000
	while (1) {
		uint32_t n = CCM_ANALOG_PLL_USB1; // pg 759
		printf("CCM_ANALOG_PLL_USB1=%08lX\n", n);
		if (n & CCM_ANALOG_PLL_USB1_DIV_SELECT) {
			printf("  ERROR, 528 MHz mode!\n"); // never supposed to use this mode!
			CCM_ANALOG_PLL_USB1_CLR = 0xC000;			// bypass 24 MHz
6000172e:	f44f 4440 	mov.w	r4, #49152	; 0xc000
			CCM_ANALOG_PLL_USB1_SET = CCM_ANALOG_PLL_USB1_BYPASS;	// bypass
			CCM_ANALOG_PLL_USB1_CLR = CCM_ANALOG_PLL_USB1_POWER |	// power down
60001732:	f243 0042 	movw	r0, #12354	; 0x3042


FLASHMEM void usb_pll_start()
{
	while (1) {
		uint32_t n = CCM_ANALOG_PLL_USB1; // pg 759
60001736:	6913      	ldr	r3, [r2, #16]
		printf("CCM_ANALOG_PLL_USB1=%08lX\n", n);
		if (n & CCM_ANALOG_PLL_USB1_DIV_SELECT) {
60001738:	f013 0f02 	tst.w	r3, #2
6000173c:	d006      	beq.n	6000174c <usb_pll_start+0x30>
			printf("  ERROR, 528 MHz mode!\n"); // never supposed to use this mode!
			CCM_ANALOG_PLL_USB1_CLR = 0xC000;			// bypass 24 MHz
6000173e:	6194      	str	r4, [r2, #24]
			CCM_ANALOG_PLL_USB1_SET = CCM_ANALOG_PLL_USB1_BYPASS;	// bypass
60001740:	6151      	str	r1, [r2, #20]
			CCM_ANALOG_PLL_USB1_CLR = CCM_ANALOG_PLL_USB1_POWER |	// power down
60001742:	6190      	str	r0, [r2, #24]


FLASHMEM void usb_pll_start()
{
	while (1) {
		uint32_t n = CCM_ANALOG_PLL_USB1; // pg 759
60001744:	6913      	ldr	r3, [r2, #16]
		printf("CCM_ANALOG_PLL_USB1=%08lX\n", n);
		if (n & CCM_ANALOG_PLL_USB1_DIV_SELECT) {
60001746:	f013 0f02 	tst.w	r3, #2
6000174a:	d1f8      	bne.n	6000173e <usb_pll_start+0x22>
				CCM_ANALOG_PLL_USB1_DIV_SELECT |		// use 480 MHz
				CCM_ANALOG_PLL_USB1_ENABLE |			// disable
				CCM_ANALOG_PLL_USB1_EN_USB_CLKS;		// disable usb
			continue;
		}
		if (!(n & CCM_ANALOG_PLL_USB1_ENABLE)) {
6000174c:	f413 5f00 	tst.w	r3, #8192	; 0x2000
60001750:	d101      	bne.n	60001756 <usb_pll_start+0x3a>
			printf("  enable PLL\n");
			// TODO: should this be done so early, or later??
			CCM_ANALOG_PLL_USB1_SET = CCM_ANALOG_PLL_USB1_ENABLE;
60001752:	6155      	str	r5, [r2, #20]
			continue;
60001754:	e7ef      	b.n	60001736 <usb_pll_start+0x1a>
		}
		if (!(n & CCM_ANALOG_PLL_USB1_POWER)) {
60001756:	f413 5f80 	tst.w	r3, #4096	; 0x1000
6000175a:	d101      	bne.n	60001760 <usb_pll_start+0x44>
			printf("  power up PLL\n");
			CCM_ANALOG_PLL_USB1_SET = CCM_ANALOG_PLL_USB1_POWER;
6000175c:	6156      	str	r6, [r2, #20]
			continue;
6000175e:	e7ea      	b.n	60001736 <usb_pll_start+0x1a>
		}
		if (!(n & CCM_ANALOG_PLL_USB1_LOCK)) {
60001760:	2b00      	cmp	r3, #0
60001762:	dae8      	bge.n	60001736 <usb_pll_start+0x1a>
			printf("  wait for lock\n");
			continue;
		}
		if (n & CCM_ANALOG_PLL_USB1_BYPASS) {
60001764:	f413 3f80 	tst.w	r3, #65536	; 0x10000
60001768:	d001      	beq.n	6000176e <usb_pll_start+0x52>
			printf("  turn off bypass\n");
			CCM_ANALOG_PLL_USB1_CLR = CCM_ANALOG_PLL_USB1_BYPASS;
6000176a:	6191      	str	r1, [r2, #24]
			continue;
6000176c:	e7e3      	b.n	60001736 <usb_pll_start+0x1a>
		}
		if (!(n & CCM_ANALOG_PLL_USB1_EN_USB_CLKS)) {
6000176e:	065b      	lsls	r3, r3, #25
60001770:	d401      	bmi.n	60001776 <usb_pll_start+0x5a>
			printf("  enable USB clocks\n");
			CCM_ANALOG_PLL_USB1_SET = CCM_ANALOG_PLL_USB1_EN_USB_CLKS;
60001772:	6157      	str	r7, [r2, #20]
			continue;
60001774:	e7df      	b.n	60001736 <usb_pll_start+0x1a>
		}
		return; // everything is as it should be  :-)
	}
}
60001776:	bcf0      	pop	{r4, r5, r6, r7}
60001778:	4770      	bx	lr
6000177a:	bf00      	nop
6000177c:	400d8000 	.word	0x400d8000

60001780 <tempmon_init>:
  uint32_t calibrationData;
  uint32_t roomCount;
  uint32_t tempCodeVal;
      
  //first power on the temperature sensor - no register change
  TEMPMON_TEMPSENSE0 &= ~0x1U;
60001780:	4a3b      	ldr	r2, [pc, #236]	; (60001870 <tempmon_init+0xf0>)
  //read calibration data - this works
  calibrationData = HW_OCOTP_ANA1;
    s_hotTemp = (uint32_t)(calibrationData & 0xFFU) >> 0x00U;
    s_hotCount = (uint32_t)(calibrationData & 0xFFF00U) >> 0X08U;
    roomCount = (uint32_t)(calibrationData & 0xFFF00000U) >> 0x14U;
    s_hot_ROOM = s_hotTemp - 25.0f;
60001782:	eef3 6a09 	vmov.f32	s13, #57	; 0x41c80000  25.0

  //set monitoring frequency - no register change
  TEMPMON_TEMPSENSE1 = (((uint32_t)(((uint32_t)(frequency)) << 0U)) & 0xFFFFU);
  
  //read calibration data - this works
  calibrationData = HW_OCOTP_ANA1;
60001786:	493b      	ldr	r1, [pc, #236]	; (60001874 <tempmon_init+0xf4>)
  
  //Start temp monitoring
  TEMPMON_TEMPSENSE0 |= 0x2U;   //starts temp monitoring

  //PANIC shutdown:
  NVIC_SET_PRIORITY(IRQ_TEMPERATURE_PANIC, 0);
60001788:	2000      	movs	r0, #0
  uint32_t calibrationData;
  uint32_t roomCount;
  uint32_t tempCodeVal;
      
  //first power on the temperature sensor - no register change
  TEMPMON_TEMPSENSE0 &= ~0x1U;
6000178a:	6813      	ldr	r3, [r2, #0]
  asm volatile ("dsb":::"memory");
  while (1) asm ("wfi");
}

FLASHMEM void tempmon_init(void)
{
6000178c:	b5f0      	push	{r4, r5, r6, r7, lr}
  uint32_t calibrationData;
  uint32_t roomCount;
  uint32_t tempCodeVal;
      
  //first power on the temperature sensor - no register change
  TEMPMON_TEMPSENSE0 &= ~0x1U;
6000178e:	f023 0301 	bic.w	r3, r3, #1

  //set monitoring frequency - no register change
  TEMPMON_TEMPSENSE1 = (((uint32_t)(((uint32_t)(frequency)) << 0U)) & 0xFFFFU);
60001792:	2403      	movs	r4, #3
  
  //read calibration data - this works
  calibrationData = HW_OCOTP_ANA1;
    s_hotTemp = (uint32_t)(calibrationData & 0xFFU) >> 0x00U;
60001794:	f8df e100 	ldr.w	lr, [pc, #256]	; 60001898 <tempmon_init+0x118>
  uint32_t calibrationData;
  uint32_t roomCount;
  uint32_t tempCodeVal;
      
  //first power on the temperature sensor - no register change
  TEMPMON_TEMPSENSE0 &= ~0x1U;
60001798:	6013      	str	r3, [r2, #0]

  //set monitoring frequency - no register change
  TEMPMON_TEMPSENSE1 = (((uint32_t)(((uint32_t)(frequency)) << 0U)) & 0xFFFFU);
6000179a:	f8c2 4090 	str.w	r4, [r2, #144]	; 0x90
  
  //read calibration data - this works
  calibrationData = HW_OCOTP_ANA1;
6000179e:	f8d1 30e0 	ldr.w	r3, [r1, #224]	; 0xe0
    s_hotTemp = (uint32_t)(calibrationData & 0xFFU) >> 0x00U;
    s_hotCount = (uint32_t)(calibrationData & 0xFFF00U) >> 0X08U;
    roomCount = (uint32_t)(calibrationData & 0xFFF00000U) >> 0x14U;
    s_hot_ROOM = s_hotTemp - 25.0f;
    s_roomC_hotC = roomCount - s_hotCount;
600017a2:	4f35      	ldr	r7, [pc, #212]	; (60001878 <tempmon_init+0xf8>)
  //set monitoring frequency - no register change
  TEMPMON_TEMPSENSE1 = (((uint32_t)(((uint32_t)(frequency)) << 0U)) & 0xFFFFU);
  
  //read calibration data - this works
  calibrationData = HW_OCOTP_ANA1;
    s_hotTemp = (uint32_t)(calibrationData & 0xFFU) >> 0x00U;
600017a4:	b2dd      	uxtb	r5, r3
    s_hotCount = (uint32_t)(calibrationData & 0xFFF00U) >> 0X08U;
600017a6:	f3c3 240b 	ubfx	r4, r3, #8, #12
600017aa:	4e34      	ldr	r6, [pc, #208]	; (6000187c <tempmon_init+0xfc>)
    roomCount = (uint32_t)(calibrationData & 0xFFF00000U) >> 0x14U;
    s_hot_ROOM = s_hotTemp - 25.0f;
    s_roomC_hotC = roomCount - s_hotCount;
600017ac:	ebc4 5313 	rsb	r3, r4, r3, lsr #20
  //read calibration data - this works
  calibrationData = HW_OCOTP_ANA1;
    s_hotTemp = (uint32_t)(calibrationData & 0xFFU) >> 0x00U;
    s_hotCount = (uint32_t)(calibrationData & 0xFFF00U) >> 0X08U;
    roomCount = (uint32_t)(calibrationData & 0xFFF00000U) >> 0x14U;
    s_hot_ROOM = s_hotTemp - 25.0f;
600017b0:	ee07 5a90 	vmov	s15, r5
    s_roomC_hotC = roomCount - s_hotCount;

    //time to set alarm temperatures
  //Set High Alarm Temp
  tempCodeVal = (uint32_t)(s_hotCount + (s_hotTemp - highAlarmTemp) * s_roomC_hotC / s_hot_ROOM);
600017b4:	f1a5 0155 	sub.w	r1, r5, #85	; 0x55
  //set monitoring frequency - no register change
  TEMPMON_TEMPSENSE1 = (((uint32_t)(((uint32_t)(frequency)) << 0U)) & 0xFFFFU);
  
  //read calibration data - this works
  calibrationData = HW_OCOTP_ANA1;
    s_hotTemp = (uint32_t)(calibrationData & 0xFFU) >> 0x00U;
600017b8:	f8ce 5000 	str.w	r5, [lr]
    s_hotCount = (uint32_t)(calibrationData & 0xFFF00U) >> 0X08U;
    roomCount = (uint32_t)(calibrationData & 0xFFF00000U) >> 0x14U;
    s_hot_ROOM = s_hotTemp - 25.0f;
600017bc:	eeb8 7ae7 	vcvt.f32.s32	s14, s15
  //Set High Alarm Temp
  tempCodeVal = (uint32_t)(s_hotCount + (s_hotTemp - highAlarmTemp) * s_roomC_hotC / s_hot_ROOM);
    TEMPMON_TEMPSENSE0 |= (((uint32_t)(((uint32_t)(tempCodeVal)) << 20U)) & 0xFFF00000U);
  
  //Set Panic Alarm Temp
  tempCodeVal = (uint32_t)(s_hotCount + (s_hotTemp - panicAlarmTemp) * s_roomC_hotC / s_hot_ROOM);
600017c0:	eb03 0583 	add.w	r5, r3, r3, lsl #2
    s_hot_ROOM = s_hotTemp - 25.0f;
    s_roomC_hotC = roomCount - s_hotCount;

    //time to set alarm temperatures
  //Set High Alarm Temp
  tempCodeVal = (uint32_t)(s_hotCount + (s_hotTemp - highAlarmTemp) * s_roomC_hotC / s_hot_ROOM);
600017c4:	ee07 4a90 	vmov	s15, r4
600017c8:	fb03 f101 	mul.w	r1, r3, r1
  calibrationData = HW_OCOTP_ANA1;
    s_hotTemp = (uint32_t)(calibrationData & 0xFFU) >> 0x00U;
    s_hotCount = (uint32_t)(calibrationData & 0xFFF00U) >> 0X08U;
    roomCount = (uint32_t)(calibrationData & 0xFFF00000U) >> 0x14U;
    s_hot_ROOM = s_hotTemp - 25.0f;
    s_roomC_hotC = roomCount - s_hotCount;
600017cc:	603b      	str	r3, [r7, #0]
  tempCodeVal = (uint32_t)(s_hotCount + (s_hotTemp - panicAlarmTemp) * s_roomC_hotC / s_hot_ROOM);
    TEMPMON_TEMPSENSE2 |= (((uint32_t)(((uint32_t)(tempCodeVal)) << 16U)) & 0xFFF0000U);
  
  // Set Low Temp Alarm Temp
  tempCodeVal = (uint32_t)(s_hotCount + (s_hotTemp - lowAlarmTemp) * s_roomC_hotC / s_hot_ROOM);
    TEMPMON_TEMPSENSE2 |= (((uint32_t)(((uint32_t)(tempCodeVal)) << 0U)) & 0xFFFU);
600017ce:	eb03 1383 	add.w	r3, r3, r3, lsl #6
    s_hot_ROOM = s_hotTemp - 25.0f;
    s_roomC_hotC = roomCount - s_hotCount;

    //time to set alarm temperatures
  //Set High Alarm Temp
  tempCodeVal = (uint32_t)(s_hotCount + (s_hotTemp - highAlarmTemp) * s_roomC_hotC / s_hot_ROOM);
600017d2:	eeb8 5ae7 	vcvt.f32.s32	s10, s15
    TEMPMON_TEMPSENSE0 |= (((uint32_t)(((uint32_t)(tempCodeVal)) << 20U)) & 0xFFF00000U);
600017d6:	ee07 1a90 	vmov	s15, r1
  
  //Set Panic Alarm Temp
  tempCodeVal = (uint32_t)(s_hotCount + (s_hotTemp - panicAlarmTemp) * s_roomC_hotC / s_hot_ROOM);
600017da:	1b49      	subs	r1, r1, r5
  //read calibration data - this works
  calibrationData = HW_OCOTP_ANA1;
    s_hotTemp = (uint32_t)(calibrationData & 0xFFU) >> 0x00U;
    s_hotCount = (uint32_t)(calibrationData & 0xFFF00U) >> 0X08U;
    roomCount = (uint32_t)(calibrationData & 0xFFF00000U) >> 0x14U;
    s_hot_ROOM = s_hotTemp - 25.0f;
600017dc:	ee77 6a66 	vsub.f32	s13, s14, s13
    s_roomC_hotC = roomCount - s_hotCount;

    //time to set alarm temperatures
  //Set High Alarm Temp
  tempCodeVal = (uint32_t)(s_hotCount + (s_hotTemp - highAlarmTemp) * s_roomC_hotC / s_hot_ROOM);
    TEMPMON_TEMPSENSE0 |= (((uint32_t)(((uint32_t)(tempCodeVal)) << 20U)) & 0xFFF00000U);
600017e0:	eeb8 7a67 	vcvt.f32.u32	s14, s15
  //read calibration data - this works
  calibrationData = HW_OCOTP_ANA1;
    s_hotTemp = (uint32_t)(calibrationData & 0xFFU) >> 0x00U;
    s_hotCount = (uint32_t)(calibrationData & 0xFFF00U) >> 0X08U;
    roomCount = (uint32_t)(calibrationData & 0xFFF00000U) >> 0x14U;
    s_hot_ROOM = s_hotTemp - 25.0f;
600017e4:	4d26      	ldr	r5, [pc, #152]	; (60001880 <tempmon_init+0x100>)
  tempCodeVal = (uint32_t)(s_hotCount + (s_hotTemp - highAlarmTemp) * s_roomC_hotC / s_hot_ROOM);
    TEMPMON_TEMPSENSE0 |= (((uint32_t)(((uint32_t)(tempCodeVal)) << 20U)) & 0xFFF00000U);
  
  //Set Panic Alarm Temp
  tempCodeVal = (uint32_t)(s_hotCount + (s_hotTemp - panicAlarmTemp) * s_roomC_hotC / s_hot_ROOM);
    TEMPMON_TEMPSENSE2 |= (((uint32_t)(((uint32_t)(tempCodeVal)) << 16U)) & 0xFFF0000U);
600017e6:	ee07 1a90 	vmov	s15, r1
  
  // Set Low Temp Alarm Temp
  tempCodeVal = (uint32_t)(s_hotCount + (s_hotTemp - lowAlarmTemp) * s_roomC_hotC / s_hot_ROOM);
    TEMPMON_TEMPSENSE2 |= (((uint32_t)(((uint32_t)(tempCodeVal)) << 0U)) & 0xFFFU);
600017ea:	440b      	add	r3, r1
  //read calibration data - this works
  calibrationData = HW_OCOTP_ANA1;
    s_hotTemp = (uint32_t)(calibrationData & 0xFFU) >> 0x00U;
    s_hotCount = (uint32_t)(calibrationData & 0xFFF00U) >> 0X08U;
    roomCount = (uint32_t)(calibrationData & 0xFFF00000U) >> 0x14U;
    s_hot_ROOM = s_hotTemp - 25.0f;
600017ec:	edc5 6a00 	vstr	s13, [r5]
  tempCodeVal = (uint32_t)(s_hotCount + (s_hotTemp - highAlarmTemp) * s_roomC_hotC / s_hot_ROOM);
    TEMPMON_TEMPSENSE0 |= (((uint32_t)(((uint32_t)(tempCodeVal)) << 20U)) & 0xFFF00000U);
  
  //Set Panic Alarm Temp
  tempCodeVal = (uint32_t)(s_hotCount + (s_hotTemp - panicAlarmTemp) * s_roomC_hotC / s_hot_ROOM);
    TEMPMON_TEMPSENSE2 |= (((uint32_t)(((uint32_t)(tempCodeVal)) << 16U)) & 0xFFF0000U);
600017f0:	eef8 7a67 	vcvt.f32.u32	s15, s15
  TEMPMON_TEMPSENSE1 = (((uint32_t)(((uint32_t)(frequency)) << 0U)) & 0xFFFFU);
  
  //read calibration data - this works
  calibrationData = HW_OCOTP_ANA1;
    s_hotTemp = (uint32_t)(calibrationData & 0xFFU) >> 0x00U;
    s_hotCount = (uint32_t)(calibrationData & 0xFFF00U) >> 0X08U;
600017f4:	6034      	str	r4, [r6, #0]
    s_roomC_hotC = roomCount - s_hotCount;

    //time to set alarm temperatures
  //Set High Alarm Temp
  tempCodeVal = (uint32_t)(s_hotCount + (s_hotTemp - highAlarmTemp) * s_roomC_hotC / s_hot_ROOM);
    TEMPMON_TEMPSENSE0 |= (((uint32_t)(((uint32_t)(tempCodeVal)) << 20U)) & 0xFFF00000U);
600017f6:	eec7 5a26 	vdiv.f32	s11, s14, s13
static inline void attachInterruptVector(IRQ_NUMBER_t irq, void (*function)(void)) __attribute__((always_inline, unused));
static inline void attachInterruptVector(IRQ_NUMBER_t irq, void (*function)(void)) { _VectorsRam[irq + 16] = function; asm volatile("": : :"memory"); }
#else
extern void (* _VectorsRam[NVIC_NUM_INTERRUPTS+16])(void);
static inline void attachInterruptVector(enum IRQ_NUMBER_t irq, void (*function)(void)) __attribute__((always_inline, unused));
static inline void attachInterruptVector(enum IRQ_NUMBER_t irq, void (*function)(void)) { _VectorsRam[irq + 16] = function; asm volatile("": : :"memory"); }
600017fa:	4e22      	ldr	r6, [pc, #136]	; (60001884 <tempmon_init+0x104>)
600017fc:	6815      	ldr	r5, [r2, #0]
  
  //Set Panic Alarm Temp
  tempCodeVal = (uint32_t)(s_hotCount + (s_hotTemp - panicAlarmTemp) * s_roomC_hotC / s_hot_ROOM);
    TEMPMON_TEMPSENSE2 |= (((uint32_t)(((uint32_t)(tempCodeVal)) << 16U)) & 0xFFF0000U);
600017fe:	4922      	ldr	r1, [pc, #136]	; (60001888 <tempmon_init+0x108>)
  
  //Start temp monitoring
  TEMPMON_TEMPSENSE0 |= 0x2U;   //starts temp monitoring

  //PANIC shutdown:
  NVIC_SET_PRIORITY(IRQ_TEMPERATURE_PANIC, 0);
60001800:	4c22      	ldr	r4, [pc, #136]	; (6000188c <tempmon_init+0x10c>)
  tempCodeVal = (uint32_t)(s_hotCount + (s_hotTemp - highAlarmTemp) * s_roomC_hotC / s_hot_ROOM);
    TEMPMON_TEMPSENSE0 |= (((uint32_t)(((uint32_t)(tempCodeVal)) << 20U)) & 0xFFF00000U);
  
  //Set Panic Alarm Temp
  tempCodeVal = (uint32_t)(s_hotCount + (s_hotTemp - panicAlarmTemp) * s_roomC_hotC / s_hot_ROOM);
    TEMPMON_TEMPSENSE2 |= (((uint32_t)(((uint32_t)(tempCodeVal)) << 16U)) & 0xFFF0000U);
60001802:	ee87 6aa6 	vdiv.f32	s12, s15, s13
  
  // Set Low Temp Alarm Temp
  tempCodeVal = (uint32_t)(s_hotCount + (s_hotTemp - lowAlarmTemp) * s_roomC_hotC / s_hot_ROOM);
    TEMPMON_TEMPSENSE2 |= (((uint32_t)(((uint32_t)(tempCodeVal)) << 0U)) & 0xFFFU);
60001806:	ee07 3a90 	vmov	s15, r3
6000180a:	4b21      	ldr	r3, [pc, #132]	; (60001890 <tempmon_init+0x110>)
6000180c:	f8c6 3140 	str.w	r3, [r6, #320]	; 0x140
60001810:	eef8 7a67 	vcvt.f32.u32	s15, s15
60001814:	ee87 7aa6 	vdiv.f32	s14, s15, s13
    s_roomC_hotC = roomCount - s_hotCount;

    //time to set alarm temperatures
  //Set High Alarm Temp
  tempCodeVal = (uint32_t)(s_hotCount + (s_hotTemp - highAlarmTemp) * s_roomC_hotC / s_hot_ROOM);
    TEMPMON_TEMPSENSE0 |= (((uint32_t)(((uint32_t)(tempCodeVal)) << 20U)) & 0xFFF00000U);
60001818:	ee75 5a85 	vadd.f32	s11, s11, s10
  
  //Set Panic Alarm Temp
  tempCodeVal = (uint32_t)(s_hotCount + (s_hotTemp - panicAlarmTemp) * s_roomC_hotC / s_hot_ROOM);
    TEMPMON_TEMPSENSE2 |= (((uint32_t)(((uint32_t)(tempCodeVal)) << 16U)) & 0xFFF0000U);
6000181c:	ee76 6a05 	vadd.f32	s13, s12, s10
    s_roomC_hotC = roomCount - s_hotCount;

    //time to set alarm temperatures
  //Set High Alarm Temp
  tempCodeVal = (uint32_t)(s_hotCount + (s_hotTemp - highAlarmTemp) * s_roomC_hotC / s_hot_ROOM);
    TEMPMON_TEMPSENSE0 |= (((uint32_t)(((uint32_t)(tempCodeVal)) << 20U)) & 0xFFF00000U);
60001820:	eefc 5ae5 	vcvt.u32.f32	s11, s11
  
  //Set Panic Alarm Temp
  tempCodeVal = (uint32_t)(s_hotCount + (s_hotTemp - panicAlarmTemp) * s_roomC_hotC / s_hot_ROOM);
    TEMPMON_TEMPSENSE2 |= (((uint32_t)(((uint32_t)(tempCodeVal)) << 16U)) & 0xFFF0000U);
60001824:	eefc 6ae6 	vcvt.u32.f32	s13, s13
    s_roomC_hotC = roomCount - s_hotCount;

    //time to set alarm temperatures
  //Set High Alarm Temp
  tempCodeVal = (uint32_t)(s_hotCount + (s_hotTemp - highAlarmTemp) * s_roomC_hotC / s_hot_ROOM);
    TEMPMON_TEMPSENSE0 |= (((uint32_t)(((uint32_t)(tempCodeVal)) << 20U)) & 0xFFF00000U);
60001828:	ee15 3a90 	vmov	r3, s11
6000182c:	ea45 5303 	orr.w	r3, r5, r3, lsl #20
  
  //Set Panic Alarm Temp
  tempCodeVal = (uint32_t)(s_hotCount + (s_hotTemp - panicAlarmTemp) * s_roomC_hotC / s_hot_ROOM);
    TEMPMON_TEMPSENSE2 |= (((uint32_t)(((uint32_t)(tempCodeVal)) << 16U)) & 0xFFF0000U);
60001830:	ee16 5a90 	vmov	r5, s13
  
  // Set Low Temp Alarm Temp
  tempCodeVal = (uint32_t)(s_hotCount + (s_hotTemp - lowAlarmTemp) * s_roomC_hotC / s_hot_ROOM);
    TEMPMON_TEMPSENSE2 |= (((uint32_t)(((uint32_t)(tempCodeVal)) << 0U)) & 0xFFFU);
60001834:	ee77 7a05 	vadd.f32	s15, s14, s10
    s_roomC_hotC = roomCount - s_hotCount;

    //time to set alarm temperatures
  //Set High Alarm Temp
  tempCodeVal = (uint32_t)(s_hotCount + (s_hotTemp - highAlarmTemp) * s_roomC_hotC / s_hot_ROOM);
    TEMPMON_TEMPSENSE0 |= (((uint32_t)(((uint32_t)(tempCodeVal)) << 20U)) & 0xFFF00000U);
60001838:	6013      	str	r3, [r2, #0]
  
  //Set Panic Alarm Temp
  tempCodeVal = (uint32_t)(s_hotCount + (s_hotTemp - panicAlarmTemp) * s_roomC_hotC / s_hot_ROOM);
    TEMPMON_TEMPSENSE2 |= (((uint32_t)(((uint32_t)(tempCodeVal)) << 16U)) & 0xFFF0000U);
6000183a:	ea01 4105 	and.w	r1, r1, r5, lsl #16
6000183e:	f8d2 3110 	ldr.w	r3, [r2, #272]	; 0x110
  
  // Set Low Temp Alarm Temp
  tempCodeVal = (uint32_t)(s_hotCount + (s_hotTemp - lowAlarmTemp) * s_roomC_hotC / s_hot_ROOM);
    TEMPMON_TEMPSENSE2 |= (((uint32_t)(((uint32_t)(tempCodeVal)) << 0U)) & 0xFFFU);
60001842:	eefc 7ae7 	vcvt.u32.f32	s15, s15
  tempCodeVal = (uint32_t)(s_hotCount + (s_hotTemp - highAlarmTemp) * s_roomC_hotC / s_hot_ROOM);
    TEMPMON_TEMPSENSE0 |= (((uint32_t)(((uint32_t)(tempCodeVal)) << 20U)) & 0xFFF00000U);
  
  //Set Panic Alarm Temp
  tempCodeVal = (uint32_t)(s_hotCount + (s_hotTemp - panicAlarmTemp) * s_roomC_hotC / s_hot_ROOM);
    TEMPMON_TEMPSENSE2 |= (((uint32_t)(((uint32_t)(tempCodeVal)) << 16U)) & 0xFFF0000U);
60001846:	430b      	orrs	r3, r1
60001848:	f8c2 3110 	str.w	r3, [r2, #272]	; 0x110
  
  // Set Low Temp Alarm Temp
  tempCodeVal = (uint32_t)(s_hotCount + (s_hotTemp - lowAlarmTemp) * s_roomC_hotC / s_hot_ROOM);
    TEMPMON_TEMPSENSE2 |= (((uint32_t)(((uint32_t)(tempCodeVal)) << 0U)) & 0xFFFU);
6000184c:	ee17 3a90 	vmov	r3, s15
60001850:	f8d2 1110 	ldr.w	r1, [r2, #272]	; 0x110
60001854:	f3c3 030b 	ubfx	r3, r3, #0, #12
60001858:	430b      	orrs	r3, r1
6000185a:	f8c2 3110 	str.w	r3, [r2, #272]	; 0x110
  
  //Start temp monitoring
  TEMPMON_TEMPSENSE0 |= 0x2U;   //starts temp monitoring
6000185e:	6813      	ldr	r3, [r2, #0]
60001860:	f043 0302 	orr.w	r3, r3, #2
60001864:	6013      	str	r3, [r2, #0]

  //PANIC shutdown:
  NVIC_SET_PRIORITY(IRQ_TEMPERATURE_PANIC, 0);
60001866:	7020      	strb	r0, [r4, #0]
  attachInterruptVector(IRQ_TEMPERATURE_PANIC, &Panic_Temp_isr);
  NVIC_ENABLE_IRQ(IRQ_TEMPERATURE_PANIC);
60001868:	4b0a      	ldr	r3, [pc, #40]	; (60001894 <tempmon_init+0x114>)
6000186a:	2201      	movs	r2, #1
6000186c:	601a      	str	r2, [r3, #0]
6000186e:	bdf0      	pop	{r4, r5, r6, r7, pc}
60001870:	400d8180 	.word	0x400d8180
60001874:	401f4400 	.word	0x401f4400
60001878:	20001aa0 	.word	0x20001aa0
6000187c:	20001aa4 	.word	0x20001aa4
60001880:	20001a9c 	.word	0x20001a9c
60001884:	20002000 	.word	0x20002000
60001888:	0fff0000 	.word	0x0fff0000
6000188c:	e000e440 	.word	0xe000e440
60001890:	000039b1 	.word	0x000039b1
60001894:	e000e108 	.word	0xe000e108
60001898:	20001a98 	.word	0x20001a98

6000189c <usb_init>:
FLASHMEM void usb_init(void)
{
	// TODO: only enable when VBUS detected
	// TODO: return to low power mode when VBUS removed
	// TODO: protect PMU access with MPU
	PMU_REG_3P0 = PMU_REG_3P0_OUTPUT_TRG(0x0F) | PMU_REG_3P0_BO_OFFSET(6)
6000189c:	4b30      	ldr	r3, [pc, #192]	; (60001960 <usb_init+0xc4>)
6000189e:	f640 7261 	movw	r2, #3937	; 0xf61

static void run_callbacks(endpoint_t *ep);


FLASHMEM void usb_init(void)
{
600018a2:	b570      	push	{r4, r5, r6, lr}
	// TODO: only enable when VBUS detected
	// TODO: return to low power mode when VBUS removed
	// TODO: protect PMU access with MPU
	PMU_REG_3P0 = PMU_REG_3P0_OUTPUT_TRG(0x0F) | PMU_REG_3P0_BO_OFFSET(6)
600018a4:	f8c3 2120 	str.w	r2, [r3, #288]	; 0x120

	CCM_CCGR6 |= CCM_CCGR6_USBOH3(CCM_CCGR_ON); // turn on clocks to USB peripheral
	
	printf("BURSTSIZE=%08lX\n", USB1_BURSTSIZE);
	//USB1_BURSTSIZE = USB_BURSTSIZE_TXPBURST(4) | USB_BURSTSIZE_RXPBURST(4);
	USB1_BURSTSIZE = 0x0404;
600018a8:	f240 4504 	movw	r5, #1028	; 0x404
	// TODO: return to low power mode when VBUS removed
	// TODO: protect PMU access with MPU
	PMU_REG_3P0 = PMU_REG_3P0_OUTPUT_TRG(0x0F) | PMU_REG_3P0_BO_OFFSET(6)
		| PMU_REG_3P0_ENABLE_LINREG;

	usb_init_serialnumber();
600018ac:	f000 f90c 	bl	60001ac8 <__usb_init_serialnumber_veneer>

	// assume PLL3 is already running - already done by usb_pll_start() in main.c

	CCM_CCGR6 |= CCM_CCGR6_USBOH3(CCM_CCGR_ON); // turn on clocks to USB peripheral
600018b0:	492c      	ldr	r1, [pc, #176]	; (60001964 <usb_init+0xc8>)
	
	printf("BURSTSIZE=%08lX\n", USB1_BURSTSIZE);
	//USB1_BURSTSIZE = USB_BURSTSIZE_TXPBURST(4) | USB_BURSTSIZE_RXPBURST(4);
	USB1_BURSTSIZE = 0x0404;
600018b2:	482d      	ldr	r0, [pc, #180]	; (60001968 <usb_init+0xcc>)

	usb_init_serialnumber();

	// assume PLL3 is already running - already done by usb_pll_start() in main.c

	CCM_CCGR6 |= CCM_CCGR6_USBOH3(CCM_CCGR_ON); // turn on clocks to USB peripheral
600018b4:	f8d1 2080 	ldr.w	r2, [r1, #128]	; 0x80
	//printf("USB1_USBMODE=%08lX\n", USB1_USBMODE);

	// turn on PLL3, wait for 480 MHz lock?
	// turn on CCM clock gates?  CCGR6[CG0]
#if 1
	if ((USBPHY1_PWD & (USBPHY_PWD_RXPWDRX | USBPHY_PWD_RXPWDDIFF | USBPHY_PWD_RXPWD1PT1
600018b8:	4c2c      	ldr	r4, [pc, #176]	; (6000196c <usb_init+0xd0>)

	usb_init_serialnumber();

	// assume PLL3 is already running - already done by usb_pll_start() in main.c

	CCM_CCGR6 |= CCM_CCGR6_USBOH3(CCM_CCGR_ON); // turn on clocks to USB peripheral
600018ba:	f042 0203 	orr.w	r2, r2, #3
	//printf("USB1_USBMODE=%08lX\n", USB1_USBMODE);

	// turn on PLL3, wait for 480 MHz lock?
	// turn on CCM clock gates?  CCGR6[CG0]
#if 1
	if ((USBPHY1_PWD & (USBPHY_PWD_RXPWDRX | USBPHY_PWD_RXPWDDIFF | USBPHY_PWD_RXPWD1PT1
600018be:	4b2c      	ldr	r3, [pc, #176]	; (60001970 <usb_init+0xd4>)

	usb_init_serialnumber();

	// assume PLL3 is already running - already done by usb_pll_start() in main.c

	CCM_CCGR6 |= CCM_CCGR6_USBOH3(CCM_CCGR_ON); // turn on clocks to USB peripheral
600018c0:	f8c1 2080 	str.w	r2, [r1, #128]	; 0x80
	
	printf("BURSTSIZE=%08lX\n", USB1_BURSTSIZE);
	//USB1_BURSTSIZE = USB_BURSTSIZE_TXPBURST(4) | USB_BURSTSIZE_RXPBURST(4);
	USB1_BURSTSIZE = 0x0404;
600018c4:	f8c0 5160 	str.w	r5, [r0, #352]	; 0x160
	//printf("USB1_USBMODE=%08lX\n", USB1_USBMODE);

	// turn on PLL3, wait for 480 MHz lock?
	// turn on CCM clock gates?  CCGR6[CG0]
#if 1
	if ((USBPHY1_PWD & (USBPHY_PWD_RXPWDRX | USBPHY_PWD_RXPWDDIFF | USBPHY_PWD_RXPWD1PT1
600018c8:	6822      	ldr	r2, [r4, #0]
600018ca:	4013      	ands	r3, r2
600018cc:	b91b      	cbnz	r3, 600018d6 <usb_init+0x3a>
	  | USBPHY_PWD_RXPWDENV | USBPHY_PWD_TXPWDV2I | USBPHY_PWD_TXPWDIBIAS
	  | USBPHY_PWD_TXPWDFS)) || (USB1_USBMODE & USB_USBMODE_CM_MASK)) {
600018ce:	f8d0 31a8 	ldr.w	r3, [r0, #424]	; 0x1a8
600018d2:	079a      	lsls	r2, r3, #30
600018d4:	d01a      	beq.n	6000190c <usb_init+0x70>
		// USB controller is turned on from previous use
		// reset needed to turn it off & start from clean slate
		USBPHY1_CTRL_SET = USBPHY_CTRL_SFTRST; // USBPHY1_CTRL page 3292
		USB1_USBCMD |= USB_USBCMD_RST; // reset controller
600018d6:	4b24      	ldr	r3, [pc, #144]	; (60001968 <usb_init+0xcc>)
	if ((USBPHY1_PWD & (USBPHY_PWD_RXPWDRX | USBPHY_PWD_RXPWDDIFF | USBPHY_PWD_RXPWD1PT1
	  | USBPHY_PWD_RXPWDENV | USBPHY_PWD_TXPWDV2I | USBPHY_PWD_TXPWDIBIAS
	  | USBPHY_PWD_TXPWDFS)) || (USB1_USBMODE & USB_USBMODE_CM_MASK)) {
		// USB controller is turned on from previous use
		// reset needed to turn it off & start from clean slate
		USBPHY1_CTRL_SET = USBPHY_CTRL_SFTRST; // USBPHY1_CTRL page 3292
600018d8:	f04f 4100 	mov.w	r1, #2147483648	; 0x80000000
600018dc:	4a23      	ldr	r2, [pc, #140]	; (6000196c <usb_init+0xd0>)
600018de:	6351      	str	r1, [r2, #52]	; 0x34
		USB1_USBCMD |= USB_USBCMD_RST; // reset controller
		int count=0;
		while (USB1_USBCMD & USB_USBCMD_RST) count++;
600018e0:	461a      	mov	r2, r3
	  | USBPHY_PWD_RXPWDENV | USBPHY_PWD_TXPWDV2I | USBPHY_PWD_TXPWDIBIAS
	  | USBPHY_PWD_TXPWDFS)) || (USB1_USBMODE & USB_USBMODE_CM_MASK)) {
		// USB controller is turned on from previous use
		// reset needed to turn it off & start from clean slate
		USBPHY1_CTRL_SET = USBPHY_CTRL_SFTRST; // USBPHY1_CTRL page 3292
		USB1_USBCMD |= USB_USBCMD_RST; // reset controller
600018e2:	f8d3 1140 	ldr.w	r1, [r3, #320]	; 0x140
600018e6:	f041 0102 	orr.w	r1, r1, #2
600018ea:	f8c3 1140 	str.w	r1, [r3, #320]	; 0x140
		int count=0;
		while (USB1_USBCMD & USB_USBCMD_RST) count++;
600018ee:	f8d2 3140 	ldr.w	r3, [r2, #320]	; 0x140
600018f2:	079b      	lsls	r3, r3, #30
600018f4:	d4fb      	bmi.n	600018ee <usb_init+0x52>
		NVIC_CLEAR_PENDING(IRQ_USB1);
600018f6:	f44f 3000 	mov.w	r0, #131072	; 0x20000
600018fa:	491e      	ldr	r1, [pc, #120]	; (60001974 <usb_init+0xd8>)
		USBPHY1_CTRL_CLR = USBPHY_CTRL_SFTRST; // reset PHY
600018fc:	4b1b      	ldr	r3, [pc, #108]	; (6000196c <usb_init+0xd0>)
600018fe:	f04f 4200 	mov.w	r2, #2147483648	; 0x80000000
		// reset needed to turn it off & start from clean slate
		USBPHY1_CTRL_SET = USBPHY_CTRL_SFTRST; // USBPHY1_CTRL page 3292
		USB1_USBCMD |= USB_USBCMD_RST; // reset controller
		int count=0;
		while (USB1_USBCMD & USB_USBCMD_RST) count++;
		NVIC_CLEAR_PENDING(IRQ_USB1);
60001902:	6008      	str	r0, [r1, #0]
		//printf("USBPHY1_PWD=%08lX\n", USBPHY1_PWD);
		//printf("USBPHY1_TX=%08lX\n", USBPHY1_TX);
		//printf("USBPHY1_RX=%08lX\n", USBPHY1_RX);
		//printf("USBPHY1_CTRL=%08lX\n", USBPHY1_CTRL);
		//printf("USB1_USBMODE=%08lX\n", USB1_USBMODE);
		delay(25);
60001904:	2019      	movs	r0, #25
		USBPHY1_CTRL_SET = USBPHY_CTRL_SFTRST; // USBPHY1_CTRL page 3292
		USB1_USBCMD |= USB_USBCMD_RST; // reset controller
		int count=0;
		while (USB1_USBCMD & USB_USBCMD_RST) count++;
		NVIC_CLEAR_PENDING(IRQ_USB1);
		USBPHY1_CTRL_CLR = USBPHY_CTRL_SFTRST; // reset PHY
60001906:	639a      	str	r2, [r3, #56]	; 0x38
		//printf("USBPHY1_PWD=%08lX\n", USBPHY1_PWD);
		//printf("USBPHY1_TX=%08lX\n", USBPHY1_TX);
		//printf("USBPHY1_RX=%08lX\n", USBPHY1_RX);
		//printf("USBPHY1_CTRL=%08lX\n", USBPHY1_CTRL);
		//printf("USB1_USBMODE=%08lX\n", USB1_USBMODE);
		delay(25);
60001908:	f000 f8d6 	bl	60001ab8 <__delay_veneer>
	USBPHY1_PWD = 0;
	//printf("USBPHY1_PWD=%08lX\n", USBPHY1_PWD);
	//printf("USBPHY1_CTRL=%08lX\n", USBPHY1_CTRL);

	USB1_USBMODE = USB_USBMODE_CM(2) | USB_USBMODE_SLOM;
	memset(endpoint_queue_head, 0, sizeof(endpoint_queue_head));
6000190c:	4d1a      	ldr	r5, [pc, #104]	; (60001978 <usb_init+0xdc>)
	// ENDPTSTAT	pg 3247
	// ENDPTCOMPLETE   3248
	// ENDPTCTRL0	pg 3249

	USBPHY1_CTRL_CLR = USBPHY_CTRL_CLKGATE;
	USBPHY1_PWD = 0;
6000190e:	2200      	movs	r2, #0
	// ENDPTFLUSH	pg 3247
	// ENDPTSTAT	pg 3247
	// ENDPTCOMPLETE   3248
	// ENDPTCTRL0	pg 3249

	USBPHY1_CTRL_CLR = USBPHY_CTRL_CLKGATE;
60001910:	4b16      	ldr	r3, [pc, #88]	; (6000196c <usb_init+0xd0>)
60001912:	f04f 4180 	mov.w	r1, #1073741824	; 0x40000000
	USBPHY1_PWD = 0;
	//printf("USBPHY1_PWD=%08lX\n", USBPHY1_PWD);
	//printf("USBPHY1_CTRL=%08lX\n", USBPHY1_CTRL);

	USB1_USBMODE = USB_USBMODE_CM(2) | USB_USBMODE_SLOM;
60001916:	4c14      	ldr	r4, [pc, #80]	; (60001968 <usb_init+0xcc>)
60001918:	260a      	movs	r6, #10
	// ENDPTFLUSH	pg 3247
	// ENDPTSTAT	pg 3247
	// ENDPTCOMPLETE   3248
	// ENDPTCTRL0	pg 3249

	USBPHY1_CTRL_CLR = USBPHY_CTRL_CLKGATE;
6000191a:	6399      	str	r1, [r3, #56]	; 0x38
	USBPHY1_PWD = 0;
	//printf("USBPHY1_PWD=%08lX\n", USBPHY1_PWD);
	//printf("USBPHY1_CTRL=%08lX\n", USBPHY1_CTRL);

	USB1_USBMODE = USB_USBMODE_CM(2) | USB_USBMODE_SLOM;
	memset(endpoint_queue_head, 0, sizeof(endpoint_queue_head));
6000191c:	4628      	mov	r0, r5
	// ENDPTSTAT	pg 3247
	// ENDPTCOMPLETE   3248
	// ENDPTCTRL0	pg 3249

	USBPHY1_CTRL_CLR = USBPHY_CTRL_CLKGATE;
	USBPHY1_PWD = 0;
6000191e:	601a      	str	r2, [r3, #0]
	//printf("USBPHY1_PWD=%08lX\n", USBPHY1_PWD);
	//printf("USBPHY1_CTRL=%08lX\n", USBPHY1_CTRL);

	USB1_USBMODE = USB_USBMODE_CM(2) | USB_USBMODE_SLOM;
	memset(endpoint_queue_head, 0, sizeof(endpoint_queue_head));
60001920:	4611      	mov	r1, r2
	USBPHY1_CTRL_CLR = USBPHY_CTRL_CLKGATE;
	USBPHY1_PWD = 0;
	//printf("USBPHY1_PWD=%08lX\n", USBPHY1_PWD);
	//printf("USBPHY1_CTRL=%08lX\n", USBPHY1_CTRL);

	USB1_USBMODE = USB_USBMODE_CM(2) | USB_USBMODE_SLOM;
60001922:	f8c4 61a8 	str.w	r6, [r4, #424]	; 0x1a8
	memset(endpoint_queue_head, 0, sizeof(endpoint_queue_head));
60001926:	f44f 7220 	mov.w	r2, #640	; 0x280
6000192a:	f000 f8e1 	bl	60001af0 <__memset_veneer>
	endpoint_queue_head[0].config = (64 << 16) | (1 << 15);
6000192e:	f44f 0681 	mov.w	r6, #4227072	; 0x408000
	endpoint_queue_head[1].config = (64 << 16);
60001932:	f44f 0080 	mov.w	r0, #4194304	; 0x400000
	USB1_ENDPOINTLISTADDR = (uint32_t)&endpoint_queue_head;
	//  Recommended: enable all device interrupts including: USBINT, USBERRINT,
	// Port Change Detect, USB Reset Received, DCSuspend.
	USB1_USBINTR = USB_USBINTR_UE | USB_USBINTR_UEE | /* USB_USBINTR_PCE | */
60001936:	f240 1343 	movw	r3, #323	; 0x143
6000193a:	4a10      	ldr	r2, [pc, #64]	; (6000197c <usb_init+0xe0>)
6000193c:	4910      	ldr	r1, [pc, #64]	; (60001980 <usb_init+0xe4>)
	//printf("USBPHY1_PWD=%08lX\n", USBPHY1_PWD);
	//printf("USBPHY1_CTRL=%08lX\n", USBPHY1_CTRL);

	USB1_USBMODE = USB_USBMODE_CM(2) | USB_USBMODE_SLOM;
	memset(endpoint_queue_head, 0, sizeof(endpoint_queue_head));
	endpoint_queue_head[0].config = (64 << 16) | (1 << 15);
6000193e:	602e      	str	r6, [r5, #0]
	endpoint_queue_head[1].config = (64 << 16);
60001940:	6428      	str	r0, [r5, #64]	; 0x40
	USB1_ENDPOINTLISTADDR = (uint32_t)&endpoint_queue_head;
60001942:	f8c4 5158 	str.w	r5, [r4, #344]	; 0x158
60001946:	f8c2 1204 	str.w	r1, [r2, #516]	; 0x204
	//  Recommended: enable all device interrupts including: USBINT, USBERRINT,
	// Port Change Detect, USB Reset Received, DCSuspend.
	USB1_USBINTR = USB_USBINTR_UE | USB_USBINTR_UEE | /* USB_USBINTR_PCE | */
6000194a:	f8c4 3148 	str.w	r3, [r4, #328]	; 0x148
		USB_USBINTR_URE | USB_USBINTR_SLE;
	//_VectorsRam[IRQ_USB1+16] = &isr;
	attachInterruptVector(IRQ_USB1, &isr);
	NVIC_ENABLE_IRQ(IRQ_USB1);
6000194e:	4a0d      	ldr	r2, [pc, #52]	; (60001984 <usb_init+0xe8>)
60001950:	f44f 3100 	mov.w	r1, #131072	; 0x20000
	//printf("USB1_ENDPTCTRL0=%08lX\n", USB1_ENDPTCTRL0);
	//printf("USB1_ENDPTCTRL1=%08lX\n", USB1_ENDPTCTRL1);
	//printf("USB1_ENDPTCTRL2=%08lX\n", USB1_ENDPTCTRL2);
	//printf("USB1_ENDPTCTRL3=%08lX\n", USB1_ENDPTCTRL3);
	USB1_USBCMD = USB_USBCMD_RS;
60001954:	2301      	movs	r3, #1
	// Port Change Detect, USB Reset Received, DCSuspend.
	USB1_USBINTR = USB_USBINTR_UE | USB_USBINTR_UEE | /* USB_USBINTR_PCE | */
		USB_USBINTR_URE | USB_USBINTR_SLE;
	//_VectorsRam[IRQ_USB1+16] = &isr;
	attachInterruptVector(IRQ_USB1, &isr);
	NVIC_ENABLE_IRQ(IRQ_USB1);
60001956:	6011      	str	r1, [r2, #0]
	//printf("USB1_ENDPTCTRL0=%08lX\n", USB1_ENDPTCTRL0);
	//printf("USB1_ENDPTCTRL1=%08lX\n", USB1_ENDPTCTRL1);
	//printf("USB1_ENDPTCTRL2=%08lX\n", USB1_ENDPTCTRL2);
	//printf("USB1_ENDPTCTRL3=%08lX\n", USB1_ENDPTCTRL3);
	USB1_USBCMD = USB_USBCMD_RS;
60001958:	f8c4 3140 	str.w	r3, [r4, #320]	; 0x140
6000195c:	bd70      	pop	{r4, r5, r6, pc}
6000195e:	bf00      	nop
60001960:	400d8000 	.word	0x400d8000
60001964:	400fc000 	.word	0x400fc000
60001968:	402e0000 	.word	0x402e0000
6000196c:	400d9000 	.word	0x400d9000
60001970:	001e1c00 	.word	0x001e1c00
60001974:	e000e28c 	.word	0xe000e28c
60001978:	20004000 	.word	0x20004000
6000197c:	20002000 	.word	0x20002000
60001980:	000039d5 	.word	0x000039d5
60001984:	e000e10c 	.word	0xe000e10c

60001988 <analog_init>:
{
	uint32_t mode, avg=0;

	printf("analogInit\n");

	CCM_CCGR1 |= CCM_CCGR1_ADC1(CCM_CCGR_ON);
60001988:	4b11      	ldr	r3, [pc, #68]	; (600019d0 <analog_init+0x48>)
	} else {
		mode |= ADC_CFG_ADIV(0) | ADC_CFG_ADICLK(0); // use IPG
	}
#endif
	//ADC1
	ADC1_CFG = mode | ADC_CFG_ADHSC;
6000198a:	4912      	ldr	r1, [pc, #72]	; (600019d4 <analog_init+0x4c>)
{
	uint32_t mode, avg=0;

	printf("analogInit\n");

	CCM_CCGR1 |= CCM_CCGR1_ADC1(CCM_CCGR_ON);
6000198c:	6ed8      	ldr	r0, [r3, #108]	; 0x6c
#endif
	//ADC1
	ADC1_CFG = mode | ADC_CFG_ADHSC;
	ADC1_GC = avg | ADC_GC_CAL;		// begin cal
	calibrating = 1;
	while (ADC1_GC & ADC_GC_CAL) ;
6000198e:	460a      	mov	r2, r1
{
	uint32_t mode, avg=0;

	printf("analogInit\n");

	CCM_CCGR1 |= CCM_CCGR1_ADC1(CCM_CCGR_ON);
60001990:	f440 3040 	orr.w	r0, r0, #196608	; 0x30000
}

#define MAX_ADC_CLOCK 20000000

FLASHMEM void analog_init(void)
{
60001994:	b430      	push	{r4, r5}
	uint32_t mode, avg=0;

	printf("analogInit\n");

	CCM_CCGR1 |= CCM_CCGR1_ADC1(CCM_CCGR_ON);
60001996:	66d8      	str	r0, [r3, #108]	; 0x6c
	} else {
		mode |= ADC_CFG_ADIV(0) | ADC_CFG_ADICLK(0); // use IPG
	}
#endif
	//ADC1
	ADC1_CFG = mode | ADC_CFG_ADHSC;
60001998:	f240 6537 	movw	r5, #1591	; 0x637
	uint32_t mode, avg=0;

	printf("analogInit\n");

	CCM_CCGR1 |= CCM_CCGR1_ADC1(CCM_CCGR_ON);
	CCM_CCGR1 |= CCM_CCGR1_ADC2(CCM_CCGR_ON);
6000199c:	6ed8      	ldr	r0, [r3, #108]	; 0x6c
		mode |= ADC_CFG_ADIV(0) | ADC_CFG_ADICLK(0); // use IPG
	}
#endif
	//ADC1
	ADC1_CFG = mode | ADC_CFG_ADHSC;
	ADC1_GC = avg | ADC_GC_CAL;		// begin cal
6000199e:	24a0      	movs	r4, #160	; 0xa0
	uint32_t mode, avg=0;

	printf("analogInit\n");

	CCM_CCGR1 |= CCM_CCGR1_ADC1(CCM_CCGR_ON);
	CCM_CCGR1 |= CCM_CCGR1_ADC2(CCM_CCGR_ON);
600019a0:	f440 7040 	orr.w	r0, r0, #768	; 0x300
600019a4:	66d8      	str	r0, [r3, #108]	; 0x6c
	} else {
		mode |= ADC_CFG_ADIV(0) | ADC_CFG_ADICLK(0); // use IPG
	}
#endif
	//ADC1
	ADC1_CFG = mode | ADC_CFG_ADHSC;
600019a6:	644d      	str	r5, [r1, #68]	; 0x44
	ADC1_GC = avg | ADC_GC_CAL;		// begin cal
600019a8:	648c      	str	r4, [r1, #72]	; 0x48
	calibrating = 1;
	while (ADC1_GC & ADC_GC_CAL) ;
600019aa:	6c93      	ldr	r3, [r2, #72]	; 0x48
600019ac:	061b      	lsls	r3, r3, #24
600019ae:	d4fc      	bmi.n	600019aa <analog_init+0x22>
	calibrating = 0;
	//ADC2
	ADC2_CFG = mode | ADC_CFG_ADHSC;
600019b0:	4b09      	ldr	r3, [pc, #36]	; (600019d8 <analog_init+0x50>)
600019b2:	f240 6037 	movw	r0, #1591	; 0x637
	ADC2_GC = avg | ADC_GC_CAL;		// begin cal
600019b6:	21a0      	movs	r1, #160	; 0xa0
	calibrating = 1;
	while (ADC2_GC & ADC_GC_CAL) ;
600019b8:	461a      	mov	r2, r3
	ADC1_GC = avg | ADC_GC_CAL;		// begin cal
	calibrating = 1;
	while (ADC1_GC & ADC_GC_CAL) ;
	calibrating = 0;
	//ADC2
	ADC2_CFG = mode | ADC_CFG_ADHSC;
600019ba:	6458      	str	r0, [r3, #68]	; 0x44
	ADC2_GC = avg | ADC_GC_CAL;		// begin cal
600019bc:	6499      	str	r1, [r3, #72]	; 0x48
	calibrating = 1;
	while (ADC2_GC & ADC_GC_CAL) ;
600019be:	6c93      	ldr	r3, [r2, #72]	; 0x48
600019c0:	f013 0380 	ands.w	r3, r3, #128	; 0x80
600019c4:	d1fb      	bne.n	600019be <analog_init+0x36>
	calibrating = 0;
600019c6:	4a05      	ldr	r2, [pc, #20]	; (600019dc <analog_init+0x54>)
600019c8:	7013      	strb	r3, [r2, #0]
}
600019ca:	bc30      	pop	{r4, r5}
600019cc:	4770      	bx	lr
600019ce:	bf00      	nop
600019d0:	400fc000 	.word	0x400fc000
600019d4:	400c4000 	.word	0x400c4000
600019d8:	400c8000 	.word	0x400c8000
600019dc:	20001cc6 	.word	0x20001cc6

600019e0 <usb_string_product_name_default>:
600019e0:	00550316 00420053 00530020 00720065     ..U.S.B. .S.e.r.
600019f0:	00610069 0000006c                       i.a.l...

600019f8 <usb_string_manufacturer_name_default>:
600019f8:	00540318 00650065 0073006e 00640079     ..T.e.e.n.s.y.d.
60001a08:	00690075 006f006e                       u.i.n.o.

60001a10 <string0>:
60001a10:	04090304                                ....

60001a14 <usb_config_descriptor_12>:
60001a14:	00430209 c0000102 00040932 02020100     ..C.....2.......
60001a24:	24050001 05011000 01010124 06022404     ...$....$....$..
60001a34:	00062405 82050701 10001003 00010409     .$..............
60001a44:	00000a02 03050700 00004002 02840507     .........@......
60001a54:	00000040                                @...

60001a58 <usb_config_descriptor_480>:
60001a58:	00430209 c0000102 00040932 02020100     ..C.....2.......
60001a68:	24050001 05011000 01010124 06022404     ...$....$....$..
60001a78:	00062405 82050701 05001003 00010409     .$..............
60001a88:	00000a02 03050700 00020002 02840507     ................
60001a98:	00000200                                ....

60001a9c <qualifier_descriptor>:
60001a9c:	0200060a 40000002 ff010001                       .......@..

60001aa6 <_serialEvent_default>:
60001aa6:	b5f8ff01                                         ..

60001aa8 <_init>:
60001aa8:	b5f8      	push	{r3, r4, r5, r6, r7, lr}
60001aaa:	bf00      	nop
60001aac:	bcf8      	pop	{r3, r4, r5, r6, r7}
60001aae:	bc08      	pop	{r3}
60001ab0:	469e      	mov	lr, r3
60001ab2:	4770      	bx	lr
60001ab4:	ffff ffff 			; <UNDEFINED> instruction: 0xffffffff

60001ab8 <__delay_veneer>:
60001ab8:	f85f f000 	ldr.w	pc, [pc]	; 60001abc <__delay_veneer+0x4>
60001abc:	00003789 	.word	0x00003789

60001ac0 <__startup_late_hook_veneer>:
60001ac0:	f85f f000 	ldr.w	pc, [pc]	; 60001ac4 <__startup_late_hook_veneer+0x4>
60001ac4:	000038f1 	.word	0x000038f1

60001ac8 <__usb_init_serialnumber_veneer>:
60001ac8:	f85f f000 	ldr.w	pc, [pc]	; 60001acc <__usb_init_serialnumber_veneer+0x4>
60001acc:	00004459 	.word	0x00004459

60001ad0 <__set_arm_clock_veneer>:
60001ad0:	f85f f000 	ldr.w	pc, [pc]	; 60001ad4 <__set_arm_clock_veneer+0x4>
60001ad4:	000034c9 	.word	0x000034c9

60001ad8 <__main_veneer>:
60001ad8:	f85f f000 	ldr.w	pc, [pc]	; 60001adc <__main_veneer+0x4>
60001adc:	000049d1 	.word	0x000049d1

60001ae0 <__startup_early_hook_veneer>:
60001ae0:	f85f f000 	ldr.w	pc, [pc]	; 60001ae4 <__startup_early_hook_veneer+0x4>
60001ae4:	000038ed 	.word	0x000038ed

60001ae8 <__pwm_init_veneer>:
60001ae8:	f85f f000 	ldr.w	pc, [pc]	; 60001aec <__pwm_init_veneer+0x4>
60001aec:	00004c5d 	.word	0x00004c5d

60001af0 <__memset_veneer>:
60001af0:	f85f f000 	ldr.w	pc, [pc]	; 60001af4 <__memset_veneer+0x4>
60001af4:	0000576d 	.word	0x0000576d

60001af8 <____libc_init_array_veneer>:
60001af8:	f85f f000 	ldr.w	pc, [pc]	; 60001afc <____libc_init_array_veneer+0x4>
60001afc:	0000518d 	.word	0x0000518d

60001b00 <__init_array_start>:
60001b00:	00000045 	.word	0x00000045
60001b04:	000002ed 	.word	0x000002ed
60001b08:	00002d79 	.word	0x00002d79
60001b0c:	000030b1 	.word	0x000030b1
60001b10:	00003319 	.word	0x00003319
60001b14:	000034b1 	.word	0x000034b1

60001b18 <__init_array_end>:
60001b18:	ffffffff 	.word	0xffffffff
60001b1c:	ffffffff 	.word	0xffffffff

Disassembly of section .text.itcm:

00000000 <_stext>:
	...

00000020 <__do_global_dtors_aux>:
    /* ready to read temperature code value */
    nmeas = (TEMPMON_TEMPSENSE0 & 0xFFF00U) >> 8U;
    /* Calculate temperature */
    tmeas = s_hotTemp - (float)((nmeas - s_hotCount) * s_hot_ROOM / s_roomC_hotC);

    return tmeas;
      20:	4c05b510 	.word	0x4c05b510
      24:	7823      	ldrb	r3, [r4, #0]
    }

    /* ready to read temperature code value */
    nmeas = (TEMPMON_TEMPSENSE0 & 0xFFF00U) >> 8U;
    /* Calculate temperature */
    tmeas = s_hotTemp - (float)((nmeas - s_hotCount) * s_hot_ROOM / s_roomC_hotC);
      26:	b933      	.short	0xb933

    return tmeas;
      28:	4b04      	ldr	r3, [pc, #16]	; (3c <_teensy_model_identifier+0x17>)
      2a:	b113      	.short	0xb113
      2c:	4804      	ldr	r0, [pc, #16]	; (40 <_teensy_model_identifier+0x1b>)
      2e:	f3af      	.short	0xf3af
      30:	8000      	strh	r0, [r0, #0]
      32:	2301      	movs	r3, #1
      34:	bd107023 	.word	0xbd107023
      38:	0f50      	lsrs	r0, r2, #29
      3a:	2000      	movs	r0, #0
      3c:	0000      	movs	r0, r0
      3e:	0000      	movs	r0, r0
}
      40:	00005c44 	.word	0x00005c44

00000044 <frame_dummy>:
      44:	4b08      	ldr	r3, [pc, #32]	; (68 <frame_dummy+0x24>)
      46:	b510      	.short	0xb510
      48:	b11b      	cbz	r3, 52 <frame_dummy+0xe>
      4a:	4908      	.short	0x4908
      4c:	4808      	ldr	r0, [pc, #32]	; (70 <frame_dummy+0x2c>)
      4e:	f3af      	.short	0xf3af
      50:	8000      	strh	r0, [r0, #0]
      52:	4808      	.short	0x4808
      54:	6803      	ldr	r3, [r0, #0]
      56:	b903      	.short	0xb903
      58:	bd10      	pop	{r4, pc}
      5a:	4b07      	ldr	r3, [pc, #28]	; (78 <frame_dummy+0x34>)
{
	if (mult < 1 || mult > 3) return;
	uint32_t config = (packet_size << 16) | (mult << 30);
	if (ep < 2 || ep > NUM_ENDPOINTS) return;
	usb_endpoint_config(endpoint_queue_head + ep * 2 + 1, config, cb);
	if (cb) endpointN_notify_mask |= (1 << (ep + 16));
      5c:	2b00      	cmp	r3, #0
      5e:	d0fb      	beq.n	58 <frame_dummy+0x14>
      60:	4010e8bd 	.word	0x4010e8bd
      64:	4718      	bx	r3
      66:	bf00      	.short	0xbf00
      mode |= ADC_CFG_AVGS(2);
      mode1 |= ADC_CFG_AVGS(2);

    } else if (num >= 8) {
      mode |= ADC_CFG_AVGS(1);
      mode1 |= ADC_CFG_AVGS(1);
      68:	0000      	movs	r0, r0
    } else {
      mode |= 0;
      mode1 |= 0;
    }

  ADC1_CFG = mode;
      6a:	0000      	movs	r0, r0
  ADC2_CFG = mode1;
  
  if(num >= 4){
      6c:	0f54      	lsrs	r4, r2, #29
      mode |= 0;
      mode1 |= 0;
    }

  ADC1_CFG = mode;
  ADC2_CFG = mode1;
      6e:	2000      	.short	0x2000
    } else {
      mode |= 0;
      mode1 |= 0;
    }

  ADC1_CFG = mode;
      70:	5c44      	ldrb	r4, [r0, r1]
  ADC2_CFG = mode1;
      72:	0000      	movs	r0, r0
  
  if(num >= 4){
      74:	0f50      	lsrs	r0, r2, #29
      ADC1_GC |= ADC_GC_AVGE;// turns on averaging
      ADC2_GC |= ADC_GC_AVGE;// turns on averaging
  }
}
      76:	2000      	movs	r0, #0
      78:	00000000 	.word	0x00000000

0000007c <std::_Function_base::_Base_manager<setup::{lambda()#2}>::_M_manager(std::_Any_data&, std::_Function_base::_Base_manager<setup::{lambda()#2}> const&, std::_Manager_operation)>:
      public:
	static bool
	_M_manager(_Any_data& __dest, const _Any_data& __source,
		   _Manager_operation __op)
	{
	  switch (__op)
      7c:	2a01      	cmp	r2, #1
	    case __get_type_info:
	      __dest._M_access<const type_info*>() = &typeid(_Functor);
	      break;
#endif
	    case __get_functor_ptr:
	      __dest._M_access<_Functor*>() = _M_get_pointer(__source);
      7e:	bf08      	.short	0xbf08
      80:	6001      	streq	r1, [r0, #0]
	    case __destroy_functor:
	      _M_destroy(__dest, _Local_storage());
	      break;
	    }
	  return false;
	}
      82:	2000      	.short	0x2000
      84:	4770      	bx	lr
	while (1) {
		volatile uint32_t n;
		GPIO2_DR_SET = (1<<3); //digitalWrite(13, HIGH);
		for (n=0; n < 2000000/6; n++) ;
		GPIO2_DR_CLEAR = (1<<3); //digitalWrite(13, LOW);
		for (n=0; n < 1500000/6; n++) ;
      86:	bf00      	.short	0xbf00

00000088 <std::_Function_handler<void (), setup::{lambda()#1}>::_M_invoke(std::_Any_data const&)>:
void setup() {
	initBank(&currentPattern); //set bank to factory defaults
	initGlobals(&currentGlobals, 0); //set globals to factory defaults. both of these will change once the eeprom is implemented. 
	///for current testing, these will stay in here. 
	initPins();
	OLEDTimer.beginPeriodic([] {enableCycle(&currentGlobals); }, 10);
      88:	4801      	ldr	r0, [pc, #4]	; (90 <std::_Function_handler<void (), setup::{lambda()#1}>::_M_invoke(std::_Any_data const&)+0x8>)
      8a:	f001      	.short	0xf001
      8c:	b8b1      			; <UNDEFINED> instruction: 0xb8b1
      8e:	bf00      	.short	0xbf00
      90:	0f6c      	lsrs	r4, r5, #29
      92:	2000      	movs	r0, #0

00000094 <std::_Function_handler<void (), setup::{lambda()#2}>::_M_invoke(std::_Any_data const&)>:
	initScreen(&currentGlobals);
	//outputS("Working Screen     ", 1, &currentGlobals);
	initMenu(&screenBank, &currentPattern, &currentGlobals);
	initEncoders();
	EncoderTimer.beginPeriodic([] {listenEncoders(&currentGlobals); }, 1000);
      94:	f0004801 	.word	0xf0004801
      98:	b975      	cbnz	r5, b8 <setup+0xc>
      9a:	bf00      	.short	0xbf00
      9c:	0f6c      	lsrs	r4, r5, #29
      9e:	2000      	.short	0x2000

000000a0 <std::_Function_base::_Base_manager<setup::{lambda()#1}>::_M_manager(std::_Any_data&, std::_Function_base::_Base_manager<setup::{lambda()#1}> const&, std::_Manager_operation)>:
			tail = rx_buffer_tail_;
			do {
				n = port->DATA & 0x3ff;		// Use only up to 10 bits of data
				newhead = head + 1;

				if (newhead >= rx_buffer_total_size_) newhead = 0;
      a0:	2a01      	cmp	r2, #1
      a2:	bf08      	.short	0xbf08
				if (newhead != rx_buffer_tail_) {
      a4:	6001      	streq	r1, [r0, #0]
      a6:	2000      	.short	0x2000
      a8:	4770      	bx	lr
					head = newhead;
					if (newhead < rx_buffer_size_) {
      aa:	bf00      	nop

000000ac <setup>:
int encoderRead2 = 0;
int prevEncoderRead1 = 0;
int prevEncoderRead2 = 0;


void setup() {
      ac:	487eb5f0 	.word	0x487eb5f0
      b0:	b08d      	sub	sp, #52	; 0x34
	initBank(&currentPattern); //set bank to factory defaults
      b2:	f000      	.short	0xf000
      b4:	fa13 2100 			; <UNDEFINED> instruction: 0xfa132100
	initGlobals(&currentGlobals, 0); //set globals to factory defaults. both of these will change once the eeprom is implemented. 
      b8:	2400487c 	.word	0x2400487c
      bc:	f000 fad8 	bl	670 <initGlobals(Globals volatile*, unsigned char)>
     public:
        Timer(TimerGenerator* gen = nullptr);

        inline errorCode beginPeriodic(callback_t cb, uint32_t period)
        {
            isPeriodic = true;
      c0:	f0014d7b 	.word	0xf0014d7b
	///for current testing, these will stay in here. 
	initPins();
      c4:	f9fd 4b7b 	ldr??.w	r4, [sp, #2939]	; 0xb7b
      c8:	22022601 	.word	0x22022601
	typedef _Function_handler<_Signature_type, _Functor> _My_handler;

	if (_My_handler::_M_not_empty_function(__f))
	  {
	    _My_handler::_M_init_functor(_M_functor, std::move(__f));
	    _M_invoker = &_My_handler::_M_invoke;
      cc:	9303      	str	r3, [sp, #12]
    function(const function& __x)
    : _Function_base()
    {
      if (static_cast<bool>(__x))
	{
	  __x._M_manager(_M_functor, __x._M_functor, __clone_functor);
      ce:	4669      	.short	0x4669

	if (_My_handler::_M_not_empty_function(__f))
	  {
	    _My_handler::_M_init_functor(_M_functor, std::move(__f));
	    _M_invoker = &_My_handler::_M_invoke;
	    _M_manager = &_My_handler::_M_manager;
      d0:	4b79      	ldr	r3, [pc, #484]	; (2b8 <setup+0x20c>)
    function(const function& __x)
    : _Function_base()
    {
      if (static_cast<bool>(__x))
	{
	  __x._M_manager(_M_functor, __x._M_functor, __clone_functor);
      d2:	a804      	.short	0xa804
      d4:	722e      	strb	r6, [r5, #8]

	if (_My_handler::_M_not_empty_function(__f))
	  {
	    _My_handler::_M_init_functor(_M_functor, std::move(__f));
	    _M_invoker = &_My_handler::_M_invoke;
	    _M_manager = &_My_handler::_M_manager;
      d6:	9302      	.short	0x9302
	{
	  _Base::_M_init_functor(__functor, std::__addressof(__f.get()));
	}
      };

    _Function_base() : _M_manager(nullptr) { }
      d8:	9406      	str	r4, [sp, #24]
    function(const function& __x)
    : _Function_base()
    {
      if (static_cast<bool>(__x))
	{
	  __x._M_manager(_M_functor, __x._M_functor, __clone_functor);
      da:	f7ff ffe1 	bl	a0 <std::_Function_base::_Base_manager<setup::{lambda()#1}>::_M_manager(std::_Any_data&, std::_Function_base::_Base_manager<setup::{lambda()#1}> const&, std::_Manager_operation)>
	  _M_invoker = __x._M_invoker;
      de:	9a03      	ldr	r2, [sp, #12]
	  _M_manager = __x._M_manager;
      e0:	9b02      	ldr	r3, [sp, #8]
    : _Function_base()
    {
      if (static_cast<bool>(__x))
	{
	  __x._M_manager(_M_functor, __x._M_functor, __clone_functor);
	  _M_invoker = __x._M_invoker;
      e2:	9207      	.short	0x9207
	  _M_manager = __x._M_manager;
      e4:	9306      	str	r3, [sp, #24]
    template <typename T>
    errorCode BaseTimer::begin(callback_t callback, T p, bool start)
    {
        auto period = getPeriod(p);

        if (callback == nullptr) return postError(errorCode::callback);
      e6:	2b00      	.short	0x2b00
      e8:	f000 80ad 	beq.w	246 <setup+0x19a>
        if (isPeriodic && period == 0) return postError(errorCode::reload);

        if (timerChannel == nullptr)
      ec:	2e00686e 	.word	0x2e00686e
      f0:	f000 8098 	beq.w	224 <setup+0x178>
                }
            }
            if (timerChannel == nullptr) return postError(errorCode::noFreeModule);
        }

        errorCode result = timerChannel->begin(callback, period, isPeriodic);
      f4:	68176832 	.word	0x68176832
	{
	  _Base::_M_init_functor(__functor, std::__addressof(__f.get()));
	}
      };

    _Function_base() : _M_manager(nullptr) { }
      f8:	940a      	str	r4, [sp, #40]	; 0x28
    function(const function& __x)
    : _Function_base()
    {
      if (static_cast<bool>(__x))
	{
	  __x._M_manager(_M_functor, __x._M_functor, __clone_functor);
      fa:	ac08      	.short	0xac08
      fc:	2202      	movs	r2, #2
      fe:	a904      	.short	0xa904
     100:	4620      	mov	r0, r4
     102:	4798      	blx	r3
	  _M_invoker = __x._M_invoker;
     104:	9b069a07 	.word	0x9b069a07
     108:	920b      	str	r2, [sp, #44]	; 0x2c
	  _M_manager = __x._M_manager;
     10a:	930a      	.short	0x930a
     10c:	4630      	mov	r0, r6
     10e:	7a2a      	.short	0x7a2a
     110:	eeb2 0a04 	vmov.f32	s0, #36	; 0x41200000  10.0
     114:	47b84621 	.word	0x47b84621

    _Function_base() : _M_manager(nullptr) { }

    ~_Function_base()
    {
      if (_M_manager)
     118:	9b0a      	ldr	r3, [sp, #40]	; 0x28
     11a:	4606      	.short	0x4606
     11c:	b11b      	cbz	r3, 126 <setup+0x7a>
	_M_manager(_M_functor, _M_functor, __destroy_functor);
     11e:	2203      	.short	0x2203
     120:	4621      	mov	r1, r4
     122:	4620      	.short	0x4620
     124:	4798      	blx	r3

        if (result == errorCode::OK)
     126:	2e00      	.short	0x2e00
     128:	d063      	beq.n	1f2 <setup+0x146>
        {
            if (isPeriodic && start) timerChannel->start();
        }
        return postError(result);
     12a:	4630      	.short	0x4630
     12c:	f002 ffae 	bl	308c <TeensyTimerTool::postError(TeensyTimerTool::errorCode)>

    _Function_base() : _M_manager(nullptr) { }

    ~_Function_base()
    {
      if (_M_manager)
     130:	b11b9b06 	.word	0xb11b9b06
	_M_manager(_M_functor, _M_functor, __destroy_functor);
     134:	a904      	add	r1, sp, #16
     136:	2203      	.short	0x2203
     138:	4608      	mov	r0, r1
     13a:	4798      	.short	0x4798

    _Function_base() : _M_manager(nullptr) { }

    ~_Function_base()
    {
      if (_M_manager)
     13c:	9b02      	ldr	r3, [sp, #8]
     13e:	b11b      	cbz	r3, 148 <setup+0x9c>
	_M_manager(_M_functor, _M_functor, __destroy_functor);
     140:	2203      	movs	r2, #3
     142:	4669      	.short	0x4669
     144:	4668      	mov	r0, sp
     146:	4798      	.short	0x4798
	OLEDTimer.beginPeriodic([] {enableCycle(&currentGlobals); }, 10);
	initScreen(&currentGlobals);
     148:	4858      	ldr	r0, [pc, #352]	; (2ac <setup+0x200>)
	{
	  _Base::_M_init_functor(__functor, std::__addressof(__f.get()));
	}
      };

    _Function_base() : _M_manager(nullptr) { }
     14a:	2400      	.short	0x2400
     14c:	f001 fa38 	bl	15c0 <initScreen(Globals volatile*)>
	//outputS("Working Screen     ", 1, &currentGlobals);
	initMenu(&screenBank, &currentPattern, &currentGlobals);
     150:	49554a56 	.word	0x49554a56
     154:	4859      	ldr	r0, [pc, #356]	; (2bc <setup+0x210>)
     156:	f000      	.short	0xf000
     158:	faf7 4d59 			; <UNDEFINED> instruction: 0xfaf74d59
	initEncoders();
     15c:	f8fef000 	.word	0xf8fef000
	typedef _Function_handler<_Signature_type, _Functor> _My_handler;

	if (_My_handler::_M_not_empty_function(__f))
	  {
	    _My_handler::_M_init_functor(_M_functor, std::move(__f));
	    _M_invoker = &_My_handler::_M_invoke;
     160:	4958      	ldr	r1, [pc, #352]	; (2c4 <setup+0x218>)
	    _M_manager = &_My_handler::_M_manager;
     162:	4859      	.short	0x4859
     164:	2301      	movs	r3, #1
    function(const function& __x)
    : _Function_base()
    {
      if (static_cast<bool>(__x))
	{
	  __x._M_manager(_M_functor, __x._M_functor, __clone_functor);
     166:	2202      	.short	0x2202
	typedef _Function_handler<_Signature_type, _Functor> _My_handler;

	if (_My_handler::_M_not_empty_function(__f))
	  {
	    _My_handler::_M_init_functor(_M_functor, std::move(__f));
	    _M_invoker = &_My_handler::_M_invoke;
     168:	9103      	str	r1, [sp, #12]
	    _M_manager = &_My_handler::_M_manager;
     16a:	9002      	.short	0x9002
    function(const function& __x)
    : _Function_base()
    {
      if (static_cast<bool>(__x))
	{
	  __x._M_manager(_M_functor, __x._M_functor, __clone_functor);
     16c:	4669      	mov	r1, sp
     16e:	a804      	.short	0xa804
     170:	722b      	strb	r3, [r5, #8]
	{
	  _Base::_M_init_functor(__functor, std::__addressof(__f.get()));
	}
      };

    _Function_base() : _M_manager(nullptr) { }
     172:	9406      	.short	0x9406
    function(const function& __x)
    : _Function_base()
    {
      if (static_cast<bool>(__x))
	{
	  __x._M_manager(_M_functor, __x._M_functor, __clone_functor);
     174:	f7ff ff82 	bl	7c <std::_Function_base::_Base_manager<setup::{lambda()#2}>::_M_manager(std::_Any_data&, std::_Function_base::_Base_manager<setup::{lambda()#2}> const&, std::_Manager_operation)>
	  _M_invoker = __x._M_invoker;
     178:	9b029a03 	.word	0x9b029a03
     17c:	9207      	str	r2, [sp, #28]
	  _M_manager = __x._M_manager;
     17e:	9306      	.short	0x9306
    template <typename T>
    errorCode BaseTimer::begin(callback_t callback, T p, bool start)
    {
        auto period = getPeriod(p);

        if (callback == nullptr) return postError(errorCode::callback);
     180:	2b00      	cmp	r3, #0
     182:	d064      	.short	0xd064
        if (isPeriodic && period == 0) return postError(errorCode::reload);

        if (timerChannel == nullptr)
     184:	686e      	ldr	r6, [r5, #4]
     186:	2e00      	.short	0x2e00
     188:	d03c      	beq.n	204 <setup+0x158>
                }
            }
            if (timerChannel == nullptr) return postError(errorCode::noFreeModule);
        }

        errorCode result = timerChannel->begin(callback, period, isPeriodic);
     18a:	6832      	ldr	r2, [r6, #0]
     18c:	6817      	ldr	r7, [r2, #0]
	{
	  _Base::_M_init_functor(__functor, std::__addressof(__f.get()));
	}
      };

    _Function_base() : _M_manager(nullptr) { }
     18e:	940a      	str	r4, [sp, #40]	; 0x28
    function(const function& __x)
    : _Function_base()
    {
      if (static_cast<bool>(__x))
	{
	  __x._M_manager(_M_functor, __x._M_functor, __clone_functor);
     190:	ac08      	add	r4, sp, #32
     192:	2202      	movs	r2, #2
     194:	a904      	add	r1, sp, #16
     196:	4620      	mov	r0, r4
     198:	4798      	blx	r3
	  _M_invoker = __x._M_invoker;
     19a:	9a07      	.short	0x9a07
	  _M_manager = __x._M_manager;
     19c:	9b06      	ldr	r3, [sp, #24]
    : _Function_base()
    {
      if (static_cast<bool>(__x))
	{
	  __x._M_manager(_M_functor, __x._M_functor, __clone_functor);
	  _M_invoker = __x._M_invoker;
     19e:	920b      	str	r2, [sp, #44]	; 0x2c
	  _M_manager = __x._M_manager;
     1a0:	4630930a 	.word	0x4630930a
     1a4:	7a2a      	ldrb	r2, [r5, #8]
     1a6:	ed9f      	.short	0xed9f
     1a8:	0a49      	lsrs	r1, r1, #9
     1aa:	4621      	.short	0x4621
     1ac:	47b8      	blx	r7

    _Function_base() : _M_manager(nullptr) { }

    ~_Function_base()
    {
      if (_M_manager)
     1ae:	9b0a      	.short	0x9b0a
     1b0:	4606      	mov	r6, r0
     1b2:	b11b      	.short	0xb11b
	_M_manager(_M_functor, _M_functor, __destroy_functor);
     1b4:	2203      	movs	r2, #3
     1b6:	4621      	mov	r1, r4
     1b8:	47984620 	.word	0x47984620

        if (result == errorCode::OK)
     1bc:	b186      	cbz	r6, 1e0 <setup+0x134>
        {
            if (isPeriodic && start) timerChannel->start();
        }
        return postError(result);
     1be:	4630      	.short	0x4630
     1c0:	f002 ff64 	bl	308c <TeensyTimerTool::postError(TeensyTimerTool::errorCode)>

    _Function_base() : _M_manager(nullptr) { }

    ~_Function_base()
    {
      if (_M_manager)
     1c4:	b11b9b06 	.word	0xb11b9b06
	_M_manager(_M_functor, _M_functor, __destroy_functor);
     1c8:	a904      	add	r1, sp, #16
     1ca:	2203      	.short	0x2203
     1cc:	4608      	mov	r0, r1
     1ce:	4798      	.short	0x4798

    _Function_base() : _M_manager(nullptr) { }

    ~_Function_base()
    {
      if (_M_manager)
     1d0:	9b02      	ldr	r3, [sp, #8]
     1d2:	b11b      	.short	0xb11b
	_M_manager(_M_functor, _M_functor, __destroy_functor);
     1d4:	2203      	movs	r2, #3
     1d6:	4669      	.short	0x4669
     1d8:	4668      	mov	r0, sp
     1da:	4798      	.short	0x4798
	EncoderTimer.beginPeriodic([] {listenEncoders(&currentGlobals); }, 1000);
	Serial.begin(9600);
}
     1dc:	b00d      	add	sp, #52	; 0x34
     1de:	bdf0      	.short	0xbdf0

        errorCode result = timerChannel->begin(callback, period, isPeriodic);

        if (result == errorCode::OK)
        {
            if (isPeriodic && start) timerChannel->start();
     1e0:	7a2b      	ldrb	r3, [r5, #8]
     1e2:	4a37      	.short	0x4a37
     1e4:	2b00      	cmp	r3, #0
     1e6:	d0ea      	.short	0xd0ea
     1e8:	6850      	ldr	r0, [r2, #4]
     1ea:	6803      	.short	0x6803
     1ec:	699b      	ldr	r3, [r3, #24]
     1ee:	4798      	blx	r3
     1f0:	e7e5      	b.n	1be <setup+0x112>
     1f2:	7a2b      	ldrb	r3, [r5, #8]
     1f4:	2b004a2e 	.word	0x2b004a2e
     1f8:	d097      	beq.n	12a <setup+0x7e>
     1fa:	6850      	.short	0x6850
     1fc:	6803      	ldr	r3, [r0, #0]
     1fe:	699b      	.short	0x699b
     200:	4798      	blx	r3
     202:	e792      	.short	0xe792
        if (callback == nullptr) return postError(errorCode::callback);
        if (isPeriodic && period == 0) return postError(errorCode::reload);

        if (timerChannel == nullptr)
        {
            if (timerGenerator != nullptr) // use timer passed in during construction
     204:	682c      	ldr	r4, [r5, #0]
     206:	b334      	.short	0xb334
            {
                timerChannel = timerGenerator();
     208:	47a0      	blx	r4
     20a:	4606      	.short	0x4606
     20c:	6068      	str	r0, [r5, #4]
                if (timerChannel == nullptr) return postError(errorCode::noFreeChannel);
     20e:	2800      	cmp	r0, #0
     210:	d045      	beq.n	29e <setup+0x1f2>
                }
            }
            if (timerChannel == nullptr) return postError(errorCode::noFreeModule);
        }

        errorCode result = timerChannel->begin(callback, period, isPeriodic);
     212:	6831      	ldr	r1, [r6, #0]
	{
	  _Base::_M_init_functor(__functor, std::__addressof(__f.get()));
	}
      };

    _Function_base() : _M_manager(nullptr) { }
     214:	2200      	movs	r2, #0
     216:	9b06      	ldr	r3, [sp, #24]
     218:	680f      	ldr	r7, [r1, #0]
     21a:	920a      	.short	0x920a
  template<typename _Res, typename... _ArgTypes>
    function<_Res(_ArgTypes...)>::
    function(const function& __x)
    : _Function_base()
    {
      if (static_cast<bool>(__x))
     21c:	2b00      	cmp	r3, #0
     21e:	d1b7      	.short	0xd1b7
     220:	ac08      	add	r4, sp, #32
     222:	e7be      	.short	0xe7be
        if (callback == nullptr) return postError(errorCode::callback);
        if (isPeriodic && period == 0) return postError(errorCode::reload);

        if (timerChannel == nullptr)
        {
            if (timerGenerator != nullptr) // use timer passed in during construction
     224:	b334682c 	.word	0xb334682c
            {
                timerChannel = timerGenerator();
     228:	47a0      	blx	r4
     22a:	4606      	.short	0x4606
     22c:	6068      	str	r0, [r5, #4]
                if (timerChannel == nullptr) return postError(errorCode::noFreeChannel);
     22e:	2800      	cmp	r0, #0
     230:	6831d031 	.word	0x6831d031
	{
	  _Base::_M_init_functor(__functor, std::__addressof(__f.get()));
	}
      };

    _Function_base() : _M_manager(nullptr) { }
     234:	2200      	movs	r2, #0
     236:	9b06      	.short	0x9b06
                }
            }
            if (timerChannel == nullptr) return postError(errorCode::noFreeModule);
        }

        errorCode result = timerChannel->begin(callback, period, isPeriodic);
     238:	680f      	ldr	r7, [r1, #0]
     23a:	920a      	str	r2, [sp, #40]	; 0x28
  template<typename _Res, typename... _ArgTypes>
    function<_Res(_ArgTypes...)>::
    function(const function& __x)
    : _Function_base()
    {
      if (static_cast<bool>(__x))
     23c:	f47f2b00 	.word	0xf47f2b00
     240:	af5c      	add	r7, sp, #368	; 0x170
     242:	ac08      	.short	0xac08
     244:	e762      	b.n	10c <setup+0x60>
    template <typename T>
    errorCode BaseTimer::begin(callback_t callback, T p, bool start)
    {
        auto period = getPeriod(p);

        if (callback == nullptr) return postError(errorCode::callback);
     246:	2065      	.short	0x2065
     248:	f002 ff20 	bl	308c <TeensyTimerTool::postError(TeensyTimerTool::errorCode)>
     24c:	2065e770 	.word	0x2065e770
     250:	f002 ff1c 	bl	308c <TeensyTimerTool::postError(TeensyTimerTool::errorCode)>
     254:	4f1ee7b6 	.word	0x4f1ee7b6
                if (timerChannel == nullptr) return postError(errorCode::noFreeChannel);
            } else //find the next free timer
            {
                for (unsigned i = 0; timerChannel == nullptr && i < timerCnt; i++)
                {
                    timerChannel = timerPool[i]();
     258:	f857 3f04 	ldr.w	r3, [r7, #4]!
            {
                timerChannel = timerGenerator();
                if (timerChannel == nullptr) return postError(errorCode::noFreeChannel);
            } else //find the next free timer
            {
                for (unsigned i = 0; timerChannel == nullptr && i < timerCnt; i++)
     25c:	3401      	adds	r4, #1
                {
                    timerChannel = timerPool[i]();
     25e:	4798      	blx	r3
     260:	4606      	mov	r6, r0
     262:	6068      	.short	0x6068
            {
                timerChannel = timerGenerator();
                if (timerChannel == nullptr) return postError(errorCode::noFreeChannel);
            } else //find the next free timer
            {
                for (unsigned i = 0; timerChannel == nullptr && i < timerCnt; i++)
     264:	b908      	cbnz	r0, 26a <setup+0x1be>
     266:	2c07      	cmp	r4, #7
     268:	2e00d1f6 	.word	0x2e00d1f6
                {
                    timerChannel = timerPool[i]();
                }
            }
            if (timerChannel == nullptr) return postError(errorCode::noFreeModule);
     26c:	d1d1      	bne.n	212 <setup+0x166>
     26e:	2067      	.short	0x2067
     270:	f002 ff0c 	bl	308c <TeensyTimerTool::postError(TeensyTimerTool::errorCode)>
     274:	4f16e7a6 	.word	0x4f16e7a6
                if (timerChannel == nullptr) return postError(errorCode::noFreeChannel);
            } else //find the next free timer
            {
                for (unsigned i = 0; timerChannel == nullptr && i < timerCnt; i++)
                {
                    timerChannel = timerPool[i]();
     278:	f857 3f04 	ldr.w	r3, [r7, #4]!
            {
                timerChannel = timerGenerator();
                if (timerChannel == nullptr) return postError(errorCode::noFreeChannel);
            } else //find the next free timer
            {
                for (unsigned i = 0; timerChannel == nullptr && i < timerCnt; i++)
     27c:	3401      	adds	r4, #1
                {
                    timerChannel = timerPool[i]();
     27e:	4798      	blx	r3
     280:	4606      	mov	r6, r0
     282:	6068      	str	r0, [r5, #4]
            {
                timerChannel = timerGenerator();
                if (timerChannel == nullptr) return postError(errorCode::noFreeChannel);
            } else //find the next free timer
            {
                for (unsigned i = 0; timerChannel == nullptr && i < timerCnt; i++)
     284:	b908      	cbnz	r0, 28a <setup+0x1de>
     286:	2c07      	cmp	r4, #7
     288:	d1f6      	bne.n	278 <setup+0x1cc>
                {
                    timerChannel = timerPool[i]();
                }
            }
            if (timerChannel == nullptr) return postError(errorCode::noFreeModule);
     28a:	2e00      	cmp	r6, #0
     28c:	d1d1      	bne.n	232 <setup+0x186>
     28e:	2067      	movs	r0, #103	; 0x67
     290:	f002 fefc 	bl	308c <TeensyTimerTool::postError(TeensyTimerTool::errorCode)>
     294:	e74c      	b.n	130 <setup+0x84>
        if (timerChannel == nullptr)
        {
            if (timerGenerator != nullptr) // use timer passed in during construction
            {
                timerChannel = timerGenerator();
                if (timerChannel == nullptr) return postError(errorCode::noFreeChannel);
     296:	2068      	movs	r0, #104	; 0x68
     298:	f002 fef8 	bl	308c <TeensyTimerTool::postError(TeensyTimerTool::errorCode)>
     29c:	e748      	b.n	130 <setup+0x84>
     29e:	2068      	movs	r0, #104	; 0x68
     2a0:	f002 fef4 	bl	308c <TeensyTimerTool::postError(TeensyTimerTool::errorCode)>
     2a4:	e78e      	b.n	1c4 <setup+0x118>
     2a6:	bf00      	nop
     2a8:	200012a4 	.word	0x200012a4
     2ac:	20000f6c 	.word	0x20000f6c
     2b0:	20001278 	.word	0x20001278
     2b4:	00000089 	.word	0x00000089
     2b8:	000000a1 	.word	0x000000a1
     2bc:	20001420 	.word	0x20001420
     2c0:	20001268 	.word	0x20001268
     2c4:	00000095 	.word	0x00000095
     2c8:	0000007d 	.word	0x0000007d
     2cc:	447a0000 	.word	0x447a0000
     2d0:	20001284 	.word	0x20001284

000002d4 <loop>:

// the loop function runs over and over again until power down or reset
void loop() {
	updateScreen(&screenBank, &currentPattern, &currentGlobals);
     2d4:	4a02      	ldr	r2, [pc, #8]	; (2e0 <loop+0xc>)
     2d6:	4903      	ldr	r1, [pc, #12]	; (2e4 <loop+0x10>)
     2d8:	4803      	ldr	r0, [pc, #12]	; (2e8 <loop+0x14>)
     2da:	f000 bb1f 	b.w	91c <updateScreen(Screen volatile*, Pattern volatile*, Globals volatile*)>
     2de:	bf00      	nop
     2e0:	20000f6c 	.word	0x20000f6c
     2e4:	200012a4 	.word	0x200012a4
     2e8:	20001420 	.word	0x20001420

000002ec <_GLOBAL__sub_I_currentPattern>:

     2ec:	b5f8      	push	{r3, r4, r5, r6, r7, lr}

#if defined(ARDUINO_TEENSY40)
    TimerGenerator* const timerPool[] = {GPT1, GPT2, TMR1, TMR2, TMR3, TMR4, TCK};

#elif defined(ARDUINO_TEENSY41)
    TimerGenerator* const timerPool[] = {GPT1, GPT2, TMR1, TMR2, TMR3, TMR4, TCK};
     2ee:	4811      	ldr	r0, [pc, #68]	; (334 <_GLOBAL__sub_I_currentPattern+0x48>)
#include <Encoder.h>
//initialize our global structs. 
volatile Pattern currentPattern;
volatile Globals currentGlobals;
volatile Screen screenBank;
TeensyTimerTool::Timer OLEDTimer;
     2f0:	2100      	movs	r1, #0
     2f2:	4b11      	ldr	r3, [pc, #68]	; (338 <_GLOBAL__sub_I_currentPattern+0x4c>)
     2f4:	4f11      	ldr	r7, [pc, #68]	; (33c <_GLOBAL__sub_I_currentPattern+0x50>)
     2f6:	4e12      	ldr	r6, [pc, #72]	; (340 <_GLOBAL__sub_I_currentPattern+0x54>)
     2f8:	4d12      	ldr	r5, [pc, #72]	; (344 <_GLOBAL__sub_I_currentPattern+0x58>)
     2fa:	4c13      	ldr	r4, [pc, #76]	; (348 <_GLOBAL__sub_I_currentPattern+0x5c>)
     2fc:	4a13      	ldr	r2, [pc, #76]	; (34c <_GLOBAL__sub_I_currentPattern+0x60>)
     2fe:	f8d3 e000 	ldr.w	lr, [r3]
     302:	6800      	ldr	r0, [r0, #0]
     304:	4b12      	ldr	r3, [pc, #72]	; (350 <_GLOBAL__sub_I_currentPattern+0x64>)
     306:	683f      	ldr	r7, [r7, #0]
     308:	6836      	ldr	r6, [r6, #0]
     30a:	682d      	ldr	r5, [r5, #0]
     30c:	6824      	ldr	r4, [r4, #0]
     30e:	6812      	ldr	r2, [r2, #0]
     310:	6058      	str	r0, [r3, #4]
     312:	4810      	ldr	r0, [pc, #64]	; (354 <_GLOBAL__sub_I_currentPattern+0x68>)
     314:	f8c3 e000 	str.w	lr, [r3]
     318:	609f      	str	r7, [r3, #8]
     31a:	60de      	str	r6, [r3, #12]
     31c:	611d      	str	r5, [r3, #16]
     31e:	615c      	str	r4, [r3, #20]
     320:	619a      	str	r2, [r3, #24]
     322:	f002 fea1 	bl	3068 <TeensyTimerTool::Timer::Timer(TeensyTimerTool::ITimerChannel* (*)())>
TeensyTimerTool::Timer EncoderTimer;
     326:	2100      	movs	r1, #0
     328:	480b      	ldr	r0, [pc, #44]	; (358 <_GLOBAL__sub_I_currentPattern+0x6c>)

// the loop function runs over and over again until power down or reset
void loop() {
	updateScreen(&screenBank, &currentPattern, &currentGlobals);

     32a:	e8bd 40f8 	ldmia.w	sp!, {r3, r4, r5, r6, r7, lr}
//initialize our global structs. 
volatile Pattern currentPattern;
volatile Globals currentGlobals;
volatile Screen screenBank;
TeensyTimerTool::Timer OLEDTimer;
TeensyTimerTool::Timer EncoderTimer;
     32e:	f002 be9b 	b.w	3068 <TeensyTimerTool::Timer::Timer(TeensyTimerTool::ITimerChannel* (*)())>
     332:	bf00      	nop
     334:	20000250 	.word	0x20000250
     338:	2000024c 	.word	0x2000024c
     33c:	20000254 	.word	0x20000254
     340:	20000258 	.word	0x20000258
     344:	2000025c 	.word	0x2000025c
     348:	20000264 	.word	0x20000264
     34c:	20000260 	.word	0x20000260
     350:	20001288 	.word	0x20001288
     354:	20001278 	.word	0x20001278
     358:	20001268 	.word	0x20001268

0000035c <initEncoders()>:
uint8_t topEncoderLastValue = 0;
uint8_t bottomEncoderLastValue = 0;

void initEncoders() 
{
	pinMode(2, INPUT_PULLUP);
     35c:	2102      	movs	r1, #2
//volatile uint8_t bottomEncoderValue;
uint8_t topEncoderLastValue = 0;
uint8_t bottomEncoderLastValue = 0;

void initEncoders() 
{
     35e:	b508      	push	{r3, lr}
	pinMode(2, INPUT_PULLUP);
     360:	4608      	mov	r0, r1
     362:	f003 fa77 	bl	3854 <pinMode>
	pinMode(3, INPUT_PULLUP);
     366:	2102      	movs	r1, #2
     368:	2003      	movs	r0, #3
     36a:	f003 fa73 	bl	3854 <pinMode>
	pinMode(4, INPUT_PULLUP);
     36e:	2102      	movs	r1, #2
     370:	2004      	movs	r0, #4
     372:	f003 fa6f 	bl	3854 <pinMode>
	pinMode(5, INPUT_PULLUP);
     376:	2102      	movs	r1, #2
     378:	2005      	movs	r0, #5

}
     37a:	e8bd 4008 	ldmia.w	sp!, {r3, lr}
void initEncoders() 
{
	pinMode(2, INPUT_PULLUP);
	pinMode(3, INPUT_PULLUP);
	pinMode(4, INPUT_PULLUP);
	pinMode(5, INPUT_PULLUP);
     37e:	f003 ba69 	b.w	3854 <pinMode>
     382:	bf00      	nop

00000384 <listenEncoders(Globals volatile*)>:

void listenEncoders(volatile Globals *encoderGlobals) 
{
	//we'll be calling this every millisecond. 
	//still need to implement bottom encoder. 
	prevNextCodeTop = prevNextCodeTop << 1;
     384:	4b4f      	ldr	r3, [pc, #316]	; (4c4 <listenEncoders(Globals volatile*)+0x140>)
	prevNextCodeTop |= digitalReadFast(3);
	prevNextCodeTop = prevNextCodeTop << 1;
	prevNextCodeTop |= digitalReadFast(2);
	prevNextCodeTop &= 0x0F;

	prevNextCodeBottom = prevNextCodeBottom << 1;
     386:	4a50      	ldr	r2, [pc, #320]	; (4c8 <listenEncoders(Globals volatile*)+0x144>)
	pinMode(5, INPUT_PULLUP);

}

void listenEncoders(volatile Globals *encoderGlobals) 
{
     388:	b470      	push	{r4, r5, r6}
	//we'll be calling this every millisecond. 
	//still need to implement bottom encoder. 
	prevNextCodeTop = prevNextCodeTop << 1;
     38a:	7819      	ldrb	r1, [r3, #0]
		} else if (pin == 1) {
			return (CORE_PIN1_PINREG & CORE_PIN1_BITMASK) ? 1 : 0;
		} else if (pin == 2) {
			return (CORE_PIN2_PINREG & CORE_PIN2_BITMASK) ? 1 : 0;
		} else if (pin == 3) {
			return (CORE_PIN3_PINREG & CORE_PIN3_BITMASK) ? 1 : 0;
     38c:	4d4f      	ldr	r5, [pc, #316]	; (4cc <listenEncoders(Globals volatile*)+0x148>)
     38e:	0049      	lsls	r1, r1, #1
	prevNextCodeBottom |= digitalReadFast(4);
	prevNextCodeBottom &= 0x0F;



	if (rotEncTable[prevNextCodeTop])
     390:	4c4f      	ldr	r4, [pc, #316]	; (4d0 <listenEncoders(Globals volatile*)+0x14c>)

void listenEncoders(volatile Globals *encoderGlobals) 
{
	//we'll be calling this every millisecond. 
	//still need to implement bottom encoder. 
	prevNextCodeTop = prevNextCodeTop << 1;
     392:	b2c9      	uxtb	r1, r1
     394:	7019      	strb	r1, [r3, #0]
     396:	68a9      	ldr	r1, [r5, #8]
	prevNextCodeTop |= digitalReadFast(3);
     398:	781e      	ldrb	r6, [r3, #0]
     39a:	f3c1 1140 	ubfx	r1, r1, #5, #1
     39e:	4331      	orrs	r1, r6
     3a0:	7019      	strb	r1, [r3, #0]
	prevNextCodeTop = prevNextCodeTop << 1;
     3a2:	7819      	ldrb	r1, [r3, #0]
     3a4:	0049      	lsls	r1, r1, #1
     3a6:	b2c9      	uxtb	r1, r1
     3a8:	7019      	strb	r1, [r3, #0]
		if (pin == 0) {
			return (CORE_PIN0_PINREG & CORE_PIN0_BITMASK) ? 1 : 0;
		} else if (pin == 1) {
			return (CORE_PIN1_PINREG & CORE_PIN1_BITMASK) ? 1 : 0;
		} else if (pin == 2) {
			return (CORE_PIN2_PINREG & CORE_PIN2_BITMASK) ? 1 : 0;
     3aa:	68a9      	ldr	r1, [r5, #8]
	prevNextCodeTop |= digitalReadFast(2);
     3ac:	781e      	ldrb	r6, [r3, #0]
     3ae:	f3c1 1100 	ubfx	r1, r1, #4, #1
     3b2:	4331      	orrs	r1, r6
     3b4:	7019      	strb	r1, [r3, #0]
	prevNextCodeTop &= 0x0F;
     3b6:	7819      	ldrb	r1, [r3, #0]
     3b8:	f001 010f 	and.w	r1, r1, #15
     3bc:	7019      	strb	r1, [r3, #0]

	prevNextCodeBottom = prevNextCodeBottom << 1;
     3be:	7811      	ldrb	r1, [r2, #0]
     3c0:	0049      	lsls	r1, r1, #1
     3c2:	b2c9      	uxtb	r1, r1
     3c4:	7011      	strb	r1, [r2, #0]
		} else if (pin == 3) {
			return (CORE_PIN3_PINREG & CORE_PIN3_BITMASK) ? 1 : 0;
		} else if (pin == 4) {
			return (CORE_PIN4_PINREG & CORE_PIN4_BITMASK) ? 1 : 0;
		} else if (pin == 5) {
			return (CORE_PIN5_PINREG & CORE_PIN5_BITMASK) ? 1 : 0;
     3c6:	68a9      	ldr	r1, [r5, #8]
	prevNextCodeBottom |= digitalReadFast(5);
     3c8:	7816      	ldrb	r6, [r2, #0]
     3ca:	f3c1 2100 	ubfx	r1, r1, #8, #1
     3ce:	4331      	orrs	r1, r6
     3d0:	7011      	strb	r1, [r2, #0]
	prevNextCodeBottom = prevNextCodeBottom << 1;
     3d2:	7811      	ldrb	r1, [r2, #0]
     3d4:	0049      	lsls	r1, r1, #1
     3d6:	b2c9      	uxtb	r1, r1
     3d8:	7011      	strb	r1, [r2, #0]
		} else if (pin == 2) {
			return (CORE_PIN2_PINREG & CORE_PIN2_BITMASK) ? 1 : 0;
		} else if (pin == 3) {
			return (CORE_PIN3_PINREG & CORE_PIN3_BITMASK) ? 1 : 0;
		} else if (pin == 4) {
			return (CORE_PIN4_PINREG & CORE_PIN4_BITMASK) ? 1 : 0;
     3da:	68a9      	ldr	r1, [r5, #8]
	prevNextCodeBottom |= digitalReadFast(4);
     3dc:	7815      	ldrb	r5, [r2, #0]
     3de:	f3c1 1180 	ubfx	r1, r1, #6, #1
     3e2:	4329      	orrs	r1, r5
     3e4:	7011      	strb	r1, [r2, #0]
	prevNextCodeBottom &= 0x0F;
     3e6:	7811      	ldrb	r1, [r2, #0]
     3e8:	f001 010f 	and.w	r1, r1, #15
     3ec:	7011      	strb	r1, [r2, #0]



	if (rotEncTable[prevNextCodeTop])
     3ee:	7819      	ldrb	r1, [r3, #0]
     3f0:	5661      	ldrsb	r1, [r4, r1]
     3f2:	b171      	cbz	r1, 412 <listenEncoders(Globals volatile*)+0x8e>
	{
		storeTop = storeTop << 4;
     3f4:	4937      	ldr	r1, [pc, #220]	; (4d4 <listenEncoders(Globals volatile*)+0x150>)
     3f6:	780d      	ldrb	r5, [r1, #0]
     3f8:	012d      	lsls	r5, r5, #4
     3fa:	b2ed      	uxtb	r5, r5
     3fc:	700d      	strb	r5, [r1, #0]
		storeTop |= prevNextCodeTop;
     3fe:	781d      	ldrb	r5, [r3, #0]
     400:	780b      	ldrb	r3, [r1, #0]
     402:	432b      	orrs	r3, r5
     404:	700b      	strb	r3, [r1, #0]
		if ((storeTop&0xFF)==0x2B) 
     406:	780b      	ldrb	r3, [r1, #0]
     408:	2b2b      	cmp	r3, #43	; 0x2b
     40a:	d038      	beq.n	47e <listenEncoders(Globals volatile*)+0xfa>
			currentTopEncoderMenu = currentTopEncoderMenu << 4;
			currentTopEncoderMenu = currentTopEncoderMenu & 0b01110000; //stay in range, we don't want to trigger a click
			encoderGlobals->menuState = currentTopEncoderMenu; //assign the new menustate
			encoderGlobals->valueChangeFlag |= (1 << encoderChange);
		}
		if ((storeTop & 0xFF) == 0x17) 
     40c:	780b      	ldrb	r3, [r1, #0]
     40e:	2b17      	cmp	r3, #23
     410:	d046      	beq.n	4a0 <listenEncoders(Globals volatile*)+0x11c>
			encoderGlobals->menuState = currentTopEncoderMenu; //assign the new menustate
			encoderGlobals->valueChangeFlag |= (1 << encoderChange);
		}
	}

	if (rotEncTable[prevNextCodeBottom])
     412:	7813      	ldrb	r3, [r2, #0]
     414:	4d2c      	ldr	r5, [pc, #176]	; (4c8 <listenEncoders(Globals volatile*)+0x144>)
     416:	56e3      	ldrsb	r3, [r4, r3]
     418:	b17b      	cbz	r3, 43a <listenEncoders(Globals volatile*)+0xb6>
	{
		storeBottom = storeBottom << 4;
     41a:	4a2f      	ldr	r2, [pc, #188]	; (4d8 <listenEncoders(Globals volatile*)+0x154>)
		storeBottom |= prevNextCodeBottom; //This whole thing should probably be handled differently
		if ((storeTop & 0xFF) == 0x2B)
     41c:	492d      	ldr	r1, [pc, #180]	; (4d4 <listenEncoders(Globals volatile*)+0x150>)
		}
	}

	if (rotEncTable[prevNextCodeBottom])
	{
		storeBottom = storeBottom << 4;
     41e:	7813      	ldrb	r3, [r2, #0]
     420:	011b      	lsls	r3, r3, #4
     422:	b2db      	uxtb	r3, r3
     424:	7013      	strb	r3, [r2, #0]
		storeBottom |= prevNextCodeBottom; //This whole thing should probably be handled differently
     426:	782c      	ldrb	r4, [r5, #0]
     428:	7813      	ldrb	r3, [r2, #0]
     42a:	4323      	orrs	r3, r4
     42c:	7013      	strb	r3, [r2, #0]
		if ((storeTop & 0xFF) == 0x2B)
     42e:	780b      	ldrb	r3, [r1, #0]
     430:	2b2b      	cmp	r3, #43	; 0x2b
     432:	d013      	beq.n	45c <listenEncoders(Globals volatile*)+0xd8>
			currentBottomEncoderMenu++;
			currentBottomEncoderMenu = currentBottomEncoderMenu & 0b00000111; 
			encoderGlobals->menuState = (encoderGlobals->menuState & 0b11111000) | currentBottomEncoderMenu;
			encoderGlobals->valueChangeFlag |= (1 << encoderChange); 
		}
		if ((storeTop & 0xFF) == 0x17)
     434:	780b      	ldrb	r3, [r1, #0]
     436:	2b17      	cmp	r3, #23
     438:	d001      	beq.n	43e <listenEncoders(Globals volatile*)+0xba>
			currentBottomEncoderMenu = currentBottomEncoderMenu & 0b00000111;
			encoderGlobals->menuState = (encoderGlobals->menuState & 0b11111000) | currentBottomEncoderMenu;
			encoderGlobals->valueChangeFlag |= (1 << encoderChange);
		}
	}
     43a:	bc70      	pop	{r4, r5, r6}
     43c:	4770      	bx	lr
			encoderGlobals->menuState = (encoderGlobals->menuState & 0b11111000) | currentBottomEncoderMenu;
			encoderGlobals->valueChangeFlag |= (1 << encoderChange); 
		}
		if ((storeTop & 0xFF) == 0x17)
		{
			uint8_t currentBottomEncoderMenu = (encoderGlobals->menuState) & 0b00000111; //we only use the bottom 3 bits to make menu changes;
     43e:	7ac3      	ldrb	r3, [r0, #11]
			currentBottomEncoderMenu--;
			currentBottomEncoderMenu = currentBottomEncoderMenu & 0b00000111;
			encoderGlobals->menuState = (encoderGlobals->menuState & 0b11111000) | currentBottomEncoderMenu;
     440:	7ac2      	ldrb	r2, [r0, #11]
			encoderGlobals->valueChangeFlag |= (1 << encoderChange); 
		}
		if ((storeTop & 0xFF) == 0x17)
		{
			uint8_t currentBottomEncoderMenu = (encoderGlobals->menuState) & 0b00000111; //we only use the bottom 3 bits to make menu changes;
			currentBottomEncoderMenu--;
     442:	3307      	adds	r3, #7
			currentBottomEncoderMenu = currentBottomEncoderMenu & 0b00000111;
			encoderGlobals->menuState = (encoderGlobals->menuState & 0b11111000) | currentBottomEncoderMenu;
     444:	f002 02f8 	and.w	r2, r2, #248	; 0xf8
     448:	f003 0307 	and.w	r3, r3, #7
     44c:	4313      	orrs	r3, r2
     44e:	72c3      	strb	r3, [r0, #11]
			encoderGlobals->valueChangeFlag |= (1 << encoderChange);
     450:	7bc3      	ldrb	r3, [r0, #15]
     452:	f043 0301 	orr.w	r3, r3, #1
		}
	}
     456:	bc70      	pop	{r4, r5, r6}
		{
			uint8_t currentBottomEncoderMenu = (encoderGlobals->menuState) & 0b00000111; //we only use the bottom 3 bits to make menu changes;
			currentBottomEncoderMenu--;
			currentBottomEncoderMenu = currentBottomEncoderMenu & 0b00000111;
			encoderGlobals->menuState = (encoderGlobals->menuState & 0b11111000) | currentBottomEncoderMenu;
			encoderGlobals->valueChangeFlag |= (1 << encoderChange);
     458:	73c3      	strb	r3, [r0, #15]
		}
	}
     45a:	4770      	bx	lr
	{
		storeBottom = storeBottom << 4;
		storeBottom |= prevNextCodeBottom; //This whole thing should probably be handled differently
		if ((storeTop & 0xFF) == 0x2B)
		{
			uint8_t currentBottomEncoderMenu = (encoderGlobals->menuState) & 0b00000111; //we only use the bottom 3 bits to make menu changes;
     45c:	7ac3      	ldrb	r3, [r0, #11]
			currentBottomEncoderMenu++;
			currentBottomEncoderMenu = currentBottomEncoderMenu & 0b00000111; 
			encoderGlobals->menuState = (encoderGlobals->menuState & 0b11111000) | currentBottomEncoderMenu;
     45e:	7ac2      	ldrb	r2, [r0, #11]
		storeBottom = storeBottom << 4;
		storeBottom |= prevNextCodeBottom; //This whole thing should probably be handled differently
		if ((storeTop & 0xFF) == 0x2B)
		{
			uint8_t currentBottomEncoderMenu = (encoderGlobals->menuState) & 0b00000111; //we only use the bottom 3 bits to make menu changes;
			currentBottomEncoderMenu++;
     460:	3301      	adds	r3, #1
			currentBottomEncoderMenu = currentBottomEncoderMenu & 0b00000111; 
			encoderGlobals->menuState = (encoderGlobals->menuState & 0b11111000) | currentBottomEncoderMenu;
     462:	f002 02f8 	and.w	r2, r2, #248	; 0xf8
     466:	f003 0307 	and.w	r3, r3, #7
     46a:	4313      	orrs	r3, r2
     46c:	72c3      	strb	r3, [r0, #11]
			encoderGlobals->valueChangeFlag |= (1 << encoderChange); 
     46e:	7bc3      	ldrb	r3, [r0, #15]
     470:	f043 0301 	orr.w	r3, r3, #1
     474:	73c3      	strb	r3, [r0, #15]
		}
		if ((storeTop & 0xFF) == 0x17)
     476:	780b      	ldrb	r3, [r1, #0]
     478:	2b17      	cmp	r3, #23
     47a:	d1de      	bne.n	43a <listenEncoders(Globals volatile*)+0xb6>
     47c:	e7df      	b.n	43e <listenEncoders(Globals volatile*)+0xba>
	{
		storeTop = storeTop << 4;
		storeTop |= prevNextCodeTop;
		if ((storeTop&0xFF)==0x2B) 
		{
			uint8_t currentTopEncoderMenu = (encoderGlobals->menuState)&0b01110000;
     47e:	7ac3      	ldrb	r3, [r0, #11]
			currentTopEncoderMenu = currentTopEncoderMenu >> 4; 
     480:	f3c3 1302 	ubfx	r3, r3, #4, #3
			currentTopEncoderMenu++;
     484:	3301      	adds	r3, #1
			if (currentTopEncoderMenu > 3) 
     486:	2b03      	cmp	r3, #3
     488:	d818      	bhi.n	4bc <listenEncoders(Globals volatile*)+0x138>
     48a:	011b      	lsls	r3, r3, #4
     48c:	f003 0370 	and.w	r3, r3, #112	; 0x70
			{
				currentTopEncoderMenu = 0;
			}
			currentTopEncoderMenu = currentTopEncoderMenu << 4;
			currentTopEncoderMenu = currentTopEncoderMenu & 0b01110000; //stay in range, we don't want to trigger a click
			encoderGlobals->menuState = currentTopEncoderMenu; //assign the new menustate
     490:	72c3      	strb	r3, [r0, #11]
			encoderGlobals->valueChangeFlag |= (1 << encoderChange);
     492:	7bc3      	ldrb	r3, [r0, #15]
     494:	f043 0301 	orr.w	r3, r3, #1
     498:	73c3      	strb	r3, [r0, #15]
		}
		if ((storeTop & 0xFF) == 0x17) 
     49a:	780b      	ldrb	r3, [r1, #0]
     49c:	2b17      	cmp	r3, #23
     49e:	d1b8      	bne.n	412 <listenEncoders(Globals volatile*)+0x8e>
		{
			uint8_t currentTopEncoderMenu = (encoderGlobals->menuState) & 0b01110000;
     4a0:	7ac3      	ldrb	r3, [r0, #11]
			currentTopEncoderMenu = currentTopEncoderMenu >> 4;
     4a2:	f3c3 1302 	ubfx	r3, r3, #4, #3
			if (currentTopEncoderMenu == 0) 
     4a6:	b15b      	cbz	r3, 4c0 <listenEncoders(Globals volatile*)+0x13c>
     4a8:	3b01      	subs	r3, #1
     4aa:	011b      	lsls	r3, r3, #4
     4ac:	f003 0370 	and.w	r3, r3, #112	; 0x70
				currentTopEncoderMenu = 4; //set this to 1 higher than the last menu option. 
			}
			currentTopEncoderMenu--;
			currentTopEncoderMenu = currentTopEncoderMenu << 4;
			currentTopEncoderMenu = currentTopEncoderMenu & 0b01110000; //stay in range, we don't want to trigger a click
			encoderGlobals->menuState = currentTopEncoderMenu; //assign the new menustate
     4b0:	72c3      	strb	r3, [r0, #11]
			encoderGlobals->valueChangeFlag |= (1 << encoderChange);
     4b2:	7bc3      	ldrb	r3, [r0, #15]
     4b4:	f043 0301 	orr.w	r3, r3, #1
     4b8:	73c3      	strb	r3, [r0, #15]
     4ba:	e7aa      	b.n	412 <listenEncoders(Globals volatile*)+0x8e>
     4bc:	2300      	movs	r3, #0
     4be:	e7e7      	b.n	490 <listenEncoders(Globals volatile*)+0x10c>
     4c0:	2330      	movs	r3, #48	; 0x30
     4c2:	e7f5      	b.n	4b0 <listenEncoders(Globals volatile*)+0x12c>
     4c4:	200017d4 	.word	0x200017d4
     4c8:	200017d2 	.word	0x200017d2
     4cc:	4200c000 	.word	0x4200c000
     4d0:	20000000 	.word	0x20000000
     4d4:	200017d1 	.word	0x200017d1
     4d8:	200017d3 	.word	0x200017d3

000004dc <initBank(Pattern volatile*)>:
	for (uint8_t i = 0; i < 16; i++)
	{
		currentInitPattern->trackSampleLSB[i] = i + 1;
		currentInitPattern->trackPlayMode[i] = 0x01;
		currentInitPattern->envelopeType[i] = 3;
		currentInitPattern->trackSustainTimeLSB[i] = 0;
     4dc:	2200      	movs	r2, #0

void initBank(volatile Pattern* currentInitPattern)
{
	for (uint8_t i = 0; i < 16; i++)
	{
		currentInitPattern->trackSampleLSB[i] = i + 1;
     4de:	f04f 0c02 	mov.w	ip, #2
     4e2:	2107      	movs	r1, #7
		currentInitPattern->trackPlayMode[i] = 0x01;
		currentInitPattern->envelopeType[i] = 3;
		currentInitPattern->trackSustainTimeLSB[i] = 0;
		currentInitPattern->trackSustainTimeMSB[i] = 0;
     4e4:	4613      	mov	r3, r2
// 

#include "globalVariables.h"

void initBank(volatile Pattern* currentInitPattern)
{
     4e6:	b5f0      	push	{r4, r5, r6, r7, lr}
	for (uint8_t i = 0; i < 16; i++)
	{
		currentInitPattern->trackSampleLSB[i] = i + 1;
     4e8:	2501      	movs	r5, #1
		currentInitPattern->trackPlayMode[i] = 0x01;
		currentInitPattern->envelopeType[i] = 3;
     4ea:	2403      	movs	r4, #3

void initBank(volatile Pattern* currentInitPattern)
{
	for (uint8_t i = 0; i < 16; i++)
	{
		currentInitPattern->trackSampleLSB[i] = i + 1;
     4ec:	f04f 0e04 	mov.w	lr, #4
     4f0:	2705      	movs	r7, #5
     4f2:	2606      	movs	r6, #6
     4f4:	f880 50a8 	strb.w	r5, [r0, #168]	; 0xa8
		currentInitPattern->trackPlayMode[i] = 0x01;
     4f8:	f880 5088 	strb.w	r5, [r0, #136]	; 0x88
		currentInitPattern->envelopeType[i] = 3;
     4fc:	f880 40eb 	strb.w	r4, [r0, #235]	; 0xeb
		currentInitPattern->trackSustainTimeLSB[i] = 0;
     500:	f880 20db 	strb.w	r2, [r0, #219]	; 0xdb
		currentInitPattern->trackSustainTimeMSB[i] = 0;
     504:	f880 20cb 	strb.w	r2, [r0, #203]	; 0xcb

void initBank(volatile Pattern* currentInitPattern)
{
	for (uint8_t i = 0; i < 16; i++)
	{
		currentInitPattern->trackSampleLSB[i] = i + 1;
     508:	f880 c0a9 	strb.w	ip, [r0, #169]	; 0xa9
     50c:	f04f 0c08 	mov.w	ip, #8
		currentInitPattern->trackPlayMode[i] = 0x01;
     510:	f880 5089 	strb.w	r5, [r0, #137]	; 0x89
		currentInitPattern->envelopeType[i] = 3;
     514:	f880 40ec 	strb.w	r4, [r0, #236]	; 0xec
		currentInitPattern->trackSustainTimeLSB[i] = 0;
     518:	f880 20dc 	strb.w	r2, [r0, #220]	; 0xdc
		currentInitPattern->trackSustainTimeMSB[i] = 0;
     51c:	f880 20cc 	strb.w	r2, [r0, #204]	; 0xcc

void initBank(volatile Pattern* currentInitPattern)
{
	for (uint8_t i = 0; i < 16; i++)
	{
		currentInitPattern->trackSampleLSB[i] = i + 1;
     520:	f880 40aa 	strb.w	r4, [r0, #170]	; 0xaa
		currentInitPattern->trackPlayMode[i] = 0x01;
     524:	f880 508a 	strb.w	r5, [r0, #138]	; 0x8a
		currentInitPattern->envelopeType[i] = 3;
     528:	f880 40ed 	strb.w	r4, [r0, #237]	; 0xed
		currentInitPattern->trackSustainTimeLSB[i] = 0;
     52c:	f880 20dd 	strb.w	r2, [r0, #221]	; 0xdd
		currentInitPattern->trackSustainTimeMSB[i] = 0;
     530:	f880 20cd 	strb.w	r2, [r0, #205]	; 0xcd

void initBank(volatile Pattern* currentInitPattern)
{
	for (uint8_t i = 0; i < 16; i++)
	{
		currentInitPattern->trackSampleLSB[i] = i + 1;
     534:	f880 e0ab 	strb.w	lr, [r0, #171]	; 0xab
     538:	f04f 0e09 	mov.w	lr, #9
		currentInitPattern->trackPlayMode[i] = 0x01;
     53c:	f880 508b 	strb.w	r5, [r0, #139]	; 0x8b
		currentInitPattern->envelopeType[i] = 3;
     540:	f880 40ee 	strb.w	r4, [r0, #238]	; 0xee
		currentInitPattern->trackSustainTimeLSB[i] = 0;
     544:	f880 20de 	strb.w	r2, [r0, #222]	; 0xde
		currentInitPattern->trackSustainTimeMSB[i] = 0;
     548:	f880 20ce 	strb.w	r2, [r0, #206]	; 0xce

void initBank(volatile Pattern* currentInitPattern)
{
	for (uint8_t i = 0; i < 16; i++)
	{
		currentInitPattern->trackSampleLSB[i] = i + 1;
     54c:	f880 70ac 	strb.w	r7, [r0, #172]	; 0xac
     550:	270a      	movs	r7, #10
		currentInitPattern->trackPlayMode[i] = 0x01;
     552:	f880 508c 	strb.w	r5, [r0, #140]	; 0x8c
		currentInitPattern->envelopeType[i] = 3;
     556:	f880 40ef 	strb.w	r4, [r0, #239]	; 0xef
		currentInitPattern->trackSustainTimeLSB[i] = 0;
     55a:	f880 20df 	strb.w	r2, [r0, #223]	; 0xdf
		currentInitPattern->trackSustainTimeMSB[i] = 0;
     55e:	f880 20cf 	strb.w	r2, [r0, #207]	; 0xcf

void initBank(volatile Pattern* currentInitPattern)
{
	for (uint8_t i = 0; i < 16; i++)
	{
		currentInitPattern->trackSampleLSB[i] = i + 1;
     562:	f880 60ad 	strb.w	r6, [r0, #173]	; 0xad
     566:	260b      	movs	r6, #11
		currentInitPattern->trackPlayMode[i] = 0x01;
     568:	f880 508d 	strb.w	r5, [r0, #141]	; 0x8d
		currentInitPattern->envelopeType[i] = 3;
     56c:	f880 40f0 	strb.w	r4, [r0, #240]	; 0xf0
		currentInitPattern->trackSustainTimeLSB[i] = 0;
     570:	f880 20e0 	strb.w	r2, [r0, #224]	; 0xe0
		currentInitPattern->trackSustainTimeMSB[i] = 0;
     574:	f880 20d0 	strb.w	r2, [r0, #208]	; 0xd0

void initBank(volatile Pattern* currentInitPattern)
{
	for (uint8_t i = 0; i < 16; i++)
	{
		currentInitPattern->trackSampleLSB[i] = i + 1;
     578:	f880 10ae 	strb.w	r1, [r0, #174]	; 0xae
     57c:	210c      	movs	r1, #12
		currentInitPattern->trackPlayMode[i] = 0x01;
     57e:	f880 508e 	strb.w	r5, [r0, #142]	; 0x8e
		currentInitPattern->envelopeType[i] = 3;
     582:	f880 40f1 	strb.w	r4, [r0, #241]	; 0xf1
		currentInitPattern->trackSustainTimeLSB[i] = 0;
     586:	f880 20e1 	strb.w	r2, [r0, #225]	; 0xe1
		currentInitPattern->trackSustainTimeMSB[i] = 0;
     58a:	f880 20d1 	strb.w	r2, [r0, #209]	; 0xd1

void initBank(volatile Pattern* currentInitPattern)
{
	for (uint8_t i = 0; i < 16; i++)
	{
		currentInitPattern->trackSampleLSB[i] = i + 1;
     58e:	f880 c0af 	strb.w	ip, [r0, #175]	; 0xaf
     592:	f04f 0c0d 	mov.w	ip, #13
		currentInitPattern->trackPlayMode[i] = 0x01;
     596:	f880 508f 	strb.w	r5, [r0, #143]	; 0x8f
		currentInitPattern->envelopeType[i] = 3;
     59a:	f880 40f2 	strb.w	r4, [r0, #242]	; 0xf2
		currentInitPattern->trackSustainTimeLSB[i] = 0;
     59e:	f880 20e2 	strb.w	r2, [r0, #226]	; 0xe2
		currentInitPattern->trackSustainTimeMSB[i] = 0;
     5a2:	f880 20d2 	strb.w	r2, [r0, #210]	; 0xd2

void initBank(volatile Pattern* currentInitPattern)
{
	for (uint8_t i = 0; i < 16; i++)
	{
		currentInitPattern->trackSampleLSB[i] = i + 1;
     5a6:	f880 e0b0 	strb.w	lr, [r0, #176]	; 0xb0
     5aa:	f04f 0e0e 	mov.w	lr, #14
		currentInitPattern->trackPlayMode[i] = 0x01;
     5ae:	f880 5090 	strb.w	r5, [r0, #144]	; 0x90
		currentInitPattern->envelopeType[i] = 3;
     5b2:	f880 40f3 	strb.w	r4, [r0, #243]	; 0xf3
		currentInitPattern->trackSustainTimeLSB[i] = 0;
     5b6:	f880 20e3 	strb.w	r2, [r0, #227]	; 0xe3
		currentInitPattern->trackSustainTimeMSB[i] = 0;
     5ba:	f880 20d3 	strb.w	r2, [r0, #211]	; 0xd3

void initBank(volatile Pattern* currentInitPattern)
{
	for (uint8_t i = 0; i < 16; i++)
	{
		currentInitPattern->trackSampleLSB[i] = i + 1;
     5be:	f880 70b1 	strb.w	r7, [r0, #177]	; 0xb1
     5c2:	270f      	movs	r7, #15
		currentInitPattern->trackPlayMode[i] = 0x01;
     5c4:	f880 5091 	strb.w	r5, [r0, #145]	; 0x91
		currentInitPattern->envelopeType[i] = 3;
     5c8:	f880 40f4 	strb.w	r4, [r0, #244]	; 0xf4
		currentInitPattern->trackSustainTimeLSB[i] = 0;
     5cc:	f880 20e4 	strb.w	r2, [r0, #228]	; 0xe4
		currentInitPattern->trackSustainTimeMSB[i] = 0;
     5d0:	f880 20d4 	strb.w	r2, [r0, #212]	; 0xd4

void initBank(volatile Pattern* currentInitPattern)
{
	for (uint8_t i = 0; i < 16; i++)
	{
		currentInitPattern->trackSampleLSB[i] = i + 1;
     5d4:	f880 60b2 	strb.w	r6, [r0, #178]	; 0xb2
     5d8:	2610      	movs	r6, #16
		currentInitPattern->trackPlayMode[i] = 0x01;
     5da:	f880 5092 	strb.w	r5, [r0, #146]	; 0x92
		currentInitPattern->envelopeType[i] = 3;
     5de:	f880 40f5 	strb.w	r4, [r0, #245]	; 0xf5
		currentInitPattern->trackSustainTimeLSB[i] = 0;
     5e2:	f880 20e5 	strb.w	r2, [r0, #229]	; 0xe5
		currentInitPattern->trackSustainTimeMSB[i] = 0;
     5e6:	f880 20d5 	strb.w	r2, [r0, #213]	; 0xd5

void initBank(volatile Pattern* currentInitPattern)
{
	for (uint8_t i = 0; i < 16; i++)
	{
		currentInitPattern->trackSampleLSB[i] = i + 1;
     5ea:	f880 10b3 	strb.w	r1, [r0, #179]	; 0xb3
		currentInitPattern->trackSustainTimeMSB[i] = 0;
	}

	for (uint8_t j = 0; j < 64; j++)
	{
		currentInitPattern->trackSequence[j] = 0; //start with an empty sequence. 
     5ee:	4611      	mov	r1, r2
void initBank(volatile Pattern* currentInitPattern)
{
	for (uint8_t i = 0; i < 16; i++)
	{
		currentInitPattern->trackSampleLSB[i] = i + 1;
		currentInitPattern->trackPlayMode[i] = 0x01;
     5f0:	f880 5093 	strb.w	r5, [r0, #147]	; 0x93
		currentInitPattern->envelopeType[i] = 3;
     5f4:	f880 40f6 	strb.w	r4, [r0, #246]	; 0xf6
		currentInitPattern->trackSustainTimeLSB[i] = 0;
     5f8:	f880 20e6 	strb.w	r2, [r0, #230]	; 0xe6
		currentInitPattern->trackSustainTimeMSB[i] = 0;
     5fc:	f880 20d6 	strb.w	r2, [r0, #214]	; 0xd6

void initBank(volatile Pattern* currentInitPattern)
{
	for (uint8_t i = 0; i < 16; i++)
	{
		currentInitPattern->trackSampleLSB[i] = i + 1;
     600:	f880 c0b4 	strb.w	ip, [r0, #180]	; 0xb4
		currentInitPattern->trackPlayMode[i] = 0x01;
     604:	f880 5094 	strb.w	r5, [r0, #148]	; 0x94
		currentInitPattern->envelopeType[i] = 3;
     608:	f880 40f7 	strb.w	r4, [r0, #247]	; 0xf7
		currentInitPattern->trackSustainTimeLSB[i] = 0;
     60c:	f880 20e7 	strb.w	r2, [r0, #231]	; 0xe7
		currentInitPattern->trackSustainTimeMSB[i] = 0;
     610:	f880 20d7 	strb.w	r2, [r0, #215]	; 0xd7

void initBank(volatile Pattern* currentInitPattern)
{
	for (uint8_t i = 0; i < 16; i++)
	{
		currentInitPattern->trackSampleLSB[i] = i + 1;
     614:	f880 e0b5 	strb.w	lr, [r0, #181]	; 0xb5
		currentInitPattern->trackPlayMode[i] = 0x01;
     618:	f880 5095 	strb.w	r5, [r0, #149]	; 0x95
		currentInitPattern->envelopeType[i] = 3;
     61c:	f880 40f8 	strb.w	r4, [r0, #248]	; 0xf8
		currentInitPattern->trackSustainTimeLSB[i] = 0;
     620:	f880 20e8 	strb.w	r2, [r0, #232]	; 0xe8
		currentInitPattern->trackSustainTimeMSB[i] = 0;
     624:	f880 20d8 	strb.w	r2, [r0, #216]	; 0xd8

void initBank(volatile Pattern* currentInitPattern)
{
	for (uint8_t i = 0; i < 16; i++)
	{
		currentInitPattern->trackSampleLSB[i] = i + 1;
     628:	f880 70b6 	strb.w	r7, [r0, #182]	; 0xb6
		currentInitPattern->trackPlayMode[i] = 0x01;
     62c:	f880 5096 	strb.w	r5, [r0, #150]	; 0x96
		currentInitPattern->envelopeType[i] = 3;
     630:	f880 40f9 	strb.w	r4, [r0, #249]	; 0xf9
		currentInitPattern->trackSustainTimeLSB[i] = 0;
     634:	f880 20e9 	strb.w	r2, [r0, #233]	; 0xe9
		currentInitPattern->trackSustainTimeMSB[i] = 0;
     638:	f880 20d9 	strb.w	r2, [r0, #217]	; 0xd9

void initBank(volatile Pattern* currentInitPattern)
{
	for (uint8_t i = 0; i < 16; i++)
	{
		currentInitPattern->trackSampleLSB[i] = i + 1;
     63c:	f880 60b7 	strb.w	r6, [r0, #183]	; 0xb7
		currentInitPattern->trackPlayMode[i] = 0x01;
     640:	f880 5097 	strb.w	r5, [r0, #151]	; 0x97
		currentInitPattern->envelopeType[i] = 3;
     644:	f880 40fa 	strb.w	r4, [r0, #250]	; 0xfa
		currentInitPattern->trackSustainTimeLSB[i] = 0;
     648:	f880 20ea 	strb.w	r2, [r0, #234]	; 0xea
		currentInitPattern->trackSustainTimeMSB[i] = 0;
     64c:	f880 20da 	strb.w	r2, [r0, #218]	; 0xda
	}

	for (uint8_t j = 0; j < 64; j++)
	{
		currentInitPattern->trackSequence[j] = 0; //start with an empty sequence. 
     650:	f103 027c 	add.w	r2, r3, #124	; 0x7c
     654:	3301      	adds	r3, #1
     656:	eb00 0242 	add.w	r2, r0, r2, lsl #1
		currentInitPattern->envelopeType[i] = 3;
		currentInitPattern->trackSustainTimeLSB[i] = 0;
		currentInitPattern->trackSustainTimeMSB[i] = 0;
	}

	for (uint8_t j = 0; j < 64; j++)
     65a:	2b40      	cmp	r3, #64	; 0x40
	{
		currentInitPattern->trackSequence[j] = 0; //start with an empty sequence. 
     65c:	8091      	strh	r1, [r2, #4]
		currentInitPattern->envelopeType[i] = 3;
		currentInitPattern->trackSustainTimeLSB[i] = 0;
		currentInitPattern->trackSustainTimeMSB[i] = 0;
	}

	for (uint8_t j = 0; j < 64; j++)
     65e:	d1f7      	bne.n	650 <initBank(Pattern volatile*)+0x174>
	{
		currentInitPattern->trackSequence[j] = 0; //start with an empty sequence. 

	}
	//We need to take these and put them in global. 
	currentInitPattern->patternBPM = 120;
     660:	2278      	movs	r2, #120	; 0x78
	currentInitPattern->numSteps = 16;
     662:	2310      	movs	r3, #16
	{
		currentInitPattern->trackSequence[j] = 0; //start with an empty sequence. 

	}
	//We need to take these and put them in global. 
	currentInitPattern->patternBPM = 120;
     664:	f8a0 20c8 	strh.w	r2, [r0, #200]	; 0xc8
	currentInitPattern->numSteps = 16;
     668:	f880 30ca 	strb.w	r3, [r0, #202]	; 0xca
     66c:	bdf0      	pop	{r4, r5, r6, r7, pc}
     66e:	bf00      	nop

00000670 <initGlobals(Globals volatile*, unsigned char)>:
}
void initGlobals(volatile Globals* currentGlobals, uint8_t factoryReset)
{
	currentGlobals->currentTrigButtons = 0; //current state of Trig buttons.
     670:	2300      	movs	r3, #0
	currentGlobals->currentTrigSequencer = 0;
	currentGlobals->currentTrigMidi = 0;
	currentGlobals->oledReadIndex = 0;
	currentGlobals->oledWriteIndex = 0;

	if (factoryReset == 1)
     672:	2901      	cmp	r1, #1
	currentInitPattern->patternBPM = 120;
	currentInitPattern->numSteps = 16;
}
void initGlobals(volatile Globals* currentGlobals, uint8_t factoryReset)
{
	currentGlobals->currentTrigButtons = 0; //current state of Trig buttons.
     674:	8003      	strh	r3, [r0, #0]
	currentGlobals->currentGPButtons = 0; //current state of GP buttons
     676:	7083      	strb	r3, [r0, #2]
	currentGlobals->currentPatternNumber = 0; //current pattern, between 1 and 256
     678:	7203      	strb	r3, [r0, #8]
	currentGlobals->currentStep = 0; // current step in the sequencer
     67a:	7243      	strb	r3, [r0, #9]
	currentGlobals->currentTrack = 0; //current track being edited
     67c:	7283      	strb	r3, [r0, #10]
	currentGlobals->menuState = 0; //where the menu is currently
     67e:	72c3      	strb	r3, [r0, #11]
	currentGlobals->playState = 0; //whether the sequencer is playing, stopped, or paused.
     680:	7303      	strb	r3, [r0, #12]
	currentGlobals->factoryReset = 0; //we may not need this in this struct, but good to have for now.
     682:	7343      	strb	r3, [r0, #13]
	currentGlobals->buttonSwitchFlag = 0; // could be rolled into value bits.
     684:	7383      	strb	r3, [r0, #14]
	currentGlobals->valueChangeFlag = 0; //bit 0 -> changes in encoders, bit 1-> changes in buttons, bit2 -> changes in knobs
     686:	73c3      	strb	r3, [r0, #15]
	currentGlobals->knobStatus = 0; //top 4 bits: knob type, bottom 4 bits: knob location.
     688:	7403      	strb	r3, [r0, #16]
	currentGlobals->releaseCounter = 0;
     68a:	f8c0 30a8 	str.w	r3, [r0, #168]	; 0xa8
	currentGlobals->lastGlobalTimer = 0;
     68e:	f8c0 30f4 	str.w	r3, [r0, #244]	; 0xf4
	currentGlobals->clockCounter = 0;
     692:	f8a0 30f0 	strh.w	r3, [r0, #240]	; 0xf0
	currentGlobals->currentTrigSequencer = 0;
     696:	8083      	strh	r3, [r0, #4]
	currentGlobals->currentTrigMidi = 0;
     698:	80c3      	strh	r3, [r0, #6]
	currentGlobals->oledReadIndex = 0;
     69a:	f880 32fa 	strb.w	r3, [r0, #762]	; 0x2fa
	currentGlobals->oledWriteIndex = 0;
     69e:	f880 32fb 	strb.w	r3, [r0, #763]	; 0x2fb

	if (factoryReset == 1)
     6a2:	d000      	beq.n	6a6 <initGlobals(Globals volatile*, unsigned char)+0x36>
     6a4:	4770      	bx	lr
	{
		currentGlobals->midiChannel = 0;
		currentGlobals->midiTrackNote[0] = 0x24;
     6a6:	2224      	movs	r2, #36	; 0x24
	currentGlobals->oledReadIndex = 0;
	currentGlobals->oledWriteIndex = 0;

	if (factoryReset == 1)
	{
		currentGlobals->midiChannel = 0;
     6a8:	7443      	strb	r3, [r0, #17]
		currentGlobals->midiTrackNote[1] = 0x25;
		currentGlobals->midiTrackNote[2] = 0x26;
		currentGlobals->midiTrackNote[3] = 0x27;
		currentGlobals->midiTrackNote[4] = 0x28;
		currentGlobals->midiTrackNote[5] = 0x29;
		currentGlobals->midiTrackNote[6] = 0x2a;
     6aa:	212a      	movs	r1, #42	; 0x2a
		currentGlobals->midiTrackNote[7] = 0x2b;
		currentGlobals->midiTrackNote[8] = 0x2c;
     6ac:	232c      	movs	r3, #44	; 0x2c
	currentGlobals->oledWriteIndex = 0;

	if (factoryReset == 1)
	{
		currentGlobals->midiChannel = 0;
		currentGlobals->midiTrackNote[0] = 0x24;
     6ae:	7482      	strb	r2, [r0, #18]
		currentGlobals->midiTrackNote[2] = 0x26;
		currentGlobals->midiTrackNote[3] = 0x27;
		currentGlobals->midiTrackNote[4] = 0x28;
		currentGlobals->midiTrackNote[5] = 0x29;
		currentGlobals->midiTrackNote[6] = 0x2a;
		currentGlobals->midiTrackNote[7] = 0x2b;
     6b0:	222b      	movs	r2, #43	; 0x2b
	//We need to take these and put them in global. 
	currentInitPattern->patternBPM = 120;
	currentInitPattern->numSteps = 16;
}
void initGlobals(volatile Globals* currentGlobals, uint8_t factoryReset)
{
     6b2:	b5f0      	push	{r4, r5, r6, r7, lr}
	if (factoryReset == 1)
	{
		currentGlobals->midiChannel = 0;
		currentGlobals->midiTrackNote[0] = 0x24;
		currentGlobals->midiTrackNote[1] = 0x25;
		currentGlobals->midiTrackNote[2] = 0x26;
     6b4:	2726      	movs	r7, #38	; 0x26
		currentGlobals->midiTrackNote[3] = 0x27;
     6b6:	2627      	movs	r6, #39	; 0x27
		currentGlobals->midiTrackNote[4] = 0x28;
     6b8:	2528      	movs	r5, #40	; 0x28
		currentGlobals->midiTrackNote[5] = 0x29;
     6ba:	2429      	movs	r4, #41	; 0x29

	if (factoryReset == 1)
	{
		currentGlobals->midiChannel = 0;
		currentGlobals->midiTrackNote[0] = 0x24;
		currentGlobals->midiTrackNote[1] = 0x25;
     6bc:	f04f 0e25 	mov.w	lr, #37	; 0x25
     6c0:	f880 e013 	strb.w	lr, [r0, #19]
		currentGlobals->midiTrackNote[2] = 0x26;
     6c4:	7507      	strb	r7, [r0, #20]
		currentGlobals->midiTrackNote[4] = 0x28;
		currentGlobals->midiTrackNote[5] = 0x29;
		currentGlobals->midiTrackNote[6] = 0x2a;
		currentGlobals->midiTrackNote[7] = 0x2b;
		currentGlobals->midiTrackNote[8] = 0x2c;
		currentGlobals->midiTrackNote[9] = 0x2d;
     6c6:	272d      	movs	r7, #45	; 0x2d
	{
		currentGlobals->midiChannel = 0;
		currentGlobals->midiTrackNote[0] = 0x24;
		currentGlobals->midiTrackNote[1] = 0x25;
		currentGlobals->midiTrackNote[2] = 0x26;
		currentGlobals->midiTrackNote[3] = 0x27;
     6c8:	7546      	strb	r6, [r0, #21]
		currentGlobals->midiTrackNote[5] = 0x29;
		currentGlobals->midiTrackNote[6] = 0x2a;
		currentGlobals->midiTrackNote[7] = 0x2b;
		currentGlobals->midiTrackNote[8] = 0x2c;
		currentGlobals->midiTrackNote[9] = 0x2d;
		currentGlobals->midiTrackNote[10] = 0x2e;
     6ca:	262e      	movs	r6, #46	; 0x2e
		currentGlobals->midiChannel = 0;
		currentGlobals->midiTrackNote[0] = 0x24;
		currentGlobals->midiTrackNote[1] = 0x25;
		currentGlobals->midiTrackNote[2] = 0x26;
		currentGlobals->midiTrackNote[3] = 0x27;
		currentGlobals->midiTrackNote[4] = 0x28;
     6cc:	7585      	strb	r5, [r0, #22]
		currentGlobals->midiTrackNote[6] = 0x2a;
		currentGlobals->midiTrackNote[7] = 0x2b;
		currentGlobals->midiTrackNote[8] = 0x2c;
		currentGlobals->midiTrackNote[9] = 0x2d;
		currentGlobals->midiTrackNote[10] = 0x2e;
		currentGlobals->midiTrackNote[11] = 0x2f;
     6ce:	252f      	movs	r5, #47	; 0x2f
		currentGlobals->midiTrackNote[0] = 0x24;
		currentGlobals->midiTrackNote[1] = 0x25;
		currentGlobals->midiTrackNote[2] = 0x26;
		currentGlobals->midiTrackNote[3] = 0x27;
		currentGlobals->midiTrackNote[4] = 0x28;
		currentGlobals->midiTrackNote[5] = 0x29;
     6d0:	75c4      	strb	r4, [r0, #23]
		currentGlobals->midiTrackNote[7] = 0x2b;
		currentGlobals->midiTrackNote[8] = 0x2c;
		currentGlobals->midiTrackNote[9] = 0x2d;
		currentGlobals->midiTrackNote[10] = 0x2e;
		currentGlobals->midiTrackNote[11] = 0x2f;
		currentGlobals->midiTrackNote[12] = 0x30;
     6d2:	2430      	movs	r4, #48	; 0x30
		currentGlobals->midiTrackNote[1] = 0x25;
		currentGlobals->midiTrackNote[2] = 0x26;
		currentGlobals->midiTrackNote[3] = 0x27;
		currentGlobals->midiTrackNote[4] = 0x28;
		currentGlobals->midiTrackNote[5] = 0x29;
		currentGlobals->midiTrackNote[6] = 0x2a;
     6d4:	7601      	strb	r1, [r0, #24]
		currentGlobals->midiTrackNote[8] = 0x2c;
		currentGlobals->midiTrackNote[9] = 0x2d;
		currentGlobals->midiTrackNote[10] = 0x2e;
		currentGlobals->midiTrackNote[11] = 0x2f;
		currentGlobals->midiTrackNote[12] = 0x30;
		currentGlobals->midiTrackNote[13] = 0x31;
     6d6:	2131      	movs	r1, #49	; 0x31
		currentGlobals->midiTrackNote[2] = 0x26;
		currentGlobals->midiTrackNote[3] = 0x27;
		currentGlobals->midiTrackNote[4] = 0x28;
		currentGlobals->midiTrackNote[5] = 0x29;
		currentGlobals->midiTrackNote[6] = 0x2a;
		currentGlobals->midiTrackNote[7] = 0x2b;
     6d8:	7642      	strb	r2, [r0, #25]
		currentGlobals->midiTrackNote[9] = 0x2d;
		currentGlobals->midiTrackNote[10] = 0x2e;
		currentGlobals->midiTrackNote[11] = 0x2f;
		currentGlobals->midiTrackNote[12] = 0x30;
		currentGlobals->midiTrackNote[13] = 0x31;
		currentGlobals->midiTrackNote[14] = 0x32;
     6da:	2232      	movs	r2, #50	; 0x32
		currentGlobals->midiTrackNote[3] = 0x27;
		currentGlobals->midiTrackNote[4] = 0x28;
		currentGlobals->midiTrackNote[5] = 0x29;
		currentGlobals->midiTrackNote[6] = 0x2a;
		currentGlobals->midiTrackNote[7] = 0x2b;
		currentGlobals->midiTrackNote[8] = 0x2c;
     6dc:	7683      	strb	r3, [r0, #26]
		currentGlobals->midiTrackNote[10] = 0x2e;
		currentGlobals->midiTrackNote[11] = 0x2f;
		currentGlobals->midiTrackNote[12] = 0x30;
		currentGlobals->midiTrackNote[13] = 0x31;
		currentGlobals->midiTrackNote[14] = 0x32;
		currentGlobals->midiTrackNote[15] = 0x33;
     6de:	2333      	movs	r3, #51	; 0x33
		currentGlobals->midiTrackNote[4] = 0x28;
		currentGlobals->midiTrackNote[5] = 0x29;
		currentGlobals->midiTrackNote[6] = 0x2a;
		currentGlobals->midiTrackNote[7] = 0x2b;
		currentGlobals->midiTrackNote[8] = 0x2c;
		currentGlobals->midiTrackNote[9] = 0x2d;
     6e0:	76c7      	strb	r7, [r0, #27]
		currentGlobals->midiTrackNote[10] = 0x2e;
     6e2:	7706      	strb	r6, [r0, #28]
		currentGlobals->midiTrackNote[11] = 0x2f;
     6e4:	7745      	strb	r5, [r0, #29]
		currentGlobals->midiTrackNote[12] = 0x30;
     6e6:	7784      	strb	r4, [r0, #30]
		currentGlobals->midiTrackNote[13] = 0x31;
     6e8:	77c1      	strb	r1, [r0, #31]
		currentGlobals->midiTrackNote[14] = 0x32;
     6ea:	f880 2020 	strb.w	r2, [r0, #32]
		currentGlobals->midiTrackNote[15] = 0x33;
     6ee:	f880 3021 	strb.w	r3, [r0, #33]	; 0x21
     6f2:	bdf0      	pop	{r4, r5, r6, r7, pc}

000006f4 <initArrays(char volatile (*) [21], int, char*)>:
	}
}

void initArrays(volatile char myArray[9][21], int stringNumber, char* myString)
{
     6f4:	b5f8      	push	{r3, r4, r5, r6, r7, lr}
     6f6:	4606      	mov	r6, r0
	uint8_t lengthOfString = strlen(myString);
     6f8:	4610      	mov	r0, r2
		currentGlobals->midiTrackNote[15] = 0x33;
	}
}

void initArrays(volatile char myArray[9][21], int stringNumber, char* myString)
{
     6fa:	460f      	mov	r7, r1
     6fc:	4614      	mov	r4, r2
	uint8_t lengthOfString = strlen(myString);
     6fe:	f005 f89f 	bl	5840 <strlen>
     702:	b2c0      	uxtb	r0, r0
	uint8_t charLeft = 20 - lengthOfString;
     704:	f1c0 0114 	rsb	r1, r0, #20
     708:	b2c9      	uxtb	r1, r1
	uint8_t currentIndex = 0;
	for (currentIndex; currentIndex < lengthOfString; currentIndex++)
     70a:	b168      	cbz	r0, 728 <initArrays(char volatile (*) [21], int, char*)+0x34>
     70c:	eb07 0547 	add.w	r5, r7, r7, lsl #1
     710:	1e62      	subs	r2, r4, #1
     712:	2300      	movs	r3, #0
     714:	ebc5 05c5 	rsb	r5, r5, r5, lsl #3
     718:	4435      	add	r5, r6
	{
		myArray[stringNumber][currentIndex] = myString[currentIndex];
     71a:	f812 4f01 	ldrb.w	r4, [r2, #1]!
     71e:	54ec      	strb	r4, [r5, r3]
     720:	3301      	adds	r3, #1
void initArrays(volatile char myArray[9][21], int stringNumber, char* myString)
{
	uint8_t lengthOfString = strlen(myString);
	uint8_t charLeft = 20 - lengthOfString;
	uint8_t currentIndex = 0;
	for (currentIndex; currentIndex < lengthOfString; currentIndex++)
     722:	b2dc      	uxtb	r4, r3
     724:	4284      	cmp	r4, r0
     726:	d3f8      	bcc.n	71a <initArrays(char volatile (*) [21], int, char*)+0x26>
	{
		myArray[stringNumber][currentIndex] = myString[currentIndex];
	}

	for (charLeft; charLeft > 0; charLeft--)
     728:	b169      	cbz	r1, 746 <initArrays(char volatile (*) [21], int, char*)+0x52>
     72a:	eb07 0747 	add.w	r7, r7, r7, lsl #1
     72e:	180a      	adds	r2, r1, r0
	{
		myArray[stringNumber][currentIndex] = ' ';
     730:	2120      	movs	r1, #32
     732:	ebc7 07c7 	rsb	r7, r7, r7, lsl #3
     736:	b2d2      	uxtb	r2, r2
     738:	443e      	add	r6, r7
		currentIndex++;
     73a:	1c43      	adds	r3, r0, #1
		myArray[stringNumber][currentIndex] = myString[currentIndex];
	}

	for (charLeft; charLeft > 0; charLeft--)
	{
		myArray[stringNumber][currentIndex] = ' ';
     73c:	5431      	strb	r1, [r6, r0]
		currentIndex++;
     73e:	b2d8      	uxtb	r0, r3
	for (currentIndex; currentIndex < lengthOfString; currentIndex++)
	{
		myArray[stringNumber][currentIndex] = myString[currentIndex];
	}

	for (charLeft; charLeft > 0; charLeft--)
     740:	4290      	cmp	r0, r2
     742:	d1fa      	bne.n	73a <initArrays(char volatile (*) [21], int, char*)+0x46>
     744:	bdf8      	pop	{r3, r4, r5, r6, r7, pc}
     746:	bdf8      	pop	{r3, r4, r5, r6, r7, pc}

00000748 <initMenu(Screen volatile*, Pattern volatile*, Globals volatile*)>:

uint8_t prevMenuState; //do we need this anymore?


void initMenu(volatile Screen* initTheScreen, volatile Pattern* currentPattern, volatile Globals* currentGlobals)
{
     748:	e92d 41f0 	stmdb	sp!, {r4, r5, r6, r7, r8, lr}
     74c:	4605      	mov	r5, r0
     74e:	4617      	mov	r7, r2
     750:	4688      	mov	r8, r1

	//screen0
	initArrays(initTheScreen->screen0, 0, "Performance Mode");
     752:	4a5c      	ldr	r2, [pc, #368]	; (8c4 <initMenu(Screen volatile*, Pattern volatile*, Globals volatile*)+0x17c>)
     754:	2100      	movs	r1, #0
	initArrays(initTheScreen->screen0, 1, "Pattern:");
	initArrays(initTheScreen->screen0, 2, "BPM:");
	initArrays(initTheScreen->screen0, 3, "Stop");

	//screen1
	initArrays(initTheScreen->screen1, 0, "Sequence Edit");
     756:	f100 06bd 	add.w	r6, r0, #189	; 0xbd

void initMenu(volatile Screen* initTheScreen, volatile Pattern* currentPattern, volatile Globals* currentGlobals)
{

	//screen0
	initArrays(initTheScreen->screen0, 0, "Performance Mode");
     75a:	f7ff ffcb 	bl	6f4 <initArrays(char volatile (*) [21], int, char*)>
	initArrays(initTheScreen->screen0, 1, "Pattern:");
     75e:	4628      	mov	r0, r5
     760:	4a59      	ldr	r2, [pc, #356]	; (8c8 <initMenu(Screen volatile*, Pattern volatile*, Globals volatile*)+0x180>)
     762:	2101      	movs	r1, #1
     764:	f7ff ffc6 	bl	6f4 <initArrays(char volatile (*) [21], int, char*)>
	initArrays(initTheScreen->screen0, 2, "BPM:");
     768:	4628      	mov	r0, r5
     76a:	4a58      	ldr	r2, [pc, #352]	; (8cc <initMenu(Screen volatile*, Pattern volatile*, Globals volatile*)+0x184>)
     76c:	2102      	movs	r1, #2
     76e:	f7ff ffc1 	bl	6f4 <initArrays(char volatile (*) [21], int, char*)>
	initArrays(initTheScreen->screen0, 3, "Stop");
     772:	4628      	mov	r0, r5
     774:	4a56      	ldr	r2, [pc, #344]	; (8d0 <initMenu(Screen volatile*, Pattern volatile*, Globals volatile*)+0x188>)
     776:	2103      	movs	r1, #3
     778:	f7ff ffbc 	bl	6f4 <initArrays(char volatile (*) [21], int, char*)>

	//screen1
	initArrays(initTheScreen->screen1, 0, "Sequence Edit");
     77c:	4630      	mov	r0, r6
     77e:	4a55      	ldr	r2, [pc, #340]	; (8d4 <initMenu(Screen volatile*, Pattern volatile*, Globals volatile*)+0x18c>)
     780:	2100      	movs	r1, #0
     782:	f7ff ffb7 	bl	6f4 <initArrays(char volatile (*) [21], int, char*)>
	initArrays(initTheScreen->screen1, 1, "Pattern:");
     786:	4630      	mov	r0, r6
     788:	4a4f      	ldr	r2, [pc, #316]	; (8c8 <initMenu(Screen volatile*, Pattern volatile*, Globals volatile*)+0x180>)
     78a:	2101      	movs	r1, #1
	initArrays(initTheScreen->screen1, 2, "Steps:");
	initArrays(initTheScreen->screen1, 3, "Step number:");

	//screen2
	initArrays(initTheScreen->screen2, 0, "Track Settings");
     78c:	f505 74bd 	add.w	r4, r5, #378	; 0x17a
	initArrays(initTheScreen->screen0, 2, "BPM:");
	initArrays(initTheScreen->screen0, 3, "Stop");

	//screen1
	initArrays(initTheScreen->screen1, 0, "Sequence Edit");
	initArrays(initTheScreen->screen1, 1, "Pattern:");
     790:	f7ff ffb0 	bl	6f4 <initArrays(char volatile (*) [21], int, char*)>
	initArrays(initTheScreen->screen1, 2, "Steps:");
     794:	4630      	mov	r0, r6
     796:	4a50      	ldr	r2, [pc, #320]	; (8d8 <initMenu(Screen volatile*, Pattern volatile*, Globals volatile*)+0x190>)
     798:	2102      	movs	r1, #2
     79a:	f7ff ffab 	bl	6f4 <initArrays(char volatile (*) [21], int, char*)>
	initArrays(initTheScreen->screen1, 3, "Step number:");
     79e:	4630      	mov	r0, r6
     7a0:	4a4e      	ldr	r2, [pc, #312]	; (8dc <initMenu(Screen volatile*, Pattern volatile*, Globals volatile*)+0x194>)
     7a2:	2103      	movs	r1, #3
     7a4:	f7ff ffa6 	bl	6f4 <initArrays(char volatile (*) [21], int, char*)>

	//screen2
	initArrays(initTheScreen->screen2, 0, "Track Settings");
     7a8:	4620      	mov	r0, r4
     7aa:	4a4d      	ldr	r2, [pc, #308]	; (8e0 <initMenu(Screen volatile*, Pattern volatile*, Globals volatile*)+0x198>)
     7ac:	2100      	movs	r1, #0
     7ae:	f7ff ffa1 	bl	6f4 <initArrays(char volatile (*) [21], int, char*)>
	initArrays(initTheScreen->screen2, 1, "Track:");
     7b2:	4620      	mov	r0, r4
     7b4:	4a4b      	ldr	r2, [pc, #300]	; (8e4 <initMenu(Screen volatile*, Pattern volatile*, Globals volatile*)+0x19c>)
     7b6:	2101      	movs	r1, #1
     7b8:	f7ff ff9c 	bl	6f4 <initArrays(char volatile (*) [21], int, char*)>
	initArrays(initTheScreen->screen2, 2, "PlayMode:");
     7bc:	4620      	mov	r0, r4
     7be:	4a4a      	ldr	r2, [pc, #296]	; (8e8 <initMenu(Screen volatile*, Pattern volatile*, Globals volatile*)+0x1a0>)
     7c0:	2102      	movs	r1, #2
     7c2:	f7ff ff97 	bl	6f4 <initArrays(char volatile (*) [21], int, char*)>
	initArrays(initTheScreen->screen2, 3, "OutRoute:");
     7c6:	4620      	mov	r0, r4
     7c8:	4a48      	ldr	r2, [pc, #288]	; (8ec <initMenu(Screen volatile*, Pattern volatile*, Globals volatile*)+0x1a4>)
     7ca:	2103      	movs	r1, #3
	initArrays(initTheScreen->screen2, 4, "EnvelopeMode:");
	initArrays(initTheScreen->screen2, 5, "SustainTime:      S");

	//screen3
	initArrays(initTheScreen->screen3, 0, "Global Settings");
     7cc:	f205 2637 	addw	r6, r5, #567	; 0x237

	//screen2
	initArrays(initTheScreen->screen2, 0, "Track Settings");
	initArrays(initTheScreen->screen2, 1, "Track:");
	initArrays(initTheScreen->screen2, 2, "PlayMode:");
	initArrays(initTheScreen->screen2, 3, "OutRoute:");
     7d0:	f7ff ff90 	bl	6f4 <initArrays(char volatile (*) [21], int, char*)>
	initArrays(initTheScreen->screen2, 4, "EnvelopeMode:");
     7d4:	4620      	mov	r0, r4
     7d6:	4a46      	ldr	r2, [pc, #280]	; (8f0 <initMenu(Screen volatile*, Pattern volatile*, Globals volatile*)+0x1a8>)
     7d8:	2104      	movs	r1, #4
     7da:	f7ff ff8b 	bl	6f4 <initArrays(char volatile (*) [21], int, char*)>
	initArrays(initTheScreen->screen2, 5, "SustainTime:      S");
     7de:	4620      	mov	r0, r4
     7e0:	4a44      	ldr	r2, [pc, #272]	; (8f4 <initMenu(Screen volatile*, Pattern volatile*, Globals volatile*)+0x1ac>)
     7e2:	2105      	movs	r1, #5
     7e4:	f7ff ff86 	bl	6f4 <initArrays(char volatile (*) [21], int, char*)>

	//screen3
	initArrays(initTheScreen->screen3, 0, "Global Settings");
     7e8:	4630      	mov	r0, r6
     7ea:	4a43      	ldr	r2, [pc, #268]	; (8f8 <initMenu(Screen volatile*, Pattern volatile*, Globals volatile*)+0x1b0>)
     7ec:	2100      	movs	r1, #0
     7ee:	f7ff ff81 	bl	6f4 <initArrays(char volatile (*) [21], int, char*)>
	initArrays(initTheScreen->screen3, 1, "Midi Channel:");
     7f2:	4630      	mov	r0, r6
     7f4:	4a41      	ldr	r2, [pc, #260]	; (8fc <initMenu(Screen volatile*, Pattern volatile*, Globals volatile*)+0x1b4>)
     7f6:	2101      	movs	r1, #1
	initArrays(initTheScreen->screen3, 2, "Midi trig   :");
	initArrays(initTheScreen->screen3, 3, " ");
	

	//init all of the knob arrays:
	initArrays(initTheScreen->knobScreen, 0, "OutVolume x : xxxdb");//string 0 is outVolume
     7f8:	f505 743d 	add.w	r4, r5, #756	; 0x2f4
	initArrays(initTheScreen->screen2, 4, "EnvelopeMode:");
	initArrays(initTheScreen->screen2, 5, "SustainTime:      S");

	//screen3
	initArrays(initTheScreen->screen3, 0, "Global Settings");
	initArrays(initTheScreen->screen3, 1, "Midi Channel:");
     7fc:	f7ff ff7a 	bl	6f4 <initArrays(char volatile (*) [21], int, char*)>
	initArrays(initTheScreen->screen3, 2, "Midi trig   :");
     800:	4630      	mov	r0, r6
     802:	4a3f      	ldr	r2, [pc, #252]	; (900 <initMenu(Screen volatile*, Pattern volatile*, Globals volatile*)+0x1b8>)
     804:	2102      	movs	r1, #2
     806:	f7ff ff75 	bl	6f4 <initArrays(char volatile (*) [21], int, char*)>
	initArrays(initTheScreen->screen3, 3, " ");
     80a:	4630      	mov	r0, r6
     80c:	4a3d      	ldr	r2, [pc, #244]	; (904 <initMenu(Screen volatile*, Pattern volatile*, Globals volatile*)+0x1bc>)
     80e:	2103      	movs	r1, #3
     810:	f7ff ff70 	bl	6f4 <initArrays(char volatile (*) [21], int, char*)>
	

	//init all of the knob arrays:
	initArrays(initTheScreen->knobScreen, 0, "OutVolume x : xxxdb");//string 0 is outVolume
     814:	4620      	mov	r0, r4
     816:	4a3c      	ldr	r2, [pc, #240]	; (908 <initMenu(Screen volatile*, Pattern volatile*, Globals volatile*)+0x1c0>)
     818:	2100      	movs	r1, #0
     81a:	f7ff ff6b 	bl	6f4 <initArrays(char volatile (*) [21], int, char*)>
	initArrays(initTheScreen->knobScreen, 1, "Pitch : xxx");//string 1 is pitch
     81e:	4620      	mov	r0, r4
     820:	4a3a      	ldr	r2, [pc, #232]	; (90c <initMenu(Screen volatile*, Pattern volatile*, Globals volatile*)+0x1c4>)
     822:	2101      	movs	r1, #1
     824:	f7ff ff66 	bl	6f4 <initArrays(char volatile (*) [21], int, char*)>
	initArrays(initTheScreen->knobScreen, 2, "AttackTime  :      S"); //string 2 is Envelope gain
     828:	4620      	mov	r0, r4
     82a:	4a39      	ldr	r2, [pc, #228]	; (910 <initMenu(Screen volatile*, Pattern volatile*, Globals volatile*)+0x1c8>)
     82c:	2102      	movs	r1, #2
     82e:	f7ff ff61 	bl	6f4 <initArrays(char volatile (*) [21], int, char*)>
	initArrays(initTheScreen->knobScreen, 3, "ReleaseTimexx:xx xxx"); //string 3 is Envelop Time
     832:	4620      	mov	r0, r4
     834:	4a37      	ldr	r2, [pc, #220]	; (914 <initMenu(Screen volatile*, Pattern volatile*, Globals volatile*)+0x1cc>)
     836:	2103      	movs	r1, #3
     838:	f7ff ff5c 	bl	6f4 <initArrays(char volatile (*) [21], int, char*)>
	initArrays(initTheScreen->knobScreen, 4, "TrackVolume xx:xxxdb"); //string 4 is track Level.
     83c:	4620      	mov	r0, r4
     83e:	4a36      	ldr	r2, [pc, #216]	; (918 <initMenu(Screen volatile*, Pattern volatile*, Globals volatile*)+0x1d0>)
     840:	2104      	movs	r1, #4
     842:	f7ff ff57 	bl	6f4 <initArrays(char volatile (*) [21], int, char*)>
	//initArrays(initTheScreen->knobScreen,5,"BPM: ");
	//we might want to put in one of these for BPM, but I'm not sure. 

	numPrinter(initTheScreen->screen0[2], 5, 3, currentPattern->patternBPM);
     846:	f8b8 30c8 	ldrh.w	r3, [r8, #200]	; 0xc8
     84a:	f105 002a 	add.w	r0, r5, #42	; 0x2a
     84e:	2203      	movs	r2, #3
     850:	b29b      	uxth	r3, r3
     852:	2105      	movs	r1, #5
     854:	f001 f876 	bl	1944 <numPrinter(char volatile*, unsigned char, unsigned char, unsigned short)>
	numPrinter(initTheScreen->screen3[1], 14, 2, (currentGlobals->midiChannel) + 1);
     858:	7c7b      	ldrb	r3, [r7, #17]
     85a:	f505 7013 	add.w	r0, r5, #588	; 0x24c
     85e:	2202      	movs	r2, #2
     860:	3301      	adds	r3, #1
     862:	210e      	movs	r1, #14
     864:	f001 f86e 	bl	1944 <numPrinter(char volatile*, unsigned char, unsigned char, unsigned short)>
	numPrinter(initTheScreen->screen0[1], 9, 3, (currentGlobals->currentPatternNumber) + 1);
     868:	7a3b      	ldrb	r3, [r7, #8]
     86a:	f105 0015 	add.w	r0, r5, #21
     86e:	2203      	movs	r2, #3
     870:	3301      	adds	r3, #1
     872:	2109      	movs	r1, #9
     874:	f001 f866 	bl	1944 <numPrinter(char volatile*, unsigned char, unsigned char, unsigned short)>
	numPrinter(initTheScreen->screen1[1], 9, 3, (currentGlobals->currentPatternNumber) + 1);
     878:	7a3b      	ldrb	r3, [r7, #8]
     87a:	f105 00d2 	add.w	r0, r5, #210	; 0xd2
     87e:	2203      	movs	r2, #3
     880:	3301      	adds	r3, #1
     882:	2109      	movs	r1, #9
     884:	f001 f85e 	bl	1944 <numPrinter(char volatile*, unsigned char, unsigned char, unsigned short)>
	numPrinter(initTheScreen->screen1[2], 7, 2, currentPattern->numSteps);
     888:	f898 30ca 	ldrb.w	r3, [r8, #202]	; 0xca
     88c:	f105 00e7 	add.w	r0, r5, #231	; 0xe7
     890:	2202      	movs	r2, #2
     892:	2107      	movs	r1, #7
     894:	462e      	mov	r6, r5
     896:	f001 f855 	bl	1944 <numPrinter(char volatile*, unsigned char, unsigned char, unsigned short)>
	numPrinter(initTheScreen->screen1[3], 13, 2, (currentGlobals->currentStep) + 1);
     89a:	7a7b      	ldrb	r3, [r7, #9]
     89c:	f105 00fc 	add.w	r0, r5, #252	; 0xfc
     8a0:	2202      	movs	r2, #2
     8a2:	3301      	adds	r3, #1
     8a4:	210d      	movs	r1, #13
     8a6:	2400      	movs	r4, #0
     8a8:	f001 f84c 	bl	1944 <numPrinter(char volatile*, unsigned char, unsigned char, unsigned short)>

	for (uint8_t i = 0; i < 4; i++)
	{
		outputS(initTheScreen->screen0[i], i, currentGlobals);
     8ac:	4621      	mov	r1, r4
     8ae:	3401      	adds	r4, #1
     8b0:	4630      	mov	r0, r6
     8b2:	463a      	mov	r2, r7
     8b4:	f001 f81a 	bl	18ec <outputS(char volatile*, int, Globals volatile*)>
	numPrinter(initTheScreen->screen0[1], 9, 3, (currentGlobals->currentPatternNumber) + 1);
	numPrinter(initTheScreen->screen1[1], 9, 3, (currentGlobals->currentPatternNumber) + 1);
	numPrinter(initTheScreen->screen1[2], 7, 2, currentPattern->numSteps);
	numPrinter(initTheScreen->screen1[3], 13, 2, (currentGlobals->currentStep) + 1);

	for (uint8_t i = 0; i < 4; i++)
     8b8:	2c04      	cmp	r4, #4
     8ba:	f106 0615 	add.w	r6, r6, #21
     8be:	d1f5      	bne.n	8ac <initMenu(Screen volatile*, Pattern volatile*, Globals volatile*)+0x164>
	{
		outputS(initTheScreen->screen0[i], i, currentGlobals);
	}
}
     8c0:	e8bd 81f0 	ldmia.w	sp!, {r4, r5, r6, r7, r8, pc}
     8c4:	20000010 	.word	0x20000010
     8c8:	20000024 	.word	0x20000024
     8cc:	20000030 	.word	0x20000030
     8d0:	20000038 	.word	0x20000038
     8d4:	20000040 	.word	0x20000040
     8d8:	20000050 	.word	0x20000050
     8dc:	20000058 	.word	0x20000058
     8e0:	20000068 	.word	0x20000068
     8e4:	20000078 	.word	0x20000078
     8e8:	20000080 	.word	0x20000080
     8ec:	2000008c 	.word	0x2000008c
     8f0:	20000098 	.word	0x20000098
     8f4:	200000a8 	.word	0x200000a8
     8f8:	200000bc 	.word	0x200000bc
     8fc:	200000cc 	.word	0x200000cc
     900:	200000dc 	.word	0x200000dc
     904:	200000ec 	.word	0x200000ec
     908:	200000f0 	.word	0x200000f0
     90c:	20000104 	.word	0x20000104
     910:	20000110 	.word	0x20000110
     914:	20000128 	.word	0x20000128
     918:	20000140 	.word	0x20000140

0000091c <updateScreen(Screen volatile*, Pattern volatile*, Globals volatile*)>:
	numPrinter(initTheScreen->screen1[1], 9, 3, (currentGlobals->currentPatternNumber) + 1);
	numPrinter(initTheScreen->screen0[1], 9, 3, (currentGlobals->currentPatternNumber) + 1);
}

void updateScreen(volatile Screen* menuScreen, volatile Pattern* currentPattern, volatile Globals* currentGlobals)
{
     91c:	e92d 47f0 	stmdb	sp!, {r4, r5, r6, r7, r8, r9, sl, lr}

	if ((currentGlobals->valueChangeFlag) & (1 << encoderChange))//check if encoder bit is high
     920:	7bd3      	ldrb	r3, [r2, #15]
	numPrinter(initTheScreen->screen1[1], 9, 3, (currentGlobals->currentPatternNumber) + 1);
	numPrinter(initTheScreen->screen0[1], 9, 3, (currentGlobals->currentPatternNumber) + 1);
}

void updateScreen(volatile Screen* menuScreen, volatile Pattern* currentPattern, volatile Globals* currentGlobals)
{
     922:	460e      	mov	r6, r1
     924:	4614      	mov	r4, r2
     926:	4605      	mov	r5, r0

	if ((currentGlobals->valueChangeFlag) & (1 << encoderChange))//check if encoder bit is high
     928:	07d9      	lsls	r1, r3, #31
     92a:	d577      	bpl.n	a1c <updateScreen(Screen volatile*, Pattern volatile*, Globals volatile*)+0x100>
	{
		currentGlobals->valueChangeFlag = currentGlobals->valueChangeFlag & (0xFF & (0 << encoderChange));//set encoder bit low, and carry our whatever encoder change has occurred. 
     92c:	2300      	movs	r3, #0
     92e:	7be2      	ldrb	r2, [r4, #15]
     930:	73e3      	strb	r3, [r4, #15]
		//we need to debug this to make sure it's doing what we think it's doing.
		uint16_t totalSustainTime = currentPattern->trackSustainTimeLSB[currentGlobals->currentTrack] | ((currentPattern->trackSustainTimeMSB[currentGlobals->currentTrack]) << 8);
     932:	7aa3      	ldrb	r3, [r4, #10]
     934:	4433      	add	r3, r6
     936:	f893 10db 	ldrb.w	r1, [r3, #219]	; 0xdb
     93a:	7aa2      	ldrb	r2, [r4, #10]
     93c:	b2c9      	uxtb	r1, r1
     93e:	4432      	add	r2, r6
     940:	f892 30cb 	ldrb.w	r3, [r2, #203]	; 0xcb
		uint16_t trackSample = (currentPattern->trackSampleMSB[currentGlobals->currentTrack] << 8) | (currentPattern->trackSampleLSB[currentGlobals->currentTrack]);
     944:	7aa2      	ldrb	r2, [r4, #10]

	if ((currentGlobals->valueChangeFlag) & (1 << encoderChange))//check if encoder bit is high
	{
		currentGlobals->valueChangeFlag = currentGlobals->valueChangeFlag & (0xFF & (0 << encoderChange));//set encoder bit low, and carry our whatever encoder change has occurred. 
		//we need to debug this to make sure it's doing what we think it's doing.
		uint16_t totalSustainTime = currentPattern->trackSustainTimeLSB[currentGlobals->currentTrack] | ((currentPattern->trackSustainTimeMSB[currentGlobals->currentTrack]) << 8);
     946:	fa5f fe83 	uxtb.w	lr, r3
		uint16_t trackSample = (currentPattern->trackSampleMSB[currentGlobals->currentTrack] << 8) | (currentPattern->trackSampleLSB[currentGlobals->currentTrack]);
     94a:	4432      	add	r2, r6
     94c:	f892 3098 	ldrb.w	r3, [r2, #152]	; 0x98
     950:	7aa2      	ldrb	r2, [r4, #10]
     952:	b2df      	uxtb	r7, r3
     954:	4432      	add	r2, r6
     956:	f892 30a8 	ldrb.w	r3, [r2, #168]	; 0xa8

		switch (currentGlobals->menuState)
     95a:	7ae2      	ldrb	r2, [r4, #11]
	if ((currentGlobals->valueChangeFlag) & (1 << encoderChange))//check if encoder bit is high
	{
		currentGlobals->valueChangeFlag = currentGlobals->valueChangeFlag & (0xFF & (0 << encoderChange));//set encoder bit low, and carry our whatever encoder change has occurred. 
		//we need to debug this to make sure it's doing what we think it's doing.
		uint16_t totalSustainTime = currentPattern->trackSustainTimeLSB[currentGlobals->currentTrack] | ((currentPattern->trackSustainTimeMSB[currentGlobals->currentTrack]) << 8);
		uint16_t trackSample = (currentPattern->trackSampleMSB[currentGlobals->currentTrack] << 8) | (currentPattern->trackSampleLSB[currentGlobals->currentTrack]);
     95c:	b2db      	uxtb	r3, r3

		switch (currentGlobals->menuState)
     95e:	2a3a      	cmp	r2, #58	; 0x3a
     960:	d859      	bhi.n	a16 <updateScreen(Screen volatile*, Pattern volatile*, Globals volatile*)+0xfa>
     962:	e8df f012 	tbh	[pc, r2, lsl #1]
     966:	031e      	.short	0x031e
     968:	00580058 	.word	0x00580058
     96c:	00580058 	.word	0x00580058
     970:	00580058 	.word	0x00580058
     974:	00580058 	.word	0x00580058
     978:	00580058 	.word	0x00580058
     97c:	00580058 	.word	0x00580058
     980:	00580058 	.word	0x00580058
     984:	03000058 	.word	0x03000058
     988:	02d302ee 	.word	0x02d302ee
     98c:	005803e6 	.word	0x005803e6
     990:	00580058 	.word	0x00580058
     994:	00580058 	.word	0x00580058
     998:	03b603c5 	.word	0x03b603c5
     99c:	005803af 	.word	0x005803af
     9a0:	00580058 	.word	0x00580058
     9a4:	03910058 	.word	0x03910058
     9a8:	0372037f 	.word	0x0372037f
     9ac:	02810357 	.word	0x02810357
     9b0:	00580266 	.word	0x00580266
     9b4:	00580058 	.word	0x00580058
     9b8:	003b0257 	.word	0x003b0257
     9bc:	02390246 	.word	0x02390246
     9c0:	0058021c 	.word	0x0058021c
     9c4:	01e70058 	.word	0x01e70058
     9c8:	02bf02cc 	.word	0x02bf02cc
     9cc:	005802a4 	.word	0x005802a4
     9d0:	00580058 	.word	0x00580058
     9d4:	00580058 	.word	0x00580058
     9d8:	01d1029c 	.word	0x01d1029c
			outputS(menuScreen->screen2[3], 3, currentGlobals);
			break;

		case TrackMenuArrow2Select:
			//we need some serious button code in these two cases. 
			switch (currentPattern->trackPlayMode[currentGlobals->currentTrack])
     9dc:	7aa3      	ldrb	r3, [r4, #10]
     9de:	4433      	add	r3, r6
     9e0:	f893 3088 	ldrb.w	r3, [r3, #136]	; 0x88
     9e4:	f003 02ff 	and.w	r2, r3, #255	; 0xff
     9e8:	2b00      	cmp	r3, #0
     9ea:	f000 83f4 	beq.w	11d6 <updateScreen(Screen volatile*, Pattern volatile*, Globals volatile*)+0x8ba>
     9ee:	2a01      	cmp	r2, #1
     9f0:	d10b      	bne.n	a0a <updateScreen(Screen volatile*, Pattern volatile*, Globals volatile*)+0xee>
				menuScreen->screen2[2][12] = 'l';
				menuScreen->screen2[2][13] = 'o';
				break;

			case 1:
				menuScreen->screen2[2][10] = 'P';
     9f2:	2050      	movs	r0, #80	; 0x50
				menuScreen->screen2[2][11] = 'o';
     9f4:	216f      	movs	r1, #111	; 0x6f
				menuScreen->screen2[2][12] = 'l';
     9f6:	226c      	movs	r2, #108	; 0x6c
				menuScreen->screen2[2][13] = 'y';
     9f8:	2379      	movs	r3, #121	; 0x79
				menuScreen->screen2[2][12] = 'l';
				menuScreen->screen2[2][13] = 'o';
				break;

			case 1:
				menuScreen->screen2[2][10] = 'P';
     9fa:	f885 01ae 	strb.w	r0, [r5, #430]	; 0x1ae
				menuScreen->screen2[2][11] = 'o';
     9fe:	f885 11af 	strb.w	r1, [r5, #431]	; 0x1af
				menuScreen->screen2[2][12] = 'l';
     a02:	f885 21b0 	strb.w	r2, [r5, #432]	; 0x1b0
				menuScreen->screen2[2][13] = 'y';
     a06:	f885 31b1 	strb.w	r3, [r5, #433]	; 0x1b1

			case 3:
				break;
			}

			outputS(menuScreen->screen2[2], 2, currentGlobals);
     a0a:	4622      	mov	r2, r4
     a0c:	2102      	movs	r1, #2
     a0e:	f505 70d2 	add.w	r0, r5, #420	; 0x1a4
     a12:	f000 ff6b 	bl	18ec <outputS(char volatile*, int, Globals volatile*)>
			outputS(menuScreen->screen3[1], 1, currentGlobals);
			outputS(menuScreen->screen3[2], 2, currentGlobals);
			outputS(menuScreen->screen3[3], 3, currentGlobals);
			break;
		}
		prevMenuState = currentGlobals->menuState;
     a16:	7ae2      	ldrb	r2, [r4, #11]
     a18:	4bc3      	ldr	r3, [pc, #780]	; (d28 <updateScreen(Screen volatile*, Pattern volatile*, Globals volatile*)+0x40c>)
     a1a:	701a      	strb	r2, [r3, #0]
	}
	//We should only reach this in track selection and global settings for setting midi notes. 
	if (currentGlobals->valueChangeFlag & (1 << triggerChange))
     a1c:	7be3      	ldrb	r3, [r4, #15]
     a1e:	079a      	lsls	r2, r3, #30
     a20:	d506      	bpl.n	a30 <updateScreen(Screen volatile*, Pattern volatile*, Globals volatile*)+0x114>
	{
		currentGlobals->valueChangeFlag = currentGlobals->valueChangeFlag & (0 << triggerChange); //this is wrong. Will erase all of valueChange Flag. 
     a22:	2300      	movs	r3, #0
     a24:	7be2      	ldrb	r2, [r4, #15]
     a26:	73e3      	strb	r3, [r4, #15]
		switch ((currentGlobals->menuState) >> 4) //we don't need to worry about what the bottom encoder is doing.  
     a28:	7ae7      	ldrb	r7, [r4, #11]
     a2a:	093f      	lsrs	r7, r7, #4
     a2c:	2f02      	cmp	r7, #2
     a2e:	d03b      	beq.n	aa8 <updateScreen(Screen volatile*, Pattern volatile*, Globals volatile*)+0x18c>
			outputS(menuScreen->screen3[2], 2, currentGlobals);
			break;

		}
	}
	if (currentGlobals->valueChangeFlag & (1 << knobChange))
     a30:	7be3      	ldrb	r3, [r4, #15]
     a32:	075b      	lsls	r3, r3, #29
     a34:	d51a      	bpl.n	a6c <updateScreen(Screen volatile*, Pattern volatile*, Globals volatile*)+0x150>
	{
		uint8_t positionSelect = currentGlobals->knobStatus & 0x0F; //this is the bottom 4 bits, for the track location
     a36:	f894 8010 	ldrb.w	r8, [r4, #16]
		uint8_t positionSelectUpper = 0;
		if ((currentGlobals->buttonSwitchFlag) & 0x01)
     a3a:	7ba2      	ldrb	r2, [r4, #14]
		{
			positionSelectUpper = 8;
		}


		switch ((currentGlobals->knobStatus) >> 4)
     a3c:	f894 9010 	ldrb.w	r9, [r4, #16]

		}
	}
	if (currentGlobals->valueChangeFlag & (1 << knobChange))
	{
		uint8_t positionSelect = currentGlobals->knobStatus & 0x0F; //this is the bottom 4 bits, for the track location
     a40:	f008 080f 	and.w	r8, r8, #15
		uint8_t positionSelectUpper = 0;
		if ((currentGlobals->buttonSwitchFlag) & 0x01)
     a44:	f012 0701 	ands.w	r7, r2, #1
		{
			positionSelectUpper = 8;
		}


		switch ((currentGlobals->knobStatus) >> 4)
     a48:	ea4f 1919 	mov.w	r9, r9, lsr #4
     a4c:	bf18      	it	ne
     a4e:	2708      	movne	r7, #8
     a50:	f1b9 0f01 	cmp.w	r9, #1
     a54:	463b      	mov	r3, r7
     a56:	d00b      	beq.n	a70 <updateScreen(Screen volatile*, Pattern volatile*, Globals volatile*)+0x154>
     a58:	f1b9 0f02 	cmp.w	r9, #2
     a5c:	f000 80a9 	beq.w	bb2 <updateScreen(Screen volatile*, Pattern volatile*, Globals volatile*)+0x296>
     a60:	f1b9 0f00 	cmp.w	r9, #0
     a64:	d068      	beq.n	b38 <updateScreen(Screen volatile*, Pattern volatile*, Globals volatile*)+0x21c>
			{
				outputS(menuScreen->screen0[2], 2, currentGlobals);
			}
			break;
		}
		currentGlobals->valueChangeFlag = currentGlobals->valueChangeFlag & (0xFF & (0 << knobChange));
     a66:	2300      	movs	r3, #0
     a68:	7be2      	ldrb	r2, [r4, #15]
     a6a:	73e3      	strb	r3, [r4, #15]
     a6c:	e8bd 87f0 	ldmia.w	sp!, {r4, r5, r6, r7, r8, r9, sl, pc}
			outputS(menuScreen->knobScreen[0], 3, currentGlobals);
			break;

		case 1: //pitch
			menuScreen->knobScreen[1][5] = positionSelect + 49;
			if (currentPattern->outputPitch[positionSelect] >> 7)
     a70:	4446      	add	r6, r8
			menuScreen->knobScreen[0][10] = positionSelect + 49;
			outputS(menuScreen->knobScreen[0], 3, currentGlobals);
			break;

		case 1: //pitch
			menuScreen->knobScreen[1][5] = positionSelect + 49;
     a72:	f108 0831 	add.w	r8, r8, #49	; 0x31
     a76:	f885 830e 	strb.w	r8, [r5, #782]	; 0x30e
			if (currentPattern->outputPitch[positionSelect] >> 7)
     a7a:	7c33      	ldrb	r3, [r6, #16]
     a7c:	09db      	lsrs	r3, r3, #7
     a7e:	f000 811b 	beq.w	cb8 <updateScreen(Screen volatile*, Pattern volatile*, Globals volatile*)+0x39c>
			{
				menuScreen->knobScreen[1][7] = '-';
     a82:	232d      	movs	r3, #45	; 0x2d
				numPrinter(menuScreen->knobScreen[1], 8, 3, (currentPattern->outputPitch[positionSelect]) ^ 255);
     a84:	f205 3709 	addw	r7, r5, #777	; 0x309
     a88:	2203      	movs	r2, #3
     a8a:	2108      	movs	r1, #8

		case 1: //pitch
			menuScreen->knobScreen[1][5] = positionSelect + 49;
			if (currentPattern->outputPitch[positionSelect] >> 7)
			{
				menuScreen->knobScreen[1][7] = '-';
     a8c:	f885 3310 	strb.w	r3, [r5, #784]	; 0x310
				numPrinter(menuScreen->knobScreen[1], 8, 3, (currentPattern->outputPitch[positionSelect]) ^ 255);
     a90:	4638      	mov	r0, r7
     a92:	7c33      	ldrb	r3, [r6, #16]
     a94:	43db      	mvns	r3, r3
     a96:	b2db      	uxtb	r3, r3
     a98:	f000 ff54 	bl	1944 <numPrinter(char volatile*, unsigned char, unsigned char, unsigned short)>
			else
			{
				menuScreen->knobScreen[1][7] = '+';
				numPrinter(menuScreen->knobScreen[1], 8, 3, currentPattern->outputPitch[positionSelect]);
			}
			outputS(menuScreen->knobScreen[1], 3, currentGlobals);
     a9c:	4638      	mov	r0, r7
     a9e:	4622      	mov	r2, r4
     aa0:	2103      	movs	r1, #3
     aa2:	f000 ff23 	bl	18ec <outputS(char volatile*, int, Globals volatile*)>
			break;
     aa6:	e7de      	b.n	a66 <updateScreen(Screen volatile*, Pattern volatile*, Globals volatile*)+0x14a>
	{
		currentGlobals->valueChangeFlag = currentGlobals->valueChangeFlag & (0 << triggerChange); //this is wrong. Will erase all of valueChange Flag. 
		switch ((currentGlobals->menuState) >> 4) //we don't need to worry about what the bottom encoder is doing.  
		{
		case 2:;
			uint16_t trackSample = (currentPattern->trackSampleMSB[currentGlobals->currentTrack] << 8) | (currentPattern->trackSampleLSB[currentGlobals->currentTrack]);
     aa8:	7aa3      	ldrb	r3, [r4, #10]
			numPrinter(menuScreen->screen2[1], 7, 2, (currentGlobals->currentTrack) + 1);
     aaa:	f205 198f 	addw	r9, r5, #399	; 0x18f
     aae:	463a      	mov	r2, r7
     ab0:	2107      	movs	r1, #7
	{
		currentGlobals->valueChangeFlag = currentGlobals->valueChangeFlag & (0 << triggerChange); //this is wrong. Will erase all of valueChange Flag. 
		switch ((currentGlobals->menuState) >> 4) //we don't need to worry about what the bottom encoder is doing.  
		{
		case 2:;
			uint16_t trackSample = (currentPattern->trackSampleMSB[currentGlobals->currentTrack] << 8) | (currentPattern->trackSampleLSB[currentGlobals->currentTrack]);
     ab2:	4433      	add	r3, r6
			numPrinter(menuScreen->screen2[1], 7, 2, (currentGlobals->currentTrack) + 1);
     ab4:	4648      	mov	r0, r9
	{
		currentGlobals->valueChangeFlag = currentGlobals->valueChangeFlag & (0 << triggerChange); //this is wrong. Will erase all of valueChange Flag. 
		switch ((currentGlobals->menuState) >> 4) //we don't need to worry about what the bottom encoder is doing.  
		{
		case 2:;
			uint16_t trackSample = (currentPattern->trackSampleMSB[currentGlobals->currentTrack] << 8) | (currentPattern->trackSampleLSB[currentGlobals->currentTrack]);
     ab6:	f893 a098 	ldrb.w	sl, [r3, #152]	; 0x98
     aba:	7aa3      	ldrb	r3, [r4, #10]
     abc:	fa5f fa8a 	uxtb.w	sl, sl
     ac0:	4433      	add	r3, r6
     ac2:	f893 80a8 	ldrb.w	r8, [r3, #168]	; 0xa8
			numPrinter(menuScreen->screen2[1], 7, 2, (currentGlobals->currentTrack) + 1);
     ac6:	7aa3      	ldrb	r3, [r4, #10]
	{
		currentGlobals->valueChangeFlag = currentGlobals->valueChangeFlag & (0 << triggerChange); //this is wrong. Will erase all of valueChange Flag. 
		switch ((currentGlobals->menuState) >> 4) //we don't need to worry about what the bottom encoder is doing.  
		{
		case 2:;
			uint16_t trackSample = (currentPattern->trackSampleMSB[currentGlobals->currentTrack] << 8) | (currentPattern->trackSampleLSB[currentGlobals->currentTrack]);
     ac8:	fa5f f888 	uxtb.w	r8, r8
			numPrinter(menuScreen->screen2[1], 7, 2, (currentGlobals->currentTrack) + 1);
     acc:	3301      	adds	r3, #1
     ace:	f000 ff39 	bl	1944 <numPrinter(char volatile*, unsigned char, unsigned char, unsigned short)>
			numPrinter(menuScreen->screen2[1], 10, 4, trackSample);
     ad2:	2204      	movs	r2, #4
     ad4:	ea48 230a 	orr.w	r3, r8, sl, lsl #8
     ad8:	4648      	mov	r0, r9
     ada:	210a      	movs	r1, #10
     adc:	f000 ff32 	bl	1944 <numPrinter(char volatile*, unsigned char, unsigned char, unsigned short)>
			//this feels dumb having it in two places, but It should take care of both cases. Maybe this should be a function?
			switch (currentPattern->trackPlayMode[currentGlobals->currentTrack])
     ae0:	7aa3      	ldrb	r3, [r4, #10]
     ae2:	4433      	add	r3, r6
     ae4:	f893 3088 	ldrb.w	r3, [r3, #136]	; 0x88
     ae8:	f003 02ff 	and.w	r2, r3, #255	; 0xff
     aec:	2b00      	cmp	r3, #0
     aee:	f000 835a 	beq.w	11a6 <updateScreen(Screen volatile*, Pattern volatile*, Globals volatile*)+0x88a>
     af2:	2a01      	cmp	r2, #1
     af4:	d10b      	bne.n	b0e <updateScreen(Screen volatile*, Pattern volatile*, Globals volatile*)+0x1f2>
				menuScreen->screen2[2][12] = 'l';
				menuScreen->screen2[2][13] = 'o';
				break;

			case 1:
				menuScreen->screen2[2][10] = 'P';
     af6:	2050      	movs	r0, #80	; 0x50
				menuScreen->screen2[2][11] = 'o';
     af8:	216f      	movs	r1, #111	; 0x6f
				menuScreen->screen2[2][12] = 'l';
     afa:	226c      	movs	r2, #108	; 0x6c
				menuScreen->screen2[2][13] = 'y';
     afc:	2379      	movs	r3, #121	; 0x79
				menuScreen->screen2[2][12] = 'l';
				menuScreen->screen2[2][13] = 'o';
				break;

			case 1:
				menuScreen->screen2[2][10] = 'P';
     afe:	f885 01ae 	strb.w	r0, [r5, #430]	; 0x1ae
				menuScreen->screen2[2][11] = 'o';
     b02:	f885 11af 	strb.w	r1, [r5, #431]	; 0x1af
				menuScreen->screen2[2][12] = 'l';
     b06:	f885 21b0 	strb.w	r2, [r5, #432]	; 0x1b0
				menuScreen->screen2[2][13] = 'y';
     b0a:	f885 31b1 	strb.w	r3, [r5, #433]	; 0x1b1

			case 3:
				break;
			}

			numPrinter(menuScreen->screen2[3], 10, 2, (currentPattern->trackOutputRoute[currentGlobals->currentTrack] + 1));
     b0e:	7aa3      	ldrb	r3, [r4, #10]
     b10:	f205 18b9 	addw	r8, r5, #441	; 0x1b9
     b14:	2202      	movs	r2, #2
     b16:	210a      	movs	r1, #10
     b18:	4433      	add	r3, r6
     b1a:	4640      	mov	r0, r8
     b1c:	7e1b      	ldrb	r3, [r3, #24]
     b1e:	3301      	adds	r3, #1
     b20:	f000 ff10 	bl	1944 <numPrinter(char volatile*, unsigned char, unsigned char, unsigned short)>
			switch (currentPattern->envelopeType[currentGlobals->currentTrack])
     b24:	7aa3      	ldrb	r3, [r4, #10]
     b26:	4433      	add	r3, r6
     b28:	f893 30eb 	ldrb.w	r3, [r3, #235]	; 0xeb
     b2c:	2b03      	cmp	r3, #3
     b2e:	d874      	bhi.n	c1a <updateScreen(Screen volatile*, Pattern volatile*, Globals volatile*)+0x2fe>
     b30:	e8df f003 	tbb	[pc, r3]
     b34:	ce69dbdd 	.word	0xce69dbdd


		switch ((currentGlobals->knobStatus) >> 4)
		{
		case 0: //output volume
			if ((currentPattern->outputLevelMSB[positionSelect]) == 0)
     b38:	f816 3008 	ldrb.w	r3, [r6, r8]
			{ //value is positive
				menuScreen->knobScreen[0][14] = ' ';
				numPrinter(menuScreen->knobScreen[0], 15, 2, currentPattern->outputLevelLSB[positionSelect]); //should be a value between 0 and 8
     b3c:	4446      	add	r6, r8


		switch ((currentGlobals->knobStatus) >> 4)
		{
		case 0: //output volume
			if ((currentPattern->outputLevelMSB[positionSelect]) == 0)
     b3e:	2b00      	cmp	r3, #0
     b40:	f000 833d 	beq.w	11be <updateScreen(Screen volatile*, Pattern volatile*, Globals volatile*)+0x8a2>
				menuScreen->knobScreen[0][14] = ' ';
				numPrinter(menuScreen->knobScreen[0], 15, 2, currentPattern->outputLevelLSB[positionSelect]); //should be a value between 0 and 8
			}
			else
			{
				menuScreen->knobScreen[0][14] = '-';
     b44:	222d      	movs	r2, #45	; 0x2d
				menuScreen->knobScreen[0][15] = ((((currentPattern->outputLevelLSB[positionSelect] ^ 255) + 1) % 100) / 10) + 48; //negative 8 bit numbers: flip every bit and add 1.
     b46:	4979      	ldr	r1, [pc, #484]	; (d2c <updateScreen(Screen volatile*, Pattern volatile*, Globals volatile*)+0x410>)
     b48:	2364      	movs	r3, #100	; 0x64
     b4a:	f505 793d 	add.w	r9, r5, #756	; 0x2f4
				menuScreen->knobScreen[0][14] = ' ';
				numPrinter(menuScreen->knobScreen[0], 15, 2, currentPattern->outputLevelLSB[positionSelect]); //should be a value between 0 and 8
			}
			else
			{
				menuScreen->knobScreen[0][14] = '-';
     b4e:	f885 2302 	strb.w	r2, [r5, #770]	; 0x302
				menuScreen->knobScreen[0][15] = ((((currentPattern->outputLevelLSB[positionSelect] ^ 255) + 1) % 100) / 10) + 48; //negative 8 bit numbers: flip every bit and add 1.
     b52:	7a30      	ldrb	r0, [r6, #8]
     b54:	43c0      	mvns	r0, r0
     b56:	b2c0      	uxtb	r0, r0
     b58:	3001      	adds	r0, #1
     b5a:	fb81 2100 	smull	r2, r1, r1, r0
     b5e:	17c2      	asrs	r2, r0, #31
     b60:	ebc2 1161 	rsb	r1, r2, r1, asr #5
     b64:	4a72      	ldr	r2, [pc, #456]	; (d30 <updateScreen(Screen volatile*, Pattern volatile*, Globals volatile*)+0x414>)
     b66:	fb03 0311 	mls	r3, r3, r1, r0
     b6a:	fb82 0103 	smull	r0, r1, r2, r3
     b6e:	17db      	asrs	r3, r3, #31
     b70:	ebc3 03a1 	rsb	r3, r3, r1, asr #2
     b74:	3330      	adds	r3, #48	; 0x30
     b76:	b2db      	uxtb	r3, r3
     b78:	f885 3303 	strb.w	r3, [r5, #771]	; 0x303
				menuScreen->knobScreen[0][16] = (((currentPattern->outputLevelLSB[positionSelect] ^ 255) + 1) % 10) + 48;
     b7c:	7a33      	ldrb	r3, [r6, #8]
     b7e:	43db      	mvns	r3, r3
     b80:	b2db      	uxtb	r3, r3
     b82:	3301      	adds	r3, #1
     b84:	fb82 1203 	smull	r1, r2, r2, r3
     b88:	17d9      	asrs	r1, r3, #31
     b8a:	ebc1 02a2 	rsb	r2, r1, r2, asr #2
     b8e:	eb02 0282 	add.w	r2, r2, r2, lsl #2
     b92:	eba3 0342 	sub.w	r3, r3, r2, lsl #1
     b96:	3330      	adds	r3, #48	; 0x30
     b98:	b2db      	uxtb	r3, r3
     b9a:	f885 3304 	strb.w	r3, [r5, #772]	; 0x304
			}

			menuScreen->knobScreen[0][10] = positionSelect + 49;
     b9e:	f108 0831 	add.w	r8, r8, #49	; 0x31
			outputS(menuScreen->knobScreen[0], 3, currentGlobals);
     ba2:	4648      	mov	r0, r9
     ba4:	4622      	mov	r2, r4
     ba6:	2103      	movs	r1, #3
				menuScreen->knobScreen[0][14] = '-';
				menuScreen->knobScreen[0][15] = ((((currentPattern->outputLevelLSB[positionSelect] ^ 255) + 1) % 100) / 10) + 48; //negative 8 bit numbers: flip every bit and add 1.
				menuScreen->knobScreen[0][16] = (((currentPattern->outputLevelLSB[positionSelect] ^ 255) + 1) % 10) + 48;
			}

			menuScreen->knobScreen[0][10] = positionSelect + 49;
     ba8:	f885 82fe 	strb.w	r8, [r5, #766]	; 0x2fe
			outputS(menuScreen->knobScreen[0], 3, currentGlobals);
     bac:	f000 fe9e 	bl	18ec <outputS(char volatile*, int, Globals volatile*)>
			break;
     bb0:	e759      	b.n	a66 <updateScreen(Screen volatile*, Pattern volatile*, Globals volatile*)+0x14a>
			}
			outputS(menuScreen->knobScreen[1], 3, currentGlobals);
			break;

		case 2:; //attack envelope 
			uint16_t totalAttackTime = currentPattern->trackAttackTimeLSB[positionSelect + positionSelectUpper] | ((currentPattern->trackAttackTimeMSB[positionSelect + positionSelectUpper]) << 8);
     bb2:	4443      	add	r3, r8
			numPrinter(menuScreen->knobScreen[2], 14, 5, totalAttackTime);
     bb4:	f205 3a1e 	addw	sl, r5, #798	; 0x31e
     bb8:	2205      	movs	r2, #5
     bba:	210e      	movs	r1, #14
			}
			outputS(menuScreen->knobScreen[1], 3, currentGlobals);
			break;

		case 2:; //attack envelope 
			uint16_t totalAttackTime = currentPattern->trackAttackTimeLSB[positionSelect + positionSelectUpper] | ((currentPattern->trackAttackTimeMSB[positionSelect + positionSelectUpper]) << 8);
     bbc:	441e      	add	r6, r3
			numPrinter(menuScreen->knobScreen[2], 14, 5, totalAttackTime);
     bbe:	4650      	mov	r0, sl
			}
			outputS(menuScreen->knobScreen[1], 3, currentGlobals);
			break;

		case 2:; //attack envelope 
			uint16_t totalAttackTime = currentPattern->trackAttackTimeLSB[positionSelect + positionSelectUpper] | ((currentPattern->trackAttackTimeMSB[positionSelect + positionSelectUpper]) << 8);
     bc0:	f896 3058 	ldrb.w	r3, [r6, #88]	; 0x58
     bc4:	f896 6048 	ldrb.w	r6, [r6, #72]	; 0x48
			numPrinter(menuScreen->knobScreen[2], 14, 5, totalAttackTime);
     bc8:	ea43 2306 	orr.w	r3, r3, r6, lsl #8
     bcc:	f000 feba 	bl	1944 <numPrinter(char volatile*, unsigned char, unsigned char, unsigned short)>
			menuScreen->knobScreen[2][13] = menuScreen->knobScreen[2][14];
     bd0:	f895 132c 	ldrb.w	r1, [r5, #812]	; 0x32c
			menuScreen->knobScreen[2][14] = menuScreen->knobScreen[2][15];
			menuScreen->knobScreen[2][15] = '.';
			numPrinter(menuScreen->knobScreen[2], 10, 2, (positionSelect + 1 + positionSelectUpper));
     bd4:	eb08 0307 	add.w	r3, r8, r7
		case 2:; //attack envelope 
			uint16_t totalAttackTime = currentPattern->trackAttackTimeLSB[positionSelect + positionSelectUpper] | ((currentPattern->trackAttackTimeMSB[positionSelect + positionSelectUpper]) << 8);
			numPrinter(menuScreen->knobScreen[2], 14, 5, totalAttackTime);
			menuScreen->knobScreen[2][13] = menuScreen->knobScreen[2][14];
			menuScreen->knobScreen[2][14] = menuScreen->knobScreen[2][15];
			menuScreen->knobScreen[2][15] = '.';
     bd8:	272e      	movs	r7, #46	; 0x2e
			break;

		case 2:; //attack envelope 
			uint16_t totalAttackTime = currentPattern->trackAttackTimeLSB[positionSelect + positionSelectUpper] | ((currentPattern->trackAttackTimeMSB[positionSelect + positionSelectUpper]) << 8);
			numPrinter(menuScreen->knobScreen[2], 14, 5, totalAttackTime);
			menuScreen->knobScreen[2][13] = menuScreen->knobScreen[2][14];
     bda:	b2c9      	uxtb	r1, r1
			menuScreen->knobScreen[2][14] = menuScreen->knobScreen[2][15];
			menuScreen->knobScreen[2][15] = '.';
			numPrinter(menuScreen->knobScreen[2], 10, 2, (positionSelect + 1 + positionSelectUpper));
     bdc:	464a      	mov	r2, r9
     bde:	4650      	mov	r0, sl
     be0:	3301      	adds	r3, #1
			break;

		case 2:; //attack envelope 
			uint16_t totalAttackTime = currentPattern->trackAttackTimeLSB[positionSelect + positionSelectUpper] | ((currentPattern->trackAttackTimeMSB[positionSelect + positionSelectUpper]) << 8);
			numPrinter(menuScreen->knobScreen[2], 14, 5, totalAttackTime);
			menuScreen->knobScreen[2][13] = menuScreen->knobScreen[2][14];
     be2:	f885 132b 	strb.w	r1, [r5, #811]	; 0x32b
			menuScreen->knobScreen[2][14] = menuScreen->knobScreen[2][15];
			menuScreen->knobScreen[2][15] = '.';
			numPrinter(menuScreen->knobScreen[2], 10, 2, (positionSelect + 1 + positionSelectUpper));
     be6:	210a      	movs	r1, #10

		case 2:; //attack envelope 
			uint16_t totalAttackTime = currentPattern->trackAttackTimeLSB[positionSelect + positionSelectUpper] | ((currentPattern->trackAttackTimeMSB[positionSelect + positionSelectUpper]) << 8);
			numPrinter(menuScreen->knobScreen[2], 14, 5, totalAttackTime);
			menuScreen->knobScreen[2][13] = menuScreen->knobScreen[2][14];
			menuScreen->knobScreen[2][14] = menuScreen->knobScreen[2][15];
     be8:	f895 632d 	ldrb.w	r6, [r5, #813]	; 0x32d
     bec:	b2f6      	uxtb	r6, r6
     bee:	f885 632c 	strb.w	r6, [r5, #812]	; 0x32c
			menuScreen->knobScreen[2][15] = '.';
     bf2:	f885 732d 	strb.w	r7, [r5, #813]	; 0x32d
			numPrinter(menuScreen->knobScreen[2], 10, 2, (positionSelect + 1 + positionSelectUpper));
     bf6:	f000 fea5 	bl	1944 <numPrinter(char volatile*, unsigned char, unsigned char, unsigned short)>
			outputS(menuScreen->knobScreen[2], 3, currentGlobals); //This is not MS, but ideal for testing it Attack really works. 
     bfa:	4622      	mov	r2, r4
     bfc:	4650      	mov	r0, sl
     bfe:	2103      	movs	r1, #3
     c00:	f000 fe74 	bl	18ec <outputS(char volatile*, int, Globals volatile*)>
			break;
     c04:	e72f      	b.n	a66 <updateScreen(Screen volatile*, Pattern volatile*, Globals volatile*)+0x14a>
				menuScreen->screen2[4][16] = ' ';
				menuScreen->screen2[4][17] = ' ';
				break;

			case 2: //only attack
				menuScreen->screen2[4][14] = 'A';
     c06:	2241      	movs	r2, #65	; 0x41
				menuScreen->screen2[4][15] = ' ';
     c08:	2320      	movs	r3, #32
				menuScreen->screen2[4][16] = ' ';
				menuScreen->screen2[4][17] = ' ';
				break;

			case 2: //only attack
				menuScreen->screen2[4][14] = 'A';
     c0a:	f885 21dc 	strb.w	r2, [r5, #476]	; 0x1dc
				menuScreen->screen2[4][15] = ' ';
     c0e:	f885 31dd 	strb.w	r3, [r5, #477]	; 0x1dd
				menuScreen->screen2[4][16] = ' ';
     c12:	f885 31de 	strb.w	r3, [r5, #478]	; 0x1de
				menuScreen->screen2[4][17] = ' ';
     c16:	f885 31df 	strb.w	r3, [r5, #479]	; 0x1df
				menuScreen->screen2[4][15] = 'o';
				menuScreen->screen2[4][16] = 'n';
				menuScreen->screen2[4][17] = 'e';
				break;
			}
			uint16_t totalSustainTime = currentPattern->trackSustainTimeLSB[currentGlobals->currentTrack] | ((currentPattern->trackSustainTimeMSB[currentGlobals->currentTrack]) << 8);
     c1a:	7aa3      	ldrb	r3, [r4, #10]
			numPrinter(menuScreen->screen2[5], 13, 5, totalSustainTime);
     c1c:	2205      	movs	r2, #5
     c1e:	210d      	movs	r1, #13
     c20:	f205 10e3 	addw	r0, r5, #483	; 0x1e3
				menuScreen->screen2[4][15] = 'o';
				menuScreen->screen2[4][16] = 'n';
				menuScreen->screen2[4][17] = 'e';
				break;
			}
			uint16_t totalSustainTime = currentPattern->trackSustainTimeLSB[currentGlobals->currentTrack] | ((currentPattern->trackSustainTimeMSB[currentGlobals->currentTrack]) << 8);
     c24:	4433      	add	r3, r6
     c26:	f893 30db 	ldrb.w	r3, [r3, #219]	; 0xdb
     c2a:	f894 e00a 	ldrb.w	lr, [r4, #10]
     c2e:	44b6      	add	lr, r6
     c30:	f89e e0cb 	ldrb.w	lr, [lr, #203]	; 0xcb
			numPrinter(menuScreen->screen2[5], 13, 5, totalSustainTime);
     c34:	ea43 230e 	orr.w	r3, r3, lr, lsl #8
     c38:	f000 fe84 	bl	1944 <numPrinter(char volatile*, unsigned char, unsigned char, unsigned short)>
			menuScreen->screen2[5][12] = menuScreen->screen2[5][13];
     c3c:	f895 31f0 	ldrb.w	r3, [r5, #496]	; 0x1f0
			menuScreen->screen2[5][13] = menuScreen->screen2[5][14];
			menuScreen->screen2[5][14] = '.';
     c40:	222e      	movs	r2, #46	; 0x2e
				menuScreen->screen2[4][17] = 'e';
				break;
			}
			uint16_t totalSustainTime = currentPattern->trackSustainTimeLSB[currentGlobals->currentTrack] | ((currentPattern->trackSustainTimeMSB[currentGlobals->currentTrack]) << 8);
			numPrinter(menuScreen->screen2[5], 13, 5, totalSustainTime);
			menuScreen->screen2[5][12] = menuScreen->screen2[5][13];
     c42:	b2db      	uxtb	r3, r3
     c44:	f885 31ef 	strb.w	r3, [r5, #495]	; 0x1ef
			menuScreen->screen2[5][13] = menuScreen->screen2[5][14];
     c48:	f895 31f1 	ldrb.w	r3, [r5, #497]	; 0x1f1
     c4c:	b2db      	uxtb	r3, r3
     c4e:	f885 31f0 	strb.w	r3, [r5, #496]	; 0x1f0
			menuScreen->screen2[5][14] = '.';
     c52:	f885 21f1 	strb.w	r2, [r5, #497]	; 0x1f1


			//this is a bit messy, but seems to fix bugs on this portion of the menu for now. 
			uint8_t triggerChangeScreen = 1;

			if (((currentGlobals->menuState) & selectBit) > 35) //this accounts for menu stats 36,37,44, and 45
     c56:	7ae3      	ldrb	r3, [r4, #11]
     c58:	f003 03f7 	and.w	r3, r3, #247	; 0xf7
     c5c:	2b23      	cmp	r3, #35	; 0x23
     c5e:	d915      	bls.n	c8c <updateScreen(Screen volatile*, Pattern volatile*, Globals volatile*)+0x370>
			{
				triggerChangeScreen = ((currentGlobals->menuState) & selectBit) - 34; //mask to get rid of encoder B pushed state. 
     c60:	7ae7      	ldrb	r7, [r4, #11]
     c62:	f007 07f7 	and.w	r7, r7, #247	; 0xf7
     c66:	3f22      	subs	r7, #34	; 0x22
     c68:	b2ff      	uxtb	r7, r7
     c6a:	f107 0802 	add.w	r8, r7, #2
     c6e:	eb07 0947 	add.w	r9, r7, r7, lsl #1
     c72:	3701      	adds	r7, #1
     c74:	eb08 0848 	add.w	r8, r8, r8, lsl #1
     c78:	ebc9 09c9 	rsb	r9, r9, r9, lsl #3
     c7c:	ebc8 08c8 	rsb	r8, r8, r8, lsl #3
     c80:	44a9      	add	r9, r5
     c82:	44a8      	add	r8, r5
     c84:	f509 79bd 	add.w	r9, r9, #378	; 0x17a
     c88:	f508 78bd 	add.w	r8, r8, #378	; 0x17a
			}

			outputS(menuScreen->screen2[triggerChangeScreen], 1, currentGlobals);
			outputS(menuScreen->screen2[triggerChangeScreen + 1], 2, currentGlobals);
     c8c:	eb07 0747 	add.w	r7, r7, r7, lsl #1
			if (((currentGlobals->menuState) & selectBit) > 35) //this accounts for menu stats 36,37,44, and 45
			{
				triggerChangeScreen = ((currentGlobals->menuState) & selectBit) - 34; //mask to get rid of encoder B pushed state. 
			}

			outputS(menuScreen->screen2[triggerChangeScreen], 1, currentGlobals);
     c90:	4648      	mov	r0, r9
     c92:	4622      	mov	r2, r4
     c94:	2101      	movs	r1, #1
			outputS(menuScreen->screen2[triggerChangeScreen + 1], 2, currentGlobals);
     c96:	ebc7 07c7 	rsb	r7, r7, r7, lsl #3
			if (((currentGlobals->menuState) & selectBit) > 35) //this accounts for menu stats 36,37,44, and 45
			{
				triggerChangeScreen = ((currentGlobals->menuState) & selectBit) - 34; //mask to get rid of encoder B pushed state. 
			}

			outputS(menuScreen->screen2[triggerChangeScreen], 1, currentGlobals);
     c9a:	f000 fe27 	bl	18ec <outputS(char volatile*, int, Globals volatile*)>
			outputS(menuScreen->screen2[triggerChangeScreen + 1], 2, currentGlobals);
     c9e:	4622      	mov	r2, r4
     ca0:	19e8      	adds	r0, r5, r7
     ca2:	2102      	movs	r1, #2
     ca4:	f500 70bd 	add.w	r0, r0, #378	; 0x17a
     ca8:	f000 fe20 	bl	18ec <outputS(char volatile*, int, Globals volatile*)>
			outputS(menuScreen->screen2[triggerChangeScreen + 2], 3, currentGlobals);
     cac:	4622      	mov	r2, r4
     cae:	4640      	mov	r0, r8
     cb0:	2103      	movs	r1, #3
     cb2:	f000 fe1b 	bl	18ec <outputS(char volatile*, int, Globals volatile*)>

			break;
     cb6:	e6bb      	b.n	a30 <updateScreen(Screen volatile*, Pattern volatile*, Globals volatile*)+0x114>
				menuScreen->knobScreen[1][7] = '-';
				numPrinter(menuScreen->knobScreen[1], 8, 3, (currentPattern->outputPitch[positionSelect]) ^ 255);
			}
			else
			{
				menuScreen->knobScreen[1][7] = '+';
     cb8:	232b      	movs	r3, #43	; 0x2b
				numPrinter(menuScreen->knobScreen[1], 8, 3, currentPattern->outputPitch[positionSelect]);
     cba:	f205 3709 	addw	r7, r5, #777	; 0x309
     cbe:	2203      	movs	r2, #3
     cc0:	2108      	movs	r1, #8
				menuScreen->knobScreen[1][7] = '-';
				numPrinter(menuScreen->knobScreen[1], 8, 3, (currentPattern->outputPitch[positionSelect]) ^ 255);
			}
			else
			{
				menuScreen->knobScreen[1][7] = '+';
     cc2:	f885 3310 	strb.w	r3, [r5, #784]	; 0x310
				numPrinter(menuScreen->knobScreen[1], 8, 3, currentPattern->outputPitch[positionSelect]);
     cc6:	4638      	mov	r0, r7
     cc8:	7c33      	ldrb	r3, [r6, #16]
     cca:	f000 fe3b 	bl	1944 <numPrinter(char volatile*, unsigned char, unsigned char, unsigned short)>
     cce:	e6e5      	b.n	a9c <updateScreen(Screen volatile*, Pattern volatile*, Globals volatile*)+0x180>
				menuScreen->screen2[4][16] = ' ';
				menuScreen->screen2[4][17] = ' ';
				break;

			case 3: //No envelope
				menuScreen->screen2[4][14] = 'N';
     cd0:	204e      	movs	r0, #78	; 0x4e
				menuScreen->screen2[4][15] = 'o';
     cd2:	216f      	movs	r1, #111	; 0x6f
				menuScreen->screen2[4][16] = 'n';
     cd4:	226e      	movs	r2, #110	; 0x6e
				menuScreen->screen2[4][17] = 'e';
     cd6:	2365      	movs	r3, #101	; 0x65
				menuScreen->screen2[4][16] = ' ';
				menuScreen->screen2[4][17] = ' ';
				break;

			case 3: //No envelope
				menuScreen->screen2[4][14] = 'N';
     cd8:	f885 01dc 	strb.w	r0, [r5, #476]	; 0x1dc
				menuScreen->screen2[4][15] = 'o';
     cdc:	f885 11dd 	strb.w	r1, [r5, #477]	; 0x1dd
				menuScreen->screen2[4][16] = 'n';
     ce0:	f885 21de 	strb.w	r2, [r5, #478]	; 0x1de
				menuScreen->screen2[4][17] = 'e';
     ce4:	f885 31df 	strb.w	r3, [r5, #479]	; 0x1df
				break;
     ce8:	e797      	b.n	c1a <updateScreen(Screen volatile*, Pattern volatile*, Globals volatile*)+0x2fe>
				menuScreen->screen2[4][16] = 'R';
				menuScreen->screen2[4][17] = ' ';
				break;

			case 1: //only release
				menuScreen->screen2[4][14] = 'R';
     cea:	2252      	movs	r2, #82	; 0x52
     cec:	e78c      	b.n	c08 <updateScreen(Screen volatile*, Pattern volatile*, Globals volatile*)+0x2ec>

			numPrinter(menuScreen->screen2[3], 10, 2, (currentPattern->trackOutputRoute[currentGlobals->currentTrack] + 1));
			switch (currentPattern->envelopeType[currentGlobals->currentTrack])
			{
			case 0: //A/R
				menuScreen->screen2[4][14] = 'A';
     cee:	2041      	movs	r0, #65	; 0x41
				menuScreen->screen2[4][15] = '-';
     cf0:	212d      	movs	r1, #45	; 0x2d
				menuScreen->screen2[4][16] = 'R';
     cf2:	2252      	movs	r2, #82	; 0x52
				menuScreen->screen2[4][17] = ' ';
     cf4:	2320      	movs	r3, #32

			numPrinter(menuScreen->screen2[3], 10, 2, (currentPattern->trackOutputRoute[currentGlobals->currentTrack] + 1));
			switch (currentPattern->envelopeType[currentGlobals->currentTrack])
			{
			case 0: //A/R
				menuScreen->screen2[4][14] = 'A';
     cf6:	f885 01dc 	strb.w	r0, [r5, #476]	; 0x1dc
				menuScreen->screen2[4][15] = '-';
     cfa:	f885 11dd 	strb.w	r1, [r5, #477]	; 0x1dd
				menuScreen->screen2[4][16] = 'R';
     cfe:	f885 21de 	strb.w	r2, [r5, #478]	; 0x1de
				menuScreen->screen2[4][17] = ' ';
     d02:	f885 31df 	strb.w	r3, [r5, #479]	; 0x1df
				break;
     d06:	e788      	b.n	c1a <updateScreen(Screen volatile*, Pattern volatile*, Globals volatile*)+0x2fe>
			outputS(menuScreen->screen3[2], 2, currentGlobals);
			outputS(menuScreen->screen3[3], 3, currentGlobals);
			break;

		case GlobalMenuArrow2Select:
			midiNotePrinter(menuScreen->screen3[2], 14, currentGlobals->midiTrackNote[currentGlobals->currentTrack]);
     d08:	7aa3      	ldrb	r3, [r4, #10]
     d0a:	f205 2761 	addw	r7, r5, #609	; 0x261
     d0e:	210e      	movs	r1, #14
     d10:	4423      	add	r3, r4
     d12:	4638      	mov	r0, r7
     d14:	7c9a      	ldrb	r2, [r3, #18]
     d16:	f000 fedf 	bl	1ad8 <midiNotePrinter(char volatile*, unsigned char, unsigned char)>
			outputS(menuScreen->screen3[2], 2, currentGlobals);
     d1a:	4622      	mov	r2, r4
     d1c:	4638      	mov	r0, r7
     d1e:	2102      	movs	r1, #2
     d20:	f000 fde4 	bl	18ec <outputS(char volatile*, int, Globals volatile*)>
			break;
     d24:	e677      	b.n	a16 <updateScreen(Screen volatile*, Pattern volatile*, Globals volatile*)+0xfa>
     d26:	bf00      	nop
     d28:	200017d5 	.word	0x200017d5
     d2c:	51eb851f 	.word	0x51eb851f
     d30:	66666667 	.word	0x66666667
			break;
			

		case GlobalMenuInit:
			outputS(menuScreen->screen3[0], 0, currentGlobals);
			outputS(menuScreen->screen3[1], 1, currentGlobals);
     d34:	f505 7913 	add.w	r9, r5, #588	; 0x24c
			outputS(menuScreen->screen2[5], 3, currentGlobals);
			break;
			

		case GlobalMenuInit:
			outputS(menuScreen->screen3[0], 0, currentGlobals);
     d38:	4622      	mov	r2, r4
     d3a:	2100      	movs	r1, #0
     d3c:	f205 2037 	addw	r0, r5, #567	; 0x237
			outputS(menuScreen->screen3[1], 1, currentGlobals);
			outputS(menuScreen->screen3[2], 2, currentGlobals);
     d40:	f205 2861 	addw	r8, r5, #609	; 0x261
			outputS(menuScreen->screen2[5], 3, currentGlobals);
			break;
			

		case GlobalMenuInit:
			outputS(menuScreen->screen3[0], 0, currentGlobals);
     d44:	f000 fdd2 	bl	18ec <outputS(char volatile*, int, Globals volatile*)>
			outputS(menuScreen->screen3[1], 1, currentGlobals);
			outputS(menuScreen->screen3[2], 2, currentGlobals);
			outputS(menuScreen->screen3[3], 3, currentGlobals);
     d48:	f205 2776 	addw	r7, r5, #630	; 0x276
			break;
			

		case GlobalMenuInit:
			outputS(menuScreen->screen3[0], 0, currentGlobals);
			outputS(menuScreen->screen3[1], 1, currentGlobals);
     d4c:	4648      	mov	r0, r9
     d4e:	4622      	mov	r2, r4
     d50:	2101      	movs	r1, #1
     d52:	f000 fdcb 	bl	18ec <outputS(char volatile*, int, Globals volatile*)>
			outputS(menuScreen->screen3[2], 2, currentGlobals);
     d56:	4640      	mov	r0, r8
     d58:	4622      	mov	r2, r4
     d5a:	2102      	movs	r1, #2
     d5c:	f000 fdc6 	bl	18ec <outputS(char volatile*, int, Globals volatile*)>
			outputS(menuScreen->screen3[3], 3, currentGlobals);
     d60:	4638      	mov	r0, r7
     d62:	4622      	mov	r2, r4
     d64:	2103      	movs	r1, #3
     d66:	f000 fdc1 	bl	18ec <outputS(char volatile*, int, Globals volatile*)>
			currentGlobals->menuState = GlobalMenuArrow1;
     d6a:	2331      	movs	r3, #49	; 0x31
     d6c:	72e3      	strb	r3, [r4, #11]

		case GlobalMenuArrow1:
			menuScreen->screen3[1][19] = 8;
     d6e:	2108      	movs	r1, #8
			menuScreen->screen3[2][19] = ' ';
     d70:	2320      	movs	r3, #32
			menuScreen->screen3[3][19] = ' ';
			outputS(menuScreen->screen3[1], 1, currentGlobals);
     d72:	4648      	mov	r0, r9
     d74:	4622      	mov	r2, r4
			outputS(menuScreen->screen3[2], 2, currentGlobals);
			outputS(menuScreen->screen3[3], 3, currentGlobals);
			currentGlobals->menuState = GlobalMenuArrow1;

		case GlobalMenuArrow1:
			menuScreen->screen3[1][19] = 8;
     d76:	f885 125f 	strb.w	r1, [r5, #607]	; 0x25f
			menuScreen->screen3[2][19] = ' ';
			menuScreen->screen3[3][19] = ' ';
			outputS(menuScreen->screen3[1], 1, currentGlobals);
     d7a:	2101      	movs	r1, #1
			outputS(menuScreen->screen3[3], 3, currentGlobals);
			currentGlobals->menuState = GlobalMenuArrow1;

		case GlobalMenuArrow1:
			menuScreen->screen3[1][19] = 8;
			menuScreen->screen3[2][19] = ' ';
     d7c:	f885 3274 	strb.w	r3, [r5, #628]	; 0x274
			menuScreen->screen3[3][19] = ' ';
     d80:	f885 3289 	strb.w	r3, [r5, #649]	; 0x289

		case TrackMenuArrow1:
			menuScreen->screen2[1][19] = 8;
			menuScreen->screen2[2][19] = ' ';
			menuScreen->screen2[3][19] = ' ';
			outputS(menuScreen->screen2[1], 1, currentGlobals);
     d84:	f000 fdb2 	bl	18ec <outputS(char volatile*, int, Globals volatile*)>
			outputS(menuScreen->screen2[2], 2, currentGlobals);
     d88:	4622      	mov	r2, r4
     d8a:	4640      	mov	r0, r8
     d8c:	2102      	movs	r1, #2
     d8e:	f000 fdad 	bl	18ec <outputS(char volatile*, int, Globals volatile*)>
			outputS(menuScreen->screen2[3], 3, currentGlobals);
     d92:	4622      	mov	r2, r4
     d94:	4638      	mov	r0, r7
     d96:	2103      	movs	r1, #3
     d98:	f000 fda8 	bl	18ec <outputS(char volatile*, int, Globals volatile*)>
			break;
     d9c:	e63b      	b.n	a16 <updateScreen(Screen volatile*, Pattern volatile*, Globals volatile*)+0xfa>
			outputS(menuScreen->screen2[4], 2, currentGlobals);
			outputS(menuScreen->screen2[5], 3, currentGlobals);
			break;
			
		case TrackMenuArrow5Select: 
			numPrinter(menuScreen->screen2[5], 13, 5, totalSustainTime);
     d9e:	f205 17e3 	addw	r7, r5, #483	; 0x1e3
     da2:	ea41 230e 	orr.w	r3, r1, lr, lsl #8
     da6:	2205      	movs	r2, #5
     da8:	210d      	movs	r1, #13
     daa:	4638      	mov	r0, r7
     dac:	f000 fdca 	bl	1944 <numPrinter(char volatile*, unsigned char, unsigned char, unsigned short)>
			menuScreen->screen2[5][12] = menuScreen->screen2[5][13];
     db0:	f895 31f0 	ldrb.w	r3, [r5, #496]	; 0x1f0
			menuScreen->screen2[5][13] = menuScreen->screen2[5][14];
			menuScreen->screen2[5][14] = '.';
     db4:	f04f 0e2e 	mov.w	lr, #46	; 0x2e
			outputS(menuScreen->screen2[5], 3, currentGlobals);
     db8:	4638      	mov	r0, r7
			outputS(menuScreen->screen2[5], 3, currentGlobals);
			break;
			
		case TrackMenuArrow5Select: 
			numPrinter(menuScreen->screen2[5], 13, 5, totalSustainTime);
			menuScreen->screen2[5][12] = menuScreen->screen2[5][13];
     dba:	b2db      	uxtb	r3, r3
			menuScreen->screen2[5][13] = menuScreen->screen2[5][14];
			menuScreen->screen2[5][14] = '.';
			outputS(menuScreen->screen2[5], 3, currentGlobals);
     dbc:	4622      	mov	r2, r4
     dbe:	2103      	movs	r1, #3
			outputS(menuScreen->screen2[5], 3, currentGlobals);
			break;
			
		case TrackMenuArrow5Select: 
			numPrinter(menuScreen->screen2[5], 13, 5, totalSustainTime);
			menuScreen->screen2[5][12] = menuScreen->screen2[5][13];
     dc0:	f885 31ef 	strb.w	r3, [r5, #495]	; 0x1ef
			menuScreen->screen2[5][13] = menuScreen->screen2[5][14];
     dc4:	f895 31f1 	ldrb.w	r3, [r5, #497]	; 0x1f1
     dc8:	b2db      	uxtb	r3, r3
     dca:	f885 31f0 	strb.w	r3, [r5, #496]	; 0x1f0
			menuScreen->screen2[5][14] = '.';
     dce:	f885 e1f1 	strb.w	lr, [r5, #497]	; 0x1f1
			outputS(menuScreen->screen2[5], 3, currentGlobals);
     dd2:	f000 fd8b 	bl	18ec <outputS(char volatile*, int, Globals volatile*)>
			break;
     dd6:	e61e      	b.n	a16 <updateScreen(Screen volatile*, Pattern volatile*, Globals volatile*)+0xfa>
			outputS(menuScreen->screen2[3], 2, currentGlobals);
			outputS(menuScreen->screen2[4], 3, currentGlobals);
			break;

		case TrackMenuArrow4Select:
			switch (currentPattern->envelopeType[currentGlobals->currentTrack])
     dd8:	7aa3      	ldrb	r3, [r4, #10]
     dda:	4433      	add	r3, r6
     ddc:	f893 30eb 	ldrb.w	r3, [r3, #235]	; 0xeb
     de0:	2b03      	cmp	r3, #3
     de2:	f200 81bd 	bhi.w	1160 <updateScreen(Screen volatile*, Pattern volatile*, Globals volatile*)+0x844>
     de6:	e8df f013 	tbh	[pc, r3, lsl #1]
     dea:	01c4      	.short	0x01c4
     dec:	01b101c2 	.word	0x01b101c2
     df0:	01d1      	.short	0x01d1
			outputS(menuScreen->screen2[2], 2, currentGlobals);
			outputS(menuScreen->screen2[3], 3, currentGlobals);
			break;

		case TrackMenuArrow3Select:
			numPrinter(menuScreen->screen2[3], 10, 2, (currentPattern->trackOutputRoute[currentGlobals->currentTrack]) + 1);
     df2:	7aa3      	ldrb	r3, [r4, #10]
     df4:	f205 17b9 	addw	r7, r5, #441	; 0x1b9
     df8:	2202      	movs	r2, #2
     dfa:	210a      	movs	r1, #10
     dfc:	4433      	add	r3, r6
     dfe:	4638      	mov	r0, r7
     e00:	7e1b      	ldrb	r3, [r3, #24]
     e02:	3301      	adds	r3, #1
     e04:	f000 fd9e 	bl	1944 <numPrinter(char volatile*, unsigned char, unsigned char, unsigned short)>
			outputS(menuScreen->screen2[3], 3, currentGlobals);
     e08:	4622      	mov	r2, r4
     e0a:	4638      	mov	r0, r7
     e0c:	2103      	movs	r1, #3
     e0e:	f000 fd6d 	bl	18ec <outputS(char volatile*, int, Globals volatile*)>
			break;
     e12:	e600      	b.n	a16 <updateScreen(Screen volatile*, Pattern volatile*, Globals volatile*)+0xfa>
			outputS(menuScreen->screen2[2], 2, currentGlobals);
			outputS(menuScreen->screen2[3], 3, currentGlobals);
			break;
			
		case TrackMenuArrow1Select:
			numPrinter(menuScreen->screen2[1], 10, 4, (trackSample));
     e14:	f205 108f 	addw	r0, r5, #399	; 0x18f
     e18:	ea43 2307 	orr.w	r3, r3, r7, lsl #8
     e1c:	2204      	movs	r2, #4
     e1e:	210a      	movs	r1, #10
     e20:	4607      	mov	r7, r0
     e22:	f000 fd8f 	bl	1944 <numPrinter(char volatile*, unsigned char, unsigned char, unsigned short)>
			outputS(menuScreen->screen2[1], 1, currentGlobals);
     e26:	4622      	mov	r2, r4
     e28:	4638      	mov	r0, r7
     e2a:	2101      	movs	r1, #1
     e2c:	f000 fd5e 	bl	18ec <outputS(char volatile*, int, Globals volatile*)>
			break;
     e30:	e5f1      	b.n	a16 <updateScreen(Screen volatile*, Pattern volatile*, Globals volatile*)+0xfa>
			}
			outputS(menuScreen->screen2[4], 3, currentGlobals);
			break;

		case TrackMenuArrow5:
			menuScreen->screen2[3][19] = ' ';
     e32:	2320      	movs	r3, #32
			menuScreen->screen2[4][19] = ' ';
			menuScreen->screen2[5][19] = 8;
     e34:	2708      	movs	r7, #8
			outputS(menuScreen->screen2[3], 1, currentGlobals);
     e36:	4622      	mov	r2, r4
     e38:	f205 10b9 	addw	r0, r5, #441	; 0x1b9
			}
			outputS(menuScreen->screen2[4], 3, currentGlobals);
			break;

		case TrackMenuArrow5:
			menuScreen->screen2[3][19] = ' ';
     e3c:	f885 31cc 	strb.w	r3, [r5, #460]	; 0x1cc
			menuScreen->screen2[4][19] = ' ';
			menuScreen->screen2[5][19] = 8;
			outputS(menuScreen->screen2[3], 1, currentGlobals);
     e40:	2101      	movs	r1, #1
			outputS(menuScreen->screen2[4], 3, currentGlobals);
			break;

		case TrackMenuArrow5:
			menuScreen->screen2[3][19] = ' ';
			menuScreen->screen2[4][19] = ' ';
     e42:	f885 31e1 	strb.w	r3, [r5, #481]	; 0x1e1
			menuScreen->screen2[5][19] = 8;
     e46:	f885 71f6 	strb.w	r7, [r5, #502]	; 0x1f6
			outputS(menuScreen->screen2[3], 1, currentGlobals);
     e4a:	f000 fd4f 	bl	18ec <outputS(char volatile*, int, Globals volatile*)>
			outputS(menuScreen->screen2[4], 2, currentGlobals);
     e4e:	4622      	mov	r2, r4
     e50:	f505 70e7 	add.w	r0, r5, #462	; 0x1ce
     e54:	2102      	movs	r1, #2
     e56:	f000 fd49 	bl	18ec <outputS(char volatile*, int, Globals volatile*)>
			outputS(menuScreen->screen2[5], 3, currentGlobals);
     e5a:	4622      	mov	r2, r4
     e5c:	2103      	movs	r1, #3
     e5e:	f205 10e3 	addw	r0, r5, #483	; 0x1e3
     e62:	f000 fd43 	bl	18ec <outputS(char volatile*, int, Globals volatile*)>
			break;
     e66:	e5d6      	b.n	a16 <updateScreen(Screen volatile*, Pattern volatile*, Globals volatile*)+0xfa>
			numPrinter(menuScreen->screen2[3], 10, 2, (currentPattern->trackOutputRoute[currentGlobals->currentTrack]) + 1);
			outputS(menuScreen->screen2[3], 3, currentGlobals);
			break;

		case TrackMenuArrow4:
			menuScreen->screen2[2][19] = ' ';
     e68:	2320      	movs	r3, #32
			menuScreen->screen2[3][19] = ' ';
			menuScreen->screen2[4][19] = 8;
     e6a:	2708      	movs	r7, #8
			outputS(menuScreen->screen2[2], 1, currentGlobals);
     e6c:	4622      	mov	r2, r4
     e6e:	f505 70d2 	add.w	r0, r5, #420	; 0x1a4
			numPrinter(menuScreen->screen2[3], 10, 2, (currentPattern->trackOutputRoute[currentGlobals->currentTrack]) + 1);
			outputS(menuScreen->screen2[3], 3, currentGlobals);
			break;

		case TrackMenuArrow4:
			menuScreen->screen2[2][19] = ' ';
     e72:	f885 31b7 	strb.w	r3, [r5, #439]	; 0x1b7
			menuScreen->screen2[3][19] = ' ';
			menuScreen->screen2[4][19] = 8;
			outputS(menuScreen->screen2[2], 1, currentGlobals);
     e76:	2101      	movs	r1, #1
			outputS(menuScreen->screen2[3], 3, currentGlobals);
			break;

		case TrackMenuArrow4:
			menuScreen->screen2[2][19] = ' ';
			menuScreen->screen2[3][19] = ' ';
     e78:	f885 31cc 	strb.w	r3, [r5, #460]	; 0x1cc
			menuScreen->screen2[4][19] = 8;
     e7c:	f885 71e1 	strb.w	r7, [r5, #481]	; 0x1e1
			outputS(menuScreen->screen2[2], 1, currentGlobals);
     e80:	f000 fd34 	bl	18ec <outputS(char volatile*, int, Globals volatile*)>
			outputS(menuScreen->screen2[3], 2, currentGlobals);
     e84:	4622      	mov	r2, r4
     e86:	f205 10b9 	addw	r0, r5, #441	; 0x1b9
     e8a:	2102      	movs	r1, #2
     e8c:	f000 fd2e 	bl	18ec <outputS(char volatile*, int, Globals volatile*)>
			outputS(menuScreen->screen2[4], 3, currentGlobals);
     e90:	4622      	mov	r2, r4
     e92:	2103      	movs	r1, #3
     e94:	f505 70e7 	add.w	r0, r5, #462	; 0x1ce
     e98:	f000 fd28 	bl	18ec <outputS(char volatile*, int, Globals volatile*)>
			break;
     e9c:	e5bb      	b.n	a16 <updateScreen(Screen volatile*, Pattern volatile*, Globals volatile*)+0xfa>
			outputS(menuScreen->screen3[2], 2, currentGlobals);
			outputS(menuScreen->screen3[3], 3, currentGlobals);
			break;

		case GlobalMenuArrow1Select:
			numPrinter(menuScreen->screen3[1], 14, 2, (currentGlobals->midiChannel) + 1);
     e9e:	f505 7713 	add.w	r7, r5, #588	; 0x24c
     ea2:	7c63      	ldrb	r3, [r4, #17]
     ea4:	2202      	movs	r2, #2
     ea6:	210e      	movs	r1, #14
     ea8:	4638      	mov	r0, r7
     eaa:	3301      	adds	r3, #1
     eac:	e7b9      	b.n	e22 <updateScreen(Screen volatile*, Pattern volatile*, Globals volatile*)+0x506>
			midiNotePrinter(menuScreen->screen3[2], 14, currentGlobals->midiTrackNote[currentGlobals->currentTrack]);
			outputS(menuScreen->screen3[2], 2, currentGlobals);
			break;

		case GlobalMenuArrow3:
			menuScreen->screen3[1][19] = ' ';
     eae:	2320      	movs	r3, #32
			menuScreen->screen3[2][19] = ' ';
			menuScreen->screen3[3][19] = 8;
     eb0:	2708      	movs	r7, #8
			outputS(menuScreen->screen3[1], 1, currentGlobals);
     eb2:	4622      	mov	r2, r4
     eb4:	2101      	movs	r1, #1
     eb6:	f505 7013 	add.w	r0, r5, #588	; 0x24c
			midiNotePrinter(menuScreen->screen3[2], 14, currentGlobals->midiTrackNote[currentGlobals->currentTrack]);
			outputS(menuScreen->screen3[2], 2, currentGlobals);
			break;

		case GlobalMenuArrow3:
			menuScreen->screen3[1][19] = ' ';
     eba:	f885 325f 	strb.w	r3, [r5, #607]	; 0x25f
			menuScreen->screen3[2][19] = ' ';
     ebe:	f885 3274 	strb.w	r3, [r5, #628]	; 0x274
			menuScreen->screen3[3][19] = 8;
     ec2:	f885 7289 	strb.w	r7, [r5, #649]	; 0x289
			outputS(menuScreen->screen3[1], 1, currentGlobals);
     ec6:	f000 fd11 	bl	18ec <outputS(char volatile*, int, Globals volatile*)>
			outputS(menuScreen->screen3[2], 2, currentGlobals);
     eca:	4622      	mov	r2, r4
     ecc:	f205 2061 	addw	r0, r5, #609	; 0x261
     ed0:	2102      	movs	r1, #2
     ed2:	f000 fd0b 	bl	18ec <outputS(char volatile*, int, Globals volatile*)>
			outputS(menuScreen->screen3[3], 3, currentGlobals);
     ed6:	4622      	mov	r2, r4
     ed8:	2103      	movs	r1, #3
     eda:	f205 2076 	addw	r0, r5, #630	; 0x276
     ede:	f000 fd05 	bl	18ec <outputS(char volatile*, int, Globals volatile*)>
			break;
     ee2:	e598      	b.n	a16 <updateScreen(Screen volatile*, Pattern volatile*, Globals volatile*)+0xfa>
			numPrinter(menuScreen->screen3[1], 14, 2, (currentGlobals->midiChannel) + 1);
			outputS(menuScreen->screen3[1], 1, currentGlobals);
			break;

		case GlobalMenuArrow2:
			menuScreen->screen3[1][19] = ' ';
     ee4:	2320      	movs	r3, #32
			menuScreen->screen3[2][19] = 8;
     ee6:	2708      	movs	r7, #8
			menuScreen->screen3[3][19] = ' ';
			outputS(menuScreen->screen3[1], 1, currentGlobals);
     ee8:	4622      	mov	r2, r4
     eea:	2101      	movs	r1, #1
			numPrinter(menuScreen->screen3[1], 14, 2, (currentGlobals->midiChannel) + 1);
			outputS(menuScreen->screen3[1], 1, currentGlobals);
			break;

		case GlobalMenuArrow2:
			menuScreen->screen3[1][19] = ' ';
     eec:	f885 325f 	strb.w	r3, [r5, #607]	; 0x25f
			menuScreen->screen3[2][19] = 8;
			menuScreen->screen3[3][19] = ' ';
			outputS(menuScreen->screen3[1], 1, currentGlobals);
     ef0:	f505 7013 	add.w	r0, r5, #588	; 0x24c
			outputS(menuScreen->screen3[1], 1, currentGlobals);
			break;

		case GlobalMenuArrow2:
			menuScreen->screen3[1][19] = ' ';
			menuScreen->screen3[2][19] = 8;
     ef4:	f885 7274 	strb.w	r7, [r5, #628]	; 0x274
			menuScreen->screen3[3][19] = ' ';
     ef8:	f885 3289 	strb.w	r3, [r5, #649]	; 0x289
     efc:	e7e3      	b.n	ec6 <updateScreen(Screen volatile*, Pattern volatile*, Globals volatile*)+0x5aa>
     efe:	f505 7913 	add.w	r9, r5, #588	; 0x24c
     f02:	f205 2861 	addw	r8, r5, #609	; 0x261
     f06:	f205 2776 	addw	r7, r5, #630	; 0x276
     f0a:	e730      	b.n	d6e <updateScreen(Screen volatile*, Pattern volatile*, Globals volatile*)+0x452>
			outputS(menuScreen->screen1[1], 1, currentGlobals);
			break;


		case SequencerMenuArrow2:
			menuScreen->screen1[1][19] = ' ';
     f0c:	2320      	movs	r3, #32
			menuScreen->screen1[2][19] = 8;
     f0e:	2708      	movs	r7, #8
			menuScreen->screen1[3][19] = ' ';
			outputS(menuScreen->screen1[1], 1, currentGlobals);
     f10:	4622      	mov	r2, r4
     f12:	2101      	movs	r1, #1
     f14:	f105 00d2 	add.w	r0, r5, #210	; 0xd2
			outputS(menuScreen->screen1[1], 1, currentGlobals);
			break;


		case SequencerMenuArrow2:
			menuScreen->screen1[1][19] = ' ';
     f18:	f885 30e5 	strb.w	r3, [r5, #229]	; 0xe5
			menuScreen->screen1[2][19] = 8;
     f1c:	f885 70fa 	strb.w	r7, [r5, #250]	; 0xfa
			menuScreen->screen1[3][19] = ' ';
     f20:	f885 310f 	strb.w	r3, [r5, #271]	; 0x10f

		case SequencerMenuArrow3:
			menuScreen->screen1[1][19] = ' ';
			menuScreen->screen1[2][19] = ' ';
			menuScreen->screen1[3][19] = 8;
			outputS(menuScreen->screen1[1], 1, currentGlobals);
     f24:	f000 fce2 	bl	18ec <outputS(char volatile*, int, Globals volatile*)>
			outputS(menuScreen->screen1[2], 2, currentGlobals);
     f28:	4622      	mov	r2, r4
     f2a:	f105 00e7 	add.w	r0, r5, #231	; 0xe7
     f2e:	2102      	movs	r1, #2
     f30:	f000 fcdc 	bl	18ec <outputS(char volatile*, int, Globals volatile*)>
			outputS(menuScreen->screen1[3], 3, currentGlobals);
     f34:	4622      	mov	r2, r4
     f36:	2103      	movs	r1, #3
     f38:	f105 00fc 	add.w	r0, r5, #252	; 0xfc
     f3c:	f000 fcd6 	bl	18ec <outputS(char volatile*, int, Globals volatile*)>
			break;
     f40:	e569      	b.n	a16 <updateScreen(Screen volatile*, Pattern volatile*, Globals volatile*)+0xfa>
     f42:	f105 07fc 	add.w	r7, r5, #252	; 0xfc
     f46:	f105 08e7 	add.w	r8, r5, #231	; 0xe7
     f4a:	f105 09d2 	add.w	r9, r5, #210	; 0xd2
			outputS(menuScreen->screen1[3], 3, currentGlobals);
			currentGlobals->menuState = SequencerMenuArrow1;


		case SequencerMenuArrow1:
			menuScreen->screen1[1][19] = 8;
     f4e:	2108      	movs	r1, #8
			menuScreen->screen1[2][19] = ' ';
     f50:	2320      	movs	r3, #32
			menuScreen->screen1[3][19] = ' ';
			outputS(menuScreen->screen1[1], 1, currentGlobals);
     f52:	4648      	mov	r0, r9
     f54:	4622      	mov	r2, r4
			outputS(menuScreen->screen1[3], 3, currentGlobals);
			currentGlobals->menuState = SequencerMenuArrow1;


		case SequencerMenuArrow1:
			menuScreen->screen1[1][19] = 8;
     f56:	f885 10e5 	strb.w	r1, [r5, #229]	; 0xe5
			menuScreen->screen1[2][19] = ' ';
			menuScreen->screen1[3][19] = ' ';
			outputS(menuScreen->screen1[1], 1, currentGlobals);
     f5a:	2101      	movs	r1, #1
			currentGlobals->menuState = SequencerMenuArrow1;


		case SequencerMenuArrow1:
			menuScreen->screen1[1][19] = 8;
			menuScreen->screen1[2][19] = ' ';
     f5c:	f885 30fa 	strb.w	r3, [r5, #250]	; 0xfa
			menuScreen->screen1[3][19] = ' ';
     f60:	f885 310f 	strb.w	r3, [r5, #271]	; 0x10f
     f64:	e70e      	b.n	d84 <updateScreen(Screen volatile*, Pattern volatile*, Globals volatile*)+0x468>
			outputS(menuScreen->screen0[3], 3, currentGlobals);
			break;

		case SequencerMenuInit:
			outputS(menuScreen->screen1[0], 0, currentGlobals);
			outputS(menuScreen->screen1[1], 1, currentGlobals);
     f66:	f105 09d2 	add.w	r9, r5, #210	; 0xd2
			outputS(menuScreen->screen0[2], 2, currentGlobals);
			outputS(menuScreen->screen0[3], 3, currentGlobals);
			break;

		case SequencerMenuInit:
			outputS(menuScreen->screen1[0], 0, currentGlobals);
     f6a:	4622      	mov	r2, r4
     f6c:	2100      	movs	r1, #0
     f6e:	f105 00bd 	add.w	r0, r5, #189	; 0xbd
			outputS(menuScreen->screen1[1], 1, currentGlobals);
			outputS(menuScreen->screen1[2], 2, currentGlobals);
     f72:	f105 08e7 	add.w	r8, r5, #231	; 0xe7
			outputS(menuScreen->screen0[2], 2, currentGlobals);
			outputS(menuScreen->screen0[3], 3, currentGlobals);
			break;

		case SequencerMenuInit:
			outputS(menuScreen->screen1[0], 0, currentGlobals);
     f76:	f000 fcb9 	bl	18ec <outputS(char volatile*, int, Globals volatile*)>
			outputS(menuScreen->screen1[1], 1, currentGlobals);
			outputS(menuScreen->screen1[2], 2, currentGlobals);
			outputS(menuScreen->screen1[3], 3, currentGlobals);
     f7a:	f105 07fc 	add.w	r7, r5, #252	; 0xfc
			outputS(menuScreen->screen0[3], 3, currentGlobals);
			break;

		case SequencerMenuInit:
			outputS(menuScreen->screen1[0], 0, currentGlobals);
			outputS(menuScreen->screen1[1], 1, currentGlobals);
     f7e:	4648      	mov	r0, r9
     f80:	4622      	mov	r2, r4
     f82:	2101      	movs	r1, #1
     f84:	f000 fcb2 	bl	18ec <outputS(char volatile*, int, Globals volatile*)>
			outputS(menuScreen->screen1[2], 2, currentGlobals);
     f88:	4640      	mov	r0, r8
     f8a:	4622      	mov	r2, r4
     f8c:	2102      	movs	r1, #2
     f8e:	f000 fcad 	bl	18ec <outputS(char volatile*, int, Globals volatile*)>
			outputS(menuScreen->screen1[3], 3, currentGlobals);
     f92:	4638      	mov	r0, r7
     f94:	4622      	mov	r2, r4
     f96:	2103      	movs	r1, #3
     f98:	f000 fca8 	bl	18ec <outputS(char volatile*, int, Globals volatile*)>
			currentGlobals->menuState = SequencerMenuArrow1;
     f9c:	2311      	movs	r3, #17
     f9e:	72e3      	strb	r3, [r4, #11]
     fa0:	e7d5      	b.n	f4e <updateScreen(Screen volatile*, Pattern volatile*, Globals volatile*)+0x632>
}

//this method fills all the relevant screens once we load a new pattern. 
void reInitMenuOnLoad(volatile Screen* initTheScreen, volatile Pattern* currentPattern, volatile Globals* currentGlobals)
{
	numPrinter(initTheScreen->screen0[2], 5, 3, currentPattern->patternBPM);
     fa2:	f105 072a 	add.w	r7, r5, #42	; 0x2a
     fa6:	f8b6 30c8 	ldrh.w	r3, [r6, #200]	; 0xc8
     faa:	2203      	movs	r2, #3
     fac:	2105      	movs	r1, #5
     fae:	4638      	mov	r0, r7
     fb0:	b29b      	uxth	r3, r3
     fb2:	f000 fcc7 	bl	1944 <numPrinter(char volatile*, unsigned char, unsigned char, unsigned short)>
	numPrinter(initTheScreen->screen1[2], 7, 2, currentPattern->numSteps);
     fb6:	f896 30ca 	ldrb.w	r3, [r6, #202]	; 0xca
     fba:	f105 00e7 	add.w	r0, r5, #231	; 0xe7
     fbe:	2202      	movs	r2, #2
     fc0:	2107      	movs	r1, #7
	numPrinter(initTheScreen->screen1[1], 9, 3, (currentGlobals->currentPatternNumber) + 1);
	numPrinter(initTheScreen->screen0[1], 9, 3, (currentGlobals->currentPatternNumber) + 1);
     fc2:	f105 0815 	add.w	r8, r5, #21

//this method fills all the relevant screens once we load a new pattern. 
void reInitMenuOnLoad(volatile Screen* initTheScreen, volatile Pattern* currentPattern, volatile Globals* currentGlobals)
{
	numPrinter(initTheScreen->screen0[2], 5, 3, currentPattern->patternBPM);
	numPrinter(initTheScreen->screen1[2], 7, 2, currentPattern->numSteps);
     fc6:	f000 fcbd 	bl	1944 <numPrinter(char volatile*, unsigned char, unsigned char, unsigned short)>
	numPrinter(initTheScreen->screen1[1], 9, 3, (currentGlobals->currentPatternNumber) + 1);
     fca:	7a23      	ldrb	r3, [r4, #8]
     fcc:	f105 00d2 	add.w	r0, r5, #210	; 0xd2
     fd0:	2203      	movs	r2, #3
     fd2:	2109      	movs	r1, #9
     fd4:	3301      	adds	r3, #1
     fd6:	f000 fcb5 	bl	1944 <numPrinter(char volatile*, unsigned char, unsigned char, unsigned short)>
	numPrinter(initTheScreen->screen0[1], 9, 3, (currentGlobals->currentPatternNumber) + 1);
     fda:	7a23      	ldrb	r3, [r4, #8]
     fdc:	4640      	mov	r0, r8
     fde:	2203      	movs	r2, #3
     fe0:	3301      	adds	r3, #1
     fe2:	2109      	movs	r1, #9
     fe4:	f000 fcae 	bl	1944 <numPrinter(char volatile*, unsigned char, unsigned char, unsigned short)>

		switch (currentGlobals->menuState)
		{
		case PreformanceModeInit: //initial state
			reInitMenuOnLoad(menuScreen, currentPattern, currentGlobals);
			outputS(menuScreen->screen0[0], 0, currentGlobals);
     fe8:	4622      	mov	r2, r4
     fea:	4628      	mov	r0, r5
     fec:	2100      	movs	r1, #0
     fee:	f000 fc7d 	bl	18ec <outputS(char volatile*, int, Globals volatile*)>
			outputS(menuScreen->screen0[1], 1, currentGlobals);
     ff2:	4622      	mov	r2, r4
     ff4:	4640      	mov	r0, r8
     ff6:	2101      	movs	r1, #1
     ff8:	f000 fc78 	bl	18ec <outputS(char volatile*, int, Globals volatile*)>
			outputS(menuScreen->screen0[2], 2, currentGlobals);
     ffc:	4622      	mov	r2, r4
     ffe:	4638      	mov	r0, r7
    1000:	2102      	movs	r1, #2
    1002:	f000 fc73 	bl	18ec <outputS(char volatile*, int, Globals volatile*)>
			outputS(menuScreen->screen0[3], 3, currentGlobals);
    1006:	4622      	mov	r2, r4
    1008:	2103      	movs	r1, #3
    100a:	f105 003f 	add.w	r0, r5, #63	; 0x3f
    100e:	f000 fc6d 	bl	18ec <outputS(char volatile*, int, Globals volatile*)>
			break;
    1012:	e500      	b.n	a16 <updateScreen(Screen volatile*, Pattern volatile*, Globals volatile*)+0xfa>

			outputS(menuScreen->screen2[2], 2, currentGlobals);
			break;

		case TrackMenuArrow3:
			menuScreen->screen2[1][19] = ' ';
    1014:	2320      	movs	r3, #32
			menuScreen->screen2[2][19] = ' ';
			menuScreen->screen2[3][19] = 8;
    1016:	2708      	movs	r7, #8
			outputS(menuScreen->screen2[1], 1, currentGlobals);
    1018:	4622      	mov	r2, r4
    101a:	2101      	movs	r1, #1
    101c:	f205 108f 	addw	r0, r5, #399	; 0x18f

			outputS(menuScreen->screen2[2], 2, currentGlobals);
			break;

		case TrackMenuArrow3:
			menuScreen->screen2[1][19] = ' ';
    1020:	f885 31a2 	strb.w	r3, [r5, #418]	; 0x1a2
			menuScreen->screen2[2][19] = ' ';
    1024:	f885 31b7 	strb.w	r3, [r5, #439]	; 0x1b7
			menuScreen->screen2[3][19] = 8;
    1028:	f885 71cc 	strb.w	r7, [r5, #460]	; 0x1cc
			outputS(menuScreen->screen2[1], 1, currentGlobals);
    102c:	f000 fc5e 	bl	18ec <outputS(char volatile*, int, Globals volatile*)>
			outputS(menuScreen->screen2[2], 2, currentGlobals);
    1030:	4622      	mov	r2, r4
    1032:	f505 70d2 	add.w	r0, r5, #420	; 0x1a4
    1036:	2102      	movs	r1, #2
    1038:	f000 fc58 	bl	18ec <outputS(char volatile*, int, Globals volatile*)>
			outputS(menuScreen->screen2[3], 3, currentGlobals);
    103c:	4622      	mov	r2, r4
    103e:	2103      	movs	r1, #3
    1040:	f205 10b9 	addw	r0, r5, #441	; 0x1b9
    1044:	f000 fc52 	bl	18ec <outputS(char volatile*, int, Globals volatile*)>
			break;
    1048:	e4e5      	b.n	a16 <updateScreen(Screen volatile*, Pattern volatile*, Globals volatile*)+0xfa>
			numPrinter(menuScreen->screen2[1], 10, 4, (trackSample));
			outputS(menuScreen->screen2[1], 1, currentGlobals);
			break;
			
		case TrackMenuArrow2:
			menuScreen->screen2[1][19] = ' ';
    104a:	2320      	movs	r3, #32
			menuScreen->screen2[2][19] = 8;
    104c:	2708      	movs	r7, #8
			menuScreen->screen2[3][19] = ' ';
			outputS(menuScreen->screen2[1], 1, currentGlobals);
    104e:	4622      	mov	r2, r4
    1050:	2101      	movs	r1, #1
			numPrinter(menuScreen->screen2[1], 10, 4, (trackSample));
			outputS(menuScreen->screen2[1], 1, currentGlobals);
			break;
			
		case TrackMenuArrow2:
			menuScreen->screen2[1][19] = ' ';
    1052:	f885 31a2 	strb.w	r3, [r5, #418]	; 0x1a2
			menuScreen->screen2[2][19] = 8;
			menuScreen->screen2[3][19] = ' ';
			outputS(menuScreen->screen2[1], 1, currentGlobals);
    1056:	f205 108f 	addw	r0, r5, #399	; 0x18f
			outputS(menuScreen->screen2[1], 1, currentGlobals);
			break;
			
		case TrackMenuArrow2:
			menuScreen->screen2[1][19] = ' ';
			menuScreen->screen2[2][19] = 8;
    105a:	f885 71b7 	strb.w	r7, [r5, #439]	; 0x1b7
			menuScreen->screen2[3][19] = ' ';
    105e:	f885 31cc 	strb.w	r3, [r5, #460]	; 0x1cc
    1062:	e7e3      	b.n	102c <updateScreen(Screen volatile*, Pattern volatile*, Globals volatile*)+0x710>
    1064:	f205 198f 	addw	r9, r5, #399	; 0x18f
    1068:	f505 78d2 	add.w	r8, r5, #420	; 0x1a4
    106c:	f205 17b9 	addw	r7, r5, #441	; 0x1b9
			outputS(menuScreen->screen2[2], 2, currentGlobals);
			outputS(menuScreen->screen2[3], 3, currentGlobals);
			currentGlobals->menuState = TrackMenuArrow1;

		case TrackMenuArrow1:
			menuScreen->screen2[1][19] = 8;
    1070:	2108      	movs	r1, #8
			menuScreen->screen2[2][19] = ' ';
    1072:	2320      	movs	r3, #32
			menuScreen->screen2[3][19] = ' ';
			outputS(menuScreen->screen2[1], 1, currentGlobals);
    1074:	4648      	mov	r0, r9
    1076:	4622      	mov	r2, r4
			outputS(menuScreen->screen2[2], 2, currentGlobals);
			outputS(menuScreen->screen2[3], 3, currentGlobals);
			currentGlobals->menuState = TrackMenuArrow1;

		case TrackMenuArrow1:
			menuScreen->screen2[1][19] = 8;
    1078:	f885 11a2 	strb.w	r1, [r5, #418]	; 0x1a2
			menuScreen->screen2[2][19] = ' ';
			menuScreen->screen2[3][19] = ' ';
			outputS(menuScreen->screen2[1], 1, currentGlobals);
    107c:	2101      	movs	r1, #1
			outputS(menuScreen->screen2[3], 3, currentGlobals);
			currentGlobals->menuState = TrackMenuArrow1;

		case TrackMenuArrow1:
			menuScreen->screen2[1][19] = 8;
			menuScreen->screen2[2][19] = ' ';
    107e:	f885 31b7 	strb.w	r3, [r5, #439]	; 0x1b7
			menuScreen->screen2[3][19] = ' ';
    1082:	f885 31cc 	strb.w	r3, [r5, #460]	; 0x1cc
    1086:	e67d      	b.n	d84 <updateScreen(Screen volatile*, Pattern volatile*, Globals volatile*)+0x468>
			break;


		case TrackMenuInit:
			outputS(menuScreen->screen2[0], 0, currentGlobals);
			outputS(menuScreen->screen2[1], 1, currentGlobals);
    1088:	f205 198f 	addw	r9, r5, #399	; 0x18f
			outputS(menuScreen->screen1[3], 3, currentGlobals);
			break;


		case TrackMenuInit:
			outputS(menuScreen->screen2[0], 0, currentGlobals);
    108c:	4622      	mov	r2, r4
    108e:	2100      	movs	r1, #0
    1090:	f505 70bd 	add.w	r0, r5, #378	; 0x17a
			outputS(menuScreen->screen2[1], 1, currentGlobals);
			outputS(menuScreen->screen2[2], 2, currentGlobals);
    1094:	f505 78d2 	add.w	r8, r5, #420	; 0x1a4
			outputS(menuScreen->screen1[3], 3, currentGlobals);
			break;


		case TrackMenuInit:
			outputS(menuScreen->screen2[0], 0, currentGlobals);
    1098:	f000 fc28 	bl	18ec <outputS(char volatile*, int, Globals volatile*)>
			outputS(menuScreen->screen2[1], 1, currentGlobals);
			outputS(menuScreen->screen2[2], 2, currentGlobals);
			outputS(menuScreen->screen2[3], 3, currentGlobals);
    109c:	f205 17b9 	addw	r7, r5, #441	; 0x1b9
			break;


		case TrackMenuInit:
			outputS(menuScreen->screen2[0], 0, currentGlobals);
			outputS(menuScreen->screen2[1], 1, currentGlobals);
    10a0:	4648      	mov	r0, r9
    10a2:	4622      	mov	r2, r4
    10a4:	2101      	movs	r1, #1
    10a6:	f000 fc21 	bl	18ec <outputS(char volatile*, int, Globals volatile*)>
			outputS(menuScreen->screen2[2], 2, currentGlobals);
    10aa:	4640      	mov	r0, r8
    10ac:	4622      	mov	r2, r4
    10ae:	2102      	movs	r1, #2
    10b0:	f000 fc1c 	bl	18ec <outputS(char volatile*, int, Globals volatile*)>
			outputS(menuScreen->screen2[3], 3, currentGlobals);
    10b4:	4638      	mov	r0, r7
    10b6:	4622      	mov	r2, r4
    10b8:	2103      	movs	r1, #3
    10ba:	f000 fc17 	bl	18ec <outputS(char volatile*, int, Globals volatile*)>
			currentGlobals->menuState = TrackMenuArrow1;
    10be:	2321      	movs	r3, #33	; 0x21
    10c0:	72e3      	strb	r3, [r4, #11]
    10c2:	e7d5      	b.n	1070 <updateScreen(Screen volatile*, Pattern volatile*, Globals volatile*)+0x754>
			outputS(menuScreen->screen1[2], 2, currentGlobals);
			outputS(menuScreen->screen1[3], 3, currentGlobals);
			break;

		case SequencerMenuArrow3Select:
			numPrinter(menuScreen->screen1[3], 14, 2, (currentGlobals->currentStep) + 1); //these are 0 indexed, so we need to add 1 to the display.
    10c4:	f105 07fc 	add.w	r7, r5, #252	; 0xfc
    10c8:	7a63      	ldrb	r3, [r4, #9]
    10ca:	2202      	movs	r2, #2
    10cc:	210e      	movs	r1, #14
    10ce:	4638      	mov	r0, r7
    10d0:	e697      	b.n	e02 <updateScreen(Screen volatile*, Pattern volatile*, Globals volatile*)+0x4e6>
			outputS(menuScreen->screen1[2], 2, currentGlobals);
			outputS(menuScreen->screen1[3], 3, currentGlobals);
			break;

		case SequencerMenuArrow2Select:
			numPrinter(menuScreen->screen1[2], 7, 2, currentPattern->numSteps);
    10d2:	f105 07e7 	add.w	r7, r5, #231	; 0xe7
    10d6:	f896 30ca 	ldrb.w	r3, [r6, #202]	; 0xca
    10da:	2202      	movs	r2, #2
    10dc:	2107      	movs	r1, #7
    10de:	4638      	mov	r0, r7
    10e0:	f000 fc30 	bl	1944 <numPrinter(char volatile*, unsigned char, unsigned char, unsigned short)>
			outputS(menuScreen->screen1[2], 2, currentGlobals);
    10e4:	4622      	mov	r2, r4
    10e6:	4638      	mov	r0, r7
    10e8:	2102      	movs	r1, #2
    10ea:	f000 fbff 	bl	18ec <outputS(char volatile*, int, Globals volatile*)>
			break;
    10ee:	e492      	b.n	a16 <updateScreen(Screen volatile*, Pattern volatile*, Globals volatile*)+0xfa>
}

//this method fills all the relevant screens once we load a new pattern. 
void reInitMenuOnLoad(volatile Screen* initTheScreen, volatile Pattern* currentPattern, volatile Globals* currentGlobals)
{
	numPrinter(initTheScreen->screen0[2], 5, 3, currentPattern->patternBPM);
    10f0:	f8b6 30c8 	ldrh.w	r3, [r6, #200]	; 0xc8
    10f4:	2203      	movs	r2, #3
    10f6:	2105      	movs	r1, #5
    10f8:	f105 002a 	add.w	r0, r5, #42	; 0x2a
    10fc:	b29b      	uxth	r3, r3
	numPrinter(initTheScreen->screen1[2], 7, 2, currentPattern->numSteps);
	numPrinter(initTheScreen->screen1[1], 9, 3, (currentGlobals->currentPatternNumber) + 1);
    10fe:	f105 07d2 	add.w	r7, r5, #210	; 0xd2
}

//this method fills all the relevant screens once we load a new pattern. 
void reInitMenuOnLoad(volatile Screen* initTheScreen, volatile Pattern* currentPattern, volatile Globals* currentGlobals)
{
	numPrinter(initTheScreen->screen0[2], 5, 3, currentPattern->patternBPM);
    1102:	f000 fc1f 	bl	1944 <numPrinter(char volatile*, unsigned char, unsigned char, unsigned short)>
	numPrinter(initTheScreen->screen1[2], 7, 2, currentPattern->numSteps);
    1106:	f896 30ca 	ldrb.w	r3, [r6, #202]	; 0xca
    110a:	2202      	movs	r2, #2
    110c:	2107      	movs	r1, #7
    110e:	f105 00e7 	add.w	r0, r5, #231	; 0xe7
    1112:	f000 fc17 	bl	1944 <numPrinter(char volatile*, unsigned char, unsigned char, unsigned short)>
	numPrinter(initTheScreen->screen1[1], 9, 3, (currentGlobals->currentPatternNumber) + 1);
    1116:	7a23      	ldrb	r3, [r4, #8]
    1118:	4638      	mov	r0, r7
    111a:	2203      	movs	r2, #3
    111c:	3301      	adds	r3, #1
    111e:	2109      	movs	r1, #9
    1120:	f000 fc10 	bl	1944 <numPrinter(char volatile*, unsigned char, unsigned char, unsigned short)>
	numPrinter(initTheScreen->screen0[1], 9, 3, (currentGlobals->currentPatternNumber) + 1);
    1124:	7a23      	ldrb	r3, [r4, #8]
    1126:	2203      	movs	r2, #3
    1128:	2109      	movs	r1, #9
    112a:	3301      	adds	r3, #1
    112c:	f105 0015 	add.w	r0, r5, #21
    1130:	e677      	b.n	e22 <updateScreen(Screen volatile*, Pattern volatile*, Globals volatile*)+0x506>
			numPrinter(menuScreen->screen1[2], 7, 2, currentPattern->numSteps);
			outputS(menuScreen->screen1[2], 2, currentGlobals);
			break;

		case SequencerMenuArrow3:
			menuScreen->screen1[1][19] = ' ';
    1132:	2320      	movs	r3, #32
			menuScreen->screen1[2][19] = ' ';
			menuScreen->screen1[3][19] = 8;
    1134:	2708      	movs	r7, #8
			outputS(menuScreen->screen1[1], 1, currentGlobals);
    1136:	4622      	mov	r2, r4
    1138:	2101      	movs	r1, #1
			numPrinter(menuScreen->screen1[2], 7, 2, currentPattern->numSteps);
			outputS(menuScreen->screen1[2], 2, currentGlobals);
			break;

		case SequencerMenuArrow3:
			menuScreen->screen1[1][19] = ' ';
    113a:	f885 30e5 	strb.w	r3, [r5, #229]	; 0xe5
			menuScreen->screen1[2][19] = ' ';
			menuScreen->screen1[3][19] = 8;
			outputS(menuScreen->screen1[1], 1, currentGlobals);
    113e:	f105 00d2 	add.w	r0, r5, #210	; 0xd2
			outputS(menuScreen->screen1[2], 2, currentGlobals);
			break;

		case SequencerMenuArrow3:
			menuScreen->screen1[1][19] = ' ';
			menuScreen->screen1[2][19] = ' ';
    1142:	f885 30fa 	strb.w	r3, [r5, #250]	; 0xfa
			menuScreen->screen1[3][19] = 8;
    1146:	f885 710f 	strb.w	r7, [r5, #271]	; 0x10f
    114a:	e6eb      	b.n	f24 <updateScreen(Screen volatile*, Pattern volatile*, Globals volatile*)+0x608>
				menuScreen->screen2[4][16] = ' ';
				menuScreen->screen2[4][17] = ' ';
				break;

			case 2: //only attack
				menuScreen->screen2[4][14] = 'A';
    114c:	2241      	movs	r2, #65	; 0x41
				menuScreen->screen2[4][15] = ' ';
    114e:	2320      	movs	r3, #32
				menuScreen->screen2[4][16] = ' ';
				menuScreen->screen2[4][17] = ' ';
				break;

			case 2: //only attack
				menuScreen->screen2[4][14] = 'A';
    1150:	f885 21dc 	strb.w	r2, [r5, #476]	; 0x1dc
				menuScreen->screen2[4][15] = ' ';
    1154:	f885 31dd 	strb.w	r3, [r5, #477]	; 0x1dd
				menuScreen->screen2[4][16] = ' ';
    1158:	f885 31de 	strb.w	r3, [r5, #478]	; 0x1de
				menuScreen->screen2[4][17] = ' ';
    115c:	f885 31df 	strb.w	r3, [r5, #479]	; 0x1df
				menuScreen->screen2[4][15] = 'o';
				menuScreen->screen2[4][16] = 'n';
				menuScreen->screen2[4][17] = 'e';
				break;
			}
			outputS(menuScreen->screen2[4], 3, currentGlobals);
    1160:	4622      	mov	r2, r4
    1162:	2103      	movs	r1, #3
    1164:	f505 70e7 	add.w	r0, r5, #462	; 0x1ce
    1168:	f000 fbc0 	bl	18ec <outputS(char volatile*, int, Globals volatile*)>
			break;
    116c:	e453      	b.n	a16 <updateScreen(Screen volatile*, Pattern volatile*, Globals volatile*)+0xfa>
				menuScreen->screen2[4][16] = 'R';
				menuScreen->screen2[4][17] = ' ';
				break;

			case 1: //only release
				menuScreen->screen2[4][14] = 'R';
    116e:	2252      	movs	r2, #82	; 0x52
    1170:	e7ed      	b.n	114e <updateScreen(Screen volatile*, Pattern volatile*, Globals volatile*)+0x832>

		case TrackMenuArrow4Select:
			switch (currentPattern->envelopeType[currentGlobals->currentTrack])
			{
			case 0: //A/R
				menuScreen->screen2[4][14] = 'A';
    1172:	2041      	movs	r0, #65	; 0x41
				menuScreen->screen2[4][15] = '-';
    1174:	212d      	movs	r1, #45	; 0x2d
				menuScreen->screen2[4][16] = 'R';
    1176:	2252      	movs	r2, #82	; 0x52
				menuScreen->screen2[4][17] = ' ';
    1178:	2320      	movs	r3, #32

		case TrackMenuArrow4Select:
			switch (currentPattern->envelopeType[currentGlobals->currentTrack])
			{
			case 0: //A/R
				menuScreen->screen2[4][14] = 'A';
    117a:	f885 01dc 	strb.w	r0, [r5, #476]	; 0x1dc
				menuScreen->screen2[4][15] = '-';
    117e:	f885 11dd 	strb.w	r1, [r5, #477]	; 0x1dd
				menuScreen->screen2[4][16] = 'R';
    1182:	f885 21de 	strb.w	r2, [r5, #478]	; 0x1de
				menuScreen->screen2[4][17] = ' ';
    1186:	f885 31df 	strb.w	r3, [r5, #479]	; 0x1df
				break;
    118a:	e7e9      	b.n	1160 <updateScreen(Screen volatile*, Pattern volatile*, Globals volatile*)+0x844>
				menuScreen->screen2[4][16] = ' ';
				menuScreen->screen2[4][17] = ' ';
				break;

			case 3: //No envelope
				menuScreen->screen2[4][14] = 'N';
    118c:	204e      	movs	r0, #78	; 0x4e
				menuScreen->screen2[4][15] = 'o';
    118e:	216f      	movs	r1, #111	; 0x6f
				menuScreen->screen2[4][16] = 'n';
    1190:	226e      	movs	r2, #110	; 0x6e
				menuScreen->screen2[4][17] = 'e';
    1192:	2365      	movs	r3, #101	; 0x65
				menuScreen->screen2[4][16] = ' ';
				menuScreen->screen2[4][17] = ' ';
				break;

			case 3: //No envelope
				menuScreen->screen2[4][14] = 'N';
    1194:	f885 01dc 	strb.w	r0, [r5, #476]	; 0x1dc
				menuScreen->screen2[4][15] = 'o';
    1198:	f885 11dd 	strb.w	r1, [r5, #477]	; 0x1dd
				menuScreen->screen2[4][16] = 'n';
    119c:	f885 21de 	strb.w	r2, [r5, #478]	; 0x1de
				menuScreen->screen2[4][17] = 'e';
    11a0:	f885 31df 	strb.w	r3, [r5, #479]	; 0x1df
				break;
    11a4:	e7dc      	b.n	1160 <updateScreen(Screen volatile*, Pattern volatile*, Globals volatile*)+0x844>
			//this feels dumb having it in two places, but It should take care of both cases. Maybe this should be a function?
			switch (currentPattern->trackPlayMode[currentGlobals->currentTrack])
			{
			case 0:
				menuScreen->screen2[2][10] = 'S';
				menuScreen->screen2[2][11] = 'o';
    11a6:	236f      	movs	r3, #111	; 0x6f
			numPrinter(menuScreen->screen2[1], 10, 4, trackSample);
			//this feels dumb having it in two places, but It should take care of both cases. Maybe this should be a function?
			switch (currentPattern->trackPlayMode[currentGlobals->currentTrack])
			{
			case 0:
				menuScreen->screen2[2][10] = 'S';
    11a8:	2153      	movs	r1, #83	; 0x53
				menuScreen->screen2[2][11] = 'o';
				menuScreen->screen2[2][12] = 'l';
    11aa:	226c      	movs	r2, #108	; 0x6c
			numPrinter(menuScreen->screen2[1], 10, 4, trackSample);
			//this feels dumb having it in two places, but It should take care of both cases. Maybe this should be a function?
			switch (currentPattern->trackPlayMode[currentGlobals->currentTrack])
			{
			case 0:
				menuScreen->screen2[2][10] = 'S';
    11ac:	f885 11ae 	strb.w	r1, [r5, #430]	; 0x1ae
				menuScreen->screen2[2][11] = 'o';
    11b0:	f885 31af 	strb.w	r3, [r5, #431]	; 0x1af
				menuScreen->screen2[2][12] = 'l';
    11b4:	f885 21b0 	strb.w	r2, [r5, #432]	; 0x1b0
				menuScreen->screen2[2][13] = 'o';
    11b8:	f885 31b1 	strb.w	r3, [r5, #433]	; 0x1b1
				break;
    11bc:	e4a7      	b.n	b0e <updateScreen(Screen volatile*, Pattern volatile*, Globals volatile*)+0x1f2>
		switch ((currentGlobals->knobStatus) >> 4)
		{
		case 0: //output volume
			if ((currentPattern->outputLevelMSB[positionSelect]) == 0)
			{ //value is positive
				menuScreen->knobScreen[0][14] = ' ';
    11be:	2320      	movs	r3, #32
				numPrinter(menuScreen->knobScreen[0], 15, 2, currentPattern->outputLevelLSB[positionSelect]); //should be a value between 0 and 8
    11c0:	f505 793d 	add.w	r9, r5, #756	; 0x2f4
    11c4:	2202      	movs	r2, #2
    11c6:	210f      	movs	r1, #15
		switch ((currentGlobals->knobStatus) >> 4)
		{
		case 0: //output volume
			if ((currentPattern->outputLevelMSB[positionSelect]) == 0)
			{ //value is positive
				menuScreen->knobScreen[0][14] = ' ';
    11c8:	f885 3302 	strb.w	r3, [r5, #770]	; 0x302
				numPrinter(menuScreen->knobScreen[0], 15, 2, currentPattern->outputLevelLSB[positionSelect]); //should be a value between 0 and 8
    11cc:	4648      	mov	r0, r9
    11ce:	7a33      	ldrb	r3, [r6, #8]
    11d0:	f000 fbb8 	bl	1944 <numPrinter(char volatile*, unsigned char, unsigned char, unsigned short)>
    11d4:	e4e3      	b.n	b9e <updateScreen(Screen volatile*, Pattern volatile*, Globals volatile*)+0x282>
			//we need some serious button code in these two cases. 
			switch (currentPattern->trackPlayMode[currentGlobals->currentTrack])
			{
			case 0:
				menuScreen->screen2[2][10] = 'S';
				menuScreen->screen2[2][11] = 'o';
    11d6:	236f      	movs	r3, #111	; 0x6f
		case TrackMenuArrow2Select:
			//we need some serious button code in these two cases. 
			switch (currentPattern->trackPlayMode[currentGlobals->currentTrack])
			{
			case 0:
				menuScreen->screen2[2][10] = 'S';
    11d8:	2153      	movs	r1, #83	; 0x53
				menuScreen->screen2[2][11] = 'o';
				menuScreen->screen2[2][12] = 'l';
    11da:	226c      	movs	r2, #108	; 0x6c
		case TrackMenuArrow2Select:
			//we need some serious button code in these two cases. 
			switch (currentPattern->trackPlayMode[currentGlobals->currentTrack])
			{
			case 0:
				menuScreen->screen2[2][10] = 'S';
    11dc:	f885 11ae 	strb.w	r1, [r5, #430]	; 0x1ae
				menuScreen->screen2[2][11] = 'o';
    11e0:	f885 31af 	strb.w	r3, [r5, #431]	; 0x1af
				menuScreen->screen2[2][12] = 'l';
    11e4:	f885 21b0 	strb.w	r2, [r5, #432]	; 0x1b0
				menuScreen->screen2[2][13] = 'o';
    11e8:	f885 31b1 	strb.w	r3, [r5, #433]	; 0x1b1
				break;
    11ec:	e40d      	b.n	a0a <updateScreen(Screen volatile*, Pattern volatile*, Globals volatile*)+0xee>
    11ee:	bf00      	nop

000011f0 <enableCycle(Globals volatile*)>:
{
		//this interupt will be happenign every 5 to 10 microseconds. We'll keep the delay in for now, and if it negativley impacts performance, we can get rid of it. 
	//if(OLEDGlobals->OLEDBuffer[OLEDGlobals->oledReadIndex]!=0){ //Not sure why this line doesn't work, but it seems to make this interupt fail. 
	for (int i= 0; i<9;i++ ) 
		{
			digitalWriteFast(OLEDPinArray[i],(OLEDGlobals->OLEDBuffer[OLEDGlobals->oledReadIndex] &1)); //mask toParse with 1, so we just get the first bit. 
    11f0:	f890 22fa 	ldrb.w	r2, [r0, #762]	; 0x2fa
    11f4:	4bac      	ldr	r3, [pc, #688]	; (14a8 <enableCycle(Globals volatile*)+0x2b8>)
    11f6:	327c      	adds	r2, #124	; 0x7c
    11f8:	eb00 0242 	add.w	r2, r0, r2, lsl #1

uint8_t new_line[4] = { 0x80, 0xA0, 0xC0, 0xE0 };
uint8_t OLEDPinArray[9] = {OLEDData0,OLEDData1,OLEDData2,OLEDData3,OLEDData4,OLEDData5, OLEDData6, OLEDData7, OLEDDataCommand};

void enableCycle(volatile Globals *OLEDGlobals) //called on by interval timer.
{
    11fc:	b5f0      	push	{r4, r5, r6, r7, lr}
		//this interupt will be happenign every 5 to 10 microseconds. We'll keep the delay in for now, and if it negativley impacts performance, we can get rid of it. 
	//if(OLEDGlobals->OLEDBuffer[OLEDGlobals->oledReadIndex]!=0){ //Not sure why this line doesn't work, but it seems to make this interupt fail. 
	for (int i= 0; i<9;i++ ) 
		{
			digitalWriteFast(OLEDPinArray[i],(OLEDGlobals->OLEDBuffer[OLEDGlobals->oledReadIndex] &1)); //mask toParse with 1, so we just get the first bit. 
    11fe:	8852      	ldrh	r2, [r2, #2]
    1200:	7819      	ldrb	r1, [r3, #0]
				CORE_PIN54_PORTCLEAR = CORE_PIN54_BITMASK;
#endif
			}
		}
	} else {
		if(val) *portSetRegister(pin) = digitalPinToBitMask(pin);
    1202:	f012 0f01 	tst.w	r2, #1
    1206:	4aa9      	ldr	r2, [pc, #676]	; (14ac <enableCycle(Globals volatile*)+0x2bc>)
    1208:	ea4f 1101 	mov.w	r1, r1, lsl #4
    120c:	eb02 0401 	add.w	r4, r2, r1
    1210:	5851      	ldr	r1, [r2, r1]
    1212:	68e4      	ldr	r4, [r4, #12]
    1214:	f040 8130 	bne.w	1478 <enableCycle(Globals volatile*)+0x288>
		else *portClearRegister(pin) = digitalPinToBitMask(pin);
    1218:	f8c1 4088 	str.w	r4, [r1, #136]	; 0x88
			OLEDGlobals->OLEDBuffer[OLEDGlobals->oledReadIndex] = OLEDGlobals->OLEDBuffer[OLEDGlobals->oledReadIndex] >> 1; //shift toParse down one, so we can get the next bit to write.
    121c:	f890 12fa 	ldrb.w	r1, [r0, #762]	; 0x2fa
    1220:	f890 42fa 	ldrb.w	r4, [r0, #762]	; 0x2fa
    1224:	317c      	adds	r1, #124	; 0x7c
{
		//this interupt will be happenign every 5 to 10 microseconds. We'll keep the delay in for now, and if it negativley impacts performance, we can get rid of it. 
	//if(OLEDGlobals->OLEDBuffer[OLEDGlobals->oledReadIndex]!=0){ //Not sure why this line doesn't work, but it seems to make this interupt fail. 
	for (int i= 0; i<9;i++ ) 
		{
			digitalWriteFast(OLEDPinArray[i],(OLEDGlobals->OLEDBuffer[OLEDGlobals->oledReadIndex] &1)); //mask toParse with 1, so we just get the first bit. 
    1226:	785d      	ldrb	r5, [r3, #1]
			OLEDGlobals->OLEDBuffer[OLEDGlobals->oledReadIndex] = OLEDGlobals->OLEDBuffer[OLEDGlobals->oledReadIndex] >> 1; //shift toParse down one, so we can get the next bit to write.
    1228:	347c      	adds	r4, #124	; 0x7c
    122a:	eb00 0141 	add.w	r1, r0, r1, lsl #1
    122e:	eb00 0444 	add.w	r4, r0, r4, lsl #1
				CORE_PIN54_PORTCLEAR = CORE_PIN54_BITMASK;
#endif
			}
		}
	} else {
		if(val) *portSetRegister(pin) = digitalPinToBitMask(pin);
    1232:	012d      	lsls	r5, r5, #4
    1234:	8864      	ldrh	r4, [r4, #2]
    1236:	f3c4 044e 	ubfx	r4, r4, #1, #15
    123a:	804c      	strh	r4, [r1, #2]
    123c:	1954      	adds	r4, r2, r5
{
		//this interupt will be happenign every 5 to 10 microseconds. We'll keep the delay in for now, and if it negativley impacts performance, we can get rid of it. 
	//if(OLEDGlobals->OLEDBuffer[OLEDGlobals->oledReadIndex]!=0){ //Not sure why this line doesn't work, but it seems to make this interupt fail. 
	for (int i= 0; i<9;i++ ) 
		{
			digitalWriteFast(OLEDPinArray[i],(OLEDGlobals->OLEDBuffer[OLEDGlobals->oledReadIndex] &1)); //mask toParse with 1, so we just get the first bit. 
    123e:	f890 12fa 	ldrb.w	r1, [r0, #762]	; 0x2fa
    1242:	68e4      	ldr	r4, [r4, #12]
    1244:	317c      	adds	r1, #124	; 0x7c
    1246:	eb00 0141 	add.w	r1, r0, r1, lsl #1
    124a:	8849      	ldrh	r1, [r1, #2]
    124c:	f011 0f01 	tst.w	r1, #1
    1250:	5951      	ldr	r1, [r2, r5]
    1252:	f040 8114 	bne.w	147e <enableCycle(Globals volatile*)+0x28e>
		else *portClearRegister(pin) = digitalPinToBitMask(pin);
    1256:	f8c1 4088 	str.w	r4, [r1, #136]	; 0x88
			OLEDGlobals->OLEDBuffer[OLEDGlobals->oledReadIndex] = OLEDGlobals->OLEDBuffer[OLEDGlobals->oledReadIndex] >> 1; //shift toParse down one, so we can get the next bit to write.
    125a:	f890 12fa 	ldrb.w	r1, [r0, #762]	; 0x2fa
    125e:	f890 42fa 	ldrb.w	r4, [r0, #762]	; 0x2fa
    1262:	317c      	adds	r1, #124	; 0x7c
{
		//this interupt will be happenign every 5 to 10 microseconds. We'll keep the delay in for now, and if it negativley impacts performance, we can get rid of it. 
	//if(OLEDGlobals->OLEDBuffer[OLEDGlobals->oledReadIndex]!=0){ //Not sure why this line doesn't work, but it seems to make this interupt fail. 
	for (int i= 0; i<9;i++ ) 
		{
			digitalWriteFast(OLEDPinArray[i],(OLEDGlobals->OLEDBuffer[OLEDGlobals->oledReadIndex] &1)); //mask toParse with 1, so we just get the first bit. 
    1264:	789d      	ldrb	r5, [r3, #2]
			OLEDGlobals->OLEDBuffer[OLEDGlobals->oledReadIndex] = OLEDGlobals->OLEDBuffer[OLEDGlobals->oledReadIndex] >> 1; //shift toParse down one, so we can get the next bit to write.
    1266:	347c      	adds	r4, #124	; 0x7c
    1268:	eb00 0141 	add.w	r1, r0, r1, lsl #1
    126c:	eb00 0444 	add.w	r4, r0, r4, lsl #1
				CORE_PIN54_PORTCLEAR = CORE_PIN54_BITMASK;
#endif
			}
		}
	} else {
		if(val) *portSetRegister(pin) = digitalPinToBitMask(pin);
    1270:	012d      	lsls	r5, r5, #4
    1272:	8864      	ldrh	r4, [r4, #2]
    1274:	f3c4 044e 	ubfx	r4, r4, #1, #15
    1278:	804c      	strh	r4, [r1, #2]
    127a:	1954      	adds	r4, r2, r5
{
		//this interupt will be happenign every 5 to 10 microseconds. We'll keep the delay in for now, and if it negativley impacts performance, we can get rid of it. 
	//if(OLEDGlobals->OLEDBuffer[OLEDGlobals->oledReadIndex]!=0){ //Not sure why this line doesn't work, but it seems to make this interupt fail. 
	for (int i= 0; i<9;i++ ) 
		{
			digitalWriteFast(OLEDPinArray[i],(OLEDGlobals->OLEDBuffer[OLEDGlobals->oledReadIndex] &1)); //mask toParse with 1, so we just get the first bit. 
    127c:	f890 12fa 	ldrb.w	r1, [r0, #762]	; 0x2fa
    1280:	68e4      	ldr	r4, [r4, #12]
    1282:	317c      	adds	r1, #124	; 0x7c
    1284:	eb00 0141 	add.w	r1, r0, r1, lsl #1
    1288:	8849      	ldrh	r1, [r1, #2]
    128a:	f011 0f01 	tst.w	r1, #1
    128e:	5951      	ldr	r1, [r2, r5]
    1290:	f040 80f8 	bne.w	1484 <enableCycle(Globals volatile*)+0x294>
		else *portClearRegister(pin) = digitalPinToBitMask(pin);
    1294:	f8c1 4088 	str.w	r4, [r1, #136]	; 0x88
			OLEDGlobals->OLEDBuffer[OLEDGlobals->oledReadIndex] = OLEDGlobals->OLEDBuffer[OLEDGlobals->oledReadIndex] >> 1; //shift toParse down one, so we can get the next bit to write.
    1298:	f890 12fa 	ldrb.w	r1, [r0, #762]	; 0x2fa
    129c:	f890 42fa 	ldrb.w	r4, [r0, #762]	; 0x2fa
    12a0:	317c      	adds	r1, #124	; 0x7c
{
		//this interupt will be happenign every 5 to 10 microseconds. We'll keep the delay in for now, and if it negativley impacts performance, we can get rid of it. 
	//if(OLEDGlobals->OLEDBuffer[OLEDGlobals->oledReadIndex]!=0){ //Not sure why this line doesn't work, but it seems to make this interupt fail. 
	for (int i= 0; i<9;i++ ) 
		{
			digitalWriteFast(OLEDPinArray[i],(OLEDGlobals->OLEDBuffer[OLEDGlobals->oledReadIndex] &1)); //mask toParse with 1, so we just get the first bit. 
    12a2:	78dd      	ldrb	r5, [r3, #3]
			OLEDGlobals->OLEDBuffer[OLEDGlobals->oledReadIndex] = OLEDGlobals->OLEDBuffer[OLEDGlobals->oledReadIndex] >> 1; //shift toParse down one, so we can get the next bit to write.
    12a4:	347c      	adds	r4, #124	; 0x7c
    12a6:	eb00 0141 	add.w	r1, r0, r1, lsl #1
    12aa:	eb00 0444 	add.w	r4, r0, r4, lsl #1
				CORE_PIN54_PORTCLEAR = CORE_PIN54_BITMASK;
#endif
			}
		}
	} else {
		if(val) *portSetRegister(pin) = digitalPinToBitMask(pin);
    12ae:	012d      	lsls	r5, r5, #4
    12b0:	8864      	ldrh	r4, [r4, #2]
    12b2:	f3c4 044e 	ubfx	r4, r4, #1, #15
    12b6:	804c      	strh	r4, [r1, #2]
    12b8:	1954      	adds	r4, r2, r5
{
		//this interupt will be happenign every 5 to 10 microseconds. We'll keep the delay in for now, and if it negativley impacts performance, we can get rid of it. 
	//if(OLEDGlobals->OLEDBuffer[OLEDGlobals->oledReadIndex]!=0){ //Not sure why this line doesn't work, but it seems to make this interupt fail. 
	for (int i= 0; i<9;i++ ) 
		{
			digitalWriteFast(OLEDPinArray[i],(OLEDGlobals->OLEDBuffer[OLEDGlobals->oledReadIndex] &1)); //mask toParse with 1, so we just get the first bit. 
    12ba:	f890 12fa 	ldrb.w	r1, [r0, #762]	; 0x2fa
    12be:	68e4      	ldr	r4, [r4, #12]
    12c0:	317c      	adds	r1, #124	; 0x7c
    12c2:	eb00 0141 	add.w	r1, r0, r1, lsl #1
    12c6:	8849      	ldrh	r1, [r1, #2]
    12c8:	f011 0f01 	tst.w	r1, #1
    12cc:	5951      	ldr	r1, [r2, r5]
    12ce:	f040 80dc 	bne.w	148a <enableCycle(Globals volatile*)+0x29a>
		else *portClearRegister(pin) = digitalPinToBitMask(pin);
    12d2:	f8c1 4088 	str.w	r4, [r1, #136]	; 0x88
			OLEDGlobals->OLEDBuffer[OLEDGlobals->oledReadIndex] = OLEDGlobals->OLEDBuffer[OLEDGlobals->oledReadIndex] >> 1; //shift toParse down one, so we can get the next bit to write.
    12d6:	f890 12fa 	ldrb.w	r1, [r0, #762]	; 0x2fa
    12da:	f890 42fa 	ldrb.w	r4, [r0, #762]	; 0x2fa
    12de:	317c      	adds	r1, #124	; 0x7c
{
		//this interupt will be happenign every 5 to 10 microseconds. We'll keep the delay in for now, and if it negativley impacts performance, we can get rid of it. 
	//if(OLEDGlobals->OLEDBuffer[OLEDGlobals->oledReadIndex]!=0){ //Not sure why this line doesn't work, but it seems to make this interupt fail. 
	for (int i= 0; i<9;i++ ) 
		{
			digitalWriteFast(OLEDPinArray[i],(OLEDGlobals->OLEDBuffer[OLEDGlobals->oledReadIndex] &1)); //mask toParse with 1, so we just get the first bit. 
    12e0:	791d      	ldrb	r5, [r3, #4]
			OLEDGlobals->OLEDBuffer[OLEDGlobals->oledReadIndex] = OLEDGlobals->OLEDBuffer[OLEDGlobals->oledReadIndex] >> 1; //shift toParse down one, so we can get the next bit to write.
    12e2:	347c      	adds	r4, #124	; 0x7c
    12e4:	eb00 0141 	add.w	r1, r0, r1, lsl #1
    12e8:	eb00 0444 	add.w	r4, r0, r4, lsl #1
				CORE_PIN54_PORTCLEAR = CORE_PIN54_BITMASK;
#endif
			}
		}
	} else {
		if(val) *portSetRegister(pin) = digitalPinToBitMask(pin);
    12ec:	012d      	lsls	r5, r5, #4
    12ee:	8864      	ldrh	r4, [r4, #2]
    12f0:	f3c4 044e 	ubfx	r4, r4, #1, #15
    12f4:	804c      	strh	r4, [r1, #2]
    12f6:	1954      	adds	r4, r2, r5
{
		//this interupt will be happenign every 5 to 10 microseconds. We'll keep the delay in for now, and if it negativley impacts performance, we can get rid of it. 
	//if(OLEDGlobals->OLEDBuffer[OLEDGlobals->oledReadIndex]!=0){ //Not sure why this line doesn't work, but it seems to make this interupt fail. 
	for (int i= 0; i<9;i++ ) 
		{
			digitalWriteFast(OLEDPinArray[i],(OLEDGlobals->OLEDBuffer[OLEDGlobals->oledReadIndex] &1)); //mask toParse with 1, so we just get the first bit. 
    12f8:	f890 12fa 	ldrb.w	r1, [r0, #762]	; 0x2fa
    12fc:	68e4      	ldr	r4, [r4, #12]
    12fe:	317c      	adds	r1, #124	; 0x7c
    1300:	eb00 0141 	add.w	r1, r0, r1, lsl #1
    1304:	8849      	ldrh	r1, [r1, #2]
    1306:	f011 0f01 	tst.w	r1, #1
    130a:	5951      	ldr	r1, [r2, r5]
    130c:	f040 80c0 	bne.w	1490 <enableCycle(Globals volatile*)+0x2a0>
		else *portClearRegister(pin) = digitalPinToBitMask(pin);
    1310:	f8c1 4088 	str.w	r4, [r1, #136]	; 0x88
			OLEDGlobals->OLEDBuffer[OLEDGlobals->oledReadIndex] = OLEDGlobals->OLEDBuffer[OLEDGlobals->oledReadIndex] >> 1; //shift toParse down one, so we can get the next bit to write.
    1314:	f890 12fa 	ldrb.w	r1, [r0, #762]	; 0x2fa
    1318:	f890 42fa 	ldrb.w	r4, [r0, #762]	; 0x2fa
    131c:	317c      	adds	r1, #124	; 0x7c
{
		//this interupt will be happenign every 5 to 10 microseconds. We'll keep the delay in for now, and if it negativley impacts performance, we can get rid of it. 
	//if(OLEDGlobals->OLEDBuffer[OLEDGlobals->oledReadIndex]!=0){ //Not sure why this line doesn't work, but it seems to make this interupt fail. 
	for (int i= 0; i<9;i++ ) 
		{
			digitalWriteFast(OLEDPinArray[i],(OLEDGlobals->OLEDBuffer[OLEDGlobals->oledReadIndex] &1)); //mask toParse with 1, so we just get the first bit. 
    131e:	795d      	ldrb	r5, [r3, #5]
			OLEDGlobals->OLEDBuffer[OLEDGlobals->oledReadIndex] = OLEDGlobals->OLEDBuffer[OLEDGlobals->oledReadIndex] >> 1; //shift toParse down one, so we can get the next bit to write.
    1320:	347c      	adds	r4, #124	; 0x7c
    1322:	eb00 0141 	add.w	r1, r0, r1, lsl #1
    1326:	eb00 0444 	add.w	r4, r0, r4, lsl #1
				CORE_PIN54_PORTCLEAR = CORE_PIN54_BITMASK;
#endif
			}
		}
	} else {
		if(val) *portSetRegister(pin) = digitalPinToBitMask(pin);
    132a:	012d      	lsls	r5, r5, #4
    132c:	8864      	ldrh	r4, [r4, #2]
    132e:	f3c4 044e 	ubfx	r4, r4, #1, #15
    1332:	804c      	strh	r4, [r1, #2]
    1334:	1954      	adds	r4, r2, r5
{
		//this interupt will be happenign every 5 to 10 microseconds. We'll keep the delay in for now, and if it negativley impacts performance, we can get rid of it. 
	//if(OLEDGlobals->OLEDBuffer[OLEDGlobals->oledReadIndex]!=0){ //Not sure why this line doesn't work, but it seems to make this interupt fail. 
	for (int i= 0; i<9;i++ ) 
		{
			digitalWriteFast(OLEDPinArray[i],(OLEDGlobals->OLEDBuffer[OLEDGlobals->oledReadIndex] &1)); //mask toParse with 1, so we just get the first bit. 
    1336:	f890 12fa 	ldrb.w	r1, [r0, #762]	; 0x2fa
    133a:	68e4      	ldr	r4, [r4, #12]
    133c:	317c      	adds	r1, #124	; 0x7c
    133e:	eb00 0141 	add.w	r1, r0, r1, lsl #1
    1342:	8849      	ldrh	r1, [r1, #2]
    1344:	f011 0f01 	tst.w	r1, #1
    1348:	5951      	ldr	r1, [r2, r5]
    134a:	f040 80a4 	bne.w	1496 <enableCycle(Globals volatile*)+0x2a6>
		else *portClearRegister(pin) = digitalPinToBitMask(pin);
    134e:	f8c1 4088 	str.w	r4, [r1, #136]	; 0x88
			OLEDGlobals->OLEDBuffer[OLEDGlobals->oledReadIndex] = OLEDGlobals->OLEDBuffer[OLEDGlobals->oledReadIndex] >> 1; //shift toParse down one, so we can get the next bit to write.
    1352:	f890 12fa 	ldrb.w	r1, [r0, #762]	; 0x2fa
    1356:	f890 42fa 	ldrb.w	r4, [r0, #762]	; 0x2fa
    135a:	317c      	adds	r1, #124	; 0x7c
{
		//this interupt will be happenign every 5 to 10 microseconds. We'll keep the delay in for now, and if it negativley impacts performance, we can get rid of it. 
	//if(OLEDGlobals->OLEDBuffer[OLEDGlobals->oledReadIndex]!=0){ //Not sure why this line doesn't work, but it seems to make this interupt fail. 
	for (int i= 0; i<9;i++ ) 
		{
			digitalWriteFast(OLEDPinArray[i],(OLEDGlobals->OLEDBuffer[OLEDGlobals->oledReadIndex] &1)); //mask toParse with 1, so we just get the first bit. 
    135c:	799d      	ldrb	r5, [r3, #6]
			OLEDGlobals->OLEDBuffer[OLEDGlobals->oledReadIndex] = OLEDGlobals->OLEDBuffer[OLEDGlobals->oledReadIndex] >> 1; //shift toParse down one, so we can get the next bit to write.
    135e:	347c      	adds	r4, #124	; 0x7c
    1360:	eb00 0141 	add.w	r1, r0, r1, lsl #1
    1364:	eb00 0444 	add.w	r4, r0, r4, lsl #1
				CORE_PIN54_PORTCLEAR = CORE_PIN54_BITMASK;
#endif
			}
		}
	} else {
		if(val) *portSetRegister(pin) = digitalPinToBitMask(pin);
    1368:	012d      	lsls	r5, r5, #4
    136a:	8864      	ldrh	r4, [r4, #2]
    136c:	f3c4 044e 	ubfx	r4, r4, #1, #15
    1370:	804c      	strh	r4, [r1, #2]
    1372:	1954      	adds	r4, r2, r5
{
		//this interupt will be happenign every 5 to 10 microseconds. We'll keep the delay in for now, and if it negativley impacts performance, we can get rid of it. 
	//if(OLEDGlobals->OLEDBuffer[OLEDGlobals->oledReadIndex]!=0){ //Not sure why this line doesn't work, but it seems to make this interupt fail. 
	for (int i= 0; i<9;i++ ) 
		{
			digitalWriteFast(OLEDPinArray[i],(OLEDGlobals->OLEDBuffer[OLEDGlobals->oledReadIndex] &1)); //mask toParse with 1, so we just get the first bit. 
    1374:	f890 12fa 	ldrb.w	r1, [r0, #762]	; 0x2fa
    1378:	68e4      	ldr	r4, [r4, #12]
    137a:	317c      	adds	r1, #124	; 0x7c
    137c:	eb00 0141 	add.w	r1, r0, r1, lsl #1
    1380:	8849      	ldrh	r1, [r1, #2]
    1382:	f011 0f01 	tst.w	r1, #1
    1386:	5951      	ldr	r1, [r2, r5]
    1388:	f040 8088 	bne.w	149c <enableCycle(Globals volatile*)+0x2ac>
		else *portClearRegister(pin) = digitalPinToBitMask(pin);
    138c:	f8c1 4088 	str.w	r4, [r1, #136]	; 0x88
			OLEDGlobals->OLEDBuffer[OLEDGlobals->oledReadIndex] = OLEDGlobals->OLEDBuffer[OLEDGlobals->oledReadIndex] >> 1; //shift toParse down one, so we can get the next bit to write.
    1390:	f890 12fa 	ldrb.w	r1, [r0, #762]	; 0x2fa
    1394:	f890 42fa 	ldrb.w	r4, [r0, #762]	; 0x2fa
    1398:	317c      	adds	r1, #124	; 0x7c
{
		//this interupt will be happenign every 5 to 10 microseconds. We'll keep the delay in for now, and if it negativley impacts performance, we can get rid of it. 
	//if(OLEDGlobals->OLEDBuffer[OLEDGlobals->oledReadIndex]!=0){ //Not sure why this line doesn't work, but it seems to make this interupt fail. 
	for (int i= 0; i<9;i++ ) 
		{
			digitalWriteFast(OLEDPinArray[i],(OLEDGlobals->OLEDBuffer[OLEDGlobals->oledReadIndex] &1)); //mask toParse with 1, so we just get the first bit. 
    139a:	79dd      	ldrb	r5, [r3, #7]
			OLEDGlobals->OLEDBuffer[OLEDGlobals->oledReadIndex] = OLEDGlobals->OLEDBuffer[OLEDGlobals->oledReadIndex] >> 1; //shift toParse down one, so we can get the next bit to write.
    139c:	347c      	adds	r4, #124	; 0x7c
    139e:	eb00 0141 	add.w	r1, r0, r1, lsl #1
    13a2:	eb00 0444 	add.w	r4, r0, r4, lsl #1
				CORE_PIN54_PORTCLEAR = CORE_PIN54_BITMASK;
#endif
			}
		}
	} else {
		if(val) *portSetRegister(pin) = digitalPinToBitMask(pin);
    13a6:	012d      	lsls	r5, r5, #4
    13a8:	8864      	ldrh	r4, [r4, #2]
    13aa:	f3c4 044e 	ubfx	r4, r4, #1, #15
    13ae:	804c      	strh	r4, [r1, #2]
    13b0:	1954      	adds	r4, r2, r5
{
		//this interupt will be happenign every 5 to 10 microseconds. We'll keep the delay in for now, and if it negativley impacts performance, we can get rid of it. 
	//if(OLEDGlobals->OLEDBuffer[OLEDGlobals->oledReadIndex]!=0){ //Not sure why this line doesn't work, but it seems to make this interupt fail. 
	for (int i= 0; i<9;i++ ) 
		{
			digitalWriteFast(OLEDPinArray[i],(OLEDGlobals->OLEDBuffer[OLEDGlobals->oledReadIndex] &1)); //mask toParse with 1, so we just get the first bit. 
    13b2:	f890 12fa 	ldrb.w	r1, [r0, #762]	; 0x2fa
    13b6:	68e4      	ldr	r4, [r4, #12]
    13b8:	317c      	adds	r1, #124	; 0x7c
    13ba:	eb00 0141 	add.w	r1, r0, r1, lsl #1
    13be:	8849      	ldrh	r1, [r1, #2]
    13c0:	f011 0f01 	tst.w	r1, #1
    13c4:	5951      	ldr	r1, [r2, r5]
    13c6:	d16c      	bne.n	14a2 <enableCycle(Globals volatile*)+0x2b2>
		else *portClearRegister(pin) = digitalPinToBitMask(pin);
    13c8:	f8c1 4088 	str.w	r4, [r1, #136]	; 0x88
			OLEDGlobals->OLEDBuffer[OLEDGlobals->oledReadIndex] = OLEDGlobals->OLEDBuffer[OLEDGlobals->oledReadIndex] >> 1; //shift toParse down one, so we can get the next bit to write.
    13cc:	f890 12fa 	ldrb.w	r1, [r0, #762]	; 0x2fa
    13d0:	f890 42fa 	ldrb.w	r4, [r0, #762]	; 0x2fa
    13d4:	317c      	adds	r1, #124	; 0x7c
{
		//this interupt will be happenign every 5 to 10 microseconds. We'll keep the delay in for now, and if it negativley impacts performance, we can get rid of it. 
	//if(OLEDGlobals->OLEDBuffer[OLEDGlobals->oledReadIndex]!=0){ //Not sure why this line doesn't work, but it seems to make this interupt fail. 
	for (int i= 0; i<9;i++ ) 
		{
			digitalWriteFast(OLEDPinArray[i],(OLEDGlobals->OLEDBuffer[OLEDGlobals->oledReadIndex] &1)); //mask toParse with 1, so we just get the first bit. 
    13d6:	7a1d      	ldrb	r5, [r3, #8]
			OLEDGlobals->OLEDBuffer[OLEDGlobals->oledReadIndex] = OLEDGlobals->OLEDBuffer[OLEDGlobals->oledReadIndex] >> 1; //shift toParse down one, so we can get the next bit to write.
    13d8:	347c      	adds	r4, #124	; 0x7c
    13da:	eb00 0341 	add.w	r3, r0, r1, lsl #1
    13de:	eb00 0144 	add.w	r1, r0, r4, lsl #1
				CORE_PIN54_PORTCLEAR = CORE_PIN54_BITMASK;
#endif
			}
		}
	} else {
		if(val) *portSetRegister(pin) = digitalPinToBitMask(pin);
    13e2:	012d      	lsls	r5, r5, #4
    13e4:	8849      	ldrh	r1, [r1, #2]
    13e6:	f3c1 014e 	ubfx	r1, r1, #1, #15
    13ea:	8059      	strh	r1, [r3, #2]
    13ec:	1951      	adds	r1, r2, r5
{
		//this interupt will be happenign every 5 to 10 microseconds. We'll keep the delay in for now, and if it negativley impacts performance, we can get rid of it. 
	//if(OLEDGlobals->OLEDBuffer[OLEDGlobals->oledReadIndex]!=0){ //Not sure why this line doesn't work, but it seems to make this interupt fail. 
	for (int i= 0; i<9;i++ ) 
		{
			digitalWriteFast(OLEDPinArray[i],(OLEDGlobals->OLEDBuffer[OLEDGlobals->oledReadIndex] &1)); //mask toParse with 1, so we just get the first bit. 
    13ee:	f890 32fa 	ldrb.w	r3, [r0, #762]	; 0x2fa
    13f2:	337c      	adds	r3, #124	; 0x7c
    13f4:	eb00 0343 	add.w	r3, r0, r3, lsl #1
    13f8:	885b      	ldrh	r3, [r3, #2]
    13fa:	f013 0f01 	tst.w	r3, #1
    13fe:	5953      	ldr	r3, [r2, r5]
    1400:	68ca      	ldr	r2, [r1, #12]
    1402:	d036      	beq.n	1472 <enableCycle(Globals volatile*)+0x282>
    1404:	f8c3 2084 	str.w	r2, [r3, #132]	; 0x84
			OLEDGlobals->OLEDBuffer[OLEDGlobals->oledReadIndex] = OLEDGlobals->OLEDBuffer[OLEDGlobals->oledReadIndex] >> 1; //shift toParse down one, so we can get the next bit to write.
    1408:	f890 32fa 	ldrb.w	r3, [r0, #762]	; 0x2fa
		}
		OLEDGlobals->OLEDBuffer[OLEDGlobals->oledReadIndex] = 0; //reset buffer to 0, now that we have shifted out the data. This might be un-necessary? 
    140c:	f04f 0e00 	mov.w	lr, #0
		//this interupt will be happenign every 5 to 10 microseconds. We'll keep the delay in for now, and if it negativley impacts performance, we can get rid of it. 
	//if(OLEDGlobals->OLEDBuffer[OLEDGlobals->oledReadIndex]!=0){ //Not sure why this line doesn't work, but it seems to make this interupt fail. 
	for (int i= 0; i<9;i++ ) 
		{
			digitalWriteFast(OLEDPinArray[i],(OLEDGlobals->OLEDBuffer[OLEDGlobals->oledReadIndex] &1)); //mask toParse with 1, so we just get the first bit. 
			OLEDGlobals->OLEDBuffer[OLEDGlobals->oledReadIndex] = OLEDGlobals->OLEDBuffer[OLEDGlobals->oledReadIndex] >> 1; //shift toParse down one, so we can get the next bit to write.
    1410:	f890 42fa 	ldrb.w	r4, [r0, #762]	; 0x2fa
			} else if (pin == 4) {
				CORE_PIN4_PORTSET = CORE_PIN4_BITMASK;
			} else if (pin == 5) {
				CORE_PIN5_PORTSET = CORE_PIN5_BITMASK;
			} else if (pin == 6) {
				CORE_PIN6_PORTSET = CORE_PIN6_BITMASK;
    1414:	f44f 6780 	mov.w	r7, #1024	; 0x400
    1418:	337c      	adds	r3, #124	; 0x7c
uint32_t micros(void);

static inline void delayMicroseconds(uint32_t) __attribute__((always_inline, unused));
static inline void delayMicroseconds(uint32_t usec)
{
	uint32_t begin = ARM_DWT_CYCCNT;
    141a:	4925      	ldr	r1, [pc, #148]	; (14b0 <enableCycle(Globals volatile*)+0x2c0>)
    141c:	347c      	adds	r4, #124	; 0x7c
			} else if (pin == 4) {
				CORE_PIN4_PORTSET = CORE_PIN4_BITMASK;
			} else if (pin == 5) {
				CORE_PIN5_PORTSET = CORE_PIN5_BITMASK;
			} else if (pin == 6) {
				CORE_PIN6_PORTSET = CORE_PIN6_BITMASK;
    141e:	4e25      	ldr	r6, [pc, #148]	; (14b4 <enableCycle(Globals volatile*)+0x2c4>)
    1420:	eb00 0343 	add.w	r3, r0, r3, lsl #1

static inline void delayMicroseconds(uint32_t) __attribute__((always_inline, unused));
static inline void delayMicroseconds(uint32_t usec)
{
	uint32_t begin = ARM_DWT_CYCCNT;
	uint32_t cycles = F_CPU_ACTUAL / 1000000 * usec;
    1424:	4d24      	ldr	r5, [pc, #144]	; (14b8 <enableCycle(Globals volatile*)+0x2c8>)
    1426:	eb00 0444 	add.w	r4, r0, r4, lsl #1
    142a:	4a24      	ldr	r2, [pc, #144]	; (14bc <enableCycle(Globals volatile*)+0x2cc>)
    142c:	8864      	ldrh	r4, [r4, #2]
    142e:	f3c4 044e 	ubfx	r4, r4, #1, #15
    1432:	805c      	strh	r4, [r3, #2]
	// TODO: check if cycles is large, do a wait with yield calls until it's smaller
	while (ARM_DWT_CYCCNT - begin < cycles) ; // wait
    1434:	460c      	mov	r4, r1
		}
		OLEDGlobals->OLEDBuffer[OLEDGlobals->oledReadIndex] = 0; //reset buffer to 0, now that we have shifted out the data. This might be un-necessary? 
    1436:	f890 32fa 	ldrb.w	r3, [r0, #762]	; 0x2fa
    143a:	337c      	adds	r3, #124	; 0x7c
    143c:	eb00 0343 	add.w	r3, r0, r3, lsl #1
    1440:	f8a3 e002 	strh.w	lr, [r3, #2]
		OLEDGlobals->oledReadIndex++; //increment read Index
    1444:	f890 32fa 	ldrb.w	r3, [r0, #762]	; 0x2fa
    1448:	3301      	adds	r3, #1
    144a:	b2db      	uxtb	r3, r3
    144c:	f880 32fa 	strb.w	r3, [r0, #762]	; 0x2fa
			} else if (pin == 4) {
				CORE_PIN4_PORTSET = CORE_PIN4_BITMASK;
			} else if (pin == 5) {
				CORE_PIN5_PORTSET = CORE_PIN5_BITMASK;
			} else if (pin == 6) {
				CORE_PIN6_PORTSET = CORE_PIN6_BITMASK;
    1450:	f8c6 7084 	str.w	r7, [r6, #132]	; 0x84
uint32_t micros(void);

static inline void delayMicroseconds(uint32_t) __attribute__((always_inline, unused));
static inline void delayMicroseconds(uint32_t usec)
{
	uint32_t begin = ARM_DWT_CYCCNT;
    1454:	6809      	ldr	r1, [r1, #0]
	uint32_t cycles = F_CPU_ACTUAL / 1000000 * usec;
    1456:	682b      	ldr	r3, [r5, #0]
    1458:	fba2 3203 	umull	r3, r2, r2, r3
    145c:	0c92      	lsrs	r2, r2, #18
	// TODO: check if cycles is large, do a wait with yield calls until it's smaller
	while (ARM_DWT_CYCCNT - begin < cycles) ; // wait
    145e:	6823      	ldr	r3, [r4, #0]
    1460:	1a5b      	subs	r3, r3, r1
    1462:	429a      	cmp	r2, r3
    1464:	d8fb      	bhi.n	145e <enableCycle(Globals volatile*)+0x26e>
			} else if (pin == 4) {
				CORE_PIN4_PORTCLEAR = CORE_PIN4_BITMASK;
			} else if (pin == 5) {
				CORE_PIN5_PORTCLEAR = CORE_PIN5_BITMASK;
			} else if (pin == 6) {
				CORE_PIN6_PORTCLEAR = CORE_PIN6_BITMASK;
    1466:	4b13      	ldr	r3, [pc, #76]	; (14b4 <enableCycle(Globals volatile*)+0x2c4>)
    1468:	f44f 6280 	mov.w	r2, #1024	; 0x400
    146c:	f8c3 2088 	str.w	r2, [r3, #136]	; 0x88
    1470:	bdf0      	pop	{r4, r5, r6, r7, pc}
#endif
			}
		}
	} else {
		if(val) *portSetRegister(pin) = digitalPinToBitMask(pin);
		else *portClearRegister(pin) = digitalPinToBitMask(pin);
    1472:	f8c3 2088 	str.w	r2, [r3, #136]	; 0x88
    1476:	e7c7      	b.n	1408 <enableCycle(Globals volatile*)+0x218>
				CORE_PIN54_PORTCLEAR = CORE_PIN54_BITMASK;
#endif
			}
		}
	} else {
		if(val) *portSetRegister(pin) = digitalPinToBitMask(pin);
    1478:	f8c1 4084 	str.w	r4, [r1, #132]	; 0x84
    147c:	e6ce      	b.n	121c <enableCycle(Globals volatile*)+0x2c>
    147e:	f8c1 4084 	str.w	r4, [r1, #132]	; 0x84
    1482:	e6ea      	b.n	125a <enableCycle(Globals volatile*)+0x6a>
    1484:	f8c1 4084 	str.w	r4, [r1, #132]	; 0x84
    1488:	e706      	b.n	1298 <enableCycle(Globals volatile*)+0xa8>
    148a:	f8c1 4084 	str.w	r4, [r1, #132]	; 0x84
    148e:	e722      	b.n	12d6 <enableCycle(Globals volatile*)+0xe6>
    1490:	f8c1 4084 	str.w	r4, [r1, #132]	; 0x84
    1494:	e73e      	b.n	1314 <enableCycle(Globals volatile*)+0x124>
    1496:	f8c1 4084 	str.w	r4, [r1, #132]	; 0x84
    149a:	e75a      	b.n	1352 <enableCycle(Globals volatile*)+0x162>
    149c:	f8c1 4084 	str.w	r4, [r1, #132]	; 0x84
    14a0:	e776      	b.n	1390 <enableCycle(Globals volatile*)+0x1a0>
    14a2:	f8c1 4084 	str.w	r4, [r1, #132]	; 0x84
    14a6:	e791      	b.n	13cc <enableCycle(Globals volatile*)+0x1dc>
    14a8:	200006a4 	.word	0x200006a4
    14ac:	200002bc 	.word	0x200002bc
    14b0:	e0001004 	.word	0xe0001004
    14b4:	42004000 	.word	0x42004000
    14b8:	200006d8 	.word	0x200006d8
    14bc:	431bde83 	.word	0x431bde83

000014c0 <initPins()>:
	OLEDGlobals->OLEDBuffer[OLEDGlobals->oledWriteIndex] = toBuffer;
	OLEDGlobals->oledWriteIndex = OLEDGlobals->oledWriteIndex + 1; //incriment write index. 
}

void initPins() 
{
    14c0:	b5f8      	push	{r3, r4, r5, r6, r7, lr}
    14c2:	4c38      	ldr	r4, [pc, #224]	; (15a4 <initPins()+0xe4>)
    14c4:	f104 0509 	add.w	r5, r4, #9
	for (int i = 0; i < 9; i++)
	{
		pinMode(OLEDPinArray[i], OUTPUT);
    14c8:	f814 0f01 	ldrb.w	r0, [r4, #1]!
    14cc:	2101      	movs	r1, #1
    14ce:	f002 f9c1 	bl	3854 <pinMode>
	OLEDGlobals->oledWriteIndex = OLEDGlobals->oledWriteIndex + 1; //incriment write index. 
}

void initPins() 
{
	for (int i = 0; i < 9; i++)
    14d2:	42ac      	cmp	r4, r5
    14d4:	d1f8      	bne.n	14c8 <initPins()+0x8>
	{
		pinMode(OLEDPinArray[i], OUTPUT);
	}
	pinMode(OLEDEnable, OUTPUT);
    14d6:	2101      	movs	r1, #1
    14d8:	2006      	movs	r0, #6
    14da:	f002 f9bb 	bl	3854 <pinMode>

	for (int j = 0; j < 9; j++) 
	{
		digitalWriteFast(OLEDPinArray[j], LOW);
    14de:	4a32      	ldr	r2, [pc, #200]	; (15a8 <initPins()+0xe8>)
		else *portClearRegister(pin) = digitalPinToBitMask(pin);
    14e0:	4b32      	ldr	r3, [pc, #200]	; (15ac <initPins()+0xec>)
			} else if (pin == 4) {
				CORE_PIN4_PORTCLEAR = CORE_PIN4_BITMASK;
			} else if (pin == 5) {
				CORE_PIN5_PORTCLEAR = CORE_PIN5_BITMASK;
			} else if (pin == 6) {
				CORE_PIN6_PORTCLEAR = CORE_PIN6_BITMASK;
    14e2:	f44f 6580 	mov.w	r5, #1024	; 0x400
#endif
			}
		}
	} else {
		if(val) *portSetRegister(pin) = digitalPinToBitMask(pin);
		else *portClearRegister(pin) = digitalPinToBitMask(pin);
    14e6:	7816      	ldrb	r6, [r2, #0]

static inline void delayMicroseconds(uint32_t) __attribute__((always_inline, unused));
static inline void delayMicroseconds(uint32_t usec)
{
	uint32_t begin = ARM_DWT_CYCCNT;
	uint32_t cycles = F_CPU_ACTUAL / 1000000 * usec;
    14e8:	21c8      	movs	r1, #200	; 0xc8
#endif
			}
		}
	} else {
		if(val) *portSetRegister(pin) = digitalPinToBitMask(pin);
		else *portClearRegister(pin) = digitalPinToBitMask(pin);
    14ea:	7850      	ldrb	r0, [r2, #1]
    14ec:	0136      	lsls	r6, r6, #4
    14ee:	7894      	ldrb	r4, [r2, #2]
    14f0:	0100      	lsls	r0, r0, #4
    14f2:	199f      	adds	r7, r3, r6
    14f4:	0124      	lsls	r4, r4, #4
    14f6:	599e      	ldr	r6, [r3, r6]
    14f8:	eb03 0e00 	add.w	lr, r3, r0
    14fc:	f8d7 c00c 	ldr.w	ip, [r7, #12]
    1500:	581f      	ldr	r7, [r3, r0]
    1502:	78d0      	ldrb	r0, [r2, #3]
    1504:	f8c6 c088 	str.w	ip, [r6, #136]	; 0x88
    1508:	191e      	adds	r6, r3, r4
    150a:	f8de c00c 	ldr.w	ip, [lr, #12]
    150e:	0100      	lsls	r0, r0, #4
    1510:	f853 e004 	ldr.w	lr, [r3, r4]
    1514:	7914      	ldrb	r4, [r2, #4]
    1516:	f8c7 c088 	str.w	ip, [r7, #136]	; 0x88
    151a:	181f      	adds	r7, r3, r0
    151c:	f8d6 c00c 	ldr.w	ip, [r6, #12]
    1520:	0124      	lsls	r4, r4, #4
    1522:	581e      	ldr	r6, [r3, r0]
    1524:	7950      	ldrb	r0, [r2, #5]
    1526:	f8ce c088 	str.w	ip, [lr, #136]	; 0x88
    152a:	eb03 0e04 	add.w	lr, r3, r4
    152e:	f8d7 c00c 	ldr.w	ip, [r7, #12]
    1532:	0100      	lsls	r0, r0, #4
    1534:	591f      	ldr	r7, [r3, r4]
    1536:	7994      	ldrb	r4, [r2, #6]
    1538:	f8c6 c088 	str.w	ip, [r6, #136]	; 0x88
    153c:	181e      	adds	r6, r3, r0
    153e:	f8de c00c 	ldr.w	ip, [lr, #12]
    1542:	0124      	lsls	r4, r4, #4
    1544:	f853 e000 	ldr.w	lr, [r3, r0]
    1548:	79d0      	ldrb	r0, [r2, #7]
    154a:	f8c7 c088 	str.w	ip, [r7, #136]	; 0x88
    154e:	191f      	adds	r7, r3, r4
    1550:	f8d6 c00c 	ldr.w	ip, [r6, #12]
    1554:	0100      	lsls	r0, r0, #4
    1556:	591e      	ldr	r6, [r3, r4]
    1558:	f8ce c088 	str.w	ip, [lr, #136]	; 0x88
    155c:	181c      	adds	r4, r3, r0
    155e:	68ff      	ldr	r7, [r7, #12]
    1560:	5818      	ldr	r0, [r3, r0]
    1562:	f8c6 7088 	str.w	r7, [r6, #136]	; 0x88
    1566:	68e4      	ldr	r4, [r4, #12]
			} else if (pin == 4) {
				CORE_PIN4_PORTCLEAR = CORE_PIN4_BITMASK;
			} else if (pin == 5) {
				CORE_PIN5_PORTCLEAR = CORE_PIN5_BITMASK;
			} else if (pin == 6) {
				CORE_PIN6_PORTCLEAR = CORE_PIN6_BITMASK;
    1568:	4f11      	ldr	r7, [pc, #68]	; (15b0 <initPins()+0xf0>)
#endif
			}
		}
	} else {
		if(val) *portSetRegister(pin) = digitalPinToBitMask(pin);
		else *portClearRegister(pin) = digitalPinToBitMask(pin);
    156a:	f8c0 4088 	str.w	r4, [r0, #136]	; 0x88
    156e:	7a12      	ldrb	r2, [r2, #8]
uint32_t micros(void);

static inline void delayMicroseconds(uint32_t) __attribute__((always_inline, unused));
static inline void delayMicroseconds(uint32_t usec)
{
	uint32_t begin = ARM_DWT_CYCCNT;
    1570:	4810      	ldr	r0, [pc, #64]	; (15b4 <initPins()+0xf4>)
#endif
			}
		}
	} else {
		if(val) *portSetRegister(pin) = digitalPinToBitMask(pin);
		else *portClearRegister(pin) = digitalPinToBitMask(pin);
    1572:	0112      	lsls	r2, r2, #4

static inline void delayMicroseconds(uint32_t) __attribute__((always_inline, unused));
static inline void delayMicroseconds(uint32_t usec)
{
	uint32_t begin = ARM_DWT_CYCCNT;
	uint32_t cycles = F_CPU_ACTUAL / 1000000 * usec;
    1574:	4e10      	ldr	r6, [pc, #64]	; (15b8 <initPins()+0xf8>)
#endif
			}
		}
	} else {
		if(val) *portSetRegister(pin) = digitalPinToBitMask(pin);
		else *portClearRegister(pin) = digitalPinToBitMask(pin);
    1576:	189c      	adds	r4, r3, r2
    1578:	589b      	ldr	r3, [r3, r2]

static inline void delayMicroseconds(uint32_t) __attribute__((always_inline, unused));
static inline void delayMicroseconds(uint32_t usec)
{
	uint32_t begin = ARM_DWT_CYCCNT;
	uint32_t cycles = F_CPU_ACTUAL / 1000000 * usec;
    157a:	4a10      	ldr	r2, [pc, #64]	; (15bc <initPins()+0xfc>)
#endif
			}
		}
	} else {
		if(val) *portSetRegister(pin) = digitalPinToBitMask(pin);
		else *portClearRegister(pin) = digitalPinToBitMask(pin);
    157c:	f8d4 e00c 	ldr.w	lr, [r4, #12]
static inline void delayMicroseconds(uint32_t usec)
{
	uint32_t begin = ARM_DWT_CYCCNT;
	uint32_t cycles = F_CPU_ACTUAL / 1000000 * usec;
	// TODO: check if cycles is large, do a wait with yield calls until it's smaller
	while (ARM_DWT_CYCCNT - begin < cycles) ; // wait
    1580:	4604      	mov	r4, r0
#endif
			}
		}
	} else {
		if(val) *portSetRegister(pin) = digitalPinToBitMask(pin);
		else *portClearRegister(pin) = digitalPinToBitMask(pin);
    1582:	f8c3 e088 	str.w	lr, [r3, #136]	; 0x88
			} else if (pin == 4) {
				CORE_PIN4_PORTCLEAR = CORE_PIN4_BITMASK;
			} else if (pin == 5) {
				CORE_PIN5_PORTCLEAR = CORE_PIN5_BITMASK;
			} else if (pin == 6) {
				CORE_PIN6_PORTCLEAR = CORE_PIN6_BITMASK;
    1586:	f8c7 5088 	str.w	r5, [r7, #136]	; 0x88
uint32_t micros(void);

static inline void delayMicroseconds(uint32_t) __attribute__((always_inline, unused));
static inline void delayMicroseconds(uint32_t usec)
{
	uint32_t begin = ARM_DWT_CYCCNT;
    158a:	6800      	ldr	r0, [r0, #0]
	uint32_t cycles = F_CPU_ACTUAL / 1000000 * usec;
    158c:	6833      	ldr	r3, [r6, #0]
    158e:	fba2 3203 	umull	r3, r2, r2, r3
    1592:	0c92      	lsrs	r2, r2, #18
    1594:	fb01 f202 	mul.w	r2, r1, r2
	// TODO: check if cycles is large, do a wait with yield calls until it's smaller
	while (ARM_DWT_CYCCNT - begin < cycles) ; // wait
    1598:	6823      	ldr	r3, [r4, #0]
    159a:	1a1b      	subs	r3, r3, r0
    159c:	429a      	cmp	r2, r3
    159e:	d8fb      	bhi.n	1598 <initPins()+0xd8>
	}
	digitalWriteFast(OLEDEnable, LOW);
	delayMicroseconds(200);

}
    15a0:	bdf8      	pop	{r3, r4, r5, r6, r7, pc}
    15a2:	bf00      	nop
    15a4:	200006a3 	.word	0x200006a3
    15a8:	200006a4 	.word	0x200006a4
    15ac:	200002bc 	.word	0x200002bc
    15b0:	42004000 	.word	0x42004000
    15b4:	e0001004 	.word	0xe0001004
    15b8:	200006d8 	.word	0x200006d8
    15bc:	431bde83 	.word	0x431bde83

000015c0 <initScreen(Globals volatile*)>:

void initScreen(volatile Globals* OLEDGlobals)
{
    15c0:	b5f8      	push	{r3, r4, r5, r6, r7, lr}
    15c2:	4604      	mov	r4, r0
}

void command(uint8_t c, volatile Globals *OLEDGlobals)
{
// since D/C pin is 0, we don't need to shift anything in. bit #8 is just a 0.
	OLEDGlobals->OLEDBuffer[OLEDGlobals->oledWriteIndex] = c;
    15c4:	202a      	movs	r0, #42	; 0x2a
    15c6:	2771      	movs	r7, #113	; 0x71

void data(uint8_t d, volatile Globals *OLEDGlobals)
{
	uint16_t toBuffer; //this number will be inserted into the buffer, at current buffer index. 
	toBuffer = d | (1 << 8); //this will be our "HIGH" message to the D/C pin
	OLEDGlobals->OLEDBuffer[OLEDGlobals->oledWriteIndex] = toBuffer;
    15c8:	f44f 7580 	mov.w	r5, #256	; 0x100
}

void command(uint8_t c, volatile Globals *OLEDGlobals)
{
// since D/C pin is 0, we don't need to shift anything in. bit #8 is just a 0.
	OLEDGlobals->OLEDBuffer[OLEDGlobals->oledWriteIndex] = c;
    15cc:	f894 32fb 	ldrb.w	r3, [r4, #763]	; 0x2fb
    15d0:	2128      	movs	r1, #40	; 0x28
    15d2:	2208      	movs	r2, #8
    15d4:	2679      	movs	r6, #121	; 0x79
    15d6:	337c      	adds	r3, #124	; 0x7c
    15d8:	f04f 0ed5 	mov.w	lr, #213	; 0xd5
    15dc:	eb04 0343 	add.w	r3, r4, r3, lsl #1
    15e0:	8058      	strh	r0, [r3, #2]
	OLEDGlobals->oledWriteIndex = OLEDGlobals->oledWriteIndex + 1; //incriment write index. 
    15e2:	f894 32fb 	ldrb.w	r3, [r4, #763]	; 0x2fb
    15e6:	3301      	adds	r3, #1
    15e8:	b2db      	uxtb	r3, r3
    15ea:	f884 32fb 	strb.w	r3, [r4, #763]	; 0x2fb
}

void command(uint8_t c, volatile Globals *OLEDGlobals)
{
// since D/C pin is 0, we don't need to shift anything in. bit #8 is just a 0.
	OLEDGlobals->OLEDBuffer[OLEDGlobals->oledWriteIndex] = c;
    15ee:	f894 32fb 	ldrb.w	r3, [r4, #763]	; 0x2fb
    15f2:	337c      	adds	r3, #124	; 0x7c
    15f4:	eb04 0343 	add.w	r3, r4, r3, lsl #1
    15f8:	805f      	strh	r7, [r3, #2]
    15fa:	2770      	movs	r7, #112	; 0x70
	OLEDGlobals->oledWriteIndex = OLEDGlobals->oledWriteIndex + 1; //incriment write index. 
    15fc:	f894 32fb 	ldrb.w	r3, [r4, #763]	; 0x2fb
    1600:	3301      	adds	r3, #1
    1602:	b2db      	uxtb	r3, r3
    1604:	f884 32fb 	strb.w	r3, [r4, #763]	; 0x2fb

void data(uint8_t d, volatile Globals *OLEDGlobals)
{
	uint16_t toBuffer; //this number will be inserted into the buffer, at current buffer index. 
	toBuffer = d | (1 << 8); //this will be our "HIGH" message to the D/C pin
	OLEDGlobals->OLEDBuffer[OLEDGlobals->oledWriteIndex] = toBuffer;
    1608:	f894 32fb 	ldrb.w	r3, [r4, #763]	; 0x2fb
    160c:	337c      	adds	r3, #124	; 0x7c
    160e:	eb04 0343 	add.w	r3, r4, r3, lsl #1
    1612:	805d      	strh	r5, [r3, #2]
}

void command(uint8_t c, volatile Globals *OLEDGlobals)
{
// since D/C pin is 0, we don't need to shift anything in. bit #8 is just a 0.
	OLEDGlobals->OLEDBuffer[OLEDGlobals->oledWriteIndex] = c;
    1614:	2578      	movs	r5, #120	; 0x78
void data(uint8_t d, volatile Globals *OLEDGlobals)
{
	uint16_t toBuffer; //this number will be inserted into the buffer, at current buffer index. 
	toBuffer = d | (1 << 8); //this will be our "HIGH" message to the D/C pin
	OLEDGlobals->OLEDBuffer[OLEDGlobals->oledWriteIndex] = toBuffer;
	OLEDGlobals->oledWriteIndex = OLEDGlobals->oledWriteIndex + 1; //incriment write index. 
    1616:	f894 32fb 	ldrb.w	r3, [r4, #763]	; 0x2fb
    161a:	3301      	adds	r3, #1
    161c:	b2db      	uxtb	r3, r3
    161e:	f884 32fb 	strb.w	r3, [r4, #763]	; 0x2fb
}

void command(uint8_t c, volatile Globals *OLEDGlobals)
{
// since D/C pin is 0, we don't need to shift anything in. bit #8 is just a 0.
	OLEDGlobals->OLEDBuffer[OLEDGlobals->oledWriteIndex] = c;
    1622:	f894 32fb 	ldrb.w	r3, [r4, #763]	; 0x2fb
    1626:	337c      	adds	r3, #124	; 0x7c
    1628:	eb04 0343 	add.w	r3, r4, r3, lsl #1
    162c:	8059      	strh	r1, [r3, #2]
	OLEDGlobals->oledWriteIndex = OLEDGlobals->oledWriteIndex + 1; //incriment write index. 
    162e:	f894 32fb 	ldrb.w	r3, [r4, #763]	; 0x2fb
    1632:	3301      	adds	r3, #1
    1634:	b2db      	uxtb	r3, r3
    1636:	f884 32fb 	strb.w	r3, [r4, #763]	; 0x2fb
}

void command(uint8_t c, volatile Globals *OLEDGlobals)
{
// since D/C pin is 0, we don't need to shift anything in. bit #8 is just a 0.
	OLEDGlobals->OLEDBuffer[OLEDGlobals->oledWriteIndex] = c;
    163a:	f894 32fb 	ldrb.w	r3, [r4, #763]	; 0x2fb
    163e:	337c      	adds	r3, #124	; 0x7c
    1640:	eb04 0343 	add.w	r3, r4, r3, lsl #1
    1644:	805a      	strh	r2, [r3, #2]
    1646:	2209      	movs	r2, #9
	OLEDGlobals->oledWriteIndex = OLEDGlobals->oledWriteIndex + 1; //incriment write index. 
    1648:	f894 32fb 	ldrb.w	r3, [r4, #763]	; 0x2fb
    164c:	3301      	adds	r3, #1
    164e:	b2db      	uxtb	r3, r3
    1650:	f884 32fb 	strb.w	r3, [r4, #763]	; 0x2fb
}

void command(uint8_t c, volatile Globals *OLEDGlobals)
{
// since D/C pin is 0, we don't need to shift anything in. bit #8 is just a 0.
	OLEDGlobals->OLEDBuffer[OLEDGlobals->oledWriteIndex] = c;
    1654:	f894 32fb 	ldrb.w	r3, [r4, #763]	; 0x2fb
    1658:	337c      	adds	r3, #124	; 0x7c
    165a:	eb04 0343 	add.w	r3, r4, r3, lsl #1
    165e:	8058      	strh	r0, [r3, #2]
    1660:	2006      	movs	r0, #6
	OLEDGlobals->oledWriteIndex = OLEDGlobals->oledWriteIndex + 1; //incriment write index. 
    1662:	f894 32fb 	ldrb.w	r3, [r4, #763]	; 0x2fb
    1666:	3301      	adds	r3, #1
    1668:	b2db      	uxtb	r3, r3
    166a:	f884 32fb 	strb.w	r3, [r4, #763]	; 0x2fb
}

void command(uint8_t c, volatile Globals *OLEDGlobals)
{
// since D/C pin is 0, we don't need to shift anything in. bit #8 is just a 0.
	OLEDGlobals->OLEDBuffer[OLEDGlobals->oledWriteIndex] = c;
    166e:	f894 32fb 	ldrb.w	r3, [r4, #763]	; 0x2fb
    1672:	337c      	adds	r3, #124	; 0x7c
    1674:	eb04 0343 	add.w	r3, r4, r3, lsl #1
    1678:	805e      	strh	r6, [r3, #2]
	OLEDGlobals->oledWriteIndex = OLEDGlobals->oledWriteIndex + 1; //incriment write index. 
    167a:	f894 32fb 	ldrb.w	r3, [r4, #763]	; 0x2fb
    167e:	3301      	adds	r3, #1
    1680:	b2db      	uxtb	r3, r3
    1682:	f884 32fb 	strb.w	r3, [r4, #763]	; 0x2fb
}

void command(uint8_t c, volatile Globals *OLEDGlobals)
{
// since D/C pin is 0, we don't need to shift anything in. bit #8 is just a 0.
	OLEDGlobals->OLEDBuffer[OLEDGlobals->oledWriteIndex] = c;
    1686:	f894 32fb 	ldrb.w	r3, [r4, #763]	; 0x2fb
    168a:	337c      	adds	r3, #124	; 0x7c
    168c:	eb04 0343 	add.w	r3, r4, r3, lsl #1
    1690:	f8a3 e002 	strh.w	lr, [r3, #2]
    1694:	f04f 0e72 	mov.w	lr, #114	; 0x72
	OLEDGlobals->oledWriteIndex = OLEDGlobals->oledWriteIndex + 1; //incriment write index. 
    1698:	f894 32fb 	ldrb.w	r3, [r4, #763]	; 0x2fb
    169c:	3301      	adds	r3, #1
    169e:	b2db      	uxtb	r3, r3
    16a0:	f884 32fb 	strb.w	r3, [r4, #763]	; 0x2fb
}

void command(uint8_t c, volatile Globals *OLEDGlobals)
{
// since D/C pin is 0, we don't need to shift anything in. bit #8 is just a 0.
	OLEDGlobals->OLEDBuffer[OLEDGlobals->oledWriteIndex] = c;
    16a4:	f894 32fb 	ldrb.w	r3, [r4, #763]	; 0x2fb
    16a8:	337c      	adds	r3, #124	; 0x7c
    16aa:	eb04 0343 	add.w	r3, r4, r3, lsl #1
    16ae:	805f      	strh	r7, [r3, #2]

void data(uint8_t d, volatile Globals *OLEDGlobals)
{
	uint16_t toBuffer; //this number will be inserted into the buffer, at current buffer index. 
	toBuffer = d | (1 << 8); //this will be our "HIGH" message to the D/C pin
	OLEDGlobals->OLEDBuffer[OLEDGlobals->oledWriteIndex] = toBuffer;
    16b0:	f44f 7785 	mov.w	r7, #266	; 0x10a

void command(uint8_t c, volatile Globals *OLEDGlobals)
{
// since D/C pin is 0, we don't need to shift anything in. bit #8 is just a 0.
	OLEDGlobals->OLEDBuffer[OLEDGlobals->oledWriteIndex] = c;
	OLEDGlobals->oledWriteIndex = OLEDGlobals->oledWriteIndex + 1; //incriment write index. 
    16b4:	f894 32fb 	ldrb.w	r3, [r4, #763]	; 0x2fb
    16b8:	3301      	adds	r3, #1
    16ba:	b2db      	uxtb	r3, r3
    16bc:	f884 32fb 	strb.w	r3, [r4, #763]	; 0x2fb
}

void command(uint8_t c, volatile Globals *OLEDGlobals)
{
// since D/C pin is 0, we don't need to shift anything in. bit #8 is just a 0.
	OLEDGlobals->OLEDBuffer[OLEDGlobals->oledWriteIndex] = c;
    16c0:	f894 32fb 	ldrb.w	r3, [r4, #763]	; 0x2fb
    16c4:	337c      	adds	r3, #124	; 0x7c
    16c6:	eb04 0343 	add.w	r3, r4, r3, lsl #1
    16ca:	805d      	strh	r5, [r3, #2]
	OLEDGlobals->oledWriteIndex = OLEDGlobals->oledWriteIndex + 1; //incriment write index. 
    16cc:	f894 32fb 	ldrb.w	r3, [r4, #763]	; 0x2fb
    16d0:	3301      	adds	r3, #1
    16d2:	b2db      	uxtb	r3, r3
    16d4:	f884 32fb 	strb.w	r3, [r4, #763]	; 0x2fb
}

void command(uint8_t c, volatile Globals *OLEDGlobals)
{
// since D/C pin is 0, we don't need to shift anything in. bit #8 is just a 0.
	OLEDGlobals->OLEDBuffer[OLEDGlobals->oledWriteIndex] = c;
    16d8:	f894 32fb 	ldrb.w	r3, [r4, #763]	; 0x2fb
    16dc:	337c      	adds	r3, #124	; 0x7c
    16de:	eb04 0343 	add.w	r3, r4, r3, lsl #1
    16e2:	805a      	strh	r2, [r3, #2]
    16e4:	22da      	movs	r2, #218	; 0xda
	OLEDGlobals->oledWriteIndex = OLEDGlobals->oledWriteIndex + 1; //incriment write index. 
    16e6:	f894 32fb 	ldrb.w	r3, [r4, #763]	; 0x2fb
    16ea:	3301      	adds	r3, #1
    16ec:	b2db      	uxtb	r3, r3
    16ee:	f884 32fb 	strb.w	r3, [r4, #763]	; 0x2fb
}

void command(uint8_t c, volatile Globals *OLEDGlobals)
{
// since D/C pin is 0, we don't need to shift anything in. bit #8 is just a 0.
	OLEDGlobals->OLEDBuffer[OLEDGlobals->oledWriteIndex] = c;
    16f2:	f894 32fb 	ldrb.w	r3, [r4, #763]	; 0x2fb
    16f6:	337c      	adds	r3, #124	; 0x7c
    16f8:	eb04 0343 	add.w	r3, r4, r3, lsl #1
    16fc:	8058      	strh	r0, [r3, #2]
    16fe:	2010      	movs	r0, #16
	OLEDGlobals->oledWriteIndex = OLEDGlobals->oledWriteIndex + 1; //incriment write index. 
    1700:	f894 32fb 	ldrb.w	r3, [r4, #763]	; 0x2fb
    1704:	3301      	adds	r3, #1
    1706:	b2db      	uxtb	r3, r3
    1708:	f884 32fb 	strb.w	r3, [r4, #763]	; 0x2fb
}

void command(uint8_t c, volatile Globals *OLEDGlobals)
{
// since D/C pin is 0, we don't need to shift anything in. bit #8 is just a 0.
	OLEDGlobals->OLEDBuffer[OLEDGlobals->oledWriteIndex] = c;
    170c:	f894 32fb 	ldrb.w	r3, [r4, #763]	; 0x2fb
    1710:	337c      	adds	r3, #124	; 0x7c
    1712:	eb04 0343 	add.w	r3, r4, r3, lsl #1
    1716:	f8a3 e002 	strh.w	lr, [r3, #2]
    171a:	f04f 0edc 	mov.w	lr, #220	; 0xdc
	OLEDGlobals->oledWriteIndex = OLEDGlobals->oledWriteIndex + 1; //incriment write index. 
    171e:	f894 32fb 	ldrb.w	r3, [r4, #763]	; 0x2fb
    1722:	3301      	adds	r3, #1
    1724:	b2db      	uxtb	r3, r3
    1726:	f884 32fb 	strb.w	r3, [r4, #763]	; 0x2fb

void data(uint8_t d, volatile Globals *OLEDGlobals)
{
	uint16_t toBuffer; //this number will be inserted into the buffer, at current buffer index. 
	toBuffer = d | (1 << 8); //this will be our "HIGH" message to the D/C pin
	OLEDGlobals->OLEDBuffer[OLEDGlobals->oledWriteIndex] = toBuffer;
    172a:	f894 32fb 	ldrb.w	r3, [r4, #763]	; 0x2fb
    172e:	337c      	adds	r3, #124	; 0x7c
    1730:	eb04 0343 	add.w	r3, r4, r3, lsl #1
    1734:	805f      	strh	r7, [r3, #2]
}

void command(uint8_t c, volatile Globals *OLEDGlobals)
{
// since D/C pin is 0, we don't need to shift anything in. bit #8 is just a 0.
	OLEDGlobals->OLEDBuffer[OLEDGlobals->oledWriteIndex] = c;
    1736:	2700      	movs	r7, #0
void data(uint8_t d, volatile Globals *OLEDGlobals)
{
	uint16_t toBuffer; //this number will be inserted into the buffer, at current buffer index. 
	toBuffer = d | (1 << 8); //this will be our "HIGH" message to the D/C pin
	OLEDGlobals->OLEDBuffer[OLEDGlobals->oledWriteIndex] = toBuffer;
	OLEDGlobals->oledWriteIndex = OLEDGlobals->oledWriteIndex + 1; //incriment write index. 
    1738:	f894 32fb 	ldrb.w	r3, [r4, #763]	; 0x2fb
    173c:	3301      	adds	r3, #1
    173e:	b2db      	uxtb	r3, r3
    1740:	f884 32fb 	strb.w	r3, [r4, #763]	; 0x2fb
}

void command(uint8_t c, volatile Globals *OLEDGlobals)
{
// since D/C pin is 0, we don't need to shift anything in. bit #8 is just a 0.
	OLEDGlobals->OLEDBuffer[OLEDGlobals->oledWriteIndex] = c;
    1744:	f894 32fb 	ldrb.w	r3, [r4, #763]	; 0x2fb
    1748:	337c      	adds	r3, #124	; 0x7c
    174a:	eb04 0343 	add.w	r3, r4, r3, lsl #1
    174e:	805e      	strh	r6, [r3, #2]
    1750:	2681      	movs	r6, #129	; 0x81
	OLEDGlobals->oledWriteIndex = OLEDGlobals->oledWriteIndex + 1; //incriment write index. 
    1752:	f894 32fb 	ldrb.w	r3, [r4, #763]	; 0x2fb
    1756:	3301      	adds	r3, #1
    1758:	b2db      	uxtb	r3, r3
    175a:	f884 32fb 	strb.w	r3, [r4, #763]	; 0x2fb
}

void command(uint8_t c, volatile Globals *OLEDGlobals)
{
// since D/C pin is 0, we don't need to shift anything in. bit #8 is just a 0.
	OLEDGlobals->OLEDBuffer[OLEDGlobals->oledWriteIndex] = c;
    175e:	f894 32fb 	ldrb.w	r3, [r4, #763]	; 0x2fb
    1762:	337c      	adds	r3, #124	; 0x7c
    1764:	eb04 0343 	add.w	r3, r4, r3, lsl #1
    1768:	805a      	strh	r2, [r3, #2]
    176a:	227f      	movs	r2, #127	; 0x7f
	OLEDGlobals->oledWriteIndex = OLEDGlobals->oledWriteIndex + 1; //incriment write index. 
    176c:	f894 32fb 	ldrb.w	r3, [r4, #763]	; 0x2fb
    1770:	3301      	adds	r3, #1
    1772:	b2db      	uxtb	r3, r3
    1774:	f884 32fb 	strb.w	r3, [r4, #763]	; 0x2fb
}

void command(uint8_t c, volatile Globals *OLEDGlobals)
{
// since D/C pin is 0, we don't need to shift anything in. bit #8 is just a 0.
	OLEDGlobals->OLEDBuffer[OLEDGlobals->oledWriteIndex] = c;
    1778:	f894 32fb 	ldrb.w	r3, [r4, #763]	; 0x2fb
    177c:	337c      	adds	r3, #124	; 0x7c
    177e:	eb04 0343 	add.w	r3, r4, r3, lsl #1
    1782:	8058      	strh	r0, [r3, #2]
    1784:	20d9      	movs	r0, #217	; 0xd9
	OLEDGlobals->oledWriteIndex = OLEDGlobals->oledWriteIndex + 1; //incriment write index. 
    1786:	f894 32fb 	ldrb.w	r3, [r4, #763]	; 0x2fb
    178a:	3301      	adds	r3, #1
    178c:	b2db      	uxtb	r3, r3
    178e:	f884 32fb 	strb.w	r3, [r4, #763]	; 0x2fb
}

void command(uint8_t c, volatile Globals *OLEDGlobals)
{
// since D/C pin is 0, we don't need to shift anything in. bit #8 is just a 0.
	OLEDGlobals->OLEDBuffer[OLEDGlobals->oledWriteIndex] = c;
    1792:	f894 32fb 	ldrb.w	r3, [r4, #763]	; 0x2fb
    1796:	337c      	adds	r3, #124	; 0x7c
    1798:	eb04 0343 	add.w	r3, r4, r3, lsl #1
    179c:	f8a3 e002 	strh.w	lr, [r3, #2]
    17a0:	f04f 0ef1 	mov.w	lr, #241	; 0xf1
	OLEDGlobals->oledWriteIndex = OLEDGlobals->oledWriteIndex + 1; //incriment write index. 
    17a4:	f894 32fb 	ldrb.w	r3, [r4, #763]	; 0x2fb
    17a8:	3301      	adds	r3, #1
    17aa:	b2db      	uxtb	r3, r3
    17ac:	f884 32fb 	strb.w	r3, [r4, #763]	; 0x2fb
}

void command(uint8_t c, volatile Globals *OLEDGlobals)
{
// since D/C pin is 0, we don't need to shift anything in. bit #8 is just a 0.
	OLEDGlobals->OLEDBuffer[OLEDGlobals->oledWriteIndex] = c;
    17b0:	f894 32fb 	ldrb.w	r3, [r4, #763]	; 0x2fb
    17b4:	337c      	adds	r3, #124	; 0x7c
    17b6:	eb04 0343 	add.w	r3, r4, r3, lsl #1
    17ba:	805f      	strh	r7, [r3, #2]
    17bc:	27db      	movs	r7, #219	; 0xdb
	OLEDGlobals->oledWriteIndex = OLEDGlobals->oledWriteIndex + 1; //incriment write index. 
    17be:	f894 32fb 	ldrb.w	r3, [r4, #763]	; 0x2fb
    17c2:	3301      	adds	r3, #1
    17c4:	b2db      	uxtb	r3, r3
    17c6:	f884 32fb 	strb.w	r3, [r4, #763]	; 0x2fb
}

void command(uint8_t c, volatile Globals *OLEDGlobals)
{
// since D/C pin is 0, we don't need to shift anything in. bit #8 is just a 0.
	OLEDGlobals->OLEDBuffer[OLEDGlobals->oledWriteIndex] = c;
    17ca:	f894 32fb 	ldrb.w	r3, [r4, #763]	; 0x2fb
    17ce:	337c      	adds	r3, #124	; 0x7c
    17d0:	eb04 0343 	add.w	r3, r4, r3, lsl #1
    17d4:	805e      	strh	r6, [r3, #2]
    17d6:	2640      	movs	r6, #64	; 0x40
	OLEDGlobals->oledWriteIndex = OLEDGlobals->oledWriteIndex + 1; //incriment write index. 
    17d8:	f894 32fb 	ldrb.w	r3, [r4, #763]	; 0x2fb
    17dc:	3301      	adds	r3, #1
    17de:	b2db      	uxtb	r3, r3
    17e0:	f884 32fb 	strb.w	r3, [r4, #763]	; 0x2fb
}

void command(uint8_t c, volatile Globals *OLEDGlobals)
{
// since D/C pin is 0, we don't need to shift anything in. bit #8 is just a 0.
	OLEDGlobals->OLEDBuffer[OLEDGlobals->oledWriteIndex] = c;
    17e4:	f894 32fb 	ldrb.w	r3, [r4, #763]	; 0x2fb
    17e8:	337c      	adds	r3, #124	; 0x7c
    17ea:	eb04 0343 	add.w	r3, r4, r3, lsl #1
    17ee:	805a      	strh	r2, [r3, #2]
    17f0:	2201      	movs	r2, #1
	OLEDGlobals->oledWriteIndex = OLEDGlobals->oledWriteIndex + 1; //incriment write index. 
    17f2:	f894 32fb 	ldrb.w	r3, [r4, #763]	; 0x2fb
    17f6:	4413      	add	r3, r2
    17f8:	b2db      	uxtb	r3, r3
    17fa:	f884 32fb 	strb.w	r3, [r4, #763]	; 0x2fb
}

void command(uint8_t c, volatile Globals *OLEDGlobals)
{
// since D/C pin is 0, we don't need to shift anything in. bit #8 is just a 0.
	OLEDGlobals->OLEDBuffer[OLEDGlobals->oledWriteIndex] = c;
    17fe:	f894 32fb 	ldrb.w	r3, [r4, #763]	; 0x2fb
    1802:	337c      	adds	r3, #124	; 0x7c
    1804:	eb04 0343 	add.w	r3, r4, r3, lsl #1
    1808:	8058      	strh	r0, [r3, #2]
	command(0x40, OLEDGlobals);        //  VCOMH deselect level=1 x Vcc (default: 0x20=0,77 x Vcc)
	command(0x78, OLEDGlobals);        // OLED characterization: OLED command set disabled (SD=0) (exit from OLED command set)
	command((0x20 | rows), OLEDGlobals); // Function set: fundamental command set (RE=0) (exit from extended command set), lines #
	command(0x01, OLEDGlobals);        // Clear display
	//_delay_ms(2);             // After a clear display, a minimum pause of 1-2 ms is required
	delay(2);
    180a:	2002      	movs	r0, #2

void command(uint8_t c, volatile Globals *OLEDGlobals)
{
// since D/C pin is 0, we don't need to shift anything in. bit #8 is just a 0.
	OLEDGlobals->OLEDBuffer[OLEDGlobals->oledWriteIndex] = c;
	OLEDGlobals->oledWriteIndex = OLEDGlobals->oledWriteIndex + 1; //incriment write index. 
    180c:	f894 32fb 	ldrb.w	r3, [r4, #763]	; 0x2fb
    1810:	4413      	add	r3, r2
    1812:	b2db      	uxtb	r3, r3
    1814:	f884 32fb 	strb.w	r3, [r4, #763]	; 0x2fb
}

void command(uint8_t c, volatile Globals *OLEDGlobals)
{
// since D/C pin is 0, we don't need to shift anything in. bit #8 is just a 0.
	OLEDGlobals->OLEDBuffer[OLEDGlobals->oledWriteIndex] = c;
    1818:	f894 32fb 	ldrb.w	r3, [r4, #763]	; 0x2fb
    181c:	337c      	adds	r3, #124	; 0x7c
    181e:	eb04 0343 	add.w	r3, r4, r3, lsl #1
    1822:	f8a3 e002 	strh.w	lr, [r3, #2]
	OLEDGlobals->oledWriteIndex = OLEDGlobals->oledWriteIndex + 1; //incriment write index. 
    1826:	f894 32fb 	ldrb.w	r3, [r4, #763]	; 0x2fb
    182a:	4413      	add	r3, r2
    182c:	b2db      	uxtb	r3, r3
    182e:	f884 32fb 	strb.w	r3, [r4, #763]	; 0x2fb
}

void command(uint8_t c, volatile Globals *OLEDGlobals)
{
// since D/C pin is 0, we don't need to shift anything in. bit #8 is just a 0.
	OLEDGlobals->OLEDBuffer[OLEDGlobals->oledWriteIndex] = c;
    1832:	f894 32fb 	ldrb.w	r3, [r4, #763]	; 0x2fb
    1836:	337c      	adds	r3, #124	; 0x7c
    1838:	eb04 0343 	add.w	r3, r4, r3, lsl #1
    183c:	805f      	strh	r7, [r3, #2]
	OLEDGlobals->oledWriteIndex = OLEDGlobals->oledWriteIndex + 1; //incriment write index. 
    183e:	f894 32fb 	ldrb.w	r3, [r4, #763]	; 0x2fb
    1842:	4413      	add	r3, r2
    1844:	b2db      	uxtb	r3, r3
    1846:	f884 32fb 	strb.w	r3, [r4, #763]	; 0x2fb
}

void command(uint8_t c, volatile Globals *OLEDGlobals)
{
// since D/C pin is 0, we don't need to shift anything in. bit #8 is just a 0.
	OLEDGlobals->OLEDBuffer[OLEDGlobals->oledWriteIndex] = c;
    184a:	f894 32fb 	ldrb.w	r3, [r4, #763]	; 0x2fb
    184e:	337c      	adds	r3, #124	; 0x7c
    1850:	eb04 0343 	add.w	r3, r4, r3, lsl #1
    1854:	805e      	strh	r6, [r3, #2]
	OLEDGlobals->oledWriteIndex = OLEDGlobals->oledWriteIndex + 1; //incriment write index. 
    1856:	f894 32fb 	ldrb.w	r3, [r4, #763]	; 0x2fb
    185a:	4413      	add	r3, r2
    185c:	b2db      	uxtb	r3, r3
    185e:	f884 32fb 	strb.w	r3, [r4, #763]	; 0x2fb
}

void command(uint8_t c, volatile Globals *OLEDGlobals)
{
// since D/C pin is 0, we don't need to shift anything in. bit #8 is just a 0.
	OLEDGlobals->OLEDBuffer[OLEDGlobals->oledWriteIndex] = c;
    1862:	f894 32fb 	ldrb.w	r3, [r4, #763]	; 0x2fb
    1866:	337c      	adds	r3, #124	; 0x7c
    1868:	eb04 0343 	add.w	r3, r4, r3, lsl #1
    186c:	805d      	strh	r5, [r3, #2]
	OLEDGlobals->oledWriteIndex = OLEDGlobals->oledWriteIndex + 1; //incriment write index. 
    186e:	f894 32fb 	ldrb.w	r3, [r4, #763]	; 0x2fb
    1872:	4413      	add	r3, r2
    1874:	b2db      	uxtb	r3, r3
    1876:	f884 32fb 	strb.w	r3, [r4, #763]	; 0x2fb
}

void command(uint8_t c, volatile Globals *OLEDGlobals)
{
// since D/C pin is 0, we don't need to shift anything in. bit #8 is just a 0.
	OLEDGlobals->OLEDBuffer[OLEDGlobals->oledWriteIndex] = c;
    187a:	f894 32fb 	ldrb.w	r3, [r4, #763]	; 0x2fb
    187e:	337c      	adds	r3, #124	; 0x7c
    1880:	eb04 0343 	add.w	r3, r4, r3, lsl #1
    1884:	8059      	strh	r1, [r3, #2]
	OLEDGlobals->oledWriteIndex = OLEDGlobals->oledWriteIndex + 1; //incriment write index. 
    1886:	f894 32fb 	ldrb.w	r3, [r4, #763]	; 0x2fb
    188a:	4413      	add	r3, r2
    188c:	b2db      	uxtb	r3, r3
    188e:	f884 32fb 	strb.w	r3, [r4, #763]	; 0x2fb
}

void command(uint8_t c, volatile Globals *OLEDGlobals)
{
// since D/C pin is 0, we don't need to shift anything in. bit #8 is just a 0.
	OLEDGlobals->OLEDBuffer[OLEDGlobals->oledWriteIndex] = c;
    1892:	f894 32fb 	ldrb.w	r3, [r4, #763]	; 0x2fb
    1896:	337c      	adds	r3, #124	; 0x7c
    1898:	eb04 0343 	add.w	r3, r4, r3, lsl #1
    189c:	805a      	strh	r2, [r3, #2]
	OLEDGlobals->oledWriteIndex = OLEDGlobals->oledWriteIndex + 1; //incriment write index. 
    189e:	f894 32fb 	ldrb.w	r3, [r4, #763]	; 0x2fb
    18a2:	4413      	add	r3, r2
    18a4:	b2db      	uxtb	r3, r3
    18a6:	f884 32fb 	strb.w	r3, [r4, #763]	; 0x2fb
	command(0x40, OLEDGlobals);        //  VCOMH deselect level=1 x Vcc (default: 0x20=0,77 x Vcc)
	command(0x78, OLEDGlobals);        // OLED characterization: OLED command set disabled (SD=0) (exit from OLED command set)
	command((0x20 | rows), OLEDGlobals); // Function set: fundamental command set (RE=0) (exit from extended command set), lines #
	command(0x01, OLEDGlobals);        // Clear display
	//_delay_ms(2);             // After a clear display, a minimum pause of 1-2 ms is required
	delay(2);
    18aa:	f001 ff6d 	bl	3788 <delay>
}

void command(uint8_t c, volatile Globals *OLEDGlobals)
{
// since D/C pin is 0, we don't need to shift anything in. bit #8 is just a 0.
	OLEDGlobals->OLEDBuffer[OLEDGlobals->oledWriteIndex] = c;
    18ae:	f894 32fb 	ldrb.w	r3, [r4, #763]	; 0x2fb
    18b2:	2180      	movs	r1, #128	; 0x80
    18b4:	220c      	movs	r2, #12
    18b6:	337c      	adds	r3, #124	; 0x7c
	//_delay_ms(2);             // After a clear display, a minimum pause of 1-2 ms is required
	delay(2);
	command(0x80, OLEDGlobals);        // Set DDRAM address 0x00 in address counter (cursor home) (default value)
	command(0x0C, OLEDGlobals);        // Display ON/OFF control: display ON, cursor off, blink off
	//_delay_ms(250);           // Waits 250 ms for stabilization purpose after display on
	delay(250);
    18b8:	20fa      	movs	r0, #250	; 0xfa
}

void command(uint8_t c, volatile Globals *OLEDGlobals)
{
// since D/C pin is 0, we don't need to shift anything in. bit #8 is just a 0.
	OLEDGlobals->OLEDBuffer[OLEDGlobals->oledWriteIndex] = c;
    18ba:	eb04 0343 	add.w	r3, r4, r3, lsl #1
    18be:	8059      	strh	r1, [r3, #2]
	OLEDGlobals->oledWriteIndex = OLEDGlobals->oledWriteIndex + 1; //incriment write index. 
    18c0:	f894 32fb 	ldrb.w	r3, [r4, #763]	; 0x2fb
    18c4:	3301      	adds	r3, #1
    18c6:	b2db      	uxtb	r3, r3
    18c8:	f884 32fb 	strb.w	r3, [r4, #763]	; 0x2fb
}

void command(uint8_t c, volatile Globals *OLEDGlobals)
{
// since D/C pin is 0, we don't need to shift anything in. bit #8 is just a 0.
	OLEDGlobals->OLEDBuffer[OLEDGlobals->oledWriteIndex] = c;
    18cc:	f894 32fb 	ldrb.w	r3, [r4, #763]	; 0x2fb
    18d0:	337c      	adds	r3, #124	; 0x7c
    18d2:	eb04 0343 	add.w	r3, r4, r3, lsl #1
    18d6:	805a      	strh	r2, [r3, #2]
	OLEDGlobals->oledWriteIndex = OLEDGlobals->oledWriteIndex + 1; //incriment write index. 
    18d8:	f894 32fb 	ldrb.w	r3, [r4, #763]	; 0x2fb
    18dc:	3301      	adds	r3, #1
    18de:	b2db      	uxtb	r3, r3
    18e0:	f884 32fb 	strb.w	r3, [r4, #763]	; 0x2fb
	command(0x80, OLEDGlobals);        // Set DDRAM address 0x00 in address counter (cursor home) (default value)
	command(0x0C, OLEDGlobals);        // Display ON/OFF control: display ON, cursor off, blink off
	//_delay_ms(250);           // Waits 250 ms for stabilization purpose after display on
	delay(250);

}
    18e4:	e8bd 40f8 	ldmia.w	sp!, {r3, r4, r5, r6, r7, lr}
	//_delay_ms(2);             // After a clear display, a minimum pause of 1-2 ms is required
	delay(2);
	command(0x80, OLEDGlobals);        // Set DDRAM address 0x00 in address counter (cursor home) (default value)
	command(0x0C, OLEDGlobals);        // Display ON/OFF control: display ON, cursor off, blink off
	//_delay_ms(250);           // Waits 250 ms for stabilization purpose after display on
	delay(250);
    18e8:	f001 bf4e 	b.w	3788 <delay>

000018ec <outputS(char volatile*, int, Globals volatile*)>:
}

void command(uint8_t c, volatile Globals *OLEDGlobals)
{
// since D/C pin is 0, we don't need to shift anything in. bit #8 is just a 0.
	OLEDGlobals->OLEDBuffer[OLEDGlobals->oledWriteIndex] = c;
    18ec:	f892 32fb 	ldrb.w	r3, [r2, #763]	; 0x2fb
void outputS(volatile char* lineIn, int row, volatile Globals* OLEDGlobals)
{
	uint8_t r = row;
	uint8_t c = 0;

	command(new_line[r], OLEDGlobals);
    18f0:	b2c9      	uxtb	r1, r1
		data(lineIn[c],OLEDGlobals);
	}
}
//overloaded method with volatile keyword. 
void outputS(volatile char* lineIn, int row, volatile Globals* OLEDGlobals)
{
    18f2:	b410      	push	{r4}
}

void command(uint8_t c, volatile Globals *OLEDGlobals)
{
// since D/C pin is 0, we don't need to shift anything in. bit #8 is just a 0.
	OLEDGlobals->OLEDBuffer[OLEDGlobals->oledWriteIndex] = c;
    18f4:	337c      	adds	r3, #124	; 0x7c
void outputS(volatile char* lineIn, int row, volatile Globals* OLEDGlobals)
{
	uint8_t r = row;
	uint8_t c = 0;

	command(new_line[r], OLEDGlobals);
    18f6:	4c12      	ldr	r4, [pc, #72]	; (1940 <outputS(char volatile*, int, Globals volatile*)+0x54>)
}

void command(uint8_t c, volatile Globals *OLEDGlobals)
{
// since D/C pin is 0, we don't need to shift anything in. bit #8 is just a 0.
	OLEDGlobals->OLEDBuffer[OLEDGlobals->oledWriteIndex] = c;
    18f8:	eb02 0343 	add.w	r3, r2, r3, lsl #1
    18fc:	5c61      	ldrb	r1, [r4, r1]
    18fe:	f100 0414 	add.w	r4, r0, #20
    1902:	8059      	strh	r1, [r3, #2]
	OLEDGlobals->oledWriteIndex = OLEDGlobals->oledWriteIndex + 1; //incriment write index. 
    1904:	f892 32fb 	ldrb.w	r3, [r2, #763]	; 0x2fb
    1908:	3301      	adds	r3, #1
    190a:	b2db      	uxtb	r3, r3
    190c:	f882 32fb 	strb.w	r3, [r2, #763]	; 0x2fb

	command(new_line[r], OLEDGlobals);
	//20, because our display is 20x4.
	for (c = 0; c < 20; c++)
	{
		data(lineIn[c], OLEDGlobals);
    1910:	f810 1b01 	ldrb.w	r1, [r0], #1

void data(uint8_t d, volatile Globals *OLEDGlobals)
{
	uint16_t toBuffer; //this number will be inserted into the buffer, at current buffer index. 
	toBuffer = d | (1 << 8); //this will be our "HIGH" message to the D/C pin
	OLEDGlobals->OLEDBuffer[OLEDGlobals->oledWriteIndex] = toBuffer;
    1914:	f892 32fb 	ldrb.w	r3, [r2, #763]	; 0x2fb
}

void data(uint8_t d, volatile Globals *OLEDGlobals)
{
	uint16_t toBuffer; //this number will be inserted into the buffer, at current buffer index. 
	toBuffer = d | (1 << 8); //this will be our "HIGH" message to the D/C pin
    1918:	f441 7180 	orr.w	r1, r1, #256	; 0x100
	uint8_t r = row;
	uint8_t c = 0;

	command(new_line[r], OLEDGlobals);
	//20, because our display is 20x4.
	for (c = 0; c < 20; c++)
    191c:	42a0      	cmp	r0, r4

void data(uint8_t d, volatile Globals *OLEDGlobals)
{
	uint16_t toBuffer; //this number will be inserted into the buffer, at current buffer index. 
	toBuffer = d | (1 << 8); //this will be our "HIGH" message to the D/C pin
	OLEDGlobals->OLEDBuffer[OLEDGlobals->oledWriteIndex] = toBuffer;
    191e:	f103 037c 	add.w	r3, r3, #124	; 0x7c
    1922:	eb02 0343 	add.w	r3, r2, r3, lsl #1
    1926:	8059      	strh	r1, [r3, #2]
	OLEDGlobals->oledWriteIndex = OLEDGlobals->oledWriteIndex + 1; //incriment write index. 
    1928:	f892 32fb 	ldrb.w	r3, [r2, #763]	; 0x2fb
    192c:	f103 0301 	add.w	r3, r3, #1
    1930:	b2db      	uxtb	r3, r3
    1932:	f882 32fb 	strb.w	r3, [r2, #763]	; 0x2fb
	uint8_t r = row;
	uint8_t c = 0;

	command(new_line[r], OLEDGlobals);
	//20, because our display is 20x4.
	for (c = 0; c < 20; c++)
    1936:	d1eb      	bne.n	1910 <outputS(char volatile*, int, Globals volatile*)+0x24>
	{
		data(lineIn[c], OLEDGlobals);
	}
}
    1938:	f85d 4b04 	ldr.w	r4, [sp], #4
    193c:	4770      	bx	lr
    193e:	bf00      	nop
    1940:	200006a0 	.word	0x200006a0

00001944 <numPrinter(char volatile*, unsigned char, unsigned char, unsigned short)>:
	uint8_t tensPlace = 0;
	uint8_t hunderedsPlace = 0;
	uint8_t thousandsPlace = 0;
	uint8_t tenThousandsPlace = 0;

	switch (numCharacters)
    1944:	3a01      	subs	r2, #1


}
//overloaded function with volatile keyword. 
void numPrinter(volatile char* charArray, uint8_t startingPos, uint8_t numCharacters, uint16_t inputNumber)
{
    1946:	e92d 43f0 	stmdb	sp!, {r4, r5, r6, r7, r8, r9, lr}
	uint8_t tensPlace = 0;
	uint8_t hunderedsPlace = 0;
	uint8_t thousandsPlace = 0;
	uint8_t tenThousandsPlace = 0;

	switch (numCharacters)
    194a:	2a04      	cmp	r2, #4
    194c:	d848      	bhi.n	19e0 <numPrinter(char volatile*, unsigned char, unsigned char, unsigned short)+0x9c>
    194e:	e8df f002 	tbb	[pc, r2]
    1952:	887b      	.short	0x887b
    1954:	4999      	.short	0x4999
    1956:	03          	.byte	0x03
    1957:	00          	.byte	0x00
		charArray[startingPos] = thousandsPlace;
		break;

	case 5:
		onesPlace = (inputNumber % 10) + 48; //this should be a value between 1 and 10.
		tensPlace = ((inputNumber % 100) / 10) + 48;
    1958:	f8df e174 	ldr.w	lr, [pc, #372]	; 1ad0 <numPrinter(char volatile*, unsigned char, unsigned char, unsigned short)+0x18c>
    195c:	f04f 0864 	mov.w	r8, #100	; 0x64
		hunderedsPlace = ((inputNumber % 1000) / 100) + 48;
    1960:	4e59      	ldr	r6, [pc, #356]	; (1ac8 <numPrinter(char volatile*, unsigned char, unsigned char, unsigned short)+0x184>)
    1962:	f44f 727a 	mov.w	r2, #1000	; 0x3e8
		charArray[startingPos] = thousandsPlace;
		break;

	case 5:
		onesPlace = (inputNumber % 10) + 48; //this should be a value between 1 and 10.
		tensPlace = ((inputNumber % 100) / 10) + 48;
    1966:	fbae 4703 	umull	r4, r7, lr, r3
		hunderedsPlace = ((inputNumber % 1000) / 100) + 48;
		thousandsPlace = ((inputNumber % 10000) / 1000) + 48;
    196a:	4d58      	ldr	r5, [pc, #352]	; (1acc <numPrinter(char volatile*, unsigned char, unsigned char, unsigned short)+0x188>)
		break;

	case 5:
		onesPlace = (inputNumber % 10) + 48; //this should be a value between 1 and 10.
		tensPlace = ((inputNumber % 100) / 10) + 48;
		hunderedsPlace = ((inputNumber % 1000) / 100) + 48;
    196c:	fba6 c403 	umull	ip, r4, r6, r3
		thousandsPlace = ((inputNumber % 10000) / 1000) + 48;
    1970:	fba5 c503 	umull	ip, r5, r5, r3
		charArray[startingPos] = thousandsPlace;
		break;

	case 5:
		onesPlace = (inputNumber % 10) + 48; //this should be a value between 1 and 10.
		tensPlace = ((inputNumber % 100) / 10) + 48;
    1974:	097f      	lsrs	r7, r7, #5
		charArray[(startingPos + 1)] = hunderedsPlace;
		charArray[startingPos] = thousandsPlace;
		break;

	case 5:
		onesPlace = (inputNumber % 10) + 48; //this should be a value between 1 and 10.
    1976:	f8df c15c 	ldr.w	ip, [pc, #348]	; 1ad4 <numPrinter(char volatile*, unsigned char, unsigned char, unsigned short)+0x190>
		tensPlace = ((inputNumber % 100) / 10) + 48;
		hunderedsPlace = ((inputNumber % 1000) / 100) + 48;
    197a:	09a4      	lsrs	r4, r4, #6
		charArray[startingPos] = thousandsPlace;
		break;

	case 5:
		onesPlace = (inputNumber % 10) + 48; //this should be a value between 1 and 10.
		tensPlace = ((inputNumber % 100) / 10) + 48;
    197c:	fb08 3717 	mls	r7, r8, r7, r3
		hunderedsPlace = ((inputNumber % 1000) / 100) + 48;
		thousandsPlace = ((inputNumber % 10000) / 1000) + 48;
    1980:	0b6d      	lsrs	r5, r5, #13
		charArray[(startingPos + 1)] = hunderedsPlace;
		charArray[startingPos] = thousandsPlace;
		break;

	case 5:
		onesPlace = (inputNumber % 10) + 48; //this should be a value between 1 and 10.
    1982:	fbac 9803 	umull	r9, r8, ip, r3
		tensPlace = ((inputNumber % 100) / 10) + 48;
		hunderedsPlace = ((inputNumber % 1000) / 100) + 48;
    1986:	fb02 3214 	mls	r2, r2, r4, r3
		thousandsPlace = ((inputNumber % 10000) / 1000) + 48;
    198a:	f242 7410 	movw	r4, #10000	; 0x2710
		charArray[(startingPos + 1)] = hunderedsPlace;
		charArray[startingPos] = thousandsPlace;
		break;

	case 5:
		onesPlace = (inputNumber % 10) + 48; //this should be a value between 1 and 10.
    198e:	ea4f 08d8 	mov.w	r8, r8, lsr #3
		tensPlace = ((inputNumber % 100) / 10) + 48;
		hunderedsPlace = ((inputNumber % 1000) / 100) + 48;
		thousandsPlace = ((inputNumber % 10000) / 1000) + 48;
    1992:	fb04 3415 	mls	r4, r4, r5, r3
		charArray[startingPos] = thousandsPlace;
		break;

	case 5:
		onesPlace = (inputNumber % 10) + 48; //this should be a value between 1 and 10.
		tensPlace = ((inputNumber % 100) / 10) + 48;
    1996:	b2bf      	uxth	r7, r7
		hunderedsPlace = ((inputNumber % 1000) / 100) + 48;
    1998:	b292      	uxth	r2, r2
		thousandsPlace = ((inputNumber % 10000) / 1000) + 48;
		tenThousandsPlace = (inputNumber / 10000) + 48;
    199a:	3530      	adds	r5, #48	; 0x30
		charArray[(startingPos + 1)] = hunderedsPlace;
		charArray[startingPos] = thousandsPlace;
		break;

	case 5:
		onesPlace = (inputNumber % 10) + 48; //this should be a value between 1 and 10.
    199c:	eb08 0888 	add.w	r8, r8, r8, lsl #2
		tensPlace = ((inputNumber % 100) / 10) + 48;
    19a0:	fbac c707 	umull	ip, r7, ip, r7
		hunderedsPlace = ((inputNumber % 1000) / 100) + 48;
    19a4:	fbae e202 	umull	lr, r2, lr, r2
		thousandsPlace = ((inputNumber % 10000) / 1000) + 48;
    19a8:	b2a4      	uxth	r4, r4
		charArray[(startingPos + 1)] = hunderedsPlace;
		charArray[startingPos] = thousandsPlace;
		break;

	case 5:
		onesPlace = (inputNumber % 10) + 48; //this should be a value between 1 and 10.
    19aa:	eba3 0348 	sub.w	r3, r3, r8, lsl #1
		tensPlace = ((inputNumber % 100) / 10) + 48;
		hunderedsPlace = ((inputNumber % 1000) / 100) + 48;
		thousandsPlace = ((inputNumber % 10000) / 1000) + 48;
		tenThousandsPlace = (inputNumber / 10000) + 48;
		charArray[(startingPos + 4)] = onesPlace;
		charArray[(startingPos + 3)] = tensPlace;
    19ae:	f101 0c03 	add.w	ip, r1, #3

	case 5:
		onesPlace = (inputNumber % 10) + 48; //this should be a value between 1 and 10.
		tensPlace = ((inputNumber % 100) / 10) + 48;
		hunderedsPlace = ((inputNumber % 1000) / 100) + 48;
		thousandsPlace = ((inputNumber % 10000) / 1000) + 48;
    19b2:	fba6 6404 	umull	r6, r4, r6, r4
		break;

	case 5:
		onesPlace = (inputNumber % 10) + 48; //this should be a value between 1 and 10.
		tensPlace = ((inputNumber % 100) / 10) + 48;
		hunderedsPlace = ((inputNumber % 1000) / 100) + 48;
    19b6:	0952      	lsrs	r2, r2, #5
		charArray[startingPos] = thousandsPlace;
		break;

	case 5:
		onesPlace = (inputNumber % 10) + 48; //this should be a value between 1 and 10.
		tensPlace = ((inputNumber % 100) / 10) + 48;
    19b8:	08ff      	lsrs	r7, r7, #3
		charArray[(startingPos + 1)] = hunderedsPlace;
		charArray[startingPos] = thousandsPlace;
		break;

	case 5:
		onesPlace = (inputNumber % 10) + 48; //this should be a value between 1 and 10.
    19ba:	3330      	adds	r3, #48	; 0x30
		tensPlace = ((inputNumber % 100) / 10) + 48;
		hunderedsPlace = ((inputNumber % 1000) / 100) + 48;
		thousandsPlace = ((inputNumber % 10000) / 1000) + 48;
		tenThousandsPlace = (inputNumber / 10000) + 48;
		charArray[(startingPos + 4)] = onesPlace;
    19bc:	1d0e      	adds	r6, r1, #4
		break;

	case 5:
		onesPlace = (inputNumber % 10) + 48; //this should be a value between 1 and 10.
		tensPlace = ((inputNumber % 100) / 10) + 48;
		hunderedsPlace = ((inputNumber % 1000) / 100) + 48;
    19be:	3230      	adds	r2, #48	; 0x30
		charArray[(startingPos + 1)] = hunderedsPlace;
		charArray[startingPos] = thousandsPlace;
		break;

	case 5:
		onesPlace = (inputNumber % 10) + 48; //this should be a value between 1 and 10.
    19c0:	b2db      	uxtb	r3, r3
		tensPlace = ((inputNumber % 100) / 10) + 48;
    19c2:	3730      	adds	r7, #48	; 0x30
		hunderedsPlace = ((inputNumber % 1000) / 100) + 48;
		thousandsPlace = ((inputNumber % 10000) / 1000) + 48;
    19c4:	09a4      	lsrs	r4, r4, #6
		tenThousandsPlace = (inputNumber / 10000) + 48;
		charArray[(startingPos + 4)] = onesPlace;
		charArray[(startingPos + 3)] = tensPlace;
		charArray[(startingPos + 2)] = hunderedsPlace;
    19c6:	f101 0e02 	add.w	lr, r1, #2
		onesPlace = (inputNumber % 10) + 48; //this should be a value between 1 and 10.
		tensPlace = ((inputNumber % 100) / 10) + 48;
		hunderedsPlace = ((inputNumber % 1000) / 100) + 48;
		thousandsPlace = ((inputNumber % 10000) / 1000) + 48;
		tenThousandsPlace = (inputNumber / 10000) + 48;
		charArray[(startingPos + 4)] = onesPlace;
    19ca:	5583      	strb	r3, [r0, r6]
		break;

	case 5:
		onesPlace = (inputNumber % 10) + 48; //this should be a value between 1 and 10.
		tensPlace = ((inputNumber % 100) / 10) + 48;
		hunderedsPlace = ((inputNumber % 1000) / 100) + 48;
    19cc:	b2d2      	uxtb	r2, r2
		charArray[startingPos] = thousandsPlace;
		break;

	case 5:
		onesPlace = (inputNumber % 10) + 48; //this should be a value between 1 and 10.
		tensPlace = ((inputNumber % 100) / 10) + 48;
    19ce:	b2ff      	uxtb	r7, r7
		hunderedsPlace = ((inputNumber % 1000) / 100) + 48;
		thousandsPlace = ((inputNumber % 10000) / 1000) + 48;
    19d0:	3430      	adds	r4, #48	; 0x30
		tenThousandsPlace = (inputNumber / 10000) + 48;
		charArray[(startingPos + 4)] = onesPlace;
		charArray[(startingPos + 3)] = tensPlace;
		charArray[(startingPos + 2)] = hunderedsPlace;
		charArray[(startingPos + 1)] = thousandsPlace;
    19d2:	1c4b      	adds	r3, r1, #1
		tensPlace = ((inputNumber % 100) / 10) + 48;
		hunderedsPlace = ((inputNumber % 1000) / 100) + 48;
		thousandsPlace = ((inputNumber % 10000) / 1000) + 48;
		tenThousandsPlace = (inputNumber / 10000) + 48;
		charArray[(startingPos + 4)] = onesPlace;
		charArray[(startingPos + 3)] = tensPlace;
    19d4:	f800 700c 	strb.w	r7, [r0, ip]
		charArray[(startingPos + 2)] = hunderedsPlace;
    19d8:	f800 200e 	strb.w	r2, [r0, lr]
		charArray[(startingPos + 1)] = thousandsPlace;
    19dc:	54c4      	strb	r4, [r0, r3]
		charArray[startingPos] = tenThousandsPlace;
    19de:	5445      	strb	r5, [r0, r1]
    19e0:	e8bd 83f0 	ldmia.w	sp!, {r4, r5, r6, r7, r8, r9, pc}
		charArray[startingPos] = hunderedsPlace;
		break;

	case 4:
		onesPlace = (inputNumber % 10) + 48; //this should be a value between 1 and 10.
		tensPlace = ((inputNumber % 100) / 10) + 48;
    19e4:	4f3a      	ldr	r7, [pc, #232]	; (1ad0 <numPrinter(char volatile*, unsigned char, unsigned char, unsigned short)+0x18c>)
		hunderedsPlace = ((inputNumber % 1000) / 100) + 48;
    19e6:	f44f 767a 	mov.w	r6, #1000	; 0x3e8
    19ea:	4d37      	ldr	r5, [pc, #220]	; (1ac8 <numPrinter(char volatile*, unsigned char, unsigned char, unsigned short)+0x184>)
		charArray[startingPos] = hunderedsPlace;
		break;

	case 4:
		onesPlace = (inputNumber % 10) + 48; //this should be a value between 1 and 10.
		tensPlace = ((inputNumber % 100) / 10) + 48;
    19ec:	2264      	movs	r2, #100	; 0x64
    19ee:	fba7 e403 	umull	lr, r4, r7, r3
		hunderedsPlace = ((inputNumber % 1000) / 100) + 48;
    19f2:	fba5 e503 	umull	lr, r5, r5, r3
		charArray[(startingPos + 1)] = tensPlace;
		charArray[startingPos] = hunderedsPlace;
		break;

	case 4:
		onesPlace = (inputNumber % 10) + 48; //this should be a value between 1 and 10.
    19f6:	f8df e0dc 	ldr.w	lr, [pc, #220]	; 1ad4 <numPrinter(char volatile*, unsigned char, unsigned char, unsigned short)+0x190>
		tensPlace = ((inputNumber % 100) / 10) + 48;
    19fa:	0964      	lsrs	r4, r4, #5
		hunderedsPlace = ((inputNumber % 1000) / 100) + 48;
    19fc:	09ad      	lsrs	r5, r5, #6
		charArray[startingPos] = hunderedsPlace;
		break;

	case 4:
		onesPlace = (inputNumber % 10) + 48; //this should be a value between 1 and 10.
		tensPlace = ((inputNumber % 100) / 10) + 48;
    19fe:	fb02 3214 	mls	r2, r2, r4, r3
		hunderedsPlace = ((inputNumber % 1000) / 100) + 48;
    1a02:	fb06 3415 	mls	r4, r6, r5, r3
		thousandsPlace = (inputNumber / 1000) + 48;
    1a06:	3530      	adds	r5, #48	; 0x30
		charArray[(startingPos + 1)] = tensPlace;
		charArray[startingPos] = hunderedsPlace;
		break;

	case 4:
		onesPlace = (inputNumber % 10) + 48; //this should be a value between 1 and 10.
    1a08:	fbae c603 	umull	ip, r6, lr, r3
		tensPlace = ((inputNumber % 100) / 10) + 48;
    1a0c:	b292      	uxth	r2, r2
		hunderedsPlace = ((inputNumber % 1000) / 100) + 48;
    1a0e:	b2a4      	uxth	r4, r4
		charArray[(startingPos + 1)] = tensPlace;
		charArray[startingPos] = hunderedsPlace;
		break;

	case 4:
		onesPlace = (inputNumber % 10) + 48; //this should be a value between 1 and 10.
    1a10:	08f6      	lsrs	r6, r6, #3
		tensPlace = ((inputNumber % 100) / 10) + 48;
    1a12:	fbae e202 	umull	lr, r2, lr, r2
		hunderedsPlace = ((inputNumber % 1000) / 100) + 48;
    1a16:	fba7 7404 	umull	r7, r4, r7, r4
		thousandsPlace = (inputNumber / 1000) + 48;
		charArray[(startingPos + 3)] = onesPlace;
		charArray[(startingPos + 2)] = tensPlace;
    1a1a:	f101 0e02 	add.w	lr, r1, #2
		charArray[(startingPos + 1)] = tensPlace;
		charArray[startingPos] = hunderedsPlace;
		break;

	case 4:
		onesPlace = (inputNumber % 10) + 48; //this should be a value between 1 and 10.
    1a1e:	eb06 0686 	add.w	r6, r6, r6, lsl #2
		tensPlace = ((inputNumber % 100) / 10) + 48;
		hunderedsPlace = ((inputNumber % 1000) / 100) + 48;
		thousandsPlace = (inputNumber / 1000) + 48;
		charArray[(startingPos + 3)] = onesPlace;
    1a22:	1ccf      	adds	r7, r1, #3
		break;

	case 4:
		onesPlace = (inputNumber % 10) + 48; //this should be a value between 1 and 10.
		tensPlace = ((inputNumber % 100) / 10) + 48;
		hunderedsPlace = ((inputNumber % 1000) / 100) + 48;
    1a24:	0964      	lsrs	r4, r4, #5
		charArray[(startingPos + 1)] = tensPlace;
		charArray[startingPos] = hunderedsPlace;
		break;

	case 4:
		onesPlace = (inputNumber % 10) + 48; //this should be a value between 1 and 10.
    1a26:	eba3 0346 	sub.w	r3, r3, r6, lsl #1
		tensPlace = ((inputNumber % 100) / 10) + 48;
		hunderedsPlace = ((inputNumber % 1000) / 100) + 48;
		thousandsPlace = (inputNumber / 1000) + 48;
		charArray[(startingPos + 3)] = onesPlace;
		charArray[(startingPos + 2)] = tensPlace;
		charArray[(startingPos + 1)] = hunderedsPlace;
    1a2a:	1c4e      	adds	r6, r1, #1
		charArray[startingPos] = hunderedsPlace;
		break;

	case 4:
		onesPlace = (inputNumber % 10) + 48; //this should be a value between 1 and 10.
		tensPlace = ((inputNumber % 100) / 10) + 48;
    1a2c:	08d2      	lsrs	r2, r2, #3
		hunderedsPlace = ((inputNumber % 1000) / 100) + 48;
    1a2e:	3430      	adds	r4, #48	; 0x30
		charArray[(startingPos + 1)] = tensPlace;
		charArray[startingPos] = hunderedsPlace;
		break;

	case 4:
		onesPlace = (inputNumber % 10) + 48; //this should be a value between 1 and 10.
    1a30:	3330      	adds	r3, #48	; 0x30
		tensPlace = ((inputNumber % 100) / 10) + 48;
    1a32:	3230      	adds	r2, #48	; 0x30
		hunderedsPlace = ((inputNumber % 1000) / 100) + 48;
    1a34:	b2e4      	uxtb	r4, r4
		charArray[(startingPos + 1)] = tensPlace;
		charArray[startingPos] = hunderedsPlace;
		break;

	case 4:
		onesPlace = (inputNumber % 10) + 48; //this should be a value between 1 and 10.
    1a36:	b2db      	uxtb	r3, r3
		tensPlace = ((inputNumber % 100) / 10) + 48;
    1a38:	b2d2      	uxtb	r2, r2
		hunderedsPlace = ((inputNumber % 1000) / 100) + 48;
		thousandsPlace = (inputNumber / 1000) + 48;
		charArray[(startingPos + 3)] = onesPlace;
    1a3a:	55c3      	strb	r3, [r0, r7]
		charArray[(startingPos + 2)] = tensPlace;
    1a3c:	f800 200e 	strb.w	r2, [r0, lr]
		charArray[(startingPos + 1)] = hunderedsPlace;
    1a40:	5584      	strb	r4, [r0, r6]
		charArray[startingPos] = thousandsPlace;
    1a42:	5445      	strb	r5, [r0, r1]
		break;
    1a44:	e8bd 83f0 	ldmia.w	sp!, {r4, r5, r6, r7, r8, r9, pc}
	{
	case 0:
		break;

	case 1:
		onesPlace = (inputNumber % 10) + 48; //this should be a value between 1 and 10.
    1a48:	4a22      	ldr	r2, [pc, #136]	; (1ad4 <numPrinter(char volatile*, unsigned char, unsigned char, unsigned short)+0x190>)
    1a4a:	fba2 4203 	umull	r4, r2, r2, r3
    1a4e:	08d2      	lsrs	r2, r2, #3
    1a50:	eb02 0282 	add.w	r2, r2, r2, lsl #2
    1a54:	eba3 0342 	sub.w	r3, r3, r2, lsl #1
    1a58:	3330      	adds	r3, #48	; 0x30
    1a5a:	b2db      	uxtb	r3, r3
		charArray[startingPos] = onesPlace;
    1a5c:	5443      	strb	r3, [r0, r1]
		break;
    1a5e:	e8bd 83f0 	ldmia.w	sp!, {r4, r5, r6, r7, r8, r9, pc}

	case 2:
		onesPlace = (inputNumber % 10) + 48; //this should be a value between 1 and 10.
    1a62:	4a1c      	ldr	r2, [pc, #112]	; (1ad4 <numPrinter(char volatile*, unsigned char, unsigned char, unsigned short)+0x190>)
		tensPlace = (inputNumber / 10) + 48;
		charArray[(startingPos + 1)] = onesPlace;
    1a64:	1c4d      	adds	r5, r1, #1
		onesPlace = (inputNumber % 10) + 48; //this should be a value between 1 and 10.
		charArray[startingPos] = onesPlace;
		break;

	case 2:
		onesPlace = (inputNumber % 10) + 48; //this should be a value between 1 and 10.
    1a66:	fba2 4203 	umull	r4, r2, r2, r3
    1a6a:	08d2      	lsrs	r2, r2, #3
    1a6c:	eb02 0482 	add.w	r4, r2, r2, lsl #2
		tensPlace = (inputNumber / 10) + 48;
    1a70:	3230      	adds	r2, #48	; 0x30
		onesPlace = (inputNumber % 10) + 48; //this should be a value between 1 and 10.
		charArray[startingPos] = onesPlace;
		break;

	case 2:
		onesPlace = (inputNumber % 10) + 48; //this should be a value between 1 and 10.
    1a72:	eba3 0344 	sub.w	r3, r3, r4, lsl #1
		tensPlace = (inputNumber / 10) + 48;
    1a76:	b2d2      	uxtb	r2, r2
		onesPlace = (inputNumber % 10) + 48; //this should be a value between 1 and 10.
		charArray[startingPos] = onesPlace;
		break;

	case 2:
		onesPlace = (inputNumber % 10) + 48; //this should be a value between 1 and 10.
    1a78:	3330      	adds	r3, #48	; 0x30
    1a7a:	b2db      	uxtb	r3, r3
		tensPlace = (inputNumber / 10) + 48;
		charArray[(startingPos + 1)] = onesPlace;
    1a7c:	5543      	strb	r3, [r0, r5]
		charArray[startingPos] = tensPlace;
    1a7e:	5442      	strb	r2, [r0, r1]
		break;
    1a80:	e8bd 83f0 	ldmia.w	sp!, {r4, r5, r6, r7, r8, r9, pc}

	case 3:
		onesPlace = (inputNumber % 10) + 48; //this should be a value between 1 and 10.
		tensPlace = ((inputNumber % 100) / 10) + 48;
    1a84:	4f12      	ldr	r7, [pc, #72]	; (1ad0 <numPrinter(char volatile*, unsigned char, unsigned char, unsigned short)+0x18c>)
    1a86:	2264      	movs	r2, #100	; 0x64
		charArray[(startingPos + 1)] = onesPlace;
		charArray[startingPos] = tensPlace;
		break;

	case 3:
		onesPlace = (inputNumber % 10) + 48; //this should be a value between 1 and 10.
    1a88:	f8df e048 	ldr.w	lr, [pc, #72]	; 1ad4 <numPrinter(char volatile*, unsigned char, unsigned char, unsigned short)+0x190>
		tensPlace = ((inputNumber % 100) / 10) + 48;
		hunderedsPlace = (inputNumber / 100) + 48;
		charArray[(startingPos + 2)] = onesPlace;
    1a8c:	1c8e      	adds	r6, r1, #2
		charArray[startingPos] = tensPlace;
		break;

	case 3:
		onesPlace = (inputNumber % 10) + 48; //this should be a value between 1 and 10.
		tensPlace = ((inputNumber % 100) / 10) + 48;
    1a8e:	fba7 4703 	umull	r4, r7, r7, r3
		hunderedsPlace = (inputNumber / 100) + 48;
		charArray[(startingPos + 2)] = onesPlace;
		charArray[(startingPos + 1)] = tensPlace;
    1a92:	1c4d      	adds	r5, r1, #1
		charArray[(startingPos + 1)] = onesPlace;
		charArray[startingPos] = tensPlace;
		break;

	case 3:
		onesPlace = (inputNumber % 10) + 48; //this should be a value between 1 and 10.
    1a94:	fbae c403 	umull	ip, r4, lr, r3
		tensPlace = ((inputNumber % 100) / 10) + 48;
    1a98:	097f      	lsrs	r7, r7, #5
		charArray[(startingPos + 1)] = onesPlace;
		charArray[startingPos] = tensPlace;
		break;

	case 3:
		onesPlace = (inputNumber % 10) + 48; //this should be a value between 1 and 10.
    1a9a:	08e4      	lsrs	r4, r4, #3
		tensPlace = ((inputNumber % 100) / 10) + 48;
    1a9c:	fb02 3217 	mls	r2, r2, r7, r3
		hunderedsPlace = (inputNumber / 100) + 48;
    1aa0:	3730      	adds	r7, #48	; 0x30
		charArray[(startingPos + 1)] = onesPlace;
		charArray[startingPos] = tensPlace;
		break;

	case 3:
		onesPlace = (inputNumber % 10) + 48; //this should be a value between 1 and 10.
    1aa2:	eb04 0484 	add.w	r4, r4, r4, lsl #2
		tensPlace = ((inputNumber % 100) / 10) + 48;
    1aa6:	b292      	uxth	r2, r2
		charArray[(startingPos + 1)] = onesPlace;
		charArray[startingPos] = tensPlace;
		break;

	case 3:
		onesPlace = (inputNumber % 10) + 48; //this should be a value between 1 and 10.
    1aa8:	eba3 0344 	sub.w	r3, r3, r4, lsl #1
		tensPlace = ((inputNumber % 100) / 10) + 48;
    1aac:	fbae e202 	umull	lr, r2, lr, r2
		hunderedsPlace = (inputNumber / 100) + 48;
    1ab0:	b2ff      	uxtb	r7, r7
		charArray[(startingPos + 1)] = onesPlace;
		charArray[startingPos] = tensPlace;
		break;

	case 3:
		onesPlace = (inputNumber % 10) + 48; //this should be a value between 1 and 10.
    1ab2:	3330      	adds	r3, #48	; 0x30
		tensPlace = ((inputNumber % 100) / 10) + 48;
    1ab4:	08d2      	lsrs	r2, r2, #3
		charArray[(startingPos + 1)] = onesPlace;
		charArray[startingPos] = tensPlace;
		break;

	case 3:
		onesPlace = (inputNumber % 10) + 48; //this should be a value between 1 and 10.
    1ab6:	b2db      	uxtb	r3, r3
		tensPlace = ((inputNumber % 100) / 10) + 48;
    1ab8:	3230      	adds	r2, #48	; 0x30
		hunderedsPlace = (inputNumber / 100) + 48;
		charArray[(startingPos + 2)] = onesPlace;
    1aba:	5583      	strb	r3, [r0, r6]
		charArray[startingPos] = tensPlace;
		break;

	case 3:
		onesPlace = (inputNumber % 10) + 48; //this should be a value between 1 and 10.
		tensPlace = ((inputNumber % 100) / 10) + 48;
    1abc:	b2d2      	uxtb	r2, r2
		hunderedsPlace = (inputNumber / 100) + 48;
		charArray[(startingPos + 2)] = onesPlace;
		charArray[(startingPos + 1)] = tensPlace;
    1abe:	5542      	strb	r2, [r0, r5]
		charArray[startingPos] = hunderedsPlace;
    1ac0:	5447      	strb	r7, [r0, r1]
		break;
    1ac2:	e8bd 83f0 	ldmia.w	sp!, {r4, r5, r6, r7, r8, r9, pc}
    1ac6:	bf00      	nop
    1ac8:	10624dd3 	.word	0x10624dd3
    1acc:	d1b71759 	.word	0xd1b71759
    1ad0:	51eb851f 	.word	0x51eb851f
    1ad4:	cccccccd 	.word	0xcccccccd

00001ad8 <midiNotePrinter(char volatile*, unsigned char, unsigned char)>:
	char printSharp = 0;
	uint8_t valueSwitch = 0;
	//numbers will always go from B to C, and have 12 distinct values. 
	//we can get our number from this with division. 
	//midi note C0 starts at 12. So, we'll need to do some math there. 
	printNumber = (noteNumber / 12) + 47;
    1ad8:	4b0a      	ldr	r3, [pc, #40]	; (1b04 <midiNotePrinter(char volatile*, unsigned char, unsigned char)+0x2c>)


}

void midiNotePrinter(volatile char* charArray, uint8_t startingPosition, uint8_t noteNumber)
{
    1ada:	b5f0      	push	{r4, r5, r6, r7, lr}
	char printSharp = 0;
	uint8_t valueSwitch = 0;
	//numbers will always go from B to C, and have 12 distinct values. 
	//we can get our number from this with division. 
	//midi note C0 starts at 12. So, we'll need to do some math there. 
	printNumber = (noteNumber / 12) + 47;
    1adc:	fba3 4302 	umull	r4, r3, r3, r2
    1ae0:	4e09      	ldr	r6, [pc, #36]	; (1b08 <midiNotePrinter(char volatile*, unsigned char, unsigned char)+0x30>)
    1ae2:	4f0a      	ldr	r7, [pc, #40]	; (1b0c <midiNotePrinter(char volatile*, unsigned char, unsigned char)+0x34>)
		printSharp = ' ';
		break;

	}
	charArray[startingPosition] = printLetter;
	charArray[startingPosition + 1] = printSharp;
    1ae4:	1c4d      	adds	r5, r1, #1
	char printSharp = 0;
	uint8_t valueSwitch = 0;
	//numbers will always go from B to C, and have 12 distinct values. 
	//we can get our number from this with division. 
	//midi note C0 starts at 12. So, we'll need to do some math there. 
	printNumber = (noteNumber / 12) + 47;
    1ae6:	08db      	lsrs	r3, r3, #3
		break;

	}
	charArray[startingPosition] = printLetter;
	charArray[startingPosition + 1] = printSharp;
	charArray[startingPosition + 2] = printNumber;
    1ae8:	1c8c      	adds	r4, r1, #2
	//we can get our number from this with division. 
	//midi note C0 starts at 12. So, we'll need to do some math there. 
	printNumber = (noteNumber / 12) + 47;

	//theres a weird wrap around with note numbers here. Since there isn't really an easy math patern we can take advantage of. 
	valueSwitch = noteNumber % 12; //this should give us a value between 0 and 11. 
    1aea:	eb03 0e43 	add.w	lr, r3, r3, lsl #1
	char printSharp = 0;
	uint8_t valueSwitch = 0;
	//numbers will always go from B to C, and have 12 distinct values. 
	//we can get our number from this with division. 
	//midi note C0 starts at 12. So, we'll need to do some math there. 
	printNumber = (noteNumber / 12) + 47;
    1aee:	332f      	adds	r3, #47	; 0x2f

	//theres a weird wrap around with note numbers here. Since there isn't really an easy math patern we can take advantage of. 
	valueSwitch = noteNumber % 12; //this should give us a value between 0 and 11. 
    1af0:	eba2 028e 	sub.w	r2, r2, lr, lsl #2
    1af4:	b2d2      	uxtb	r2, r2
    1af6:	5cb6      	ldrb	r6, [r6, r2]
    1af8:	5cba      	ldrb	r2, [r7, r2]
		printLetter = 'B';
		printSharp = ' ';
		break;

	}
	charArray[startingPosition] = printLetter;
    1afa:	5446      	strb	r6, [r0, r1]
	charArray[startingPosition + 1] = printSharp;
    1afc:	5542      	strb	r2, [r0, r5]
	charArray[startingPosition + 2] = printNumber;
    1afe:	5503      	strb	r3, [r0, r4]
    1b00:	bdf0      	pop	{r4, r5, r6, r7, pc}
    1b02:	bf00      	nop
    1b04:	aaaaaaab 	.word	0xaaaaaaab
    1b08:	20000164 	.word	0x20000164
    1b0c:	20000158 	.word	0x20000158

00001b10 <TeensyTimerTool::BaseTimer::BaseTimer(TeensyTimerTool::ITimerChannel* (*)(), bool)>:
#include "types.h"

namespace TeensyTimerTool
{

    BaseTimer::BaseTimer(TimerGenerator* generator, bool periodic)
    1b10:	b410      	push	{r4}
        : timerGenerator(generator)
    1b12:	2400      	movs	r4, #0
    1b14:	6001      	str	r1, [r0, #0]
    {
        this->timerGenerator = generator;
        this->timerChannel = nullptr;
        this->isPeriodic = periodic;
    1b16:	7202      	strb	r2, [r0, #8]

namespace TeensyTimerTool
{

    BaseTimer::BaseTimer(TimerGenerator* generator, bool periodic)
        : timerGenerator(generator)
    1b18:	60c4      	str	r4, [r0, #12]
    {
        this->timerGenerator = generator;
        this->timerChannel = nullptr;
    1b1a:	6044      	str	r4, [r0, #4]
        this->isPeriodic = periodic;
    }
    1b1c:	f85d 4b04 	ldr.w	r4, [sp], #4
    1b20:	4770      	bx	lr
    1b22:	bf00      	nop

00001b24 <TeensyTimerTool::ITimerChannel::getPeriod()>:

        virtual float getMaxPeriod() const = 0;
        virtual errorCode setPeriod(uint32_t microSeconds) { return postError(errorCode::notImplemented); };
        virtual errorCode setCurrentPeriod(uint32_t microSeconds) { return postError(errorCode::notImplemented); };
        virtual errorCode setNextPeriod(uint32_t microSeconds) { return postError(errorCode::notImplemented); };
        virtual uint32_t getPeriod() { return 0; }
    1b24:	2000      	movs	r0, #0
    1b26:	4770      	bx	lr

00001b28 <TeensyTimerTool::TMRChannel::~TMRChannel()>:
        setPrescaler(TMR_DEFAULT_PSC);
    }

    TMRChannel::~TMRChannel()
    {
    }
    1b28:	4770      	bx	lr
    1b2a:	bf00      	nop

00001b2c <TeensyTimerTool::TMRChannel::start()>:

    errorCode TMRChannel::start()
    {
        regs->CNTR = 0x0000;
    1b2c:	6882      	ldr	r2, [r0, #8]
    1b2e:	2000      	movs	r0, #0
    1b30:	8150      	strh	r0, [r2, #10]
        regs->CSCTRL &= ~TMR_CSCTRL_TCF1;
    1b32:	8a93      	ldrh	r3, [r2, #20]
    1b34:	f023 0310 	bic.w	r3, r3, #16
    1b38:	041b      	lsls	r3, r3, #16
    1b3a:	0c1b      	lsrs	r3, r3, #16
    1b3c:	8293      	strh	r3, [r2, #20]
        regs->CSCTRL |= TMR_CSCTRL_TCF1EN;
    1b3e:	8a93      	ldrh	r3, [r2, #20]
    1b40:	b29b      	uxth	r3, r3
    1b42:	f043 0340 	orr.w	r3, r3, #64	; 0x40
    1b46:	8293      	strh	r3, [r2, #20]
        return errorCode::OK;
    }
    1b48:	4770      	bx	lr
    1b4a:	bf00      	nop

00001b4c <TeensyTimerTool::TMRChannel::stop()>:

    errorCode TMRChannel::stop()
    {
        regs->CSCTRL &= ~TMR_CSCTRL_TCF1EN;
    1b4c:	6882      	ldr	r2, [r0, #8]
        return errorCode::OK;
    }
    1b4e:	2000      	movs	r0, #0
        return errorCode::OK;
    }

    errorCode TMRChannel::stop()
    {
        regs->CSCTRL &= ~TMR_CSCTRL_TCF1EN;
    1b50:	8a93      	ldrh	r3, [r2, #20]
    1b52:	f023 0340 	bic.w	r3, r3, #64	; 0x40
    1b56:	041b      	lsls	r3, r3, #16
    1b58:	0c1b      	lsrs	r3, r3, #16
    1b5a:	8293      	strh	r3, [r2, #20]
        return errorCode::OK;
    }
    1b5c:	4770      	bx	lr
    1b5e:	bf00      	nop

00001b60 <std::function<void ()>::~function()>:

    _Function_base() : _M_manager(nullptr) { }

    ~_Function_base()
    {
      if (_M_manager)
    1b60:	6883      	ldr	r3, [r0, #8]
   *  @ingroup functors
   *
   *  Polymorphic function wrapper.
   */
  template<typename _Res, typename... _ArgTypes>
    class function<_Res(_ArgTypes...)>
    1b62:	b510      	push	{r4, lr}
    1b64:	4604      	mov	r4, r0

    _Function_base() : _M_manager(nullptr) { }

    ~_Function_base()
    {
      if (_M_manager)
    1b66:	b113      	cbz	r3, 1b6e <std::function<void ()>::~function()+0xe>
	_M_manager(_M_functor, _M_functor, __destroy_functor);
    1b68:	2203      	movs	r2, #3
    1b6a:	4601      	mov	r1, r0
    1b6c:	4798      	blx	r3
   *  @ingroup functors
   *
   *  Polymorphic function wrapper.
   */
  template<typename _Res, typename... _ArgTypes>
    class function<_Res(_ArgTypes...)>
    1b6e:	4620      	mov	r0, r4
    1b70:	bd10      	pop	{r4, pc}
    1b72:	bf00      	nop

00001b74 <TeensyTimerTool::TMRChannel::trigger(float)>:
        }
    }

    float_t TMRChannel::microsecondToCounter(const float_t us) const
    {
        return us * 150.0f / pscValue;
    1b74:	eddf 7a1b 	vldr	s15, [pc, #108]	; 1be4 <TeensyTimerTool::TMRChannel::trigger(float)+0x70>
    1b78:	edd0 6a04 	vldr	s13, [r0, #16]
    1b7c:	ee20 0a27 	vmul.f32	s0, s0, s15
    // }

    errorCode TMRChannel::trigger(float tcnt) // quick and dirty, should be optimized
    {
        const float_t t = microsecondToCounter(tcnt);
        uint16_t reload = t > 0xFFFF ? 0xFFFF : (uint16_t)t;
    1b80:	ed9f 7a19 	vldr	s14, [pc, #100]	; 1be8 <TeensyTimerTool::TMRChannel::trigger(float)+0x74>
    // {
    //     return trigger((float)tcnt);
    // }

    errorCode TMRChannel::trigger(float tcnt) // quick and dirty, should be optimized
    {
    1b84:	b430      	push	{r4, r5}
        }
    }

    float_t TMRChannel::microsecondToCounter(const float_t us) const
    {
        return us * 150.0f / pscValue;
    1b86:	eec0 7a26 	vdiv.f32	s15, s0, s13
    // {
    //     return trigger((float)tcnt);
    // }

    errorCode TMRChannel::trigger(float tcnt) // quick and dirty, should be optimized
    {
    1b8a:	b082      	sub	sp, #8
        const float_t t = microsecondToCounter(tcnt);
        uint16_t reload = t > 0xFFFF ? 0xFFFF : (uint16_t)t;
    1b8c:	eef4 7ac7 	vcmpe.f32	s15, s14
    1b90:	eef1 fa10 	vmrs	APSR_nzcv, fpscr
    1b94:	dc23      	bgt.n	1bde <TeensyTimerTool::TMRChannel::trigger(float)+0x6a>
    1b96:	eefc 7ae7 	vcvt.u32.f32	s15, s15
    1b9a:	edcd 7a01 	vstr	s15, [sp, #4]
    1b9e:	f8bd 4004 	ldrh.w	r4, [sp, #4]

        regs->CTRL = 0x0000;
    1ba2:	6883      	ldr	r3, [r0, #8]
    1ba4:	2200      	movs	r2, #0
        regs->CNTR = 0x0000;

        regs->CSCTRL &= ~TMR_CSCTRL_TCF1;
        regs->CSCTRL |= TMR_CSCTRL_TCF1EN;

        regs->CTRL = TMR_CTRL_CM(1) | TMR_CTRL_PCS(pscBits) | TMR_CTRL_ONCE | TMR_CTRL_LENGTH;
    1ba6:	6941      	ldr	r1, [r0, #20]
    1ba8:	f242 0560 	movw	r5, #8288	; 0x2060
    errorCode TMRChannel::trigger(float tcnt) // quick and dirty, should be optimized
    {
        const float_t t = microsecondToCounter(tcnt);
        uint16_t reload = t > 0xFFFF ? 0xFFFF : (uint16_t)t;

        regs->CTRL = 0x0000;
    1bac:	819a      	strh	r2, [r3, #12]
        regs->CSCTRL |= TMR_CSCTRL_TCF1EN;

        regs->CTRL = TMR_CTRL_CM(1) | TMR_CTRL_PCS(pscBits) | TMR_CTRL_ONCE | TMR_CTRL_LENGTH;

        return errorCode::OK;
    }
    1bae:	4610      	mov	r0, r2
    {
        const float_t t = microsecondToCounter(tcnt);
        uint16_t reload = t > 0xFFFF ? 0xFFFF : (uint16_t)t;

        regs->CTRL = 0x0000;
        regs->LOAD = 0x0000;
    1bb0:	80da      	strh	r2, [r3, #6]
        regs->CNTR = 0x0000;

        regs->CSCTRL &= ~TMR_CSCTRL_TCF1;
        regs->CSCTRL |= TMR_CSCTRL_TCF1EN;

        regs->CTRL = TMR_CTRL_CM(1) | TMR_CTRL_PCS(pscBits) | TMR_CTRL_ONCE | TMR_CTRL_LENGTH;
    1bb2:	0249      	lsls	r1, r1, #9
        const float_t t = microsecondToCounter(tcnt);
        uint16_t reload = t > 0xFFFF ? 0xFFFF : (uint16_t)t;

        regs->CTRL = 0x0000;
        regs->LOAD = 0x0000;
        regs->COMP1 = reload;
    1bb4:	801c      	strh	r4, [r3, #0]
        regs->CMPLD1 = reload;
    1bb6:	821c      	strh	r4, [r3, #16]
        regs->CNTR = 0x0000;

        regs->CSCTRL &= ~TMR_CSCTRL_TCF1;
        regs->CSCTRL |= TMR_CSCTRL_TCF1EN;

        regs->CTRL = TMR_CTRL_CM(1) | TMR_CTRL_PCS(pscBits) | TMR_CTRL_ONCE | TMR_CTRL_LENGTH;
    1bb8:	f401 51f0 	and.w	r1, r1, #7680	; 0x1e00

        regs->CTRL = 0x0000;
        regs->LOAD = 0x0000;
        regs->COMP1 = reload;
        regs->CMPLD1 = reload;
        regs->CNTR = 0x0000;
    1bbc:	815a      	strh	r2, [r3, #10]

        regs->CSCTRL &= ~TMR_CSCTRL_TCF1;
    1bbe:	8a9a      	ldrh	r2, [r3, #20]
        regs->CSCTRL |= TMR_CSCTRL_TCF1EN;

        regs->CTRL = TMR_CTRL_CM(1) | TMR_CTRL_PCS(pscBits) | TMR_CTRL_ONCE | TMR_CTRL_LENGTH;
    1bc0:	430d      	orrs	r5, r1
        regs->LOAD = 0x0000;
        regs->COMP1 = reload;
        regs->CMPLD1 = reload;
        regs->CNTR = 0x0000;

        regs->CSCTRL &= ~TMR_CSCTRL_TCF1;
    1bc2:	f022 0210 	bic.w	r2, r2, #16
    1bc6:	0412      	lsls	r2, r2, #16
    1bc8:	0c12      	lsrs	r2, r2, #16
    1bca:	829a      	strh	r2, [r3, #20]
        regs->CSCTRL |= TMR_CSCTRL_TCF1EN;
    1bcc:	8a9a      	ldrh	r2, [r3, #20]
    1bce:	b292      	uxth	r2, r2
    1bd0:	f042 0240 	orr.w	r2, r2, #64	; 0x40
    1bd4:	829a      	strh	r2, [r3, #20]

        regs->CTRL = TMR_CTRL_CM(1) | TMR_CTRL_PCS(pscBits) | TMR_CTRL_ONCE | TMR_CTRL_LENGTH;
    1bd6:	819d      	strh	r5, [r3, #12]

        return errorCode::OK;
    }
    1bd8:	b002      	add	sp, #8
    1bda:	bc30      	pop	{r4, r5}
    1bdc:	4770      	bx	lr
    // }

    errorCode TMRChannel::trigger(float tcnt) // quick and dirty, should be optimized
    {
        const float_t t = microsecondToCounter(tcnt);
        uint16_t reload = t > 0xFFFF ? 0xFFFF : (uint16_t)t;
    1bde:	f64f 74ff 	movw	r4, #65535	; 0xffff
    1be2:	e7de      	b.n	1ba2 <TeensyTimerTool::TMRChannel::trigger(float)+0x2e>
    1be4:	43160000 	.word	0x43160000
    1be8:	477fff00 	.word	0x477fff00

00001bec <TeensyTimerTool::TMRChannel::getMaxPeriod() const>:
        pscBits = 0b1000 | (psc & 0b0111);
    }

    float TMRChannel::getMaxPeriod() const
    {
        return pscValue / 150'000'000.0f * 0xFFFE;
    1bec:	edd0 6a04 	vldr	s13, [r0, #16]
    1bf0:	ed9f 7a04 	vldr	s14, [pc, #16]	; 1c04 <TeensyTimerTool::TMRChannel::getMaxPeriod() const+0x18>
    1bf4:	eddf 7a04 	vldr	s15, [pc, #16]	; 1c08 <TeensyTimerTool::TMRChannel::getMaxPeriod() const+0x1c>
    1bf8:	ee86 0a87 	vdiv.f32	s0, s13, s14
    }
    1bfc:	ee20 0a27 	vmul.f32	s0, s0, s15
    1c00:	4770      	bx	lr
    1c02:	bf00      	nop
    1c04:	4d0f0d18 	.word	0x4d0f0d18
    1c08:	477ffe00 	.word	0x477ffe00

00001c0c <TeensyTimerTool::TMRChannel::setCurrentPeriod(unsigned long)>:
        }
    }

    float_t TMRChannel::microsecondToCounter(const float_t us) const
    {
        return us * 150.0f / pscValue;
    1c0c:	ee07 1a90 	vmov	s15, r1
    1c10:	ed9f 7a14 	vldr	s14, [pc, #80]	; 1c64 <TeensyTimerTool::TMRChannel::setCurrentPeriod(unsigned long)+0x58>
    1c14:	ed90 6a04 	vldr	s12, [r0, #16]
    1c18:	eef8 7a67 	vcvt.f32.u32	s15, s15

    errorCode TMRChannel::setCurrentPeriod(uint32_t us)
    {
        const float_t t = microsecondToCounter(us);

        if (t <= 0xFFFF)
    1c1c:	eddf 6a12 	vldr	s13, [pc, #72]	; 1c68 <TeensyTimerTool::TMRChannel::setCurrentPeriod(unsigned long)+0x5c>
        }
    }

    float_t TMRChannel::microsecondToCounter(const float_t us) const
    {
        return us * 150.0f / pscValue;
    1c20:	ee67 7a87 	vmul.f32	s15, s15, s14
    1c24:	ee87 7a86 	vdiv.f32	s14, s15, s12

    errorCode TMRChannel::setCurrentPeriod(uint32_t us)
    {
        const float_t t = microsecondToCounter(us);

        if (t <= 0xFFFF)
    1c28:	eeb4 7ae6 	vcmpe.f32	s14, s13
    1c2c:	eef1 fa10 	vmrs	APSR_nzcv, fpscr
    1c30:	d814      	bhi.n	1c5c <TeensyTimerTool::TMRChannel::setCurrentPeriod(unsigned long)+0x50>
        {
            return _setCurrentPeriod(t);
    1c32:	eefc 7ac7 	vcvt.u32.f32	s15, s14
            return errorCode::OK;
        }
    }

    errorCode TMRChannel::setCurrentPeriod(uint32_t us)
    {
    1c36:	b082      	sub	sp, #8
    1c38:	6881      	ldr	r1, [r0, #8]
        const float_t t = microsecondToCounter(us);

        if (t <= 0xFFFF)
        {
            return _setCurrentPeriod(t);
    1c3a:	edcd 7a01 	vstr	s15, [sp, #4]
    1c3e:	f8bd 3004 	ldrh.w	r3, [sp, #4]
    }

    errorCode TMRChannel::_setCurrentPeriod(const uint16_t cnt)
    {

        regs->COMP1 = cnt;
    1c42:	800b      	strh	r3, [r1, #0]

        //Do we need to wait some cycle for IP bus to update here / cache flush?
        //asm volatile("dsb");

        if (regs->CNTR > cnt)
    1c44:	894a      	ldrh	r2, [r1, #10]
    1c46:	b292      	uxth	r2, r2
    1c48:	4293      	cmp	r3, r2
    1c4a:	d302      	bcc.n	1c52 <TeensyTimerTool::TMRChannel::setCurrentPeriod(unsigned long)+0x46>
            return errorCode::triggeredLate;
        }

        else
        {
            return errorCode::OK;
    1c4c:	2000      	movs	r0, #0
            return _setCurrentPeriod(t);
        } else
        {
            return errorCode::periodOverflow;
        }
    }
    1c4e:	b002      	add	sp, #8
    1c50:	4770      	bx	lr

        if (regs->CNTR > cnt)
        {
            //if counter alrready went over setted value force a triggering
            regs->CNTR = cnt;
            return errorCode::triggeredLate;
    1c52:	f06f 0065 	mvn.w	r0, #101	; 0x65
        //asm volatile("dsb");

        if (regs->CNTR > cnt)
        {
            //if counter alrready went over setted value force a triggering
            regs->CNTR = cnt;
    1c56:	814b      	strh	r3, [r1, #10]
            return _setCurrentPeriod(t);
        } else
        {
            return errorCode::periodOverflow;
        }
    }
    1c58:	b002      	add	sp, #8
    1c5a:	4770      	bx	lr
        if (t <= 0xFFFF)
        {
            return _setCurrentPeriod(t);
        } else
        {
            return errorCode::periodOverflow;
    1c5c:	f06f 0063 	mvn.w	r0, #99	; 0x63
        }
    }
    1c60:	4770      	bx	lr
    1c62:	bf00      	nop
    1c64:	43160000 	.word	0x43160000
    1c68:	477fff00 	.word	0x477fff00

00001c6c <TeensyTimerTool::TMRChannel::setNextPeriod(unsigned long)>:
        }
    }

    float_t TMRChannel::microsecondToCounter(const float_t us) const
    {
        return us * 150.0f / pscValue;
    1c6c:	ee07 1a90 	vmov	s15, r1
    1c70:	ed9f 7a0f 	vldr	s14, [pc, #60]	; 1cb0 <TeensyTimerTool::TMRChannel::setNextPeriod(unsigned long)+0x44>
    1c74:	ed90 6a04 	vldr	s12, [r0, #16]
    1c78:	eef8 7a67 	vcvt.f32.u32	s15, s15

    errorCode TMRChannel::setNextPeriod(uint32_t us)
    {
        const float_t t = microsecondToCounter(us);

        if (t <= 0xFFFF)
    1c7c:	eddf 6a0d 	vldr	s13, [pc, #52]	; 1cb4 <TeensyTimerTool::TMRChannel::setNextPeriod(unsigned long)+0x48>
        }
    }

    float_t TMRChannel::microsecondToCounter(const float_t us) const
    {
        return us * 150.0f / pscValue;
    1c80:	ee67 7a87 	vmul.f32	s15, s15, s14
    1c84:	ee87 7a86 	vdiv.f32	s14, s15, s12

    errorCode TMRChannel::setNextPeriod(uint32_t us)
    {
        const float_t t = microsecondToCounter(us);

        if (t <= 0xFFFF)
    1c88:	eeb4 7ae6 	vcmpe.f32	s14, s13
    1c8c:	eef1 fa10 	vmrs	APSR_nzcv, fpscr
    1c90:	d80b      	bhi.n	1caa <TeensyTimerTool::TMRChannel::setNextPeriod(unsigned long)+0x3e>
        {
            _setNextPeriod(t);
    1c92:	eefc 7ac7 	vcvt.u32.f32	s15, s14
            return errorCode::periodOverflow;
        }
    }

    errorCode TMRChannel::setNextPeriod(uint32_t us)
    {
    1c96:	b082      	sub	sp, #8
    1c98:	6882      	ldr	r2, [r0, #8]
        const float_t t = microsecondToCounter(us);

        if (t <= 0xFFFF)
        {
            _setNextPeriod(t);
            return errorCode::OK;
    1c9a:	2000      	movs	r0, #0
    {
        const float_t t = microsecondToCounter(us);

        if (t <= 0xFFFF)
        {
            _setNextPeriod(t);
    1c9c:	edcd 7a01 	vstr	s15, [sp, #4]
    1ca0:	f8bd 3004 	ldrh.w	r3, [sp, #4]
        return pscValue / 150'000'000.0f * 0xFFFE;
    }

    void TMRChannel::_setNextPeriod(const uint16_t cnt)
    {
        regs->CMPLD1 = cnt;
    1ca4:	8213      	strh	r3, [r2, #16]
            return errorCode::OK;
        } else
        {
            return errorCode::periodOverflow;
        }
    }
    1ca6:	b002      	add	sp, #8
    1ca8:	4770      	bx	lr
        {
            _setNextPeriod(t);
            return errorCode::OK;
        } else
        {
            return errorCode::periodOverflow;
    1caa:	f06f 0063 	mvn.w	r0, #99	; 0x63
    1cae:	4770      	bx	lr
    1cb0:	43160000 	.word	0x43160000
    1cb4:	477fff00 	.word	0x477fff00

00001cb8 <TeensyTimerTool::TMRChannel::setPeriod(unsigned long)>:
        }
    }

    float_t TMRChannel::microsecondToCounter(const float_t us) const
    {
        return us * 150.0f / pscValue;
    1cb8:	ee07 1a90 	vmov	s15, r1
    1cbc:	ed9f 7a14 	vldr	s14, [pc, #80]	; 1d10 <TeensyTimerTool::TMRChannel::setPeriod(unsigned long)+0x58>
    1cc0:	ed90 6a04 	vldr	s12, [r0, #16]
    1cc4:	eef8 7a67 	vcvt.f32.u32	s15, s15

    errorCode TMRChannel::setPeriod(uint32_t us)
    {
        const float_t t = microsecondToCounter(us);

        if (t <= 0xFFFF)
    1cc8:	eddf 6a12 	vldr	s13, [pc, #72]	; 1d14 <TeensyTimerTool::TMRChannel::setPeriod(unsigned long)+0x5c>
        }
    }

    float_t TMRChannel::microsecondToCounter(const float_t us) const
    {
        return us * 150.0f / pscValue;
    1ccc:	ee67 7a87 	vmul.f32	s15, s15, s14
    1cd0:	ee87 7a86 	vdiv.f32	s14, s15, s12

    errorCode TMRChannel::setPeriod(uint32_t us)
    {
        const float_t t = microsecondToCounter(us);

        if (t <= 0xFFFF)
    1cd4:	eeb4 7ae6 	vcmpe.f32	s14, s13
    1cd8:	eef1 fa10 	vmrs	APSR_nzcv, fpscr
    1cdc:	d815      	bhi.n	1d0a <TeensyTimerTool::TMRChannel::setPeriod(unsigned long)+0x52>
        {
            _setNextPeriod(t);
    1cde:	eefc 7ac7 	vcvt.u32.f32	s15, s14
            return errorCode::periodOverflow;
        }
    }

    errorCode TMRChannel::setPeriod(uint32_t us)
    {
    1ce2:	b082      	sub	sp, #8
    1ce4:	6882      	ldr	r2, [r0, #8]
        const float_t t = microsecondToCounter(us);

        if (t <= 0xFFFF)
        {
            _setNextPeriod(t);
    1ce6:	edcd 7a01 	vstr	s15, [sp, #4]
    1cea:	f8bd 3004 	ldrh.w	r3, [sp, #4]
        return pscValue / 150'000'000.0f * 0xFFFE;
    }

    void TMRChannel::_setNextPeriod(const uint16_t cnt)
    {
        regs->CMPLD1 = cnt;
    1cee:	8213      	strh	r3, [r2, #16]
    }

    errorCode TMRChannel::_setCurrentPeriod(const uint16_t cnt)
    {

        regs->COMP1 = cnt;
    1cf0:	8013      	strh	r3, [r2, #0]

        //Do we need to wait some cycle for IP bus to update here / cache flush?
        //asm volatile("dsb");

        if (regs->CNTR > cnt)
    1cf2:	8951      	ldrh	r1, [r2, #10]
    1cf4:	b289      	uxth	r1, r1
    1cf6:	428b      	cmp	r3, r1
    1cf8:	d302      	bcc.n	1d00 <TeensyTimerTool::TMRChannel::setPeriod(unsigned long)+0x48>
            return errorCode::triggeredLate;
        }

        else
        {
            return errorCode::OK;
    1cfa:	2000      	movs	r0, #0

        } else
        {
            return errorCode::periodOverflow;
        }
    }
    1cfc:	b002      	add	sp, #8
    1cfe:	4770      	bx	lr

        if (regs->CNTR > cnt)
        {
            //if counter alrready went over setted value force a triggering
            regs->CNTR = cnt;
            return errorCode::triggeredLate;
    1d00:	f06f 0065 	mvn.w	r0, #101	; 0x65
        //asm volatile("dsb");

        if (regs->CNTR > cnt)
        {
            //if counter alrready went over setted value force a triggering
            regs->CNTR = cnt;
    1d04:	8153      	strh	r3, [r2, #10]

        } else
        {
            return errorCode::periodOverflow;
        }
    }
    1d06:	b002      	add	sp, #8
    1d08:	4770      	bx	lr
            _setNextPeriod(t);
            return _setCurrentPeriod(t);

        } else
        {
            return errorCode::periodOverflow;
    1d0a:	f06f 0063 	mvn.w	r0, #99	; 0x63
        }
    }
    1d0e:	4770      	bx	lr
    1d10:	43160000 	.word	0x43160000
    1d14:	477fff00 	.word	0x477fff00

00001d18 <TeensyTimerTool::GptChannel::getMaxPeriod() const>:

        inline errorCode trigger(float delay) override;
        inline errorCode triggerDirect(uint32_t delay) override;
        inline errorCode getTriggerReload(float delay, uint32_t* reload) override;

        inline float getMaxPeriod() const override { return getMaxMicros() / 1E6; }
    1d18:	eddf 6a05 	vldr	s13, [pc, #20]	; 1d30 <TeensyTimerTool::GptChannel::getMaxPeriod() const+0x18>
    1d1c:	ed90 7a05 	vldr	s14, [r0, #20]
    1d20:	eddf 7a04 	vldr	s15, [pc, #16]	; 1d34 <TeensyTimerTool::GptChannel::getMaxPeriod() const+0x1c>
    1d24:	ee86 0a87 	vdiv.f32	s0, s13, s14
    1d28:	ee80 0a27 	vdiv.f32	s0, s0, s15
    1d2c:	4770      	bx	lr
    1d2e:	bf00      	nop
    1d30:	4f800000 	.word	0x4f800000
    1d34:	49742400 	.word	0x49742400

00001d38 <TeensyTimerTool::GptChannel::start()>:
        return errorCode::OK;
    }

    errorCode GptChannel::start()
    {
        regs->SR = 0x3F;         // clear all interupt flags
    1d38:	68c3      	ldr	r3, [r0, #12]
    1d3a:	213f      	movs	r1, #63	; 0x3f
        regs->IR = GPT_IR_OF1IE; // enable OF1 interrupt
    1d3c:	2201      	movs	r2, #1
        regs->CR |= GPT_CR_EN;   // enable timer
        return errorCode::OK;
    }
    1d3e:	2000      	movs	r0, #0
        return errorCode::OK;
    }

    errorCode GptChannel::start()
    {
        regs->SR = 0x3F;         // clear all interupt flags
    1d40:	6099      	str	r1, [r3, #8]
        regs->IR = GPT_IR_OF1IE; // enable OF1 interrupt
    1d42:	60da      	str	r2, [r3, #12]
        regs->CR |= GPT_CR_EN;   // enable timer
    1d44:	681a      	ldr	r2, [r3, #0]
    1d46:	f042 0201 	orr.w	r2, r2, #1
    1d4a:	601a      	str	r2, [r3, #0]
        return errorCode::OK;
    }
    1d4c:	4770      	bx	lr
    1d4e:	bf00      	nop

00001d50 <TeensyTimerTool::GptChannel::stop()>:

    errorCode GptChannel::stop()
    {
        regs->CR &= ~GPT_CR_EN; // disable timer
    1d50:	68c3      	ldr	r3, [r0, #12]
        regs->IR = 0;
    1d52:	2100      	movs	r1, #0
        return errorCode::OK;
    }

    errorCode GptChannel::stop()
    {
        regs->CR &= ~GPT_CR_EN; // disable timer
    1d54:	681a      	ldr	r2, [r3, #0]
        regs->IR = 0;
        return errorCode::OK;
    }
    1d56:	4608      	mov	r0, r1
        return errorCode::OK;
    }

    errorCode GptChannel::stop()
    {
        regs->CR &= ~GPT_CR_EN; // disable timer
    1d58:	f022 0201 	bic.w	r2, r2, #1
    1d5c:	601a      	str	r2, [r3, #0]
        regs->IR = 0;
    1d5e:	60d9      	str	r1, [r3, #12]
        return errorCode::OK;
    }
    1d60:	4770      	bx	lr
    1d62:	bf00      	nop

00001d64 <TeensyTimerTool::GptChannel::triggerDirect(unsigned long)>:
    {
        return triggerDirect(microsecondToCycles(delay));
    }

    errorCode GptChannel::triggerDirect(uint32_t reload)
    {
    1d64:	b410      	push	{r4}
        regs->SR = 0x3F;         // clear all interupt flags
    1d66:	68c3      	ldr	r3, [r0, #12]
    1d68:	243f      	movs	r4, #63	; 0x3f
        regs->IR = GPT_IR_OF1IE; // enable OF1 interrupt
    1d6a:	2201      	movs	r2, #1
        regs->OCR1 = reload;     // set overflow value
        regs->CR |= GPT_CR_EN;   // enable timer

        return errorCode::OK;
    }
    1d6c:	2000      	movs	r0, #0
        return triggerDirect(microsecondToCycles(delay));
    }

    errorCode GptChannel::triggerDirect(uint32_t reload)
    {
        regs->SR = 0x3F;         // clear all interupt flags
    1d6e:	609c      	str	r4, [r3, #8]
        regs->IR = GPT_IR_OF1IE; // enable OF1 interrupt
    1d70:	60da      	str	r2, [r3, #12]
        regs->OCR1 = reload;     // set overflow value
    1d72:	6119      	str	r1, [r3, #16]
        regs->CR |= GPT_CR_EN;   // enable timer
    1d74:	681a      	ldr	r2, [r3, #0]

        return errorCode::OK;
    }
    1d76:	f85d 4b04 	ldr.w	r4, [sp], #4
    errorCode GptChannel::triggerDirect(uint32_t reload)
    {
        regs->SR = 0x3F;         // clear all interupt flags
        regs->IR = GPT_IR_OF1IE; // enable OF1 interrupt
        regs->OCR1 = reload;     // set overflow value
        regs->CR |= GPT_CR_EN;   // enable timer
    1d7a:	f042 0201 	orr.w	r2, r2, #1
    1d7e:	601a      	str	r2, [r3, #0]

        return errorCode::OK;
    }
    1d80:	4770      	bx	lr
    1d82:	bf00      	nop

00001d84 <TeensyTimerTool::TMR_t<0u>::isr()>:
        }
        return nullptr;
    }

    template <unsigned m>
    void TMR_t<m>::isr()
    1d84:	b510      	push	{r4, lr}
    1d86:	4c25      	ldr	r4, [pc, #148]	; (1e1c <TeensyTimerTool::TMR_t<0u>::isr()+0x98>)
    {
        // no loop to gain some time by avoiding indirections and pointer calculations
        if (callbacks[0] != nullptr && pCH0->CSCTRL & TMR_CSCTRL_TCF1)
    1d88:	68a3      	ldr	r3, [r4, #8]
    1d8a:	b16b      	cbz	r3, 1da8 <TeensyTimerTool::TMR_t<0u>::isr()+0x24>
    1d8c:	4b24      	ldr	r3, [pc, #144]	; (1e20 <TeensyTimerTool::TMR_t<0u>::isr()+0x9c>)
    1d8e:	681a      	ldr	r2, [r3, #0]
    1d90:	8a93      	ldrh	r3, [r2, #20]
    1d92:	06d9      	lsls	r1, r3, #27
    1d94:	d508      	bpl.n	1da8 <TeensyTimerTool::TMR_t<0u>::isr()+0x24>
        {
            pCH0->CSCTRL &= ~TMR_CSCTRL_TCF1;
    1d96:	8a93      	ldrh	r3, [r2, #20]
    function<_Res(_ArgTypes...)>::
    operator()(_ArgTypes... __args) const
    {
      if (_M_empty())
	__throw_bad_function_call();
      return _M_invoker(_M_functor, std::forward<_ArgTypes>(__args)...);
    1d98:	4620      	mov	r0, r4
    1d9a:	68e1      	ldr	r1, [r4, #12]
    1d9c:	f023 0310 	bic.w	r3, r3, #16
    1da0:	041b      	lsls	r3, r3, #16
    1da2:	0c1b      	lsrs	r3, r3, #16
    1da4:	8293      	strh	r3, [r2, #20]
    1da6:	4788      	blx	r1
            callbacks[0]();
        }

        if (callbacks[1] != nullptr && pCH1->CSCTRL & TMR_CSCTRL_TCF1)
    1da8:	69a3      	ldr	r3, [r4, #24]
    1daa:	491c      	ldr	r1, [pc, #112]	; (1e1c <TeensyTimerTool::TMR_t<0u>::isr()+0x98>)
    1dac:	b173      	cbz	r3, 1dcc <TeensyTimerTool::TMR_t<0u>::isr()+0x48>
    1dae:	4b1d      	ldr	r3, [pc, #116]	; (1e24 <TeensyTimerTool::TMR_t<0u>::isr()+0xa0>)
    1db0:	681a      	ldr	r2, [r3, #0]
    1db2:	8a93      	ldrh	r3, [r2, #20]
    1db4:	06db      	lsls	r3, r3, #27
    1db6:	d509      	bpl.n	1dcc <TeensyTimerTool::TMR_t<0u>::isr()+0x48>
        {
            pCH1->CSCTRL &= ~TMR_CSCTRL_TCF1;
    1db8:	8a93      	ldrh	r3, [r2, #20]
    1dba:	f101 0010 	add.w	r0, r1, #16
    1dbe:	69c9      	ldr	r1, [r1, #28]
    1dc0:	f023 0310 	bic.w	r3, r3, #16
    1dc4:	041b      	lsls	r3, r3, #16
    1dc6:	0c1b      	lsrs	r3, r3, #16
    1dc8:	8293      	strh	r3, [r2, #20]
    1dca:	4788      	blx	r1
            callbacks[1]();
        }

        if (callbacks[2] != nullptr && pCH2->CSCTRL & TMR_CSCTRL_TCF1)
    1dcc:	6aa3      	ldr	r3, [r4, #40]	; 0x28
    1dce:	4913      	ldr	r1, [pc, #76]	; (1e1c <TeensyTimerTool::TMR_t<0u>::isr()+0x98>)
    1dd0:	b123      	cbz	r3, 1ddc <TeensyTimerTool::TMR_t<0u>::isr()+0x58>
    1dd2:	4b15      	ldr	r3, [pc, #84]	; (1e28 <TeensyTimerTool::TMR_t<0u>::isr()+0xa4>)
    1dd4:	681a      	ldr	r2, [r3, #0]
    1dd6:	8a93      	ldrh	r3, [r2, #20]
    1dd8:	06d8      	lsls	r0, r3, #27
    1dda:	d414      	bmi.n	1e06 <TeensyTimerTool::TMR_t<0u>::isr()+0x82>
        {
            pCH2->CSCTRL &= ~TMR_CSCTRL_TCF1;
            callbacks[2]();
        }

        if (callbacks[3] != nullptr && pCH3->CSCTRL & TMR_CSCTRL_TCF1)
    1ddc:	6ba3      	ldr	r3, [r4, #56]	; 0x38
    1dde:	490f      	ldr	r1, [pc, #60]	; (1e1c <TeensyTimerTool::TMR_t<0u>::isr()+0x98>)
    1de0:	b173      	cbz	r3, 1e00 <TeensyTimerTool::TMR_t<0u>::isr()+0x7c>
    1de2:	4b12      	ldr	r3, [pc, #72]	; (1e2c <TeensyTimerTool::TMR_t<0u>::isr()+0xa8>)
    1de4:	681a      	ldr	r2, [r3, #0]
    1de6:	8a93      	ldrh	r3, [r2, #20]
    1de8:	06db      	lsls	r3, r3, #27
    1dea:	d509      	bpl.n	1e00 <TeensyTimerTool::TMR_t<0u>::isr()+0x7c>
        {
            pCH3->CSCTRL &= ~TMR_CSCTRL_TCF1;
    1dec:	8a93      	ldrh	r3, [r2, #20]
    1dee:	f101 0030 	add.w	r0, r1, #48	; 0x30
    1df2:	6bc9      	ldr	r1, [r1, #60]	; 0x3c
    1df4:	f023 0310 	bic.w	r3, r3, #16
    1df8:	041b      	lsls	r3, r3, #16
    1dfa:	0c1b      	lsrs	r3, r3, #16
    1dfc:	8293      	strh	r3, [r2, #20]
    1dfe:	4788      	blx	r1
            callbacks[3]();
        }
        asm volatile("dsb"); //wait until register changes propagated through the cache
    1e00:	f3bf 8f4f 	dsb	sy
    }
    1e04:	bd10      	pop	{r4, pc}
            callbacks[1]();
        }

        if (callbacks[2] != nullptr && pCH2->CSCTRL & TMR_CSCTRL_TCF1)
        {
            pCH2->CSCTRL &= ~TMR_CSCTRL_TCF1;
    1e06:	8a93      	ldrh	r3, [r2, #20]
    1e08:	f101 0020 	add.w	r0, r1, #32
    1e0c:	6ac9      	ldr	r1, [r1, #44]	; 0x2c
    1e0e:	f023 0310 	bic.w	r3, r3, #16
    1e12:	041b      	lsls	r3, r3, #16
    1e14:	0c1b      	lsrs	r3, r3, #16
    1e16:	8293      	strh	r3, [r2, #20]
    1e18:	4788      	blx	r1
    1e1a:	e7df      	b.n	1ddc <TeensyTimerTool::TMR_t<0u>::isr()+0x58>
    1e1c:	20001964 	.word	0x20001964
    1e20:	20001960 	.word	0x20001960
    1e24:	20001870 	.word	0x20001870
    1e28:	2000186c 	.word	0x2000186c
    1e2c:	20001868 	.word	0x20001868

00001e30 <TeensyTimerTool::TMR_t<1u>::isr()>:
        }
        return nullptr;
    }

    template <unsigned m>
    void TMR_t<m>::isr()
    1e30:	b510      	push	{r4, lr}
    1e32:	4c25      	ldr	r4, [pc, #148]	; (1ec8 <TeensyTimerTool::TMR_t<1u>::isr()+0x98>)
    {
        // no loop to gain some time by avoiding indirections and pointer calculations
        if (callbacks[0] != nullptr && pCH0->CSCTRL & TMR_CSCTRL_TCF1)
    1e34:	68a3      	ldr	r3, [r4, #8]
    1e36:	b16b      	cbz	r3, 1e54 <TeensyTimerTool::TMR_t<1u>::isr()+0x24>
    1e38:	4b24      	ldr	r3, [pc, #144]	; (1ecc <TeensyTimerTool::TMR_t<1u>::isr()+0x9c>)
    1e3a:	681a      	ldr	r2, [r3, #0]
    1e3c:	8a93      	ldrh	r3, [r2, #20]
    1e3e:	06d9      	lsls	r1, r3, #27
    1e40:	d508      	bpl.n	1e54 <TeensyTimerTool::TMR_t<1u>::isr()+0x24>
        {
            pCH0->CSCTRL &= ~TMR_CSCTRL_TCF1;
    1e42:	8a93      	ldrh	r3, [r2, #20]
    1e44:	4620      	mov	r0, r4
    1e46:	68e1      	ldr	r1, [r4, #12]
    1e48:	f023 0310 	bic.w	r3, r3, #16
    1e4c:	041b      	lsls	r3, r3, #16
    1e4e:	0c1b      	lsrs	r3, r3, #16
    1e50:	8293      	strh	r3, [r2, #20]
    1e52:	4788      	blx	r1
            callbacks[0]();
        }

        if (callbacks[1] != nullptr && pCH1->CSCTRL & TMR_CSCTRL_TCF1)
    1e54:	69a3      	ldr	r3, [r4, #24]
    1e56:	491c      	ldr	r1, [pc, #112]	; (1ec8 <TeensyTimerTool::TMR_t<1u>::isr()+0x98>)
    1e58:	b173      	cbz	r3, 1e78 <TeensyTimerTool::TMR_t<1u>::isr()+0x48>
    1e5a:	4b1d      	ldr	r3, [pc, #116]	; (1ed0 <TeensyTimerTool::TMR_t<1u>::isr()+0xa0>)
    1e5c:	681a      	ldr	r2, [r3, #0]
    1e5e:	8a93      	ldrh	r3, [r2, #20]
    1e60:	06db      	lsls	r3, r3, #27
    1e62:	d509      	bpl.n	1e78 <TeensyTimerTool::TMR_t<1u>::isr()+0x48>
        {
            pCH1->CSCTRL &= ~TMR_CSCTRL_TCF1;
    1e64:	8a93      	ldrh	r3, [r2, #20]
    1e66:	f101 0010 	add.w	r0, r1, #16
    1e6a:	69c9      	ldr	r1, [r1, #28]
    1e6c:	f023 0310 	bic.w	r3, r3, #16
    1e70:	041b      	lsls	r3, r3, #16
    1e72:	0c1b      	lsrs	r3, r3, #16
    1e74:	8293      	strh	r3, [r2, #20]
    1e76:	4788      	blx	r1
            callbacks[1]();
        }

        if (callbacks[2] != nullptr && pCH2->CSCTRL & TMR_CSCTRL_TCF1)
    1e78:	6aa3      	ldr	r3, [r4, #40]	; 0x28
    1e7a:	4913      	ldr	r1, [pc, #76]	; (1ec8 <TeensyTimerTool::TMR_t<1u>::isr()+0x98>)
    1e7c:	b123      	cbz	r3, 1e88 <TeensyTimerTool::TMR_t<1u>::isr()+0x58>
    1e7e:	4b15      	ldr	r3, [pc, #84]	; (1ed4 <TeensyTimerTool::TMR_t<1u>::isr()+0xa4>)
    1e80:	681a      	ldr	r2, [r3, #0]
    1e82:	8a93      	ldrh	r3, [r2, #20]
    1e84:	06d8      	lsls	r0, r3, #27
    1e86:	d414      	bmi.n	1eb2 <TeensyTimerTool::TMR_t<1u>::isr()+0x82>
        {
            pCH2->CSCTRL &= ~TMR_CSCTRL_TCF1;
            callbacks[2]();
        }

        if (callbacks[3] != nullptr && pCH3->CSCTRL & TMR_CSCTRL_TCF1)
    1e88:	6ba3      	ldr	r3, [r4, #56]	; 0x38
    1e8a:	490f      	ldr	r1, [pc, #60]	; (1ec8 <TeensyTimerTool::TMR_t<1u>::isr()+0x98>)
    1e8c:	b173      	cbz	r3, 1eac <TeensyTimerTool::TMR_t<1u>::isr()+0x7c>
    1e8e:	4b12      	ldr	r3, [pc, #72]	; (1ed8 <TeensyTimerTool::TMR_t<1u>::isr()+0xa8>)
    1e90:	681a      	ldr	r2, [r3, #0]
    1e92:	8a93      	ldrh	r3, [r2, #20]
    1e94:	06db      	lsls	r3, r3, #27
    1e96:	d509      	bpl.n	1eac <TeensyTimerTool::TMR_t<1u>::isr()+0x7c>
        {
            pCH3->CSCTRL &= ~TMR_CSCTRL_TCF1;
    1e98:	8a93      	ldrh	r3, [r2, #20]
    1e9a:	f101 0030 	add.w	r0, r1, #48	; 0x30
    1e9e:	6bc9      	ldr	r1, [r1, #60]	; 0x3c
    1ea0:	f023 0310 	bic.w	r3, r3, #16
    1ea4:	041b      	lsls	r3, r3, #16
    1ea6:	0c1b      	lsrs	r3, r3, #16
    1ea8:	8293      	strh	r3, [r2, #20]
    1eaa:	4788      	blx	r1
            callbacks[3]();
        }
        asm volatile("dsb"); //wait until register changes propagated through the cache
    1eac:	f3bf 8f4f 	dsb	sy
    }
    1eb0:	bd10      	pop	{r4, pc}
            callbacks[1]();
        }

        if (callbacks[2] != nullptr && pCH2->CSCTRL & TMR_CSCTRL_TCF1)
        {
            pCH2->CSCTRL &= ~TMR_CSCTRL_TCF1;
    1eb2:	8a93      	ldrh	r3, [r2, #20]
    1eb4:	f101 0020 	add.w	r0, r1, #32
    1eb8:	6ac9      	ldr	r1, [r1, #44]	; 0x2c
    1eba:	f023 0310 	bic.w	r3, r3, #16
    1ebe:	041b      	lsls	r3, r3, #16
    1ec0:	0c1b      	lsrs	r3, r3, #16
    1ec2:	8293      	strh	r3, [r2, #20]
    1ec4:	4788      	blx	r1
    1ec6:	e7df      	b.n	1e88 <TeensyTimerTool::TMR_t<1u>::isr()+0x58>
    1ec8:	20001920 	.word	0x20001920
    1ecc:	2000191c 	.word	0x2000191c
    1ed0:	20001864 	.word	0x20001864
    1ed4:	20001860 	.word	0x20001860
    1ed8:	2000185c 	.word	0x2000185c

00001edc <TeensyTimerTool::TMR_t<2u>::isr()>:
        }
        return nullptr;
    }

    template <unsigned m>
    void TMR_t<m>::isr()
    1edc:	b510      	push	{r4, lr}
    1ede:	4c25      	ldr	r4, [pc, #148]	; (1f74 <TeensyTimerTool::TMR_t<2u>::isr()+0x98>)
    {
        // no loop to gain some time by avoiding indirections and pointer calculations
        if (callbacks[0] != nullptr && pCH0->CSCTRL & TMR_CSCTRL_TCF1)
    1ee0:	68a3      	ldr	r3, [r4, #8]
    1ee2:	b16b      	cbz	r3, 1f00 <TeensyTimerTool::TMR_t<2u>::isr()+0x24>
    1ee4:	4b24      	ldr	r3, [pc, #144]	; (1f78 <TeensyTimerTool::TMR_t<2u>::isr()+0x9c>)
    1ee6:	681a      	ldr	r2, [r3, #0]
    1ee8:	8a93      	ldrh	r3, [r2, #20]
    1eea:	06d9      	lsls	r1, r3, #27
    1eec:	d508      	bpl.n	1f00 <TeensyTimerTool::TMR_t<2u>::isr()+0x24>
        {
            pCH0->CSCTRL &= ~TMR_CSCTRL_TCF1;
    1eee:	8a93      	ldrh	r3, [r2, #20]
    1ef0:	4620      	mov	r0, r4
    1ef2:	68e1      	ldr	r1, [r4, #12]
    1ef4:	f023 0310 	bic.w	r3, r3, #16
    1ef8:	041b      	lsls	r3, r3, #16
    1efa:	0c1b      	lsrs	r3, r3, #16
    1efc:	8293      	strh	r3, [r2, #20]
    1efe:	4788      	blx	r1
            callbacks[0]();
        }

        if (callbacks[1] != nullptr && pCH1->CSCTRL & TMR_CSCTRL_TCF1)
    1f00:	69a3      	ldr	r3, [r4, #24]
    1f02:	491c      	ldr	r1, [pc, #112]	; (1f74 <TeensyTimerTool::TMR_t<2u>::isr()+0x98>)
    1f04:	b173      	cbz	r3, 1f24 <TeensyTimerTool::TMR_t<2u>::isr()+0x48>
    1f06:	4b1d      	ldr	r3, [pc, #116]	; (1f7c <TeensyTimerTool::TMR_t<2u>::isr()+0xa0>)
    1f08:	681a      	ldr	r2, [r3, #0]
    1f0a:	8a93      	ldrh	r3, [r2, #20]
    1f0c:	06db      	lsls	r3, r3, #27
    1f0e:	d509      	bpl.n	1f24 <TeensyTimerTool::TMR_t<2u>::isr()+0x48>
        {
            pCH1->CSCTRL &= ~TMR_CSCTRL_TCF1;
    1f10:	8a93      	ldrh	r3, [r2, #20]
    1f12:	f101 0010 	add.w	r0, r1, #16
    1f16:	69c9      	ldr	r1, [r1, #28]
    1f18:	f023 0310 	bic.w	r3, r3, #16
    1f1c:	041b      	lsls	r3, r3, #16
    1f1e:	0c1b      	lsrs	r3, r3, #16
    1f20:	8293      	strh	r3, [r2, #20]
    1f22:	4788      	blx	r1
            callbacks[1]();
        }

        if (callbacks[2] != nullptr && pCH2->CSCTRL & TMR_CSCTRL_TCF1)
    1f24:	6aa3      	ldr	r3, [r4, #40]	; 0x28
    1f26:	4913      	ldr	r1, [pc, #76]	; (1f74 <TeensyTimerTool::TMR_t<2u>::isr()+0x98>)
    1f28:	b123      	cbz	r3, 1f34 <TeensyTimerTool::TMR_t<2u>::isr()+0x58>
    1f2a:	4b15      	ldr	r3, [pc, #84]	; (1f80 <TeensyTimerTool::TMR_t<2u>::isr()+0xa4>)
    1f2c:	681a      	ldr	r2, [r3, #0]
    1f2e:	8a93      	ldrh	r3, [r2, #20]
    1f30:	06d8      	lsls	r0, r3, #27
    1f32:	d414      	bmi.n	1f5e <TeensyTimerTool::TMR_t<2u>::isr()+0x82>
        {
            pCH2->CSCTRL &= ~TMR_CSCTRL_TCF1;
            callbacks[2]();
        }

        if (callbacks[3] != nullptr && pCH3->CSCTRL & TMR_CSCTRL_TCF1)
    1f34:	6ba3      	ldr	r3, [r4, #56]	; 0x38
    1f36:	490f      	ldr	r1, [pc, #60]	; (1f74 <TeensyTimerTool::TMR_t<2u>::isr()+0x98>)
    1f38:	b173      	cbz	r3, 1f58 <TeensyTimerTool::TMR_t<2u>::isr()+0x7c>
    1f3a:	4b12      	ldr	r3, [pc, #72]	; (1f84 <TeensyTimerTool::TMR_t<2u>::isr()+0xa8>)
    1f3c:	681a      	ldr	r2, [r3, #0]
    1f3e:	8a93      	ldrh	r3, [r2, #20]
    1f40:	06db      	lsls	r3, r3, #27
    1f42:	d509      	bpl.n	1f58 <TeensyTimerTool::TMR_t<2u>::isr()+0x7c>
        {
            pCH3->CSCTRL &= ~TMR_CSCTRL_TCF1;
    1f44:	8a93      	ldrh	r3, [r2, #20]
    1f46:	f101 0030 	add.w	r0, r1, #48	; 0x30
    1f4a:	6bc9      	ldr	r1, [r1, #60]	; 0x3c
    1f4c:	f023 0310 	bic.w	r3, r3, #16
    1f50:	041b      	lsls	r3, r3, #16
    1f52:	0c1b      	lsrs	r3, r3, #16
    1f54:	8293      	strh	r3, [r2, #20]
    1f56:	4788      	blx	r1
            callbacks[3]();
        }
        asm volatile("dsb"); //wait until register changes propagated through the cache
    1f58:	f3bf 8f4f 	dsb	sy
    }
    1f5c:	bd10      	pop	{r4, pc}
            callbacks[1]();
        }

        if (callbacks[2] != nullptr && pCH2->CSCTRL & TMR_CSCTRL_TCF1)
        {
            pCH2->CSCTRL &= ~TMR_CSCTRL_TCF1;
    1f5e:	8a93      	ldrh	r3, [r2, #20]
    1f60:	f101 0020 	add.w	r0, r1, #32
    1f64:	6ac9      	ldr	r1, [r1, #44]	; 0x2c
    1f66:	f023 0310 	bic.w	r3, r3, #16
    1f6a:	041b      	lsls	r3, r3, #16
    1f6c:	0c1b      	lsrs	r3, r3, #16
    1f6e:	8293      	strh	r3, [r2, #20]
    1f70:	4788      	blx	r1
    1f72:	e7df      	b.n	1f34 <TeensyTimerTool::TMR_t<2u>::isr()+0x58>
    1f74:	200018dc 	.word	0x200018dc
    1f78:	200018d8 	.word	0x200018d8
    1f7c:	20001858 	.word	0x20001858
    1f80:	20001854 	.word	0x20001854
    1f84:	20001850 	.word	0x20001850

00001f88 <TeensyTimerTool::TMR_t<3u>::isr()>:
        }
        return nullptr;
    }

    template <unsigned m>
    void TMR_t<m>::isr()
    1f88:	b510      	push	{r4, lr}
    1f8a:	4c25      	ldr	r4, [pc, #148]	; (2020 <TeensyTimerTool::TMR_t<3u>::isr()+0x98>)
    {
        // no loop to gain some time by avoiding indirections and pointer calculations
        if (callbacks[0] != nullptr && pCH0->CSCTRL & TMR_CSCTRL_TCF1)
    1f8c:	68a3      	ldr	r3, [r4, #8]
    1f8e:	b16b      	cbz	r3, 1fac <TeensyTimerTool::TMR_t<3u>::isr()+0x24>
    1f90:	4b24      	ldr	r3, [pc, #144]	; (2024 <TeensyTimerTool::TMR_t<3u>::isr()+0x9c>)
    1f92:	681a      	ldr	r2, [r3, #0]
    1f94:	8a93      	ldrh	r3, [r2, #20]
    1f96:	06d9      	lsls	r1, r3, #27
    1f98:	d508      	bpl.n	1fac <TeensyTimerTool::TMR_t<3u>::isr()+0x24>
        {
            pCH0->CSCTRL &= ~TMR_CSCTRL_TCF1;
    1f9a:	8a93      	ldrh	r3, [r2, #20]
    1f9c:	4620      	mov	r0, r4
    1f9e:	68e1      	ldr	r1, [r4, #12]
    1fa0:	f023 0310 	bic.w	r3, r3, #16
    1fa4:	041b      	lsls	r3, r3, #16
    1fa6:	0c1b      	lsrs	r3, r3, #16
    1fa8:	8293      	strh	r3, [r2, #20]
    1faa:	4788      	blx	r1
            callbacks[0]();
        }

        if (callbacks[1] != nullptr && pCH1->CSCTRL & TMR_CSCTRL_TCF1)
    1fac:	69a3      	ldr	r3, [r4, #24]
    1fae:	491c      	ldr	r1, [pc, #112]	; (2020 <TeensyTimerTool::TMR_t<3u>::isr()+0x98>)
    1fb0:	b173      	cbz	r3, 1fd0 <TeensyTimerTool::TMR_t<3u>::isr()+0x48>
    1fb2:	4b1d      	ldr	r3, [pc, #116]	; (2028 <TeensyTimerTool::TMR_t<3u>::isr()+0xa0>)
    1fb4:	681a      	ldr	r2, [r3, #0]
    1fb6:	8a93      	ldrh	r3, [r2, #20]
    1fb8:	06db      	lsls	r3, r3, #27
    1fba:	d509      	bpl.n	1fd0 <TeensyTimerTool::TMR_t<3u>::isr()+0x48>
        {
            pCH1->CSCTRL &= ~TMR_CSCTRL_TCF1;
    1fbc:	8a93      	ldrh	r3, [r2, #20]
    1fbe:	f101 0010 	add.w	r0, r1, #16
    1fc2:	69c9      	ldr	r1, [r1, #28]
    1fc4:	f023 0310 	bic.w	r3, r3, #16
    1fc8:	041b      	lsls	r3, r3, #16
    1fca:	0c1b      	lsrs	r3, r3, #16
    1fcc:	8293      	strh	r3, [r2, #20]
    1fce:	4788      	blx	r1
            callbacks[1]();
        }

        if (callbacks[2] != nullptr && pCH2->CSCTRL & TMR_CSCTRL_TCF1)
    1fd0:	6aa3      	ldr	r3, [r4, #40]	; 0x28
    1fd2:	4913      	ldr	r1, [pc, #76]	; (2020 <TeensyTimerTool::TMR_t<3u>::isr()+0x98>)
    1fd4:	b123      	cbz	r3, 1fe0 <TeensyTimerTool::TMR_t<3u>::isr()+0x58>
    1fd6:	4b15      	ldr	r3, [pc, #84]	; (202c <TeensyTimerTool::TMR_t<3u>::isr()+0xa4>)
    1fd8:	681a      	ldr	r2, [r3, #0]
    1fda:	8a93      	ldrh	r3, [r2, #20]
    1fdc:	06d8      	lsls	r0, r3, #27
    1fde:	d414      	bmi.n	200a <TeensyTimerTool::TMR_t<3u>::isr()+0x82>
        {
            pCH2->CSCTRL &= ~TMR_CSCTRL_TCF1;
            callbacks[2]();
        }

        if (callbacks[3] != nullptr && pCH3->CSCTRL & TMR_CSCTRL_TCF1)
    1fe0:	6ba3      	ldr	r3, [r4, #56]	; 0x38
    1fe2:	490f      	ldr	r1, [pc, #60]	; (2020 <TeensyTimerTool::TMR_t<3u>::isr()+0x98>)
    1fe4:	b173      	cbz	r3, 2004 <TeensyTimerTool::TMR_t<3u>::isr()+0x7c>
    1fe6:	4b12      	ldr	r3, [pc, #72]	; (2030 <TeensyTimerTool::TMR_t<3u>::isr()+0xa8>)
    1fe8:	681a      	ldr	r2, [r3, #0]
    1fea:	8a93      	ldrh	r3, [r2, #20]
    1fec:	06db      	lsls	r3, r3, #27
    1fee:	d509      	bpl.n	2004 <TeensyTimerTool::TMR_t<3u>::isr()+0x7c>
        {
            pCH3->CSCTRL &= ~TMR_CSCTRL_TCF1;
    1ff0:	8a93      	ldrh	r3, [r2, #20]
    1ff2:	f101 0030 	add.w	r0, r1, #48	; 0x30
    1ff6:	6bc9      	ldr	r1, [r1, #60]	; 0x3c
    1ff8:	f023 0310 	bic.w	r3, r3, #16
    1ffc:	041b      	lsls	r3, r3, #16
    1ffe:	0c1b      	lsrs	r3, r3, #16
    2000:	8293      	strh	r3, [r2, #20]
    2002:	4788      	blx	r1
            callbacks[3]();
        }
        asm volatile("dsb"); //wait until register changes propagated through the cache
    2004:	f3bf 8f4f 	dsb	sy
    }
    2008:	bd10      	pop	{r4, pc}
            callbacks[1]();
        }

        if (callbacks[2] != nullptr && pCH2->CSCTRL & TMR_CSCTRL_TCF1)
        {
            pCH2->CSCTRL &= ~TMR_CSCTRL_TCF1;
    200a:	8a93      	ldrh	r3, [r2, #20]
    200c:	f101 0020 	add.w	r0, r1, #32
    2010:	6ac9      	ldr	r1, [r1, #44]	; 0x2c
    2012:	f023 0310 	bic.w	r3, r3, #16
    2016:	041b      	lsls	r3, r3, #16
    2018:	0c1b      	lsrs	r3, r3, #16
    201a:	8293      	strh	r3, [r2, #20]
    201c:	4788      	blx	r1
    201e:	e7df      	b.n	1fe0 <TeensyTimerTool::TMR_t<3u>::isr()+0x58>
    2020:	20001898 	.word	0x20001898
    2024:	20001894 	.word	0x20001894
    2028:	2000184c 	.word	0x2000184c
    202c:	20001848 	.word	0x20001848
    2030:	20001844 	.word	0x20001844

00002034 <TeensyTimerTool::GPT_t<0u>::isr()>:
    }

    template <unsigned tmoduleNr>
    void GPT_t<tmoduleNr>::isr()
    {
        if (!channel->periodic)
    2034:	4b0a      	ldr	r3, [pc, #40]	; (2060 <TeensyTimerTool::GPT_t<0u>::isr()+0x2c>)
    2036:	681b      	ldr	r3, [r3, #0]
    2038:	7a1b      	ldrb	r3, [r3, #8]
        }
        return nullptr;
    }

    template <unsigned tmoduleNr>
    void GPT_t<tmoduleNr>::isr()
    203a:	b510      	push	{r4, lr}
    {
        if (!channel->periodic)
    203c:	b923      	cbnz	r3, 2048 <TeensyTimerTool::GPT_t<0u>::isr()+0x14>
            pGPT->CR &= ~GPT_CR_EN; // stop timer in one shot mode
    203e:	4a09      	ldr	r2, [pc, #36]	; (2064 <TeensyTimerTool::GPT_t<0u>::isr()+0x30>)
    2040:	6813      	ldr	r3, [r2, #0]
    2042:	f023 0301 	bic.w	r3, r3, #1
    2046:	6013      	str	r3, [r2, #0]
    2048:	4807      	ldr	r0, [pc, #28]	; (2068 <TeensyTimerTool::GPT_t<0u>::isr()+0x34>)

        pGPT->SR = 0x3F; // reset all interrupt flags
    204a:	223f      	movs	r2, #63	; 0x3f
    204c:	4c05      	ldr	r4, [pc, #20]	; (2064 <TeensyTimerTool::GPT_t<0u>::isr()+0x30>)
  template<typename _Res, typename... _ArgTypes>
    _Res
    function<_Res(_ArgTypes...)>::
    operator()(_ArgTypes... __args) const
    {
      if (_M_empty())
    204e:	6883      	ldr	r3, [r0, #8]
    2050:	60a2      	str	r2, [r4, #8]
    2052:	b11b      	cbz	r3, 205c <TeensyTimerTool::GPT_t<0u>::isr()+0x28>
	__throw_bad_function_call();
      return _M_invoker(_M_functor, std::forward<_ArgTypes>(__args)...);
    2054:	68c3      	ldr	r3, [r0, #12]
    2056:	4798      	blx	r3
        callback();      // we only enabled the OF1 interrupt-> no need to find out which interrupt was actually called
        pGPT->SR;                 // re-read flag to prevent re entering, takes very long, seems to work without?
    2058:	68a3      	ldr	r3, [r4, #8]
    205a:	bd10      	pop	{r4, pc}
    205c:	e7fe      	b.n	205c <TeensyTimerTool::GPT_t<0u>::isr()+0x28>
    205e:	bf00      	nop
    2060:	200017e0 	.word	0x200017e0
    2064:	401ec000 	.word	0x401ec000
    2068:	20001884 	.word	0x20001884

0000206c <TeensyTimerTool::GPT_t<1u>::isr()>:
    }

    template <unsigned tmoduleNr>
    void GPT_t<tmoduleNr>::isr()
    {
        if (!channel->periodic)
    206c:	4b0a      	ldr	r3, [pc, #40]	; (2098 <TeensyTimerTool::GPT_t<1u>::isr()+0x2c>)
    206e:	681b      	ldr	r3, [r3, #0]
    2070:	7a1b      	ldrb	r3, [r3, #8]
        }
        return nullptr;
    }

    template <unsigned tmoduleNr>
    void GPT_t<tmoduleNr>::isr()
    2072:	b510      	push	{r4, lr}
    {
        if (!channel->periodic)
    2074:	b923      	cbnz	r3, 2080 <TeensyTimerTool::GPT_t<1u>::isr()+0x14>
            pGPT->CR &= ~GPT_CR_EN; // stop timer in one shot mode
    2076:	4a09      	ldr	r2, [pc, #36]	; (209c <TeensyTimerTool::GPT_t<1u>::isr()+0x30>)
    2078:	6813      	ldr	r3, [r2, #0]
    207a:	f023 0301 	bic.w	r3, r3, #1
    207e:	6013      	str	r3, [r2, #0]
    2080:	4807      	ldr	r0, [pc, #28]	; (20a0 <TeensyTimerTool::GPT_t<1u>::isr()+0x34>)

        pGPT->SR = 0x3F; // reset all interrupt flags
    2082:	223f      	movs	r2, #63	; 0x3f
    2084:	4c05      	ldr	r4, [pc, #20]	; (209c <TeensyTimerTool::GPT_t<1u>::isr()+0x30>)
  template<typename _Res, typename... _ArgTypes>
    _Res
    function<_Res(_ArgTypes...)>::
    operator()(_ArgTypes... __args) const
    {
      if (_M_empty())
    2086:	6883      	ldr	r3, [r0, #8]
    2088:	60a2      	str	r2, [r4, #8]
    208a:	b11b      	cbz	r3, 2094 <TeensyTimerTool::GPT_t<1u>::isr()+0x28>
	__throw_bad_function_call();
      return _M_invoker(_M_functor, std::forward<_ArgTypes>(__args)...);
    208c:	68c3      	ldr	r3, [r0, #12]
    208e:	4798      	blx	r3
        callback();      // we only enabled the OF1 interrupt-> no need to find out which interrupt was actually called
        pGPT->SR;                 // re-read flag to prevent re entering, takes very long, seems to work without?
    2090:	68a3      	ldr	r3, [r4, #8]
    2092:	bd10      	pop	{r4, pc}
    2094:	e7fe      	b.n	2094 <TeensyTimerTool::GPT_t<1u>::isr()+0x28>
    2096:	bf00      	nop
    2098:	200017d8 	.word	0x200017d8
    209c:	401f0000 	.word	0x401f0000
    20a0:	20001874 	.word	0x20001874

000020a4 <__tcf_0>:

    template <unsigned m>
    bool TMR_t<m>::isInitialized = false;

    template <unsigned m>
    callback_t TMR_t<m>::callbacks[4];
    20a4:	b538      	push	{r3, r4, r5, lr}
    20a6:	4c06      	ldr	r4, [pc, #24]	; (20c0 <__tcf_0+0x1c>)
    20a8:	f1a4 0540 	sub.w	r5, r4, #64	; 0x40
    20ac:	3c10      	subs	r4, #16

    _Function_base() : _M_manager(nullptr) { }

    ~_Function_base()
    {
      if (_M_manager)
    20ae:	68a3      	ldr	r3, [r4, #8]
	_M_manager(_M_functor, _M_functor, __destroy_functor);
    20b0:	2203      	movs	r2, #3
    20b2:	4621      	mov	r1, r4
    20b4:	4620      	mov	r0, r4

    _Function_base() : _M_manager(nullptr) { }

    ~_Function_base()
    {
      if (_M_manager)
    20b6:	b103      	cbz	r3, 20ba <__tcf_0+0x16>
	_M_manager(_M_functor, _M_functor, __destroy_functor);
    20b8:	4798      	blx	r3
    20ba:	42ac      	cmp	r4, r5
    20bc:	d1f6      	bne.n	20ac <__tcf_0+0x8>
    20be:	bd38      	pop	{r3, r4, r5, pc}
    20c0:	200019a4 	.word	0x200019a4

000020c4 <__tcf_1>:
    20c4:	b538      	push	{r3, r4, r5, lr}
    20c6:	4c06      	ldr	r4, [pc, #24]	; (20e0 <__tcf_1+0x1c>)
    20c8:	f1a4 0540 	sub.w	r5, r4, #64	; 0x40
    20cc:	3c10      	subs	r4, #16

    _Function_base() : _M_manager(nullptr) { }

    ~_Function_base()
    {
      if (_M_manager)
    20ce:	68a3      	ldr	r3, [r4, #8]
	_M_manager(_M_functor, _M_functor, __destroy_functor);
    20d0:	2203      	movs	r2, #3
    20d2:	4621      	mov	r1, r4
    20d4:	4620      	mov	r0, r4

    _Function_base() : _M_manager(nullptr) { }

    ~_Function_base()
    {
      if (_M_manager)
    20d6:	b103      	cbz	r3, 20da <__tcf_1+0x16>
	_M_manager(_M_functor, _M_functor, __destroy_functor);
    20d8:	4798      	blx	r3
    20da:	42ac      	cmp	r4, r5
    20dc:	d1f6      	bne.n	20cc <__tcf_1+0x8>
    20de:	bd38      	pop	{r3, r4, r5, pc}
    20e0:	20001960 	.word	0x20001960

000020e4 <__tcf_2>:
    20e4:	b538      	push	{r3, r4, r5, lr}
    20e6:	4c06      	ldr	r4, [pc, #24]	; (2100 <__tcf_2+0x1c>)
    20e8:	f1a4 0540 	sub.w	r5, r4, #64	; 0x40
    20ec:	3c10      	subs	r4, #16

    _Function_base() : _M_manager(nullptr) { }

    ~_Function_base()
    {
      if (_M_manager)
    20ee:	68a3      	ldr	r3, [r4, #8]
	_M_manager(_M_functor, _M_functor, __destroy_functor);
    20f0:	2203      	movs	r2, #3
    20f2:	4621      	mov	r1, r4
    20f4:	4620      	mov	r0, r4

    _Function_base() : _M_manager(nullptr) { }

    ~_Function_base()
    {
      if (_M_manager)
    20f6:	b103      	cbz	r3, 20fa <__tcf_2+0x16>
	_M_manager(_M_functor, _M_functor, __destroy_functor);
    20f8:	4798      	blx	r3
    20fa:	42ac      	cmp	r4, r5
    20fc:	d1f6      	bne.n	20ec <__tcf_2+0x8>
    20fe:	bd38      	pop	{r3, r4, r5, pc}
    2100:	2000191c 	.word	0x2000191c

00002104 <__tcf_3>:
    2104:	b538      	push	{r3, r4, r5, lr}
    2106:	4c06      	ldr	r4, [pc, #24]	; (2120 <__tcf_3+0x1c>)
    2108:	f1a4 0540 	sub.w	r5, r4, #64	; 0x40
    210c:	3c10      	subs	r4, #16

    _Function_base() : _M_manager(nullptr) { }

    ~_Function_base()
    {
      if (_M_manager)
    210e:	68a3      	ldr	r3, [r4, #8]
	_M_manager(_M_functor, _M_functor, __destroy_functor);
    2110:	2203      	movs	r2, #3
    2112:	4621      	mov	r1, r4
    2114:	4620      	mov	r0, r4

    _Function_base() : _M_manager(nullptr) { }

    ~_Function_base()
    {
      if (_M_manager)
    2116:	b103      	cbz	r3, 211a <__tcf_3+0x16>
	_M_manager(_M_functor, _M_functor, __destroy_functor);
    2118:	4798      	blx	r3
    211a:	42ac      	cmp	r4, r5
    211c:	d1f6      	bne.n	210c <__tcf_3+0x8>
    211e:	bd38      	pop	{r3, r4, r5, pc}
    2120:	200018d8 	.word	0x200018d8

00002124 <TeensyTimerTool::TckChannel<unsigned long>::triggerDirect(unsigned long)>:
        this->triggered = false;
        return errorCode::OK;
    }

    template <typename CounterType>
    errorCode TckChannel<CounterType>::triggerDirect(CounterType reload)
    2124:	b410      	push	{r4}
    // 32bit Counter -------------------------------------------------------------------------

    template <>
    inline uint32_t TckChannel<uint32_t>::getCycleCounter()
    {
        return ARM_DWT_CYCCNT; //directly use the cycle counter for uint32_t
    2126:	4c06      	ldr	r4, [pc, #24]	; (2140 <TeensyTimerTool::TckChannel<unsigned long>::triggerDirect(unsigned long)+0x1c>)
        this->triggered = false;
        return errorCode::OK;
    }

    template <typename CounterType>
    errorCode TckChannel<CounterType>::triggerDirect(CounterType reload)
    2128:	4603      	mov	r3, r0
    {
        this->startCnt = getCycleCounter();
        this->nextPeriod = reload;
        this->currentPeriod = this->nextPeriod;
        this->triggered = true;
    212a:	2201      	movs	r2, #1
        return errorCode::OK;
    }
    212c:	2000      	movs	r0, #0
    // 32bit Counter -------------------------------------------------------------------------

    template <>
    inline uint32_t TckChannel<uint32_t>::getCycleCounter()
    {
        return ARM_DWT_CYCCNT; //directly use the cycle counter for uint32_t
    212e:	6824      	ldr	r4, [r4, #0]

    template <typename CounterType>
    errorCode TckChannel<CounterType>::triggerDirect(CounterType reload)
    {
        this->startCnt = getCycleCounter();
        this->nextPeriod = reload;
    2130:	6259      	str	r1, [r3, #36]	; 0x24
    }

    template <typename CounterType>
    errorCode TckChannel<CounterType>::triggerDirect(CounterType reload)
    {
        this->startCnt = getCycleCounter();
    2132:	61dc      	str	r4, [r3, #28]
        this->nextPeriod = reload;
        this->currentPeriod = this->nextPeriod;
    2134:	6219      	str	r1, [r3, #32]
        this->triggered = true;
    2136:	765a      	strb	r2, [r3, #25]
        return errorCode::OK;
    }
    2138:	f85d 4b04 	ldr.w	r4, [sp], #4
    213c:	4770      	bx	lr
    213e:	bf00      	nop
    2140:	e0001004 	.word	0xe0001004

00002144 <TeensyTimerTool::TckChannel<unsigned long>::start()>:
    // 32bit Counter -------------------------------------------------------------------------

    template <>
    inline uint32_t TckChannel<uint32_t>::getCycleCounter()
    {
        return ARM_DWT_CYCCNT; //directly use the cycle counter for uint32_t
    2144:	4a03      	ldr	r2, [pc, #12]	; (2154 <TeensyTimerTool::TckChannel<unsigned long>::start()+0x10>)

        return errorCode::OK;
    }

    template <typename T>
    errorCode TckChannel<T>::start()
    2146:	4603      	mov	r3, r0
    {
        this->startCnt = getCycleCounter();
        this->triggered = true;
    2148:	2101      	movs	r1, #1
        return errorCode::OK;
    }
    214a:	2000      	movs	r0, #0
    // 32bit Counter -------------------------------------------------------------------------

    template <>
    inline uint32_t TckChannel<uint32_t>::getCycleCounter()
    {
        return ARM_DWT_CYCCNT; //directly use the cycle counter for uint32_t
    214c:	6812      	ldr	r2, [r2, #0]

    template <typename T>
    errorCode TckChannel<T>::start()
    {
        this->startCnt = getCycleCounter();
        this->triggered = true;
    214e:	7659      	strb	r1, [r3, #25]
    }

    template <typename T>
    errorCode TckChannel<T>::start()
    {
        this->startCnt = getCycleCounter();
    2150:	61da      	str	r2, [r3, #28]
        this->triggered = true;
        return errorCode::OK;
    }
    2152:	4770      	bx	lr
    2154:	e0001004 	.word	0xe0001004

00002158 <TeensyTimerTool::TckChannel<unsigned long>::stop()>:

    template <typename T>
    errorCode TckChannel<T>::stop()
    {
        this->triggered = false;
    2158:	2300      	movs	r3, #0
    215a:	7643      	strb	r3, [r0, #25]
        return errorCode::OK;
    }
    215c:	4618      	mov	r0, r3
    215e:	4770      	bx	lr

00002160 <TeensyTimerTool::TckChannel<unsigned long>::getMaxPeriod() const>:
        {
            *reload = microsecondToCycles(delay);
            return errorCode::OK;
        }

        float getMaxPeriod() const override { return getMaxMicros() / 1E6; } // seconds
    2160:	eddf 6a05 	vldr	s13, [pc, #20]	; 2178 <TeensyTimerTool::TckChannel<unsigned long>::getMaxPeriod() const+0x18>
    2164:	ed90 7a0c 	vldr	s14, [r0, #48]	; 0x30
    2168:	eddf 7a04 	vldr	s15, [pc, #16]	; 217c <TeensyTimerTool::TckChannel<unsigned long>::getMaxPeriod() const+0x1c>
    216c:	ee86 0a87 	vdiv.f32	s0, s13, s14
    2170:	ee80 0a27 	vdiv.f32	s0, s0, s15
    2174:	4770      	bx	lr
    2176:	bf00      	nop
    2178:	4f700000 	.word	0x4f700000
    217c:	49742400 	.word	0x49742400

00002180 <TeensyTimerTool::TckChannel<unsigned long>::tick()>:
    {
        return triggerDirect(microsecondToCycles(delay));
    }

    template <typename counter_t>
    bool TckChannel<counter_t>::tick()
    2180:	b5f8      	push	{r3, r4, r5, r6, r7, lr}
    {
        static bool lock = false;
        counter_t now = getCycleCounter();
        if (!lock && this->currentPeriod != 0 && this->triggered && (now - this->startCnt) >= this->currentPeriod)
    2182:	4d10      	ldr	r5, [pc, #64]	; (21c4 <TeensyTimerTool::TckChannel<unsigned long>::tick()+0x44>)
    // 32bit Counter -------------------------------------------------------------------------

    template <>
    inline uint32_t TckChannel<uint32_t>::getCycleCounter()
    {
        return ARM_DWT_CYCCNT; //directly use the cycle counter for uint32_t
    2184:	4b10      	ldr	r3, [pc, #64]	; (21c8 <TeensyTimerTool::TckChannel<unsigned long>::tick()+0x48>)
    template <typename counter_t>
    bool TckChannel<counter_t>::tick()
    {
        static bool lock = false;
        counter_t now = getCycleCounter();
        if (!lock && this->currentPeriod != 0 && this->triggered && (now - this->startCnt) >= this->currentPeriod)
    2186:	782c      	ldrb	r4, [r5, #0]
    // 32bit Counter -------------------------------------------------------------------------

    template <>
    inline uint32_t TckChannel<uint32_t>::getCycleCounter()
    {
        return ARM_DWT_CYCCNT; //directly use the cycle counter for uint32_t
    2188:	681a      	ldr	r2, [r3, #0]
    template <typename counter_t>
    bool TckChannel<counter_t>::tick()
    {
        static bool lock = false;
        counter_t now = getCycleCounter();
        if (!lock && this->currentPeriod != 0 && this->triggered && (now - this->startCnt) >= this->currentPeriod)
    218a:	b9b4      	cbnz	r4, 21ba <TeensyTimerTool::TckChannel<unsigned long>::tick()+0x3a>
    218c:	6a01      	ldr	r1, [r0, #32]
    218e:	b191      	cbz	r1, 21b6 <TeensyTimerTool::TckChannel<unsigned long>::tick()+0x36>
    2190:	7e46      	ldrb	r6, [r0, #25]
    2192:	b186      	cbz	r6, 21b6 <TeensyTimerTool::TckChannel<unsigned long>::tick()+0x36>
    2194:	69c3      	ldr	r3, [r0, #28]
    2196:	1ad2      	subs	r2, r2, r3
    2198:	4291      	cmp	r1, r2
    219a:	d80c      	bhi.n	21b6 <TeensyTimerTool::TckChannel<unsigned long>::tick()+0x36>
        {
            lock = true;
            //this->startCnt = now;
            this->startCnt += currentPeriod;
    219c:	440b      	add	r3, r1
    {
        static bool lock = false;
        counter_t now = getCycleCounter();
        if (!lock && this->currentPeriod != 0 && this->triggered && (now - this->startCnt) >= this->currentPeriod)
        {
            lock = true;
    219e:	2701      	movs	r7, #1
            //this->startCnt = now;
            this->startCnt += currentPeriod;
            this->triggered = this->periodic; // i.e., stays triggerd if periodic, stops if oneShot
    21a0:	7e01      	ldrb	r1, [r0, #24]
  template<typename _Res, typename... _ArgTypes>
    _Res
    function<_Res(_ArgTypes...)>::
    operator()(_ArgTypes... __args) const
    {
      if (_M_empty())
    21a2:	6902      	ldr	r2, [r0, #16]
        counter_t now = getCycleCounter();
        if (!lock && this->currentPeriod != 0 && this->triggered && (now - this->startCnt) >= this->currentPeriod)
        {
            lock = true;
            //this->startCnt = now;
            this->startCnt += currentPeriod;
    21a4:	61c3      	str	r3, [r0, #28]
    {
        static bool lock = false;
        counter_t now = getCycleCounter();
        if (!lock && this->currentPeriod != 0 && this->triggered && (now - this->startCnt) >= this->currentPeriod)
        {
            lock = true;
    21a6:	702f      	strb	r7, [r5, #0]
            //this->startCnt = now;
            this->startCnt += currentPeriod;
            this->triggered = this->periodic; // i.e., stays triggerd if periodic, stops if oneShot
    21a8:	7641      	strb	r1, [r0, #25]
    21aa:	b14a      	cbz	r2, 21c0 <TeensyTimerTool::TckChannel<unsigned long>::tick()+0x40>
	__throw_bad_function_call();
      return _M_invoker(_M_functor, std::forward<_ArgTypes>(__args)...);
    21ac:	6943      	ldr	r3, [r0, #20]
    21ae:	3008      	adds	r0, #8
    21b0:	4798      	blx	r3
            callback();
            lock = false;
    21b2:	702c      	strb	r4, [r5, #0]
            return true;
    21b4:	4634      	mov	r4, r6
        } else
        {
            return false;
        }
    }
    21b6:	4620      	mov	r0, r4
    21b8:	bdf8      	pop	{r3, r4, r5, r6, r7, pc}
            callback();
            lock = false;
            return true;
        } else
        {
            return false;
    21ba:	2400      	movs	r4, #0
        }
    }
    21bc:	4620      	mov	r0, r4
    21be:	bdf8      	pop	{r3, r4, r5, r6, r7, pc}
    21c0:	e7fe      	b.n	21c0 <TeensyTimerTool::TckChannel<unsigned long>::tick()+0x40>
    21c2:	bf00      	nop
    21c4:	200017d6 	.word	0x200017d6
    21c8:	e0001004 	.word	0xe0001004

000021cc <TeensyTimerTool::TckChannel<unsigned long>::~TckChannel()>:
    template <typename CounterType>
    class TckChannel : public TckChannelBase
    {
     public:
        TckChannel();
        virtual ~TckChannel(){}; //TBD
    21cc:	4a06      	ldr	r2, [pc, #24]	; (21e8 <TeensyTimerTool::TckChannel<unsigned long>::~TckChannel()+0x1c>)

    _Function_base() : _M_manager(nullptr) { }

    ~_Function_base()
    {
      if (_M_manager)
    21ce:	6903      	ldr	r3, [r0, #16]
    21d0:	b510      	push	{r4, lr}
    21d2:	4604      	mov	r4, r0
    21d4:	6002      	str	r2, [r0, #0]
    21d6:	b123      	cbz	r3, 21e2 <TeensyTimerTool::TckChannel<unsigned long>::~TckChannel()+0x16>
	_M_manager(_M_functor, _M_functor, __destroy_functor);
    21d8:	f100 0108 	add.w	r1, r0, #8
    21dc:	2203      	movs	r2, #3
    21de:	4608      	mov	r0, r1
    21e0:	4798      	blx	r3
    21e2:	4620      	mov	r0, r4
    21e4:	bd10      	pop	{r4, pc}
    21e6:	bf00      	nop
    21e8:	20000208 	.word	0x20000208

000021ec <TeensyTimerTool::GPT_t<0u>::getTimer()>:

    template <unsigned moduleNr>
    IMXRT_GPT_t* const GPT_t<moduleNr>::pGPT = reinterpret_cast<IMXRT_GPT_t*>(moduleNr == 0 ? &IMXRT_GPT1 : &IMXRT_GPT2);

    template <unsigned moduleNr>
    ITimerChannel* GPT_t<moduleNr>::getTimer()
    21ec:	b538      	push	{r3, r4, r5, lr}
    {
        if (!isInitialized)
    21ee:	4b1d      	ldr	r3, [pc, #116]	; (2264 <TeensyTimerTool::GPT_t<0u>::getTimer()+0x78>)
    21f0:	781a      	ldrb	r2, [r3, #0]
    21f2:	2a00      	cmp	r2, #0
    21f4:	d133      	bne.n	225e <TeensyTimerTool::GPT_t<0u>::getTimer()+0x72>
        {
            isInitialized = true;

            if (moduleNr == 0) // GPT1 clock settings
                CCM_CCGR1 |= CCM_CCGR1_GPT1_BUS(CCM_CCGR_ON) | CCM_CCGR1_GPT1_SERIAL(CCM_CCGR_ON);
    21f6:	4c1c      	ldr	r4, [pc, #112]	; (2268 <TeensyTimerTool::GPT_t<0u>::getTimer()+0x7c>)
    template <unsigned moduleNr>
    ITimerChannel* GPT_t<moduleNr>::getTimer()
    {
        if (!isInitialized)
        {
            isInitialized = true;
    21f8:	2101      	movs	r1, #1
            if(USE_GPT_PIT_150MHz) // timer clock setting from config.h
                CCM_CSCMR1 &= ~CCM_CSCMR1_PERCLK_CLK_SEL; // 150MHz
            else
                CCM_CSCMR1 |= CCM_CSCMR1_PERCLK_CLK_SEL;  // 24MHz

            pGPT->CR = GPT_CR_CLKSRC(0x001) | GPT_CR_ENMOD; // stopped, restart mode and peripheral clock
    21fa:	4d1c      	ldr	r5, [pc, #112]	; (226c <TeensyTimerTool::GPT_t<0u>::getTimer()+0x80>)
    21fc:	2242      	movs	r2, #66	; 0x42
    template <unsigned moduleNr>
    ITimerChannel* GPT_t<moduleNr>::getTimer()
    {
        if (!isInitialized)
        {
            isInitialized = true;
    21fe:	7019      	strb	r1, [r3, #0]

            if (moduleNr == 0) // GPT1 clock settings
                CCM_CCGR1 |= CCM_CCGR1_GPT1_BUS(CCM_CCGR_ON) | CCM_CCGR1_GPT1_SERIAL(CCM_CCGR_ON);
    2200:	6ee3      	ldr	r3, [r4, #108]	; 0x6c
#define DMA_NUM_CHANNELS        32

#ifdef __cplusplus
extern "C" void (* _VectorsRam[NVIC_NUM_INTERRUPTS+16])(void);
static inline void attachInterruptVector(IRQ_NUMBER_t irq, void (*function)(void)) __attribute__((always_inline, unused));
static inline void attachInterruptVector(IRQ_NUMBER_t irq, void (*function)(void)) { _VectorsRam[irq + 16] = function; asm volatile("": : :"memory"); }
    2202:	491b      	ldr	r1, [pc, #108]	; (2270 <TeensyTimerTool::GPT_t<0u>::getTimer()+0x84>)
    2204:	f443 0370 	orr.w	r3, r3, #15728640	; 0xf00000
    2208:	481a      	ldr	r0, [pc, #104]	; (2274 <TeensyTimerTool::GPT_t<0u>::getTimer()+0x88>)
    220a:	66e3      	str	r3, [r4, #108]	; 0x6c
                CCM_CCGR0 |= CCM_CCGR0_GPT2_BUS(CCM_CCGR_ON) | CCM_CCGR0_GPT2_SERIAL(CCM_CCGR_ON);

            if(USE_GPT_PIT_150MHz) // timer clock setting from config.h
                CCM_CSCMR1 &= ~CCM_CSCMR1_PERCLK_CLK_SEL; // 150MHz
            else
                CCM_CSCMR1 |= CCM_CSCMR1_PERCLK_CLK_SEL;  // 24MHz
    220c:	69e3      	ldr	r3, [r4, #28]
    220e:	f8c1 01d0 	str.w	r0, [r1, #464]	; 0x1d0
    2212:	f043 0340 	orr.w	r3, r3, #64	; 0x40
    2216:	61e3      	str	r3, [r4, #28]

            pGPT->CR = GPT_CR_CLKSRC(0x001) | GPT_CR_ENMOD; // stopped, restart mode and peripheral clock
    2218:	602a      	str	r2, [r5, #0]

            attachInterruptVector(irq, isr);
            NVIC_ENABLE_IRQ(irq);
    221a:	4b17      	ldr	r3, [pc, #92]	; (2278 <TeensyTimerTool::GPT_t<0u>::getTimer()+0x8c>)
    221c:	2210      	movs	r2, #16

            channel = new GptChannel(pGPT, &callback);
    221e:	2018      	movs	r0, #24
                CCM_CSCMR1 |= CCM_CSCMR1_PERCLK_CLK_SEL;  // 24MHz

            pGPT->CR = GPT_CR_CLKSRC(0x001) | GPT_CR_ENMOD; // stopped, restart mode and peripheral clock

            attachInterruptVector(irq, isr);
            NVIC_ENABLE_IRQ(irq);
    2220:	601a      	str	r2, [r3, #0]

            channel = new GptChannel(pGPT, &callback);
    2222:	f002 fbdd 	bl	49e0 <operator new(unsigned int)>
    // IMPLEMENTATION ==============================================

    GptChannel::GptChannel(IMXRT_GPT_t* registers, callback_t* cbStorage)
        : ITimerChannel(cbStorage), regs(registers)
    {
        clock = (CCM_CSCMR1 & CCM_CSCMR1_PERCLK_CLK_SEL) ? 24 : (F_BUS_ACTUAL / 1000000);
    2226:	69e2      	ldr	r2, [r4, #28]
    2228:	4603      	mov	r3, r0
    };

    // IMPLEMENTATION ==============================================

    GptChannel::GptChannel(IMXRT_GPT_t* registers, callback_t* cbStorage)
        : ITimerChannel(cbStorage), regs(registers)
    222a:	4914      	ldr	r1, [pc, #80]	; (227c <TeensyTimerTool::GPT_t<0u>::getTimer()+0x90>)

    // IMPLEMENTATION ====================================================

    ITimerChannel::ITimerChannel(callback_t* cbStorage)
    {
        this->pCallback = cbStorage;
    222c:	4814      	ldr	r0, [pc, #80]	; (2280 <TeensyTimerTool::GPT_t<0u>::getTimer()+0x94>)
    {
        clock = (CCM_CSCMR1 & CCM_CSCMR1_PERCLK_CLK_SEL) ? 24 : (F_BUS_ACTUAL / 1000000);
    222e:	0652      	lsls	r2, r2, #25
    };

    // IMPLEMENTATION ==============================================

    GptChannel::GptChannel(IMXRT_GPT_t* registers, callback_t* cbStorage)
        : ITimerChannel(cbStorage), regs(registers)
    2230:	60dd      	str	r5, [r3, #12]
    2232:	6058      	str	r0, [r3, #4]
    2234:	6019      	str	r1, [r3, #0]
    {
        clock = (CCM_CSCMR1 & CCM_CSCMR1_PERCLK_CLK_SEL) ? 24 : (F_BUS_ACTUAL / 1000000);
    2236:	d507      	bpl.n	2248 <TeensyTimerTool::GPT_t<0u>::getTimer()+0x5c>
    2238:	eef3 7a08 	vmov.f32	s15, #56	; 0x41c00000  24.0
    223c:	4a11      	ldr	r2, [pc, #68]	; (2284 <TeensyTimerTool::GPT_t<0u>::getTimer()+0x98>)
            return channel;
    223e:	4618      	mov	r0, r3
    2240:	edc3 7a05 	vstr	s15, [r3, #20]
            pGPT->CR = GPT_CR_CLKSRC(0x001) | GPT_CR_ENMOD; // stopped, restart mode and peripheral clock

            attachInterruptVector(irq, isr);
            NVIC_ENABLE_IRQ(irq);

            channel = new GptChannel(pGPT, &callback);
    2244:	6013      	str	r3, [r2, #0]
            return channel;
    2246:	bd38      	pop	{r3, r4, r5, pc}
    2248:	4a0f      	ldr	r2, [pc, #60]	; (2288 <TeensyTimerTool::GPT_t<0u>::getTimer()+0x9c>)
    224a:	4910      	ldr	r1, [pc, #64]	; (228c <TeensyTimerTool::GPT_t<0u>::getTimer()+0xa0>)
    224c:	6812      	ldr	r2, [r2, #0]
    224e:	fba1 1202 	umull	r1, r2, r1, r2
    2252:	0c92      	lsrs	r2, r2, #18
    2254:	ee07 2a90 	vmov	s15, r2
    2258:	eef8 7ae7 	vcvt.f32.s32	s15, s15
    225c:	e7ee      	b.n	223c <TeensyTimerTool::GPT_t<0u>::getTimer()+0x50>
        }
        return nullptr;
    225e:	2000      	movs	r0, #0
    }
    2260:	bd38      	pop	{r3, r4, r5, pc}
    2262:	bf00      	nop
    2264:	200017e4 	.word	0x200017e4
    2268:	400fc000 	.word	0x400fc000
    226c:	401ec000 	.word	0x401ec000
    2270:	20002000 	.word	0x20002000
    2274:	00002035 	.word	0x00002035
    2278:	e000e10c 	.word	0xe000e10c
    227c:	200001c0 	.word	0x200001c0
    2280:	20001884 	.word	0x20001884
    2284:	200017e0 	.word	0x200017e0
    2288:	200006d4 	.word	0x200006d4
    228c:	431bde83 	.word	0x431bde83

00002290 <TeensyTimerTool::GPT_t<1u>::getTimer()>:

    template <unsigned moduleNr>
    IMXRT_GPT_t* const GPT_t<moduleNr>::pGPT = reinterpret_cast<IMXRT_GPT_t*>(moduleNr == 0 ? &IMXRT_GPT1 : &IMXRT_GPT2);

    template <unsigned moduleNr>
    ITimerChannel* GPT_t<moduleNr>::getTimer()
    2290:	b538      	push	{r3, r4, r5, lr}
    {
        if (!isInitialized)
    2292:	4b1d      	ldr	r3, [pc, #116]	; (2308 <TeensyTimerTool::GPT_t<1u>::getTimer()+0x78>)
    2294:	781a      	ldrb	r2, [r3, #0]
    2296:	2a00      	cmp	r2, #0
    2298:	d133      	bne.n	2302 <TeensyTimerTool::GPT_t<1u>::getTimer()+0x72>
            isInitialized = true;

            if (moduleNr == 0) // GPT1 clock settings
                CCM_CCGR1 |= CCM_CCGR1_GPT1_BUS(CCM_CCGR_ON) | CCM_CCGR1_GPT1_SERIAL(CCM_CCGR_ON);
            else // GPT2
                CCM_CCGR0 |= CCM_CCGR0_GPT2_BUS(CCM_CCGR_ON) | CCM_CCGR0_GPT2_SERIAL(CCM_CCGR_ON);
    229a:	4c1c      	ldr	r4, [pc, #112]	; (230c <TeensyTimerTool::GPT_t<1u>::getTimer()+0x7c>)
    template <unsigned moduleNr>
    ITimerChannel* GPT_t<moduleNr>::getTimer()
    {
        if (!isInitialized)
        {
            isInitialized = true;
    229c:	2101      	movs	r1, #1
            if(USE_GPT_PIT_150MHz) // timer clock setting from config.h
                CCM_CSCMR1 &= ~CCM_CSCMR1_PERCLK_CLK_SEL; // 150MHz
            else
                CCM_CSCMR1 |= CCM_CSCMR1_PERCLK_CLK_SEL;  // 24MHz

            pGPT->CR = GPT_CR_CLKSRC(0x001) | GPT_CR_ENMOD; // stopped, restart mode and peripheral clock
    229e:	4d1c      	ldr	r5, [pc, #112]	; (2310 <TeensyTimerTool::GPT_t<1u>::getTimer()+0x80>)
    22a0:	2242      	movs	r2, #66	; 0x42
    template <unsigned moduleNr>
    ITimerChannel* GPT_t<moduleNr>::getTimer()
    {
        if (!isInitialized)
        {
            isInitialized = true;
    22a2:	7019      	strb	r1, [r3, #0]

            if (moduleNr == 0) // GPT1 clock settings
                CCM_CCGR1 |= CCM_CCGR1_GPT1_BUS(CCM_CCGR_ON) | CCM_CCGR1_GPT1_SERIAL(CCM_CCGR_ON);
            else // GPT2
                CCM_CCGR0 |= CCM_CCGR0_GPT2_BUS(CCM_CCGR_ON) | CCM_CCGR0_GPT2_SERIAL(CCM_CCGR_ON);
    22a4:	6ea3      	ldr	r3, [r4, #104]	; 0x68
    22a6:	491b      	ldr	r1, [pc, #108]	; (2314 <TeensyTimerTool::GPT_t<1u>::getTimer()+0x84>)
    22a8:	f043 6370 	orr.w	r3, r3, #251658240	; 0xf000000
    22ac:	481a      	ldr	r0, [pc, #104]	; (2318 <TeensyTimerTool::GPT_t<1u>::getTimer()+0x88>)
    22ae:	66a3      	str	r3, [r4, #104]	; 0x68

            if(USE_GPT_PIT_150MHz) // timer clock setting from config.h
                CCM_CSCMR1 &= ~CCM_CSCMR1_PERCLK_CLK_SEL; // 150MHz
            else
                CCM_CSCMR1 |= CCM_CSCMR1_PERCLK_CLK_SEL;  // 24MHz
    22b0:	69e3      	ldr	r3, [r4, #28]
    22b2:	f8c1 01d4 	str.w	r0, [r1, #468]	; 0x1d4
    22b6:	f043 0340 	orr.w	r3, r3, #64	; 0x40
    22ba:	61e3      	str	r3, [r4, #28]

            pGPT->CR = GPT_CR_CLKSRC(0x001) | GPT_CR_ENMOD; // stopped, restart mode and peripheral clock
    22bc:	602a      	str	r2, [r5, #0]

            attachInterruptVector(irq, isr);
            NVIC_ENABLE_IRQ(irq);
    22be:	4b17      	ldr	r3, [pc, #92]	; (231c <TeensyTimerTool::GPT_t<1u>::getTimer()+0x8c>)
    22c0:	2220      	movs	r2, #32

            channel = new GptChannel(pGPT, &callback);
    22c2:	2018      	movs	r0, #24
                CCM_CSCMR1 |= CCM_CSCMR1_PERCLK_CLK_SEL;  // 24MHz

            pGPT->CR = GPT_CR_CLKSRC(0x001) | GPT_CR_ENMOD; // stopped, restart mode and peripheral clock

            attachInterruptVector(irq, isr);
            NVIC_ENABLE_IRQ(irq);
    22c4:	601a      	str	r2, [r3, #0]

            channel = new GptChannel(pGPT, &callback);
    22c6:	f002 fb8b 	bl	49e0 <operator new(unsigned int)>
    22ca:	69e2      	ldr	r2, [r4, #28]
    22cc:	4603      	mov	r3, r0
    };

    // IMPLEMENTATION ==============================================

    GptChannel::GptChannel(IMXRT_GPT_t* registers, callback_t* cbStorage)
        : ITimerChannel(cbStorage), regs(registers)
    22ce:	4914      	ldr	r1, [pc, #80]	; (2320 <TeensyTimerTool::GPT_t<1u>::getTimer()+0x90>)
    22d0:	4814      	ldr	r0, [pc, #80]	; (2324 <TeensyTimerTool::GPT_t<1u>::getTimer()+0x94>)
    {
        clock = (CCM_CSCMR1 & CCM_CSCMR1_PERCLK_CLK_SEL) ? 24 : (F_BUS_ACTUAL / 1000000);
    22d2:	0652      	lsls	r2, r2, #25
    };

    // IMPLEMENTATION ==============================================

    GptChannel::GptChannel(IMXRT_GPT_t* registers, callback_t* cbStorage)
        : ITimerChannel(cbStorage), regs(registers)
    22d4:	60dd      	str	r5, [r3, #12]
    22d6:	6058      	str	r0, [r3, #4]
    22d8:	6019      	str	r1, [r3, #0]
    {
        clock = (CCM_CSCMR1 & CCM_CSCMR1_PERCLK_CLK_SEL) ? 24 : (F_BUS_ACTUAL / 1000000);
    22da:	d507      	bpl.n	22ec <TeensyTimerTool::GPT_t<1u>::getTimer()+0x5c>
    22dc:	eef3 7a08 	vmov.f32	s15, #56	; 0x41c00000  24.0
    22e0:	4a11      	ldr	r2, [pc, #68]	; (2328 <TeensyTimerTool::GPT_t<1u>::getTimer()+0x98>)
            return channel;
    22e2:	4618      	mov	r0, r3
    22e4:	edc3 7a05 	vstr	s15, [r3, #20]
            pGPT->CR = GPT_CR_CLKSRC(0x001) | GPT_CR_ENMOD; // stopped, restart mode and peripheral clock

            attachInterruptVector(irq, isr);
            NVIC_ENABLE_IRQ(irq);

            channel = new GptChannel(pGPT, &callback);
    22e8:	6013      	str	r3, [r2, #0]
            return channel;
    22ea:	bd38      	pop	{r3, r4, r5, pc}
    22ec:	4a0f      	ldr	r2, [pc, #60]	; (232c <TeensyTimerTool::GPT_t<1u>::getTimer()+0x9c>)
    22ee:	4910      	ldr	r1, [pc, #64]	; (2330 <TeensyTimerTool::GPT_t<1u>::getTimer()+0xa0>)
    22f0:	6812      	ldr	r2, [r2, #0]
    22f2:	fba1 1202 	umull	r1, r2, r1, r2
    22f6:	0c92      	lsrs	r2, r2, #18
    22f8:	ee07 2a90 	vmov	s15, r2
    22fc:	eef8 7ae7 	vcvt.f32.s32	s15, s15
    2300:	e7ee      	b.n	22e0 <TeensyTimerTool::GPT_t<1u>::getTimer()+0x50>
        }
        return nullptr;
    2302:	2000      	movs	r0, #0
    }
    2304:	bd38      	pop	{r3, r4, r5, pc}
    2306:	bf00      	nop
    2308:	200017dc 	.word	0x200017dc
    230c:	400fc000 	.word	0x400fc000
    2310:	401f0000 	.word	0x401f0000
    2314:	20002000 	.word	0x20002000
    2318:	0000206d 	.word	0x0000206d
    231c:	e000e10c 	.word	0xe000e10c
    2320:	200001c0 	.word	0x200001c0
    2324:	20001874 	.word	0x20001874
    2328:	200017d8 	.word	0x200017d8
    232c:	200006d4 	.word	0x200006d4
    2330:	431bde83 	.word	0x431bde83

00002334 <TeensyTimerTool::TMRChannel::~TMRChannel()>:
    {
        this->regs = regs;
        setPrescaler(TMR_DEFAULT_PSC);
    }

    TMRChannel::~TMRChannel()
    2334:	b510      	push	{r4, lr}
    2336:	4604      	mov	r4, r0
    {
    }
    2338:	2118      	movs	r1, #24
    233a:	f002 fb53 	bl	49e4 <operator delete(void*, unsigned int)>
    233e:	4620      	mov	r0, r4
    2340:	bd10      	pop	{r4, pc}
    2342:	bf00      	nop

00002344 <TeensyTimerTool::TckChannel<unsigned long>::~TckChannel()>:
    2344:	4a08      	ldr	r2, [pc, #32]	; (2368 <TeensyTimerTool::TckChannel<unsigned long>::~TckChannel()+0x24>)

    _Function_base() : _M_manager(nullptr) { }

    ~_Function_base()
    {
      if (_M_manager)
    2346:	6903      	ldr	r3, [r0, #16]
    2348:	b510      	push	{r4, lr}
    234a:	4604      	mov	r4, r0
    234c:	6002      	str	r2, [r0, #0]
    234e:	b123      	cbz	r3, 235a <TeensyTimerTool::TckChannel<unsigned long>::~TckChannel()+0x16>
	_M_manager(_M_functor, _M_functor, __destroy_functor);
    2350:	f100 0108 	add.w	r1, r0, #8
    2354:	2203      	movs	r2, #3
    2356:	4608      	mov	r0, r1
    2358:	4798      	blx	r3
    235a:	4620      	mov	r0, r4
    235c:	2134      	movs	r1, #52	; 0x34
    235e:	f002 fb41 	bl	49e4 <operator delete(void*, unsigned int)>
    2362:	4620      	mov	r0, r4
    2364:	bd10      	pop	{r4, pc}
    2366:	bf00      	nop
    2368:	20000208 	.word	0x20000208

0000236c <TeensyTimerTool::ITimerChannel::setPrescaler(int)>:
        virtual errorCode getTriggerReload(float delay, uint64_t* reload) {return postError(errorCode::notImplemented);};

        virtual errorCode start() = 0;
        virtual errorCode stop() = 0;

        virtual errorCode setPrescaler(int  psc) { return postError(errorCode::notImplemented); }
    236c:	2069      	movs	r0, #105	; 0x69
    236e:	f000 be8d 	b.w	308c <TeensyTimerTool::postError(TeensyTimerTool::errorCode)>
    2372:	bf00      	nop

00002374 <TeensyTimerTool::ITimerChannel::getTriggerReload(float, unsigned long long*)>:
        virtual errorCode begin(callback_t callback, float period, bool oneShot) = 0;
        virtual errorCode trigger(float delay) = 0;
        virtual errorCode triggerDirect(uint32_t reload){ return postError(errorCode::notImplemented); };
        virtual errorCode triggerDirect(uint64_t reload){ return postError(errorCode::notImplemented); };
        virtual errorCode getTriggerReload(float delay, uint32_t* reload) {return postError(errorCode::notImplemented);};
        virtual errorCode getTriggerReload(float delay, uint64_t* reload) {return postError(errorCode::notImplemented);};
    2374:	2069      	movs	r0, #105	; 0x69
    2376:	f000 be89 	b.w	308c <TeensyTimerTool::postError(TeensyTimerTool::errorCode)>
    237a:	bf00      	nop

0000237c <TeensyTimerTool::ITimerChannel::getTriggerReload(float, unsigned long*)>:
     public:
        virtual errorCode begin(callback_t callback, float period, bool oneShot) = 0;
        virtual errorCode trigger(float delay) = 0;
        virtual errorCode triggerDirect(uint32_t reload){ return postError(errorCode::notImplemented); };
        virtual errorCode triggerDirect(uint64_t reload){ return postError(errorCode::notImplemented); };
        virtual errorCode getTriggerReload(float delay, uint32_t* reload) {return postError(errorCode::notImplemented);};
    237c:	2069      	movs	r0, #105	; 0x69
    237e:	f000 be85 	b.w	308c <TeensyTimerTool::postError(TeensyTimerTool::errorCode)>
    2382:	bf00      	nop

00002384 <TeensyTimerTool::ITimerChannel::triggerDirect(unsigned long long)>:
    {
     public:
        virtual errorCode begin(callback_t callback, float period, bool oneShot) = 0;
        virtual errorCode trigger(float delay) = 0;
        virtual errorCode triggerDirect(uint32_t reload){ return postError(errorCode::notImplemented); };
        virtual errorCode triggerDirect(uint64_t reload){ return postError(errorCode::notImplemented); };
    2384:	2069      	movs	r0, #105	; 0x69
    2386:	f000 be81 	b.w	308c <TeensyTimerTool::postError(TeensyTimerTool::errorCode)>
    238a:	bf00      	nop

0000238c <TeensyTimerTool::ITimerChannel::triggerDirect(unsigned long)>:
    class ITimerChannel
    {
     public:
        virtual errorCode begin(callback_t callback, float period, bool oneShot) = 0;
        virtual errorCode trigger(float delay) = 0;
        virtual errorCode triggerDirect(uint32_t reload){ return postError(errorCode::notImplemented); };
    238c:	2069      	movs	r0, #105	; 0x69
    238e:	f000 be7d 	b.w	308c <TeensyTimerTool::postError(TeensyTimerTool::errorCode)>
    2392:	bf00      	nop

00002394 <TeensyTimerTool::ITimerChannel::setNextPeriod(unsigned long)>:
        virtual errorCode setPrescaler(int  psc) { return postError(errorCode::notImplemented); }

        virtual float getMaxPeriod() const = 0;
        virtual errorCode setPeriod(uint32_t microSeconds) { return postError(errorCode::notImplemented); };
        virtual errorCode setCurrentPeriod(uint32_t microSeconds) { return postError(errorCode::notImplemented); };
        virtual errorCode setNextPeriod(uint32_t microSeconds) { return postError(errorCode::notImplemented); };
    2394:	2069      	movs	r0, #105	; 0x69
    2396:	f000 be79 	b.w	308c <TeensyTimerTool::postError(TeensyTimerTool::errorCode)>
    239a:	bf00      	nop

0000239c <TeensyTimerTool::ITimerChannel::setCurrentPeriod(unsigned long)>:

        virtual errorCode setPrescaler(int  psc) { return postError(errorCode::notImplemented); }

        virtual float getMaxPeriod() const = 0;
        virtual errorCode setPeriod(uint32_t microSeconds) { return postError(errorCode::notImplemented); };
        virtual errorCode setCurrentPeriod(uint32_t microSeconds) { return postError(errorCode::notImplemented); };
    239c:	2069      	movs	r0, #105	; 0x69
    239e:	f000 be75 	b.w	308c <TeensyTimerTool::postError(TeensyTimerTool::errorCode)>
    23a2:	bf00      	nop

000023a4 <TeensyTimerTool::ITimerChannel::setPeriod(unsigned long)>:
        virtual errorCode stop() = 0;

        virtual errorCode setPrescaler(int  psc) { return postError(errorCode::notImplemented); }

        virtual float getMaxPeriod() const = 0;
        virtual errorCode setPeriod(uint32_t microSeconds) { return postError(errorCode::notImplemented); };
    23a4:	2069      	movs	r0, #105	; 0x69
    23a6:	f000 be71 	b.w	308c <TeensyTimerTool::postError(TeensyTimerTool::errorCode)>
    23aa:	bf00      	nop

000023ac <TeensyTimerTool::TckChannel<unsigned long>::getTriggerReload(float, unsigned long*)>:
    }

    template <>
    inline float TckChannel<uint32_t>::getMaxMicros() const
    {
        return 0xF000'0000 / clock; // don't use full range otherwise tick might miss the turnover for large periods
    23ac:	ed9f 7a10 	vldr	s14, [pc, #64]	; 23f0 <TeensyTimerTool::TckChannel<unsigned long>::getTriggerReload(float, unsigned long*)+0x44>
    23b0:	edd0 7a0c 	vldr	s15, [r0, #48]	; 0x30
        inline errorCode start() override;
        inline errorCode stop() override;

        inline errorCode trigger(float delay_us) override;
        inline errorCode triggerDirect(CounterType reload) override;
        inline errorCode getTriggerReload(float delay, CounterType* reload) override
    23b4:	b538      	push	{r3, r4, r5, lr}
    23b6:	ed2d 8b02 	vpush	{d8}
    }

    template <>
    inline float TckChannel<uint32_t>::getMaxMicros() const
    {
        return 0xF000'0000 / clock; // don't use full range otherwise tick might miss the turnover for large periods
    23ba:	ee87 8a27 	vdiv.f32	s16, s14, s15
        inline errorCode start() override;
        inline errorCode stop() override;

        inline errorCode trigger(float delay_us) override;
        inline errorCode triggerDirect(CounterType reload) override;
        inline errorCode getTriggerReload(float delay, CounterType* reload) override
    23be:	460d      	mov	r5, r1
    }

    template <typename CounterType>
    CounterType TckChannel<CounterType>::microsecondToCycles(float microSecond) const
    {
        if (microSecond > getMaxMicros())
    23c0:	eeb4 0ac8 	vcmpe.f32	s0, s16
    23c4:	eef1 fa10 	vmrs	APSR_nzcv, fpscr
    23c8:	dd08      	ble.n	23dc <TeensyTimerTool::TckChannel<unsigned long>::getTriggerReload(float, unsigned long*)+0x30>
    23ca:	4604      	mov	r4, r0
        {
            microSecond = getMaxMicros();
            postError(errorCode::periodOverflow);
    23cc:	f06f 0063 	mvn.w	r0, #99	; 0x63
    23d0:	f000 fe5c 	bl	308c <TeensyTimerTool::postError(TeensyTimerTool::errorCode)>
    template <typename CounterType>
    CounterType TckChannel<CounterType>::microsecondToCycles(float microSecond) const
    {
        if (microSecond > getMaxMicros())
        {
            microSecond = getMaxMicros();
    23d4:	eeb0 0a48 	vmov.f32	s0, s16
    23d8:	edd4 7a0c 	vldr	s15, [r4, #48]	; 0x30

        inline errorCode trigger(float delay_us) override;
        inline errorCode triggerDirect(CounterType reload) override;
        inline errorCode getTriggerReload(float delay, CounterType* reload) override
        {
            *reload = microsecondToCycles(delay);
    23dc:	ee20 0a27 	vmul.f32	s0, s0, s15
            return errorCode::OK;
        }
    23e0:	2000      	movs	r0, #0
    23e2:	ecbd 8b02 	vpop	{d8}

        inline errorCode trigger(float delay_us) override;
        inline errorCode triggerDirect(CounterType reload) override;
        inline errorCode getTriggerReload(float delay, CounterType* reload) override
        {
            *reload = microsecondToCycles(delay);
    23e6:	eebc 0ac0 	vcvt.u32.f32	s0, s0
    23ea:	ed85 0a00 	vstr	s0, [r5]
            return errorCode::OK;
        }
    23ee:	bd38      	pop	{r3, r4, r5, pc}
    23f0:	4f700000 	.word	0x4f700000

000023f4 <TeensyTimerTool::ITimerChannel* TeensyTimerTool::TCK_t::getTimer<unsigned long>()>:
    };

    // IMPLEMENTATION ==================================================================

    template<typename counterType>
    ITimerChannel* TCK_t::getTimer()
    23f4:	b570      	push	{r4, r5, r6, lr}
    {
        if (!isInitialized)
    23f6:	4c16      	ldr	r4, [pc, #88]	; (2450 <TeensyTimerTool::ITimerChannel* TeensyTimerTool::TCK_t::getTimer<unsigned long>()+0x5c>)
    23f8:	7821      	ldrb	r1, [r4, #0]
    23fa:	b989      	cbnz	r1, 2420 <TeensyTimerTool::ITimerChannel* TeensyTimerTool::TCK_t::getTimer<unsigned long>()+0x2c>
    23fc:	2250      	movs	r2, #80	; 0x50
    23fe:	4815      	ldr	r0, [pc, #84]	; (2454 <TeensyTimerTool::ITimerChannel* TeensyTimerTool::TCK_t::getTimer<unsigned long>()+0x60>)
    2400:	f003 f9b4 	bl	576c <memset>
        {
            for (unsigned chNr = 0; chNr < NR_OF_TCK_TIMERS; chNr++)
            {
                channels[chNr] = nullptr;
            }
            isInitialized = true;
    2404:	2301      	movs	r3, #1

            // enable the cycle counter
            ARM_DEMCR |= ARM_DEMCR_TRCENA;
    2406:	4914      	ldr	r1, [pc, #80]	; (2458 <TeensyTimerTool::ITimerChannel* TeensyTimerTool::TCK_t::getTimer<unsigned long>()+0x64>)
        {
            for (unsigned chNr = 0; chNr < NR_OF_TCK_TIMERS; chNr++)
            {
                channels[chNr] = nullptr;
            }
            isInitialized = true;
    2408:	7023      	strb	r3, [r4, #0]

            // enable the cycle counter
            ARM_DEMCR |= ARM_DEMCR_TRCENA;
    240a:	680b      	ldr	r3, [r1, #0]
            ARM_DWT_CTRL |= ARM_DWT_CTRL_CYCCNTENA;
    240c:	4a13      	ldr	r2, [pc, #76]	; (245c <TeensyTimerTool::ITimerChannel* TeensyTimerTool::TCK_t::getTimer<unsigned long>()+0x68>)
                channels[chNr] = nullptr;
            }
            isInitialized = true;

            // enable the cycle counter
            ARM_DEMCR |= ARM_DEMCR_TRCENA;
    240e:	f043 7380 	orr.w	r3, r3, #16777216	; 0x1000000
    2412:	600b      	str	r3, [r1, #0]
            ARM_DWT_CTRL |= ARM_DWT_CTRL_CYCCNTENA;
    2414:	6813      	ldr	r3, [r2, #0]
    2416:	f043 0301 	orr.w	r3, r3, #1
    241a:	6013      	str	r3, [r2, #0]

            // initialize the yield hook
           #if defined(TEENSYDUINO) && YIELD_TYPE == YIELD_STANDARD
              extern void initYieldHook();
              initYieldHook();
    241c:	f001 f818 	bl	3450 <TeensyTimerTool::initYieldHook()>
    2420:	4b0f      	ldr	r3, [pc, #60]	; (2460 <TeensyTimerTool::ITimerChannel* TeensyTimerTool::TCK_t::getTimer<unsigned long>()+0x6c>)
           #endif
        }

        for (unsigned chNr = 0; chNr < NR_OF_TCK_TIMERS; chNr++)
    2422:	2400      	movs	r4, #0
        {
            if (channels[chNr] == nullptr)
    2424:	f853 5f04 	ldr.w	r5, [r3, #4]!
    2428:	b125      	cbz	r5, 2434 <TeensyTimerTool::ITimerChannel* TeensyTimerTool::TCK_t::getTimer<unsigned long>()+0x40>
              extern void initYieldHook();
              initYieldHook();
           #endif
        }

        for (unsigned chNr = 0; chNr < NR_OF_TCK_TIMERS; chNr++)
    242a:	3401      	adds	r4, #1
    242c:	2c14      	cmp	r4, #20
    242e:	d1f9      	bne.n	2424 <TeensyTimerTool::ITimerChannel* TeensyTimerTool::TCK_t::getTimer<unsigned long>()+0x30>
                channels[chNr] = new TckChannel<counterType>();
                return channels[chNr];
            }
        }

        return nullptr;
    2430:	2000      	movs	r0, #0
    }
    2432:	bd70      	pop	{r4, r5, r6, pc}

        for (unsigned chNr = 0; chNr < NR_OF_TCK_TIMERS; chNr++)
        {
            if (channels[chNr] == nullptr)
            {
                channels[chNr] = new TckChannel<counterType>();
    2434:	2034      	movs	r0, #52	; 0x34
    };

    // IMPLEMENTATION ==============================================

    template <typename T>
    TckChannel<T>::TckChannel()
    2436:	4e0b      	ldr	r6, [pc, #44]	; (2464 <TeensyTimerTool::ITimerChannel* TeensyTimerTool::TCK_t::getTimer<unsigned long>()+0x70>)
    2438:	f002 fad2 	bl	49e0 <operator new(unsigned int)>
    {
        triggered = false;
        clock = F_CPU / 1'000'000.0f;
    243c:	490a      	ldr	r1, [pc, #40]	; (2468 <TeensyTimerTool::ITimerChannel* TeensyTimerTool::TCK_t::getTimer<unsigned long>()+0x74>)
    243e:	4a05      	ldr	r2, [pc, #20]	; (2454 <TeensyTimerTool::ITimerChannel* TeensyTimerTool::TCK_t::getTimer<unsigned long>()+0x60>)

    // IMPLEMENTATION ====================================================

    ITimerChannel::ITimerChannel(callback_t* cbStorage)
    {
        this->pCallback = cbStorage;
    2440:	6045      	str	r5, [r0, #4]
	{
	  _Base::_M_init_functor(__functor, std::__addressof(__f.get()));
	}
      };

    _Function_base() : _M_manager(nullptr) { }
    2442:	6105      	str	r5, [r0, #16]
    // IMPLEMENTATION ==============================================

    template <typename T>
    TckChannel<T>::TckChannel()
    {
        triggered = false;
    2444:	7645      	strb	r5, [r0, #25]
    };

    // IMPLEMENTATION ==============================================

    template <typename T>
    TckChannel<T>::TckChannel()
    2446:	6006      	str	r6, [r0, #0]
    {
        triggered = false;
        clock = F_CPU / 1'000'000.0f;
    2448:	6301      	str	r1, [r0, #48]	; 0x30
    244a:	f842 0024 	str.w	r0, [r2, r4, lsl #2]
                return channels[chNr];
    244e:	bd70      	pop	{r4, r5, r6, pc}
    2450:	20001a84 	.word	0x20001a84
    2454:	20001a34 	.word	0x20001a34
    2458:	e000edfc 	.word	0xe000edfc
    245c:	e0001000 	.word	0xe0001000
    2460:	20001a30 	.word	0x20001a30
    2464:	20000208 	.word	0x20000208
    2468:	44160000 	.word	0x44160000

0000246c <TeensyTimerTool::TMR_t<0u>::getTimer()>:
    template <unsigned moduleNr> IMXRT_TMR_CH_t* const TMR_t<moduleNr>::pCH1 = &pTMR->CH[1];
    template <unsigned moduleNr> IMXRT_TMR_CH_t* const TMR_t<moduleNr>::pCH2 = &pTMR->CH[2];
    template <unsigned moduleNr> IMXRT_TMR_CH_t* const TMR_t<moduleNr>::pCH3 = &pTMR->CH[3];

    template <unsigned moduleNr>
    ITimerChannel* TMR_t<moduleNr>::getTimer()
    246c:	e92d 41f0 	stmdb	sp!, {r4, r5, r6, r7, r8, lr}
    {
        if (!isInitialized)
    2470:	4e33      	ldr	r6, [pc, #204]	; (2540 <TeensyTimerTool::TMR_t<0u>::getTimer()+0xd4>)
    2472:	7835      	ldrb	r5, [r6, #0]
    2474:	2d00      	cmp	r5, #0
    2476:	d131      	bne.n	24dc <TeensyTimerTool::TMR_t<0u>::getTimer()+0x70>
    2478:	4f32      	ldr	r7, [pc, #200]	; (2544 <TeensyTimerTool::TMR_t<0u>::getTimer()+0xd8>)
        {
            for (unsigned chNr = 0; chNr < 4; chNr++)
            {
                pTMR->CH[chNr].CTRL = 0x0000;
    247a:	46a8      	mov	r8, r5
    247c:	463c      	mov	r4, r7
    247e:	016a      	lsls	r2, r5, #5
    2480:	4b31      	ldr	r3, [pc, #196]	; (2548 <TeensyTimerTool::TMR_t<0u>::getTimer()+0xdc>)
      function&
      operator=(nullptr_t) noexcept
      {
	if (_M_manager)
	  {
	    _M_manager(_M_functor, _M_functor, __destroy_functor);
    2482:	4621      	mov	r1, r4
    2484:	3501      	adds	r5, #1
    2486:	4413      	add	r3, r2
    2488:	4620      	mov	r0, r4
    248a:	2203      	movs	r2, #3
    248c:	f8a3 800c 	strh.w	r8, [r3, #12]
       *  The target of @c *this is deallocated, leaving it empty.
       */
      function&
      operator=(nullptr_t) noexcept
      {
	if (_M_manager)
    2490:	68a3      	ldr	r3, [r4, #8]
    2492:	b123      	cbz	r3, 249e <TeensyTimerTool::TMR_t<0u>::getTimer()+0x32>
	  {
	    _M_manager(_M_functor, _M_functor, __destroy_functor);
    2494:	4798      	blx	r3
	    _M_manager = nullptr;
    2496:	f8c4 8008 	str.w	r8, [r4, #8]
	    _M_invoker = nullptr;
    249a:	f8c4 800c 	str.w	r8, [r4, #12]
    template <unsigned moduleNr>
    ITimerChannel* TMR_t<moduleNr>::getTimer()
    {
        if (!isInitialized)
        {
            for (unsigned chNr = 0; chNr < 4; chNr++)
    249e:	2d04      	cmp	r5, #4
    24a0:	f104 0410 	add.w	r4, r4, #16
    24a4:	d1eb      	bne.n	247e <TeensyTimerTool::TMR_t<0u>::getTimer()+0x12>
    24a6:	4b29      	ldr	r3, [pc, #164]	; (254c <TeensyTimerTool::TMR_t<0u>::getTimer()+0xe0>)
    24a8:	4a29      	ldr	r2, [pc, #164]	; (2550 <TeensyTimerTool::TMR_t<0u>::getTimer()+0xe4>)
    24aa:	f8c3 2254 	str.w	r2, [r3, #596]	; 0x254
            {
                pTMR->CH[chNr].CTRL = 0x0000;
                callbacks[chNr] = nullptr;
            }
            attachInterruptVector(irq, isr); // start
            NVIC_ENABLE_IRQ(irq);
    24ae:	4a29      	ldr	r2, [pc, #164]	; (2554 <TeensyTimerTool::TMR_t<0u>::getTimer()+0xe8>)
    24b0:	2120      	movs	r1, #32
            isInitialized = true;
    24b2:	2301      	movs	r3, #1
            return new TMRChannel(pCH0, &callbacks[0]);
    24b4:	2018      	movs	r0, #24
            {
                pTMR->CH[chNr].CTRL = 0x0000;
                callbacks[chNr] = nullptr;
            }
            attachInterruptVector(irq, isr); // start
            NVIC_ENABLE_IRQ(irq);
    24b6:	6011      	str	r1, [r2, #0]
    };

    // IMPLEMENTATION ==============================================

    TMRChannel::TMRChannel(IMXRT_TMR_CH_t* regs, callback_t* cbStorage)
        : ITimerChannel(cbStorage)
    24b8:	2500      	movs	r5, #0
            isInitialized = true;
    24ba:	7033      	strb	r3, [r6, #0]
            return new TMRChannel(pCH0, &callbacks[0]);
    24bc:	f002 fa90 	bl	49e0 <operator new(unsigned int)>
    24c0:	4925      	ldr	r1, [pc, #148]	; (2558 <TeensyTimerTool::TMR_t<0u>::getTimer()+0xec>)
    }

    void TMRChannel::setPrescaler(uint32_t psc) // psc 0..7 -> prescaler: 1..128
    {
        pscValue = 1 << (psc & 0b0111);
        pscBits = 0b1000 | (psc & 0b0111);
    24c2:	220f      	movs	r2, #15
    };

    // IMPLEMENTATION ==============================================

    TMRChannel::TMRChannel(IMXRT_TMR_CH_t* regs, callback_t* cbStorage)
        : ITimerChannel(cbStorage)
    24c4:	4e25      	ldr	r6, [pc, #148]	; (255c <TeensyTimerTool::TMR_t<0u>::getTimer()+0xf0>)
    24c6:	680c      	ldr	r4, [r1, #0]
        return errorCode::OK;
    }

    void TMRChannel::setPrescaler(uint32_t psc) // psc 0..7 -> prescaler: 1..128
    {
        pscValue = 1 << (psc & 0b0111);
    24c8:	f04f 4186 	mov.w	r1, #1124073472	; 0x43000000
    };

    // IMPLEMENTATION ==============================================

    TMRChannel::TMRChannel(IMXRT_TMR_CH_t* regs, callback_t* cbStorage)
        : ITimerChannel(cbStorage)
    24cc:	60c5      	str	r5, [r0, #12]
    {
        this->regs = regs;
    24ce:	6084      	str	r4, [r0, #8]
        return errorCode::OK;
    }

    void TMRChannel::setPrescaler(uint32_t psc) // psc 0..7 -> prescaler: 1..128
    {
        pscValue = 1 << (psc & 0b0111);
    24d0:	6101      	str	r1, [r0, #16]
        pscBits = 0b1000 | (psc & 0b0111);
    24d2:	6142      	str	r2, [r0, #20]
    };

    // IMPLEMENTATION ==============================================

    TMRChannel::TMRChannel(IMXRT_TMR_CH_t* regs, callback_t* cbStorage)
        : ITimerChannel(cbStorage)
    24d4:	e880 00c0 	stmia.w	r0, {r6, r7}
    24d8:	e8bd 81f0 	ldmia.w	sp!, {r4, r5, r6, r7, r8, pc}
        }

        for (unsigned chNr = 0; chNr < 4; chNr++)
        {
            IMXRT_TMR_CH_t* pCh = &pTMR->CH[chNr];
            if (pCh->CTRL == 0x0000)
    24dc:	4b1a      	ldr	r3, [pc, #104]	; (2548 <TeensyTimerTool::TMR_t<0u>::getTimer()+0xdc>)
    24de:	899a      	ldrh	r2, [r3, #12]
    24e0:	b292      	uxth	r2, r2
    24e2:	b16a      	cbz	r2, 2500 <TeensyTimerTool::TMR_t<0u>::getTimer()+0x94>
    24e4:	8d9a      	ldrh	r2, [r3, #44]	; 0x2c
    24e6:	b292      	uxth	r2, r2
    24e8:	b31a      	cbz	r2, 2532 <TeensyTimerTool::TMR_t<0u>::getTimer()+0xc6>
    24ea:	f8b3 204c 	ldrh.w	r2, [r3, #76]	; 0x4c
    24ee:	b292      	uxth	r2, r2
    24f0:	b30a      	cbz	r2, 2536 <TeensyTimerTool::TMR_t<0u>::getTimer()+0xca>
    24f2:	f8b3 306c 	ldrh.w	r3, [r3, #108]	; 0x6c
    24f6:	b29b      	uxth	r3, r3
    24f8:	b1fb      	cbz	r3, 253a <TeensyTimerTool::TMR_t<0u>::getTimer()+0xce>
            {
                return new TMRChannel(pCh, &callbacks[chNr]);
            }
        }
        return nullptr;
    24fa:	2000      	movs	r0, #0
    }
    24fc:	e8bd 81f0 	ldmia.w	sp!, {r4, r5, r6, r7, r8, pc}
        }

        for (unsigned chNr = 0; chNr < 4; chNr++)
        {
            IMXRT_TMR_CH_t* pCh = &pTMR->CH[chNr];
            if (pCh->CTRL == 0x0000)
    2500:	4614      	mov	r4, r2
            {
                return new TMRChannel(pCh, &callbacks[chNr]);
    2502:	2018      	movs	r0, #24
    2504:	2600      	movs	r6, #0
    2506:	f002 fa6b 	bl	49e0 <operator new(unsigned int)>
    250a:	4a0e      	ldr	r2, [pc, #56]	; (2544 <TeensyTimerTool::TMR_t<0u>::getTimer()+0xd8>)
    250c:	4603      	mov	r3, r0
            return new TMRChannel(pCH0, &callbacks[0]);
        }

        for (unsigned chNr = 0; chNr < 4; chNr++)
        {
            IMXRT_TMR_CH_t* pCh = &pTMR->CH[chNr];
    250e:	490e      	ldr	r1, [pc, #56]	; (2548 <TeensyTimerTool::TMR_t<0u>::getTimer()+0xdc>)
    2510:	0160      	lsls	r0, r4, #5
    2512:	4f12      	ldr	r7, [pc, #72]	; (255c <TeensyTimerTool::TMR_t<0u>::getTimer()+0xf0>)
            if (pCh->CTRL == 0x0000)
            {
                return new TMRChannel(pCh, &callbacks[chNr]);
    2514:	eb02 1204 	add.w	r2, r2, r4, lsl #4
        return errorCode::OK;
    }

    void TMRChannel::setPrescaler(uint32_t psc) // psc 0..7 -> prescaler: 1..128
    {
        pscValue = 1 << (psc & 0b0111);
    2518:	f04f 4586 	mov.w	r5, #1124073472	; 0x43000000
            return new TMRChannel(pCH0, &callbacks[0]);
        }

        for (unsigned chNr = 0; chNr < 4; chNr++)
        {
            IMXRT_TMR_CH_t* pCh = &pTMR->CH[chNr];
    251c:	4401      	add	r1, r0
        pscBits = 0b1000 | (psc & 0b0111);
    251e:	240f      	movs	r4, #15
    2520:	605a      	str	r2, [r3, #4]
            if (pCh->CTRL == 0x0000)
            {
                return new TMRChannel(pCh, &callbacks[chNr]);
    2522:	4618      	mov	r0, r3
    // IMPLEMENTATION ==============================================

    TMRChannel::TMRChannel(IMXRT_TMR_CH_t* regs, callback_t* cbStorage)
        : ITimerChannel(cbStorage)
    {
        this->regs = regs;
    2524:	6099      	str	r1, [r3, #8]
    };

    // IMPLEMENTATION ==============================================

    TMRChannel::TMRChannel(IMXRT_TMR_CH_t* regs, callback_t* cbStorage)
        : ITimerChannel(cbStorage)
    2526:	601f      	str	r7, [r3, #0]
    2528:	60de      	str	r6, [r3, #12]
        return errorCode::OK;
    }

    void TMRChannel::setPrescaler(uint32_t psc) // psc 0..7 -> prescaler: 1..128
    {
        pscValue = 1 << (psc & 0b0111);
    252a:	611d      	str	r5, [r3, #16]
        pscBits = 0b1000 | (psc & 0b0111);
    252c:	615c      	str	r4, [r3, #20]
    252e:	e8bd 81f0 	ldmia.w	sp!, {r4, r5, r6, r7, r8, pc}
            NVIC_ENABLE_IRQ(irq);
            isInitialized = true;
            return new TMRChannel(pCH0, &callbacks[0]);
        }

        for (unsigned chNr = 0; chNr < 4; chNr++)
    2532:	2401      	movs	r4, #1
    2534:	e7e5      	b.n	2502 <TeensyTimerTool::TMR_t<0u>::getTimer()+0x96>
    2536:	2402      	movs	r4, #2
    2538:	e7e3      	b.n	2502 <TeensyTimerTool::TMR_t<0u>::getTimer()+0x96>
    253a:	2403      	movs	r4, #3
    253c:	e7e1      	b.n	2502 <TeensyTimerTool::TMR_t<0u>::getTimer()+0x96>
    253e:	bf00      	nop
    2540:	200017e8 	.word	0x200017e8
    2544:	20001964 	.word	0x20001964
    2548:	401dc000 	.word	0x401dc000
    254c:	20002000 	.word	0x20002000
    2550:	00001d85 	.word	0x00001d85
    2554:	e000e110 	.word	0xe000e110
    2558:	20001960 	.word	0x20001960
    255c:	20000178 	.word	0x20000178

00002560 <TeensyTimerTool::TMR_t<1u>::getTimer()>:
    template <unsigned moduleNr> IMXRT_TMR_CH_t* const TMR_t<moduleNr>::pCH1 = &pTMR->CH[1];
    template <unsigned moduleNr> IMXRT_TMR_CH_t* const TMR_t<moduleNr>::pCH2 = &pTMR->CH[2];
    template <unsigned moduleNr> IMXRT_TMR_CH_t* const TMR_t<moduleNr>::pCH3 = &pTMR->CH[3];

    template <unsigned moduleNr>
    ITimerChannel* TMR_t<moduleNr>::getTimer()
    2560:	e92d 41f0 	stmdb	sp!, {r4, r5, r6, r7, r8, lr}
    {
        if (!isInitialized)
    2564:	4e33      	ldr	r6, [pc, #204]	; (2634 <TeensyTimerTool::TMR_t<1u>::getTimer()+0xd4>)
    2566:	7835      	ldrb	r5, [r6, #0]
    2568:	2d00      	cmp	r5, #0
    256a:	d131      	bne.n	25d0 <TeensyTimerTool::TMR_t<1u>::getTimer()+0x70>
    256c:	4f32      	ldr	r7, [pc, #200]	; (2638 <TeensyTimerTool::TMR_t<1u>::getTimer()+0xd8>)
        {
            for (unsigned chNr = 0; chNr < 4; chNr++)
            {
                pTMR->CH[chNr].CTRL = 0x0000;
    256e:	46a8      	mov	r8, r5
    2570:	463c      	mov	r4, r7
    2572:	016a      	lsls	r2, r5, #5
    2574:	4b31      	ldr	r3, [pc, #196]	; (263c <TeensyTimerTool::TMR_t<1u>::getTimer()+0xdc>)
      function&
      operator=(nullptr_t) noexcept
      {
	if (_M_manager)
	  {
	    _M_manager(_M_functor, _M_functor, __destroy_functor);
    2576:	4621      	mov	r1, r4
    2578:	3501      	adds	r5, #1
    257a:	4413      	add	r3, r2
    257c:	4620      	mov	r0, r4
    257e:	2203      	movs	r2, #3
    2580:	f8a3 800c 	strh.w	r8, [r3, #12]
       *  The target of @c *this is deallocated, leaving it empty.
       */
      function&
      operator=(nullptr_t) noexcept
      {
	if (_M_manager)
    2584:	68a3      	ldr	r3, [r4, #8]
    2586:	b123      	cbz	r3, 2592 <TeensyTimerTool::TMR_t<1u>::getTimer()+0x32>
	  {
	    _M_manager(_M_functor, _M_functor, __destroy_functor);
    2588:	4798      	blx	r3
	    _M_manager = nullptr;
    258a:	f8c4 8008 	str.w	r8, [r4, #8]
	    _M_invoker = nullptr;
    258e:	f8c4 800c 	str.w	r8, [r4, #12]
    template <unsigned moduleNr>
    ITimerChannel* TMR_t<moduleNr>::getTimer()
    {
        if (!isInitialized)
        {
            for (unsigned chNr = 0; chNr < 4; chNr++)
    2592:	2d04      	cmp	r5, #4
    2594:	f104 0410 	add.w	r4, r4, #16
    2598:	d1eb      	bne.n	2572 <TeensyTimerTool::TMR_t<1u>::getTimer()+0x12>
    259a:	4b29      	ldr	r3, [pc, #164]	; (2640 <TeensyTimerTool::TMR_t<1u>::getTimer()+0xe0>)
    259c:	4a29      	ldr	r2, [pc, #164]	; (2644 <TeensyTimerTool::TMR_t<1u>::getTimer()+0xe4>)
    259e:	f8c3 2258 	str.w	r2, [r3, #600]	; 0x258
            {
                pTMR->CH[chNr].CTRL = 0x0000;
                callbacks[chNr] = nullptr;
            }
            attachInterruptVector(irq, isr); // start
            NVIC_ENABLE_IRQ(irq);
    25a2:	4a29      	ldr	r2, [pc, #164]	; (2648 <TeensyTimerTool::TMR_t<1u>::getTimer()+0xe8>)
    25a4:	2140      	movs	r1, #64	; 0x40
            isInitialized = true;
    25a6:	2301      	movs	r3, #1
            return new TMRChannel(pCH0, &callbacks[0]);
    25a8:	2018      	movs	r0, #24
            {
                pTMR->CH[chNr].CTRL = 0x0000;
                callbacks[chNr] = nullptr;
            }
            attachInterruptVector(irq, isr); // start
            NVIC_ENABLE_IRQ(irq);
    25aa:	6011      	str	r1, [r2, #0]
    };

    // IMPLEMENTATION ==============================================

    TMRChannel::TMRChannel(IMXRT_TMR_CH_t* regs, callback_t* cbStorage)
        : ITimerChannel(cbStorage)
    25ac:	2500      	movs	r5, #0
            isInitialized = true;
    25ae:	7033      	strb	r3, [r6, #0]
            return new TMRChannel(pCH0, &callbacks[0]);
    25b0:	f002 fa16 	bl	49e0 <operator new(unsigned int)>
    25b4:	4925      	ldr	r1, [pc, #148]	; (264c <TeensyTimerTool::TMR_t<1u>::getTimer()+0xec>)
    }

    void TMRChannel::setPrescaler(uint32_t psc) // psc 0..7 -> prescaler: 1..128
    {
        pscValue = 1 << (psc & 0b0111);
        pscBits = 0b1000 | (psc & 0b0111);
    25b6:	220f      	movs	r2, #15
    };

    // IMPLEMENTATION ==============================================

    TMRChannel::TMRChannel(IMXRT_TMR_CH_t* regs, callback_t* cbStorage)
        : ITimerChannel(cbStorage)
    25b8:	4e25      	ldr	r6, [pc, #148]	; (2650 <TeensyTimerTool::TMR_t<1u>::getTimer()+0xf0>)
    25ba:	680c      	ldr	r4, [r1, #0]
        return errorCode::OK;
    }

    void TMRChannel::setPrescaler(uint32_t psc) // psc 0..7 -> prescaler: 1..128
    {
        pscValue = 1 << (psc & 0b0111);
    25bc:	f04f 4186 	mov.w	r1, #1124073472	; 0x43000000
    };

    // IMPLEMENTATION ==============================================

    TMRChannel::TMRChannel(IMXRT_TMR_CH_t* regs, callback_t* cbStorage)
        : ITimerChannel(cbStorage)
    25c0:	60c5      	str	r5, [r0, #12]
    {
        this->regs = regs;
    25c2:	6084      	str	r4, [r0, #8]
        return errorCode::OK;
    }

    void TMRChannel::setPrescaler(uint32_t psc) // psc 0..7 -> prescaler: 1..128
    {
        pscValue = 1 << (psc & 0b0111);
    25c4:	6101      	str	r1, [r0, #16]
        pscBits = 0b1000 | (psc & 0b0111);
    25c6:	6142      	str	r2, [r0, #20]
    };

    // IMPLEMENTATION ==============================================

    TMRChannel::TMRChannel(IMXRT_TMR_CH_t* regs, callback_t* cbStorage)
        : ITimerChannel(cbStorage)
    25c8:	e880 00c0 	stmia.w	r0, {r6, r7}
    25cc:	e8bd 81f0 	ldmia.w	sp!, {r4, r5, r6, r7, r8, pc}
        }

        for (unsigned chNr = 0; chNr < 4; chNr++)
        {
            IMXRT_TMR_CH_t* pCh = &pTMR->CH[chNr];
            if (pCh->CTRL == 0x0000)
    25d0:	4b1a      	ldr	r3, [pc, #104]	; (263c <TeensyTimerTool::TMR_t<1u>::getTimer()+0xdc>)
    25d2:	899a      	ldrh	r2, [r3, #12]
    25d4:	b292      	uxth	r2, r2
    25d6:	b16a      	cbz	r2, 25f4 <TeensyTimerTool::TMR_t<1u>::getTimer()+0x94>
    25d8:	8d9a      	ldrh	r2, [r3, #44]	; 0x2c
    25da:	b292      	uxth	r2, r2
    25dc:	b31a      	cbz	r2, 2626 <TeensyTimerTool::TMR_t<1u>::getTimer()+0xc6>
    25de:	f8b3 204c 	ldrh.w	r2, [r3, #76]	; 0x4c
    25e2:	b292      	uxth	r2, r2
    25e4:	b30a      	cbz	r2, 262a <TeensyTimerTool::TMR_t<1u>::getTimer()+0xca>
    25e6:	f8b3 306c 	ldrh.w	r3, [r3, #108]	; 0x6c
    25ea:	b29b      	uxth	r3, r3
    25ec:	b1fb      	cbz	r3, 262e <TeensyTimerTool::TMR_t<1u>::getTimer()+0xce>
            {
                return new TMRChannel(pCh, &callbacks[chNr]);
            }
        }
        return nullptr;
    25ee:	2000      	movs	r0, #0
    }
    25f0:	e8bd 81f0 	ldmia.w	sp!, {r4, r5, r6, r7, r8, pc}
        }

        for (unsigned chNr = 0; chNr < 4; chNr++)
        {
            IMXRT_TMR_CH_t* pCh = &pTMR->CH[chNr];
            if (pCh->CTRL == 0x0000)
    25f4:	4614      	mov	r4, r2
            {
                return new TMRChannel(pCh, &callbacks[chNr]);
    25f6:	2018      	movs	r0, #24
    25f8:	2600      	movs	r6, #0
    25fa:	f002 f9f1 	bl	49e0 <operator new(unsigned int)>
    25fe:	4a0e      	ldr	r2, [pc, #56]	; (2638 <TeensyTimerTool::TMR_t<1u>::getTimer()+0xd8>)
    2600:	4603      	mov	r3, r0
            return new TMRChannel(pCH0, &callbacks[0]);
        }

        for (unsigned chNr = 0; chNr < 4; chNr++)
        {
            IMXRT_TMR_CH_t* pCh = &pTMR->CH[chNr];
    2602:	490e      	ldr	r1, [pc, #56]	; (263c <TeensyTimerTool::TMR_t<1u>::getTimer()+0xdc>)
    2604:	0160      	lsls	r0, r4, #5
    2606:	4f12      	ldr	r7, [pc, #72]	; (2650 <TeensyTimerTool::TMR_t<1u>::getTimer()+0xf0>)
            if (pCh->CTRL == 0x0000)
            {
                return new TMRChannel(pCh, &callbacks[chNr]);
    2608:	eb02 1204 	add.w	r2, r2, r4, lsl #4
        return errorCode::OK;
    }

    void TMRChannel::setPrescaler(uint32_t psc) // psc 0..7 -> prescaler: 1..128
    {
        pscValue = 1 << (psc & 0b0111);
    260c:	f04f 4586 	mov.w	r5, #1124073472	; 0x43000000
            return new TMRChannel(pCH0, &callbacks[0]);
        }

        for (unsigned chNr = 0; chNr < 4; chNr++)
        {
            IMXRT_TMR_CH_t* pCh = &pTMR->CH[chNr];
    2610:	4401      	add	r1, r0
        pscBits = 0b1000 | (psc & 0b0111);
    2612:	240f      	movs	r4, #15
    2614:	605a      	str	r2, [r3, #4]
            if (pCh->CTRL == 0x0000)
            {
                return new TMRChannel(pCh, &callbacks[chNr]);
    2616:	4618      	mov	r0, r3
    // IMPLEMENTATION ==============================================

    TMRChannel::TMRChannel(IMXRT_TMR_CH_t* regs, callback_t* cbStorage)
        : ITimerChannel(cbStorage)
    {
        this->regs = regs;
    2618:	6099      	str	r1, [r3, #8]
    };

    // IMPLEMENTATION ==============================================

    TMRChannel::TMRChannel(IMXRT_TMR_CH_t* regs, callback_t* cbStorage)
        : ITimerChannel(cbStorage)
    261a:	601f      	str	r7, [r3, #0]
    261c:	60de      	str	r6, [r3, #12]
        return errorCode::OK;
    }

    void TMRChannel::setPrescaler(uint32_t psc) // psc 0..7 -> prescaler: 1..128
    {
        pscValue = 1 << (psc & 0b0111);
    261e:	611d      	str	r5, [r3, #16]
        pscBits = 0b1000 | (psc & 0b0111);
    2620:	615c      	str	r4, [r3, #20]
    2622:	e8bd 81f0 	ldmia.w	sp!, {r4, r5, r6, r7, r8, pc}
            NVIC_ENABLE_IRQ(irq);
            isInitialized = true;
            return new TMRChannel(pCH0, &callbacks[0]);
        }

        for (unsigned chNr = 0; chNr < 4; chNr++)
    2626:	2401      	movs	r4, #1
    2628:	e7e5      	b.n	25f6 <TeensyTimerTool::TMR_t<1u>::getTimer()+0x96>
    262a:	2402      	movs	r4, #2
    262c:	e7e3      	b.n	25f6 <TeensyTimerTool::TMR_t<1u>::getTimer()+0x96>
    262e:	2403      	movs	r4, #3
    2630:	e7e1      	b.n	25f6 <TeensyTimerTool::TMR_t<1u>::getTimer()+0x96>
    2632:	bf00      	nop
    2634:	200017e7 	.word	0x200017e7
    2638:	20001920 	.word	0x20001920
    263c:	401e0000 	.word	0x401e0000
    2640:	20002000 	.word	0x20002000
    2644:	00001e31 	.word	0x00001e31
    2648:	e000e110 	.word	0xe000e110
    264c:	2000191c 	.word	0x2000191c
    2650:	20000178 	.word	0x20000178

00002654 <TeensyTimerTool::TMR_t<2u>::getTimer()>:
    template <unsigned moduleNr> IMXRT_TMR_CH_t* const TMR_t<moduleNr>::pCH1 = &pTMR->CH[1];
    template <unsigned moduleNr> IMXRT_TMR_CH_t* const TMR_t<moduleNr>::pCH2 = &pTMR->CH[2];
    template <unsigned moduleNr> IMXRT_TMR_CH_t* const TMR_t<moduleNr>::pCH3 = &pTMR->CH[3];

    template <unsigned moduleNr>
    ITimerChannel* TMR_t<moduleNr>::getTimer()
    2654:	e92d 41f0 	stmdb	sp!, {r4, r5, r6, r7, r8, lr}
    {
        if (!isInitialized)
    2658:	4e33      	ldr	r6, [pc, #204]	; (2728 <TeensyTimerTool::TMR_t<2u>::getTimer()+0xd4>)
    265a:	7835      	ldrb	r5, [r6, #0]
    265c:	2d00      	cmp	r5, #0
    265e:	d131      	bne.n	26c4 <TeensyTimerTool::TMR_t<2u>::getTimer()+0x70>
    2660:	4f32      	ldr	r7, [pc, #200]	; (272c <TeensyTimerTool::TMR_t<2u>::getTimer()+0xd8>)
        {
            for (unsigned chNr = 0; chNr < 4; chNr++)
            {
                pTMR->CH[chNr].CTRL = 0x0000;
    2662:	46a8      	mov	r8, r5
    2664:	463c      	mov	r4, r7
    2666:	016a      	lsls	r2, r5, #5
    2668:	4b31      	ldr	r3, [pc, #196]	; (2730 <TeensyTimerTool::TMR_t<2u>::getTimer()+0xdc>)
      function&
      operator=(nullptr_t) noexcept
      {
	if (_M_manager)
	  {
	    _M_manager(_M_functor, _M_functor, __destroy_functor);
    266a:	4621      	mov	r1, r4
    266c:	3501      	adds	r5, #1
    266e:	4413      	add	r3, r2
    2670:	4620      	mov	r0, r4
    2672:	2203      	movs	r2, #3
    2674:	f8a3 800c 	strh.w	r8, [r3, #12]
       *  The target of @c *this is deallocated, leaving it empty.
       */
      function&
      operator=(nullptr_t) noexcept
      {
	if (_M_manager)
    2678:	68a3      	ldr	r3, [r4, #8]
    267a:	b123      	cbz	r3, 2686 <TeensyTimerTool::TMR_t<2u>::getTimer()+0x32>
	  {
	    _M_manager(_M_functor, _M_functor, __destroy_functor);
    267c:	4798      	blx	r3
	    _M_manager = nullptr;
    267e:	f8c4 8008 	str.w	r8, [r4, #8]
	    _M_invoker = nullptr;
    2682:	f8c4 800c 	str.w	r8, [r4, #12]
    template <unsigned moduleNr>
    ITimerChannel* TMR_t<moduleNr>::getTimer()
    {
        if (!isInitialized)
        {
            for (unsigned chNr = 0; chNr < 4; chNr++)
    2686:	2d04      	cmp	r5, #4
    2688:	f104 0410 	add.w	r4, r4, #16
    268c:	d1eb      	bne.n	2666 <TeensyTimerTool::TMR_t<2u>::getTimer()+0x12>
    268e:	4b29      	ldr	r3, [pc, #164]	; (2734 <TeensyTimerTool::TMR_t<2u>::getTimer()+0xe0>)
    2690:	4a29      	ldr	r2, [pc, #164]	; (2738 <TeensyTimerTool::TMR_t<2u>::getTimer()+0xe4>)
    2692:	f8c3 225c 	str.w	r2, [r3, #604]	; 0x25c
            {
                pTMR->CH[chNr].CTRL = 0x0000;
                callbacks[chNr] = nullptr;
            }
            attachInterruptVector(irq, isr); // start
            NVIC_ENABLE_IRQ(irq);
    2696:	4a29      	ldr	r2, [pc, #164]	; (273c <TeensyTimerTool::TMR_t<2u>::getTimer()+0xe8>)
    2698:	2180      	movs	r1, #128	; 0x80
            isInitialized = true;
    269a:	2301      	movs	r3, #1
            return new TMRChannel(pCH0, &callbacks[0]);
    269c:	2018      	movs	r0, #24
            {
                pTMR->CH[chNr].CTRL = 0x0000;
                callbacks[chNr] = nullptr;
            }
            attachInterruptVector(irq, isr); // start
            NVIC_ENABLE_IRQ(irq);
    269e:	6011      	str	r1, [r2, #0]
    };

    // IMPLEMENTATION ==============================================

    TMRChannel::TMRChannel(IMXRT_TMR_CH_t* regs, callback_t* cbStorage)
        : ITimerChannel(cbStorage)
    26a0:	2500      	movs	r5, #0
            isInitialized = true;
    26a2:	7033      	strb	r3, [r6, #0]
            return new TMRChannel(pCH0, &callbacks[0]);
    26a4:	f002 f99c 	bl	49e0 <operator new(unsigned int)>
    26a8:	4925      	ldr	r1, [pc, #148]	; (2740 <TeensyTimerTool::TMR_t<2u>::getTimer()+0xec>)
    }

    void TMRChannel::setPrescaler(uint32_t psc) // psc 0..7 -> prescaler: 1..128
    {
        pscValue = 1 << (psc & 0b0111);
        pscBits = 0b1000 | (psc & 0b0111);
    26aa:	220f      	movs	r2, #15
    };

    // IMPLEMENTATION ==============================================

    TMRChannel::TMRChannel(IMXRT_TMR_CH_t* regs, callback_t* cbStorage)
        : ITimerChannel(cbStorage)
    26ac:	4e25      	ldr	r6, [pc, #148]	; (2744 <TeensyTimerTool::TMR_t<2u>::getTimer()+0xf0>)
    26ae:	680c      	ldr	r4, [r1, #0]
        return errorCode::OK;
    }

    void TMRChannel::setPrescaler(uint32_t psc) // psc 0..7 -> prescaler: 1..128
    {
        pscValue = 1 << (psc & 0b0111);
    26b0:	f04f 4186 	mov.w	r1, #1124073472	; 0x43000000
    };

    // IMPLEMENTATION ==============================================

    TMRChannel::TMRChannel(IMXRT_TMR_CH_t* regs, callback_t* cbStorage)
        : ITimerChannel(cbStorage)
    26b4:	60c5      	str	r5, [r0, #12]
    {
        this->regs = regs;
    26b6:	6084      	str	r4, [r0, #8]
        return errorCode::OK;
    }

    void TMRChannel::setPrescaler(uint32_t psc) // psc 0..7 -> prescaler: 1..128
    {
        pscValue = 1 << (psc & 0b0111);
    26b8:	6101      	str	r1, [r0, #16]
        pscBits = 0b1000 | (psc & 0b0111);
    26ba:	6142      	str	r2, [r0, #20]
    };

    // IMPLEMENTATION ==============================================

    TMRChannel::TMRChannel(IMXRT_TMR_CH_t* regs, callback_t* cbStorage)
        : ITimerChannel(cbStorage)
    26bc:	e880 00c0 	stmia.w	r0, {r6, r7}
    26c0:	e8bd 81f0 	ldmia.w	sp!, {r4, r5, r6, r7, r8, pc}
        }

        for (unsigned chNr = 0; chNr < 4; chNr++)
        {
            IMXRT_TMR_CH_t* pCh = &pTMR->CH[chNr];
            if (pCh->CTRL == 0x0000)
    26c4:	4b1a      	ldr	r3, [pc, #104]	; (2730 <TeensyTimerTool::TMR_t<2u>::getTimer()+0xdc>)
    26c6:	899a      	ldrh	r2, [r3, #12]
    26c8:	b292      	uxth	r2, r2
    26ca:	b16a      	cbz	r2, 26e8 <TeensyTimerTool::TMR_t<2u>::getTimer()+0x94>
    26cc:	8d9a      	ldrh	r2, [r3, #44]	; 0x2c
    26ce:	b292      	uxth	r2, r2
    26d0:	b31a      	cbz	r2, 271a <TeensyTimerTool::TMR_t<2u>::getTimer()+0xc6>
    26d2:	f8b3 204c 	ldrh.w	r2, [r3, #76]	; 0x4c
    26d6:	b292      	uxth	r2, r2
    26d8:	b30a      	cbz	r2, 271e <TeensyTimerTool::TMR_t<2u>::getTimer()+0xca>
    26da:	f8b3 306c 	ldrh.w	r3, [r3, #108]	; 0x6c
    26de:	b29b      	uxth	r3, r3
    26e0:	b1fb      	cbz	r3, 2722 <TeensyTimerTool::TMR_t<2u>::getTimer()+0xce>
            {
                return new TMRChannel(pCh, &callbacks[chNr]);
            }
        }
        return nullptr;
    26e2:	2000      	movs	r0, #0
    }
    26e4:	e8bd 81f0 	ldmia.w	sp!, {r4, r5, r6, r7, r8, pc}
        }

        for (unsigned chNr = 0; chNr < 4; chNr++)
        {
            IMXRT_TMR_CH_t* pCh = &pTMR->CH[chNr];
            if (pCh->CTRL == 0x0000)
    26e8:	4614      	mov	r4, r2
            {
                return new TMRChannel(pCh, &callbacks[chNr]);
    26ea:	2018      	movs	r0, #24
    26ec:	2600      	movs	r6, #0
    26ee:	f002 f977 	bl	49e0 <operator new(unsigned int)>
    26f2:	4a0e      	ldr	r2, [pc, #56]	; (272c <TeensyTimerTool::TMR_t<2u>::getTimer()+0xd8>)
    26f4:	4603      	mov	r3, r0
            return new TMRChannel(pCH0, &callbacks[0]);
        }

        for (unsigned chNr = 0; chNr < 4; chNr++)
        {
            IMXRT_TMR_CH_t* pCh = &pTMR->CH[chNr];
    26f6:	490e      	ldr	r1, [pc, #56]	; (2730 <TeensyTimerTool::TMR_t<2u>::getTimer()+0xdc>)
    26f8:	0160      	lsls	r0, r4, #5
    26fa:	4f12      	ldr	r7, [pc, #72]	; (2744 <TeensyTimerTool::TMR_t<2u>::getTimer()+0xf0>)
            if (pCh->CTRL == 0x0000)
            {
                return new TMRChannel(pCh, &callbacks[chNr]);
    26fc:	eb02 1204 	add.w	r2, r2, r4, lsl #4
        return errorCode::OK;
    }

    void TMRChannel::setPrescaler(uint32_t psc) // psc 0..7 -> prescaler: 1..128
    {
        pscValue = 1 << (psc & 0b0111);
    2700:	f04f 4586 	mov.w	r5, #1124073472	; 0x43000000
            return new TMRChannel(pCH0, &callbacks[0]);
        }

        for (unsigned chNr = 0; chNr < 4; chNr++)
        {
            IMXRT_TMR_CH_t* pCh = &pTMR->CH[chNr];
    2704:	4401      	add	r1, r0
        pscBits = 0b1000 | (psc & 0b0111);
    2706:	240f      	movs	r4, #15
    2708:	605a      	str	r2, [r3, #4]
            if (pCh->CTRL == 0x0000)
            {
                return new TMRChannel(pCh, &callbacks[chNr]);
    270a:	4618      	mov	r0, r3
    // IMPLEMENTATION ==============================================

    TMRChannel::TMRChannel(IMXRT_TMR_CH_t* regs, callback_t* cbStorage)
        : ITimerChannel(cbStorage)
    {
        this->regs = regs;
    270c:	6099      	str	r1, [r3, #8]
    };

    // IMPLEMENTATION ==============================================

    TMRChannel::TMRChannel(IMXRT_TMR_CH_t* regs, callback_t* cbStorage)
        : ITimerChannel(cbStorage)
    270e:	601f      	str	r7, [r3, #0]
    2710:	60de      	str	r6, [r3, #12]
        return errorCode::OK;
    }

    void TMRChannel::setPrescaler(uint32_t psc) // psc 0..7 -> prescaler: 1..128
    {
        pscValue = 1 << (psc & 0b0111);
    2712:	611d      	str	r5, [r3, #16]
        pscBits = 0b1000 | (psc & 0b0111);
    2714:	615c      	str	r4, [r3, #20]
    2716:	e8bd 81f0 	ldmia.w	sp!, {r4, r5, r6, r7, r8, pc}
            NVIC_ENABLE_IRQ(irq);
            isInitialized = true;
            return new TMRChannel(pCH0, &callbacks[0]);
        }

        for (unsigned chNr = 0; chNr < 4; chNr++)
    271a:	2401      	movs	r4, #1
    271c:	e7e5      	b.n	26ea <TeensyTimerTool::TMR_t<2u>::getTimer()+0x96>
    271e:	2402      	movs	r4, #2
    2720:	e7e3      	b.n	26ea <TeensyTimerTool::TMR_t<2u>::getTimer()+0x96>
    2722:	2403      	movs	r4, #3
    2724:	e7e1      	b.n	26ea <TeensyTimerTool::TMR_t<2u>::getTimer()+0x96>
    2726:	bf00      	nop
    2728:	200017e6 	.word	0x200017e6
    272c:	200018dc 	.word	0x200018dc
    2730:	401e4000 	.word	0x401e4000
    2734:	20002000 	.word	0x20002000
    2738:	00001edd 	.word	0x00001edd
    273c:	e000e110 	.word	0xe000e110
    2740:	200018d8 	.word	0x200018d8
    2744:	20000178 	.word	0x20000178

00002748 <TeensyTimerTool::TMR_t<3u>::getTimer()>:
    template <unsigned moduleNr> IMXRT_TMR_CH_t* const TMR_t<moduleNr>::pCH1 = &pTMR->CH[1];
    template <unsigned moduleNr> IMXRT_TMR_CH_t* const TMR_t<moduleNr>::pCH2 = &pTMR->CH[2];
    template <unsigned moduleNr> IMXRT_TMR_CH_t* const TMR_t<moduleNr>::pCH3 = &pTMR->CH[3];

    template <unsigned moduleNr>
    ITimerChannel* TMR_t<moduleNr>::getTimer()
    2748:	e92d 41f0 	stmdb	sp!, {r4, r5, r6, r7, r8, lr}
    {
        if (!isInitialized)
    274c:	4e33      	ldr	r6, [pc, #204]	; (281c <TeensyTimerTool::TMR_t<3u>::getTimer()+0xd4>)
    274e:	7835      	ldrb	r5, [r6, #0]
    2750:	2d00      	cmp	r5, #0
    2752:	d132      	bne.n	27ba <TeensyTimerTool::TMR_t<3u>::getTimer()+0x72>
    2754:	4f32      	ldr	r7, [pc, #200]	; (2820 <TeensyTimerTool::TMR_t<3u>::getTimer()+0xd8>)
        {
            for (unsigned chNr = 0; chNr < 4; chNr++)
            {
                pTMR->CH[chNr].CTRL = 0x0000;
    2756:	46a8      	mov	r8, r5
    2758:	463c      	mov	r4, r7
    275a:	016a      	lsls	r2, r5, #5
    275c:	4b31      	ldr	r3, [pc, #196]	; (2824 <TeensyTimerTool::TMR_t<3u>::getTimer()+0xdc>)
      function&
      operator=(nullptr_t) noexcept
      {
	if (_M_manager)
	  {
	    _M_manager(_M_functor, _M_functor, __destroy_functor);
    275e:	4621      	mov	r1, r4
    2760:	3501      	adds	r5, #1
    2762:	4413      	add	r3, r2
    2764:	4620      	mov	r0, r4
    2766:	2203      	movs	r2, #3
    2768:	f8a3 800c 	strh.w	r8, [r3, #12]
       *  The target of @c *this is deallocated, leaving it empty.
       */
      function&
      operator=(nullptr_t) noexcept
      {
	if (_M_manager)
    276c:	68a3      	ldr	r3, [r4, #8]
    276e:	b123      	cbz	r3, 277a <TeensyTimerTool::TMR_t<3u>::getTimer()+0x32>
	  {
	    _M_manager(_M_functor, _M_functor, __destroy_functor);
    2770:	4798      	blx	r3
	    _M_manager = nullptr;
    2772:	f8c4 8008 	str.w	r8, [r4, #8]
	    _M_invoker = nullptr;
    2776:	f8c4 800c 	str.w	r8, [r4, #12]
    template <unsigned moduleNr>
    ITimerChannel* TMR_t<moduleNr>::getTimer()
    {
        if (!isInitialized)
        {
            for (unsigned chNr = 0; chNr < 4; chNr++)
    277a:	2d04      	cmp	r5, #4
    277c:	f104 0410 	add.w	r4, r4, #16
    2780:	d1eb      	bne.n	275a <TeensyTimerTool::TMR_t<3u>::getTimer()+0x12>
    2782:	4b29      	ldr	r3, [pc, #164]	; (2828 <TeensyTimerTool::TMR_t<3u>::getTimer()+0xe0>)
    2784:	4a29      	ldr	r2, [pc, #164]	; (282c <TeensyTimerTool::TMR_t<3u>::getTimer()+0xe4>)
    2786:	f8c3 2260 	str.w	r2, [r3, #608]	; 0x260
            {
                pTMR->CH[chNr].CTRL = 0x0000;
                callbacks[chNr] = nullptr;
            }
            attachInterruptVector(irq, isr); // start
            NVIC_ENABLE_IRQ(irq);
    278a:	4a29      	ldr	r2, [pc, #164]	; (2830 <TeensyTimerTool::TMR_t<3u>::getTimer()+0xe8>)
    278c:	f44f 7180 	mov.w	r1, #256	; 0x100
            isInitialized = true;
    2790:	2301      	movs	r3, #1
            return new TMRChannel(pCH0, &callbacks[0]);
    2792:	2018      	movs	r0, #24
            {
                pTMR->CH[chNr].CTRL = 0x0000;
                callbacks[chNr] = nullptr;
            }
            attachInterruptVector(irq, isr); // start
            NVIC_ENABLE_IRQ(irq);
    2794:	6011      	str	r1, [r2, #0]
    };

    // IMPLEMENTATION ==============================================

    TMRChannel::TMRChannel(IMXRT_TMR_CH_t* regs, callback_t* cbStorage)
        : ITimerChannel(cbStorage)
    2796:	2500      	movs	r5, #0
            isInitialized = true;
    2798:	7033      	strb	r3, [r6, #0]
            return new TMRChannel(pCH0, &callbacks[0]);
    279a:	f002 f921 	bl	49e0 <operator new(unsigned int)>
    279e:	4925      	ldr	r1, [pc, #148]	; (2834 <TeensyTimerTool::TMR_t<3u>::getTimer()+0xec>)
    }

    void TMRChannel::setPrescaler(uint32_t psc) // psc 0..7 -> prescaler: 1..128
    {
        pscValue = 1 << (psc & 0b0111);
        pscBits = 0b1000 | (psc & 0b0111);
    27a0:	220f      	movs	r2, #15
    };

    // IMPLEMENTATION ==============================================

    TMRChannel::TMRChannel(IMXRT_TMR_CH_t* regs, callback_t* cbStorage)
        : ITimerChannel(cbStorage)
    27a2:	4e25      	ldr	r6, [pc, #148]	; (2838 <TeensyTimerTool::TMR_t<3u>::getTimer()+0xf0>)
    27a4:	680c      	ldr	r4, [r1, #0]
        return errorCode::OK;
    }

    void TMRChannel::setPrescaler(uint32_t psc) // psc 0..7 -> prescaler: 1..128
    {
        pscValue = 1 << (psc & 0b0111);
    27a6:	f04f 4186 	mov.w	r1, #1124073472	; 0x43000000
    };

    // IMPLEMENTATION ==============================================

    TMRChannel::TMRChannel(IMXRT_TMR_CH_t* regs, callback_t* cbStorage)
        : ITimerChannel(cbStorage)
    27aa:	60c5      	str	r5, [r0, #12]
    {
        this->regs = regs;
    27ac:	6084      	str	r4, [r0, #8]
        return errorCode::OK;
    }

    void TMRChannel::setPrescaler(uint32_t psc) // psc 0..7 -> prescaler: 1..128
    {
        pscValue = 1 << (psc & 0b0111);
    27ae:	6101      	str	r1, [r0, #16]
        pscBits = 0b1000 | (psc & 0b0111);
    27b0:	6142      	str	r2, [r0, #20]
    };

    // IMPLEMENTATION ==============================================

    TMRChannel::TMRChannel(IMXRT_TMR_CH_t* regs, callback_t* cbStorage)
        : ITimerChannel(cbStorage)
    27b2:	e880 00c0 	stmia.w	r0, {r6, r7}
    27b6:	e8bd 81f0 	ldmia.w	sp!, {r4, r5, r6, r7, r8, pc}
        }

        for (unsigned chNr = 0; chNr < 4; chNr++)
        {
            IMXRT_TMR_CH_t* pCh = &pTMR->CH[chNr];
            if (pCh->CTRL == 0x0000)
    27ba:	4b1a      	ldr	r3, [pc, #104]	; (2824 <TeensyTimerTool::TMR_t<3u>::getTimer()+0xdc>)
    27bc:	899a      	ldrh	r2, [r3, #12]
    27be:	b292      	uxth	r2, r2
    27c0:	b16a      	cbz	r2, 27de <TeensyTimerTool::TMR_t<3u>::getTimer()+0x96>
    27c2:	8d9a      	ldrh	r2, [r3, #44]	; 0x2c
    27c4:	b292      	uxth	r2, r2
    27c6:	b31a      	cbz	r2, 2810 <TeensyTimerTool::TMR_t<3u>::getTimer()+0xc8>
    27c8:	f8b3 204c 	ldrh.w	r2, [r3, #76]	; 0x4c
    27cc:	b292      	uxth	r2, r2
    27ce:	b30a      	cbz	r2, 2814 <TeensyTimerTool::TMR_t<3u>::getTimer()+0xcc>
    27d0:	f8b3 306c 	ldrh.w	r3, [r3, #108]	; 0x6c
    27d4:	b29b      	uxth	r3, r3
    27d6:	b1fb      	cbz	r3, 2818 <TeensyTimerTool::TMR_t<3u>::getTimer()+0xd0>
            {
                return new TMRChannel(pCh, &callbacks[chNr]);
            }
        }
        return nullptr;
    27d8:	2000      	movs	r0, #0
    }
    27da:	e8bd 81f0 	ldmia.w	sp!, {r4, r5, r6, r7, r8, pc}
        }

        for (unsigned chNr = 0; chNr < 4; chNr++)
        {
            IMXRT_TMR_CH_t* pCh = &pTMR->CH[chNr];
            if (pCh->CTRL == 0x0000)
    27de:	4614      	mov	r4, r2
            {
                return new TMRChannel(pCh, &callbacks[chNr]);
    27e0:	2018      	movs	r0, #24
    27e2:	2600      	movs	r6, #0
    27e4:	f002 f8fc 	bl	49e0 <operator new(unsigned int)>
    27e8:	4a0d      	ldr	r2, [pc, #52]	; (2820 <TeensyTimerTool::TMR_t<3u>::getTimer()+0xd8>)
    27ea:	4603      	mov	r3, r0
            return new TMRChannel(pCH0, &callbacks[0]);
        }

        for (unsigned chNr = 0; chNr < 4; chNr++)
        {
            IMXRT_TMR_CH_t* pCh = &pTMR->CH[chNr];
    27ec:	490d      	ldr	r1, [pc, #52]	; (2824 <TeensyTimerTool::TMR_t<3u>::getTimer()+0xdc>)
    27ee:	0160      	lsls	r0, r4, #5
    27f0:	4f11      	ldr	r7, [pc, #68]	; (2838 <TeensyTimerTool::TMR_t<3u>::getTimer()+0xf0>)
            if (pCh->CTRL == 0x0000)
            {
                return new TMRChannel(pCh, &callbacks[chNr]);
    27f2:	eb02 1204 	add.w	r2, r2, r4, lsl #4
        return errorCode::OK;
    }

    void TMRChannel::setPrescaler(uint32_t psc) // psc 0..7 -> prescaler: 1..128
    {
        pscValue = 1 << (psc & 0b0111);
    27f6:	f04f 4586 	mov.w	r5, #1124073472	; 0x43000000
            return new TMRChannel(pCH0, &callbacks[0]);
        }

        for (unsigned chNr = 0; chNr < 4; chNr++)
        {
            IMXRT_TMR_CH_t* pCh = &pTMR->CH[chNr];
    27fa:	4401      	add	r1, r0
        pscBits = 0b1000 | (psc & 0b0111);
    27fc:	240f      	movs	r4, #15
    27fe:	605a      	str	r2, [r3, #4]
            if (pCh->CTRL == 0x0000)
            {
                return new TMRChannel(pCh, &callbacks[chNr]);
    2800:	4618      	mov	r0, r3
    // IMPLEMENTATION ==============================================

    TMRChannel::TMRChannel(IMXRT_TMR_CH_t* regs, callback_t* cbStorage)
        : ITimerChannel(cbStorage)
    {
        this->regs = regs;
    2802:	6099      	str	r1, [r3, #8]
    };

    // IMPLEMENTATION ==============================================

    TMRChannel::TMRChannel(IMXRT_TMR_CH_t* regs, callback_t* cbStorage)
        : ITimerChannel(cbStorage)
    2804:	601f      	str	r7, [r3, #0]
    2806:	60de      	str	r6, [r3, #12]
        return errorCode::OK;
    }

    void TMRChannel::setPrescaler(uint32_t psc) // psc 0..7 -> prescaler: 1..128
    {
        pscValue = 1 << (psc & 0b0111);
    2808:	611d      	str	r5, [r3, #16]
        pscBits = 0b1000 | (psc & 0b0111);
    280a:	615c      	str	r4, [r3, #20]
    280c:	e8bd 81f0 	ldmia.w	sp!, {r4, r5, r6, r7, r8, pc}
            NVIC_ENABLE_IRQ(irq);
            isInitialized = true;
            return new TMRChannel(pCH0, &callbacks[0]);
        }

        for (unsigned chNr = 0; chNr < 4; chNr++)
    2810:	2401      	movs	r4, #1
    2812:	e7e5      	b.n	27e0 <TeensyTimerTool::TMR_t<3u>::getTimer()+0x98>
    2814:	2402      	movs	r4, #2
    2816:	e7e3      	b.n	27e0 <TeensyTimerTool::TMR_t<3u>::getTimer()+0x98>
    2818:	2403      	movs	r4, #3
    281a:	e7e1      	b.n	27e0 <TeensyTimerTool::TMR_t<3u>::getTimer()+0x98>
    281c:	200017e5 	.word	0x200017e5
    2820:	20001898 	.word	0x20001898
    2824:	401e8000 	.word	0x401e8000
    2828:	20002000 	.word	0x20002000
    282c:	00001f89 	.word	0x00001f89
    2830:	e000e110 	.word	0xe000e110
    2834:	20001894 	.word	0x20001894
    2838:	20000178 	.word	0x20000178

0000283c <TeensyTimerTool::TckChannel<unsigned long>::trigger(float)>:
    }

    template <>
    inline float TckChannel<uint32_t>::getMaxMicros() const
    {
        return 0xF000'0000 / clock; // don't use full range otherwise tick might miss the turnover for large periods
    283c:	ed9f 7a1a 	vldr	s14, [pc, #104]	; 28a8 <TeensyTimerTool::TckChannel<unsigned long>::trigger(float)+0x6c>
    2840:	edd0 7a0c 	vldr	s15, [r0, #48]	; 0x30
    }

    template <typename T>
    errorCode TckChannel<T>::trigger(float delay) // s
    {
        return triggerDirect(microsecondToCycles(delay));
    2844:	6803      	ldr	r3, [r0, #0]
        this->triggered = true;
        return errorCode::OK;
    }

    template <typename T>
    errorCode TckChannel<T>::trigger(float delay) // s
    2846:	b570      	push	{r4, r5, r6, lr}
    2848:	ed2d 8b02 	vpush	{d8}
    }

    template <>
    inline float TckChannel<uint32_t>::getMaxMicros() const
    {
        return 0xF000'0000 / clock; // don't use full range otherwise tick might miss the turnover for large periods
    284c:	ee87 8a27 	vdiv.f32	s16, s14, s15
        this->triggered = true;
        return errorCode::OK;
    }

    template <typename T>
    errorCode TckChannel<T>::trigger(float delay) // s
    2850:	4604      	mov	r4, r0
    {
        return triggerDirect(microsecondToCycles(delay));
    2852:	689d      	ldr	r5, [r3, #8]
    }

    template <typename CounterType>
    CounterType TckChannel<CounterType>::microsecondToCycles(float microSecond) const
    {
        if (microSecond > getMaxMicros())
    2854:	eeb4 0ac8 	vcmpe.f32	s0, s16
    2858:	eef1 fa10 	vmrs	APSR_nzcv, fpscr
    285c:	dd07      	ble.n	286e <TeensyTimerTool::TckChannel<unsigned long>::trigger(float)+0x32>
        {
            microSecond = getMaxMicros();
            postError(errorCode::periodOverflow);
    285e:	f06f 0063 	mvn.w	r0, #99	; 0x63
    2862:	f000 fc13 	bl	308c <TeensyTimerTool::postError(TeensyTimerTool::errorCode)>
    template <typename CounterType>
    CounterType TckChannel<CounterType>::microsecondToCycles(float microSecond) const
    {
        if (microSecond > getMaxMicros())
        {
            microSecond = getMaxMicros();
    2866:	eeb0 0a48 	vmov.f32	s0, s16
    286a:	edd4 7a0c 	vldr	s15, [r4, #48]	; 0x30
            postError(errorCode::periodOverflow);
        }
        return (CounterType)(microSecond * clock);
    286e:	ee20 0a27 	vmul.f32	s0, s0, s15
    2872:	4b0e      	ldr	r3, [pc, #56]	; (28ac <TeensyTimerTool::TckChannel<unsigned long>::trigger(float)+0x70>)
    2874:	429d      	cmp	r5, r3
    2876:	eefc 7ac0 	vcvt.u32.f32	s15, s0
    287a:	ee17 1a90 	vmov	r1, s15
    287e:	d10c      	bne.n	289a <TeensyTimerTool::TckChannel<unsigned long>::trigger(float)+0x5e>
    // 32bit Counter -------------------------------------------------------------------------

    template <>
    inline uint32_t TckChannel<uint32_t>::getCycleCounter()
    {
        return ARM_DWT_CYCCNT; //directly use the cycle counter for uint32_t
    2880:	4a0b      	ldr	r2, [pc, #44]	; (28b0 <TeensyTimerTool::TckChannel<unsigned long>::trigger(float)+0x74>)
    errorCode TckChannel<CounterType>::triggerDirect(CounterType reload)
    {
        this->startCnt = getCycleCounter();
        this->nextPeriod = reload;
        this->currentPeriod = this->nextPeriod;
        this->triggered = true;
    2882:	2301      	movs	r3, #1

    template <typename T>
    errorCode TckChannel<T>::trigger(float delay) // s
    {
        return triggerDirect(microsecondToCycles(delay));
    }
    2884:	2000      	movs	r0, #0
    // 32bit Counter -------------------------------------------------------------------------

    template <>
    inline uint32_t TckChannel<uint32_t>::getCycleCounter()
    {
        return ARM_DWT_CYCCNT; //directly use the cycle counter for uint32_t
    2886:	6812      	ldr	r2, [r2, #0]

    template <typename CounterType>
    errorCode TckChannel<CounterType>::triggerDirect(CounterType reload)
    {
        this->startCnt = getCycleCounter();
        this->nextPeriod = reload;
    2888:	edc4 7a09 	vstr	s15, [r4, #36]	; 0x24
    }

    template <typename CounterType>
    errorCode TckChannel<CounterType>::triggerDirect(CounterType reload)
    {
        this->startCnt = getCycleCounter();
    288c:	61e2      	str	r2, [r4, #28]
        this->nextPeriod = reload;
        this->currentPeriod = this->nextPeriod;
    288e:	edc4 7a08 	vstr	s15, [r4, #32]
        this->triggered = true;
    2892:	7663      	strb	r3, [r4, #25]

    template <typename T>
    errorCode TckChannel<T>::trigger(float delay) // s
    {
        return triggerDirect(microsecondToCycles(delay));
    }
    2894:	ecbd 8b02 	vpop	{d8}
    2898:	bd70      	pop	{r4, r5, r6, pc}
    289a:	ecbd 8b02 	vpop	{d8}
    }

    template <typename T>
    errorCode TckChannel<T>::trigger(float delay) // s
    {
        return triggerDirect(microsecondToCycles(delay));
    289e:	4620      	mov	r0, r4
    28a0:	462b      	mov	r3, r5
    }
    28a2:	e8bd 4070 	ldmia.w	sp!, {r4, r5, r6, lr}
    }

    template <typename T>
    errorCode TckChannel<T>::trigger(float delay) // s
    {
        return triggerDirect(microsecondToCycles(delay));
    28a6:	4718      	bx	r3
    28a8:	4f700000 	.word	0x4f700000
    28ac:	00002125 	.word	0x00002125
    28b0:	e0001004 	.word	0xe0001004

000028b4 <TeensyTimerTool::TMRChannel::begin(std::function<void ()>, float, bool)>:
        }
    }

    float_t TMRChannel::microsecondToCounter(const float_t us) const
    {
        return us * 150.0f / pscValue;
    28b4:	eddf 7a4c 	vldr	s15, [pc, #304]	; 29e8 <TeensyTimerTool::TMRChannel::begin(std::function<void ()>, float, bool)+0x134>

    errorCode TMRChannel::begin(callback_t cb, float tcnt, bool periodic)
    {
        const float_t t = microsecondToCounter(tcnt);
        uint16_t reload;
        if (t > 0xFFFF)
    28b8:	ed9f 7a4c 	vldr	s14, [pc, #304]	; 29ec <TeensyTimerTool::TMRChannel::begin(std::function<void ()>, float, bool)+0x138>
        }
    }

    float_t TMRChannel::microsecondToCounter(const float_t us) const
    {
        return us * 150.0f / pscValue;
    28bc:	ee20 0a27 	vmul.f32	s0, s0, s15
    28c0:	edd0 7a04 	vldr	s15, [r0, #16]
    // {
    //     return begin(cb, (float)tcnt, periodic);
    // }

    errorCode TMRChannel::begin(callback_t cb, float tcnt, bool periodic)
    {
    28c4:	e92d 41f0 	stmdb	sp!, {r4, r5, r6, r7, r8, lr}
    28c8:	ed2d 8b02 	vpush	{d8}
        }
    }

    float_t TMRChannel::microsecondToCounter(const float_t us) const
    {
        return us * 150.0f / pscValue;
    28cc:	ee80 8a27 	vdiv.f32	s16, s0, s15
    // {
    //     return begin(cb, (float)tcnt, periodic);
    // }

    errorCode TMRChannel::begin(callback_t cb, float tcnt, bool periodic)
    {
    28d0:	b08a      	sub	sp, #40	; 0x28
    28d2:	4605      	mov	r5, r0
    28d4:	460e      	mov	r6, r1
    28d6:	4617      	mov	r7, r2
        const float_t t = microsecondToCounter(tcnt);
        uint16_t reload;
        if (t > 0xFFFF)
    28d8:	eeb4 8ac7 	vcmpe.f32	s16, s14
    28dc:	eef1 fa10 	vmrs	APSR_nzcv, fpscr
    28e0:	dc78      	bgt.n	29d4 <TeensyTimerTool::TMRChannel::begin(std::function<void ()>, float, bool)+0x120>
        {
            postError(errorCode::periodOverflow);
            reload = 0xFFFE;
        } else
        {
            reload = (uint16_t)t - 1;
    28e2:	eefc 7ac8 	vcvt.u32.f32	s15, s16
    28e6:	ee17 2a90 	vmov	r2, s15
    28ea:	3a01      	subs	r2, #1
    28ec:	b292      	uxth	r2, r2
        }

        regs->CTRL = 0x0000;
    28ee:	68ab      	ldr	r3, [r5, #8]
    28f0:	2400      	movs	r4, #0
    28f2:	f8d6 8008 	ldr.w	r8, [r6, #8]
    28f6:	819c      	strh	r4, [r3, #12]
        regs->LOAD = 0x0000;
    28f8:	80dc      	strh	r4, [r3, #6]
        regs->COMP1 = reload;
    28fa:	801a      	strh	r2, [r3, #0]
        regs->CMPLD1 = reload;
    28fc:	821a      	strh	r2, [r3, #16]
        regs->CNTR = 0x0000;
    28fe:	815c      	strh	r4, [r3, #10]
	{
	  _Base::_M_init_functor(__functor, std::__addressof(__f.get()));
	}
      };

    _Function_base() : _M_manager(nullptr) { }
    2900:	9404      	str	r4, [sp, #16]
  template<typename _Res, typename... _ArgTypes>
    function<_Res(_ArgTypes...)>::
    function(const function& __x)
    : _Function_base()
    {
      if (static_cast<bool>(__x))
    2902:	f1b8 0f00 	cmp.w	r8, #0
    2906:	d060      	beq.n	29ca <TeensyTimerTool::TMRChannel::begin(std::function<void ()>, float, bool)+0x116>
	{
	  __x._M_manager(_M_functor, __x._M_functor, __clone_functor);
    2908:	2202      	movs	r2, #2
    290a:	4631      	mov	r1, r6
    290c:	a802      	add	r0, sp, #8
    290e:	47c0      	blx	r8
	  _M_invoker = __x._M_invoker;
    2910:	68f2      	ldr	r2, [r6, #12]
	  _M_manager = __x._M_manager;
    2912:	68b3      	ldr	r3, [r6, #8]
    function(const function& __x)
    : _Function_base()
    {
      if (static_cast<bool>(__x))
	{
	  __x._M_manager(_M_functor, __x._M_functor, __clone_functor);
    2914:	ae06      	add	r6, sp, #24
	{
	  _Base::_M_init_functor(__functor, std::__addressof(__f.get()));
	}
      };

    _Function_base() : _M_manager(nullptr) { }
    2916:	9408      	str	r4, [sp, #32]
    : _Function_base()
    {
      if (static_cast<bool>(__x))
	{
	  __x._M_manager(_M_functor, __x._M_functor, __clone_functor);
	  _M_invoker = __x._M_invoker;
    2918:	9205      	str	r2, [sp, #20]
	  _M_manager = __x._M_manager;
    291a:	9304      	str	r3, [sp, #16]
    291c:	686c      	ldr	r4, [r5, #4]
  template<typename _Res, typename... _ArgTypes>
    function<_Res(_ArgTypes...)>::
    function(const function& __x)
    : _Function_base()
    {
      if (static_cast<bool>(__x))
    291e:	b13b      	cbz	r3, 2930 <TeensyTimerTool::TMRChannel::begin(std::function<void ()>, float, bool)+0x7c>
	{
	  __x._M_manager(_M_functor, __x._M_functor, __clone_functor);
    2920:	2202      	movs	r2, #2
    2922:	a902      	add	r1, sp, #8
    2924:	4630      	mov	r0, r6
    2926:	4798      	blx	r3
	  _M_invoker = __x._M_invoker;
    2928:	9a05      	ldr	r2, [sp, #20]
	  _M_manager = __x._M_manager;
    292a:	9b04      	ldr	r3, [sp, #16]
    : _Function_base()
    {
      if (static_cast<bool>(__x))
	{
	  __x._M_manager(_M_functor, __x._M_functor, __clone_functor);
	  _M_invoker = __x._M_invoker;
    292c:	9209      	str	r2, [sp, #36]	; 0x24
	  _M_manager = __x._M_manager;
    292e:	9308      	str	r3, [sp, #32]
    {
      // concept requirements
      __glibcxx_function_requires(_SGIAssignableConcept<_Tp>)

      _Tp __tmp = _GLIBCXX_MOVE(__a);
      __a = _GLIBCXX_MOVE(__b);
    2930:	68e2      	ldr	r2, [r4, #12]
#endif
    {
      // concept requirements
      __glibcxx_function_requires(_SGIAssignableConcept<_Tp>)

      _Tp __tmp = _GLIBCXX_MOVE(__a);
    2932:	e896 0003 	ldmia.w	r6, {r0, r1}
    2936:	e88d 0003 	stmia.w	sp, {r0, r1}
      __a = _GLIBCXX_MOVE(__b);
    293a:	e894 0003 	ldmia.w	r4, {r0, r1}
    293e:	e886 0003 	stmia.w	r6, {r0, r1}
      __b = _GLIBCXX_MOVE(__tmp);
    2942:	e89d 0003 	ldmia.w	sp, {r0, r1}
    {
      // concept requirements
      __glibcxx_function_requires(_SGIAssignableConcept<_Tp>)

      _Tp __tmp = _GLIBCXX_MOVE(__a);
      __a = _GLIBCXX_MOVE(__b);
    2946:	68a3      	ldr	r3, [r4, #8]
      __b = _GLIBCXX_MOVE(__tmp);
    2948:	e884 0003 	stmia.w	r4, {r0, r1}
#endif
    {
      // concept requirements
      __glibcxx_function_requires(_SGIAssignableConcept<_Tp>)

      _Tp __tmp = _GLIBCXX_MOVE(__a);
    294c:	9908      	ldr	r1, [sp, #32]
      __a = _GLIBCXX_MOVE(__b);
    294e:	9308      	str	r3, [sp, #32]
      __b = _GLIBCXX_MOVE(__tmp);
    2950:	60a1      	str	r1, [r4, #8]
#endif
    {
      // concept requirements
      __glibcxx_function_requires(_SGIAssignableConcept<_Tp>)

      _Tp __tmp = _GLIBCXX_MOVE(__a);
    2952:	9909      	ldr	r1, [sp, #36]	; 0x24
      __a = _GLIBCXX_MOVE(__b);
    2954:	9209      	str	r2, [sp, #36]	; 0x24
      __b = _GLIBCXX_MOVE(__tmp);
    2956:	60e1      	str	r1, [r4, #12]

    _Function_base() : _M_manager(nullptr) { }

    ~_Function_base()
    {
      if (_M_manager)
    2958:	b11b      	cbz	r3, 2962 <TeensyTimerTool::TMRChannel::begin(std::function<void ()>, float, bool)+0xae>
	_M_manager(_M_functor, _M_functor, __destroy_functor);
    295a:	2203      	movs	r2, #3
    295c:	4631      	mov	r1, r6
    295e:	4630      	mov	r0, r6
    2960:	4798      	blx	r3

    _Function_base() : _M_manager(nullptr) { }

    ~_Function_base()
    {
      if (_M_manager)
    2962:	9b04      	ldr	r3, [sp, #16]
    2964:	b11b      	cbz	r3, 296e <TeensyTimerTool::TMRChannel::begin(std::function<void ()>, float, bool)+0xba>
	_M_manager(_M_functor, _M_functor, __destroy_functor);
    2966:	a902      	add	r1, sp, #8
    2968:	2203      	movs	r2, #3
    296a:	4608      	mov	r0, r1
    296c:	4798      	blx	r3
        setCallback(cb);

        if (!periodic)
            regs->CTRL = TMR_CTRL_CM(1) | TMR_CTRL_PCS(pscBits) | TMR_CTRL_ONCE | TMR_CTRL_LENGTH;
    296e:	696b      	ldr	r3, [r5, #20]
        regs->COMP1 = reload;
        regs->CMPLD1 = reload;
        regs->CNTR = 0x0000;
        setCallback(cb);

        if (!periodic)
    2970:	bb47      	cbnz	r7, 29c4 <TeensyTimerTool::TMRChannel::begin(std::function<void ()>, float, bool)+0x110>
            regs->CTRL = TMR_CTRL_CM(1) | TMR_CTRL_PCS(pscBits) | TMR_CTRL_ONCE | TMR_CTRL_LENGTH;
    2972:	f242 0160 	movw	r1, #8288	; 0x2060

        else
            regs->CTRL = TMR_CTRL_CM(1) | TMR_CTRL_PCS(pscBits) | TMR_CTRL_LENGTH;
    2976:	025b      	lsls	r3, r3, #9
    2978:	68aa      	ldr	r2, [r5, #8]
    297a:	f403 53f0 	and.w	r3, r3, #7680	; 0x1e00
    297e:	4319      	orrs	r1, r3

        start();
    2980:	682b      	ldr	r3, [r5, #0]

        if (!periodic)
            regs->CTRL = TMR_CTRL_CM(1) | TMR_CTRL_PCS(pscBits) | TMR_CTRL_ONCE | TMR_CTRL_LENGTH;

        else
            regs->CTRL = TMR_CTRL_CM(1) | TMR_CTRL_PCS(pscBits) | TMR_CTRL_LENGTH;
    2982:	8191      	strh	r1, [r2, #12]

        start();
    2984:	699b      	ldr	r3, [r3, #24]
    2986:	491a      	ldr	r1, [pc, #104]	; (29f0 <TeensyTimerTool::TMRChannel::begin(std::function<void ()>, float, bool)+0x13c>)
    2988:	428b      	cmp	r3, r1
    298a:	d12a      	bne.n	29e2 <TeensyTimerTool::TMRChannel::begin(std::function<void ()>, float, bool)+0x12e>
    {
    }

    errorCode TMRChannel::start()
    {
        regs->CNTR = 0x0000;
    298c:	2300      	movs	r3, #0
    298e:	8153      	strh	r3, [r2, #10]
        regs->CSCTRL &= ~TMR_CSCTRL_TCF1;
    2990:	8a93      	ldrh	r3, [r2, #20]
    2992:	f023 0310 	bic.w	r3, r3, #16
    2996:	041b      	lsls	r3, r3, #16
    2998:	0c1b      	lsrs	r3, r3, #16
    299a:	8293      	strh	r3, [r2, #20]
        regs->CSCTRL |= TMR_CSCTRL_TCF1EN;
    299c:	8a93      	ldrh	r3, [r2, #20]
    299e:	b29b      	uxth	r3, r3
    29a0:	f043 0340 	orr.w	r3, r3, #64	; 0x40
    29a4:	8293      	strh	r3, [r2, #20]

        else
            regs->CTRL = TMR_CTRL_CM(1) | TMR_CTRL_PCS(pscBits) | TMR_CTRL_LENGTH;

        start();
        return t > 0xFFFF ? errorCode::periodOverflow : errorCode::OK;
    29a6:	eddf 7a11 	vldr	s15, [pc, #68]	; 29ec <TeensyTimerTool::TMRChannel::begin(std::function<void ()>, float, bool)+0x138>
    29aa:	eeb4 8ae7 	vcmpe.f32	s16, s15
    29ae:	eef1 fa10 	vmrs	APSR_nzcv, fpscr
    29b2:	bfcc      	ite	gt
    29b4:	f06f 0063 	mvngt.w	r0, #99	; 0x63
    29b8:	2000      	movle	r0, #0
    }
    29ba:	b00a      	add	sp, #40	; 0x28
    29bc:	ecbd 8b02 	vpop	{d8}
    29c0:	e8bd 81f0 	ldmia.w	sp!, {r4, r5, r6, r7, r8, pc}

        if (!periodic)
            regs->CTRL = TMR_CTRL_CM(1) | TMR_CTRL_PCS(pscBits) | TMR_CTRL_ONCE | TMR_CTRL_LENGTH;

        else
            regs->CTRL = TMR_CTRL_CM(1) | TMR_CTRL_PCS(pscBits) | TMR_CTRL_LENGTH;
    29c4:	f242 0120 	movw	r1, #8224	; 0x2020
    29c8:	e7d5      	b.n	2976 <TeensyTimerTool::TMRChannel::begin(std::function<void ()>, float, bool)+0xc2>
	{
	  _Base::_M_init_functor(__functor, std::__addressof(__f.get()));
	}
      };

    _Function_base() : _M_manager(nullptr) { }
    29ca:	f8cd 8020 	str.w	r8, [sp, #32]
    29ce:	ae06      	add	r6, sp, #24
    29d0:	686c      	ldr	r4, [r5, #4]
    29d2:	e7ad      	b.n	2930 <TeensyTimerTool::TMRChannel::begin(std::function<void ()>, float, bool)+0x7c>
    {
        const float_t t = microsecondToCounter(tcnt);
        uint16_t reload;
        if (t > 0xFFFF)
        {
            postError(errorCode::periodOverflow);
    29d4:	f06f 0063 	mvn.w	r0, #99	; 0x63
    29d8:	f000 fb58 	bl	308c <TeensyTimerTool::postError(TeensyTimerTool::errorCode)>
            reload = 0xFFFE;
    29dc:	f64f 72fe 	movw	r2, #65534	; 0xfffe
    29e0:	e785      	b.n	28ee <TeensyTimerTool::TMRChannel::begin(std::function<void ()>, float, bool)+0x3a>
            regs->CTRL = TMR_CTRL_CM(1) | TMR_CTRL_PCS(pscBits) | TMR_CTRL_ONCE | TMR_CTRL_LENGTH;

        else
            regs->CTRL = TMR_CTRL_CM(1) | TMR_CTRL_PCS(pscBits) | TMR_CTRL_LENGTH;

        start();
    29e2:	4628      	mov	r0, r5
    29e4:	4798      	blx	r3
    29e6:	e7de      	b.n	29a6 <TeensyTimerTool::TMRChannel::begin(std::function<void ()>, float, bool)+0xf2>
    29e8:	43160000 	.word	0x43160000
    29ec:	477fff00 	.word	0x477fff00
    29f0:	00001b2d 	.word	0x00001b2d

000029f4 <TeensyTimerTool::GptChannel::getTriggerReload(float, unsigned long*)>:

        return errorCode::OK;
    }

    errorCode GptChannel::getTriggerReload(float delay, uint32_t* reload)
    {
    29f4:	b538      	push	{r3, r4, r5, lr}
        return (uint32_t)(clock * micros) - 1;
    }

    float GptChannel::getMaxMicros() const
    {
        return (float)0xFFFF'FFFE / clock;
    29f6:	ed9f 7a18 	vldr	s14, [pc, #96]	; 2a58 <TeensyTimerTool::GptChannel::getTriggerReload(float, unsigned long*)+0x64>

        return errorCode::OK;
    }

    errorCode GptChannel::getTriggerReload(float delay, uint32_t* reload)
    {
    29fa:	460d      	mov	r5, r1
    29fc:	ed2d 8b02 	vpush	{d8}
    2a00:	eeb0 8a40 	vmov.f32	s16, s0
    2a04:	ed90 0a05 	vldr	s0, [r0, #20]
        return (uint32_t)(clock * micros) - 1;
    }

    float GptChannel::getMaxMicros() const
    {
        return (float)0xFFFF'FFFE / clock;
    2a08:	eec7 7a00 	vdiv.f32	s15, s14, s0
        return errorCode::OK;
    }

    uint32_t GptChannel::microsecondToCycles(float micros) const
    {
        if (micros > getMaxMicros())
    2a0c:	eeb4 8ae7 	vcmpe.f32	s16, s15
    2a10:	eef1 fa10 	vmrs	APSR_nzcv, fpscr
    2a14:	dc0b      	bgt.n	2a2e <TeensyTimerTool::GptChannel::getTriggerReload(float, unsigned long*)+0x3a>
        return errorCode::OK;
    }

    errorCode GptChannel::getTriggerReload(float delay, uint32_t* reload)
    {
        *reload = microsecondToCycles(delay);
    2a16:	ee28 8a00 	vmul.f32	s16, s16, s0
        return errorCode::OK;
    }
    2a1a:	2000      	movs	r0, #0
        return errorCode::OK;
    }

    errorCode GptChannel::getTriggerReload(float delay, uint32_t* reload)
    {
        *reload = microsecondToCycles(delay);
    2a1c:	eebc 8ac8 	vcvt.u32.f32	s16, s16
    2a20:	ee18 3a10 	vmov	r3, s16
        return errorCode::OK;
    }
    2a24:	ecbd 8b02 	vpop	{d8}
        return errorCode::OK;
    }

    errorCode GptChannel::getTriggerReload(float delay, uint32_t* reload)
    {
        *reload = microsecondToCycles(delay);
    2a28:	3b01      	subs	r3, #1
    2a2a:	602b      	str	r3, [r5, #0]
        return errorCode::OK;
    }
    2a2c:	bd38      	pop	{r3, r4, r5, pc}

    uint32_t GptChannel::microsecondToCycles(float micros) const
    {
        if (micros > getMaxMicros())
        {
            micros = getMaxPeriod();
    2a2e:	6803      	ldr	r3, [r0, #0]
    2a30:	4604      	mov	r4, r0
    2a32:	4a0a      	ldr	r2, [pc, #40]	; (2a5c <TeensyTimerTool::GptChannel::getTriggerReload(float, unsigned long*)+0x68>)
    2a34:	6a5b      	ldr	r3, [r3, #36]	; 0x24
    2a36:	4293      	cmp	r3, r2
    2a38:	d10a      	bne.n	2a50 <TeensyTimerTool::GptChannel::getTriggerReload(float, unsigned long*)+0x5c>

        inline errorCode trigger(float delay) override;
        inline errorCode triggerDirect(uint32_t delay) override;
        inline errorCode getTriggerReload(float delay, uint32_t* reload) override;

        inline float getMaxPeriod() const override { return getMaxMicros() / 1E6; }
    2a3a:	ed9f 7a09 	vldr	s14, [pc, #36]	; 2a60 <TeensyTimerTool::GptChannel::getTriggerReload(float, unsigned long*)+0x6c>
    2a3e:	ee87 8a87 	vdiv.f32	s16, s15, s14
    uint32_t GptChannel::microsecondToCycles(float micros) const
    {
        if (micros > getMaxMicros())
        {
            micros = getMaxPeriod();
            postError(errorCode::periodOverflow);
    2a42:	f06f 0063 	mvn.w	r0, #99	; 0x63
    2a46:	f000 fb21 	bl	308c <TeensyTimerTool::postError(TeensyTimerTool::errorCode)>
    2a4a:	ed94 0a05 	vldr	s0, [r4, #20]
    2a4e:	e7e2      	b.n	2a16 <TeensyTimerTool::GptChannel::getTriggerReload(float, unsigned long*)+0x22>

    uint32_t GptChannel::microsecondToCycles(float micros) const
    {
        if (micros > getMaxMicros())
        {
            micros = getMaxPeriod();
    2a50:	4798      	blx	r3
    2a52:	eeb0 8a40 	vmov.f32	s16, s0
    2a56:	e7f4      	b.n	2a42 <TeensyTimerTool::GptChannel::getTriggerReload(float, unsigned long*)+0x4e>
    2a58:	4f800000 	.word	0x4f800000
    2a5c:	00001d19 	.word	0x00001d19
    2a60:	49742400 	.word	0x49742400

00002a64 <TeensyTimerTool::GptChannel::trigger(float)>:
        return (uint32_t)(clock * micros) - 1;
    }

    float GptChannel::getMaxMicros() const
    {
        return (float)0xFFFF'FFFE / clock;
    2a64:	eddf 6a22 	vldr	s13, [pc, #136]	; 2af0 <TeensyTimerTool::GptChannel::trigger(float)+0x8c>
    2a68:	edd0 7a05 	vldr	s15, [r0, #20]
        setCallback(nullptr);
    }

    errorCode GptChannel::trigger(float delay) //should be optimized somehow
    {
        return triggerDirect(microsecondToCycles(delay));
    2a6c:	6803      	ldr	r3, [r0, #0]
        return (uint32_t)(clock * micros) - 1;
    }

    float GptChannel::getMaxMicros() const
    {
        return (float)0xFFFF'FFFE / clock;
    2a6e:	ee86 7aa7 	vdiv.f32	s14, s13, s15
        stop();
        setCallback(nullptr);
    }

    errorCode GptChannel::trigger(float delay) //should be optimized somehow
    {
    2a72:	b570      	push	{r4, r5, r6, lr}
    2a74:	4604      	mov	r4, r0
        return triggerDirect(microsecondToCycles(delay));
    2a76:	689d      	ldr	r5, [r3, #8]
        stop();
        setCallback(nullptr);
    }

    errorCode GptChannel::trigger(float delay) //should be optimized somehow
    {
    2a78:	ed2d 8b02 	vpush	{d8}
        return errorCode::OK;
    }

    uint32_t GptChannel::microsecondToCycles(float micros) const
    {
        if (micros > getMaxMicros())
    2a7c:	eeb4 0ac7 	vcmpe.f32	s0, s14
    2a80:	eef1 fa10 	vmrs	APSR_nzcv, fpscr
    2a84:	dc1a      	bgt.n	2abc <TeensyTimerTool::GptChannel::trigger(float)+0x58>
    2a86:	eeb0 8a40 	vmov.f32	s16, s0
        {
            micros = getMaxPeriod();
            postError(errorCode::periodOverflow);
        }
        return (uint32_t)(clock * micros) - 1;
    2a8a:	ee67 7a88 	vmul.f32	s15, s15, s16
    2a8e:	4b19      	ldr	r3, [pc, #100]	; (2af4 <TeensyTimerTool::GptChannel::trigger(float)+0x90>)
    2a90:	429d      	cmp	r5, r3
    2a92:	eefc 7ae7 	vcvt.u32.f32	s15, s15
    2a96:	ee17 2a90 	vmov	r2, s15
    2a9a:	f102 31ff 	add.w	r1, r2, #4294967295
    2a9e:	d11c      	bne.n	2ada <TeensyTimerTool::GptChannel::trigger(float)+0x76>
        return triggerDirect(microsecondToCycles(delay));
    }

    errorCode GptChannel::triggerDirect(uint32_t reload)
    {
        regs->SR = 0x3F;         // clear all interupt flags
    2aa0:	68e3      	ldr	r3, [r4, #12]
    2aa2:	203f      	movs	r0, #63	; 0x3f
        regs->IR = GPT_IR_OF1IE; // enable OF1 interrupt
    2aa4:	2201      	movs	r2, #1
        return triggerDirect(microsecondToCycles(delay));
    }

    errorCode GptChannel::triggerDirect(uint32_t reload)
    {
        regs->SR = 0x3F;         // clear all interupt flags
    2aa6:	6098      	str	r0, [r3, #8]
    }

    errorCode GptChannel::trigger(float delay) //should be optimized somehow
    {
        return triggerDirect(microsecondToCycles(delay));
    }
    2aa8:	2000      	movs	r0, #0

    errorCode GptChannel::triggerDirect(uint32_t reload)
    {
        regs->SR = 0x3F;         // clear all interupt flags
        regs->IR = GPT_IR_OF1IE; // enable OF1 interrupt
    2aaa:	60da      	str	r2, [r3, #12]
        regs->OCR1 = reload;     // set overflow value
    2aac:	6119      	str	r1, [r3, #16]
        regs->CR |= GPT_CR_EN;   // enable timer
    2aae:	681a      	ldr	r2, [r3, #0]
    }

    errorCode GptChannel::trigger(float delay) //should be optimized somehow
    {
        return triggerDirect(microsecondToCycles(delay));
    }
    2ab0:	ecbd 8b02 	vpop	{d8}
    errorCode GptChannel::triggerDirect(uint32_t reload)
    {
        regs->SR = 0x3F;         // clear all interupt flags
        regs->IR = GPT_IR_OF1IE; // enable OF1 interrupt
        regs->OCR1 = reload;     // set overflow value
        regs->CR |= GPT_CR_EN;   // enable timer
    2ab4:	f042 0201 	orr.w	r2, r2, #1
    2ab8:	601a      	str	r2, [r3, #0]
    }

    errorCode GptChannel::trigger(float delay) //should be optimized somehow
    {
        return triggerDirect(microsecondToCycles(delay));
    }
    2aba:	bd70      	pop	{r4, r5, r6, pc}

    uint32_t GptChannel::microsecondToCycles(float micros) const
    {
        if (micros > getMaxMicros())
        {
            micros = getMaxPeriod();
    2abc:	6a5b      	ldr	r3, [r3, #36]	; 0x24
    2abe:	4a0e      	ldr	r2, [pc, #56]	; (2af8 <TeensyTimerTool::GptChannel::trigger(float)+0x94>)
    2ac0:	4293      	cmp	r3, r2
    2ac2:	d111      	bne.n	2ae8 <TeensyTimerTool::GptChannel::trigger(float)+0x84>

        inline errorCode trigger(float delay) override;
        inline errorCode triggerDirect(uint32_t delay) override;
        inline errorCode getTriggerReload(float delay, uint32_t* reload) override;

        inline float getMaxPeriod() const override { return getMaxMicros() / 1E6; }
    2ac4:	eddf 7a0d 	vldr	s15, [pc, #52]	; 2afc <TeensyTimerTool::GptChannel::trigger(float)+0x98>
    2ac8:	ee87 8a27 	vdiv.f32	s16, s14, s15
    uint32_t GptChannel::microsecondToCycles(float micros) const
    {
        if (micros > getMaxMicros())
        {
            micros = getMaxPeriod();
            postError(errorCode::periodOverflow);
    2acc:	f06f 0063 	mvn.w	r0, #99	; 0x63
    2ad0:	f000 fadc 	bl	308c <TeensyTimerTool::postError(TeensyTimerTool::errorCode)>
    2ad4:	edd4 7a05 	vldr	s15, [r4, #20]
    2ad8:	e7d7      	b.n	2a8a <TeensyTimerTool::GptChannel::trigger(float)+0x26>
    }

    errorCode GptChannel::trigger(float delay) //should be optimized somehow
    {
        return triggerDirect(microsecondToCycles(delay));
    }
    2ada:	ecbd 8b02 	vpop	{d8}
        setCallback(nullptr);
    }

    errorCode GptChannel::trigger(float delay) //should be optimized somehow
    {
        return triggerDirect(microsecondToCycles(delay));
    2ade:	4620      	mov	r0, r4
    2ae0:	462b      	mov	r3, r5
    }
    2ae2:	e8bd 4070 	ldmia.w	sp!, {r4, r5, r6, lr}
        setCallback(nullptr);
    }

    errorCode GptChannel::trigger(float delay) //should be optimized somehow
    {
        return triggerDirect(microsecondToCycles(delay));
    2ae6:	4718      	bx	r3

    uint32_t GptChannel::microsecondToCycles(float micros) const
    {
        if (micros > getMaxMicros())
        {
            micros = getMaxPeriod();
    2ae8:	4798      	blx	r3
    2aea:	eeb0 8a40 	vmov.f32	s16, s0
    2aee:	e7ed      	b.n	2acc <TeensyTimerTool::GptChannel::trigger(float)+0x68>
    2af0:	4f800000 	.word	0x4f800000
    2af4:	00001d65 	.word	0x00001d65
    2af8:	00001d19 	.word	0x00001d19
    2afc:	49742400 	.word	0x49742400

00002b00 <TeensyTimerTool::GptChannel::~GptChannel()>:
        regs->CR &= ~GPT_CR_EN; // disable timer
        regs->IR = 0;
        return errorCode::OK;
    }

    GptChannel::~GptChannel()
    2b00:	b5f0      	push	{r4, r5, r6, r7, lr}
    2b02:	4604      	mov	r4, r0
        return errorCode::OK;
    }

    errorCode GptChannel::stop()
    {
        regs->CR &= ~GPT_CR_EN; // disable timer
    2b04:	68c0      	ldr	r0, [r0, #12]
        regs->IR = 0;
        return errorCode::OK;
    }

    GptChannel::~GptChannel()
    2b06:	b08b      	sub	sp, #44	; 0x2c
    }

    errorCode GptChannel::stop()
    {
        regs->CR &= ~GPT_CR_EN; // disable timer
        regs->IR = 0;
    2b08:	2100      	movs	r1, #0
        return errorCode::OK;
    }

    errorCode GptChannel::stop()
    {
        regs->CR &= ~GPT_CR_EN; // disable timer
    2b0a:	6806      	ldr	r6, [r0, #0]
    2b0c:	6863      	ldr	r3, [r4, #4]
#endif
    {
      // concept requirements
      __glibcxx_function_requires(_SGIAssignableConcept<_Tp>)

      _Tp __tmp = _GLIBCXX_MOVE(__a);
    2b0e:	ad06      	add	r5, sp, #24
        regs->IR = 0;
        return errorCode::OK;
    }

    GptChannel::~GptChannel()
    2b10:	4f16      	ldr	r7, [pc, #88]	; (2b6c <TeensyTimerTool::GptChannel::~GptChannel()+0x6c>)
        return errorCode::OK;
    }

    errorCode GptChannel::stop()
    {
        regs->CR &= ~GPT_CR_EN; // disable timer
    2b12:	f026 0601 	bic.w	r6, r6, #1
        regs->IR = 0;
        return errorCode::OK;
    }

    GptChannel::~GptChannel()
    2b16:	6027      	str	r7, [r4, #0]
      __a = _GLIBCXX_MOVE(__b);
    2b18:	68df      	ldr	r7, [r3, #12]
        return errorCode::OK;
    }

    errorCode GptChannel::stop()
    {
        regs->CR &= ~GPT_CR_EN; // disable timer
    2b1a:	6006      	str	r6, [r0, #0]
    2b1c:	9108      	str	r1, [sp, #32]
        regs->IR = 0;
    2b1e:	60c1      	str	r1, [r0, #12]
    2b20:	9104      	str	r1, [sp, #16]
#endif
    {
      // concept requirements
      __glibcxx_function_requires(_SGIAssignableConcept<_Tp>)

      _Tp __tmp = _GLIBCXX_MOVE(__a);
    2b22:	e895 0003 	ldmia.w	r5, {r0, r1}
    2b26:	e88d 0003 	stmia.w	sp, {r0, r1}
      __a = _GLIBCXX_MOVE(__b);
    2b2a:	e893 0003 	ldmia.w	r3, {r0, r1}
    2b2e:	e885 0003 	stmia.w	r5, {r0, r1}
      __b = _GLIBCXX_MOVE(__tmp);
    2b32:	e89d 0003 	ldmia.w	sp, {r0, r1}
    {
      // concept requirements
      __glibcxx_function_requires(_SGIAssignableConcept<_Tp>)

      _Tp __tmp = _GLIBCXX_MOVE(__a);
      __a = _GLIBCXX_MOVE(__b);
    2b36:	689e      	ldr	r6, [r3, #8]
      __b = _GLIBCXX_MOVE(__tmp);
    2b38:	e883 0003 	stmia.w	r3, {r0, r1}
#endif
    {
      // concept requirements
      __glibcxx_function_requires(_SGIAssignableConcept<_Tp>)

      _Tp __tmp = _GLIBCXX_MOVE(__a);
    2b3c:	9a08      	ldr	r2, [sp, #32]
      __a = _GLIBCXX_MOVE(__b);
    2b3e:	9608      	str	r6, [sp, #32]
      __b = _GLIBCXX_MOVE(__tmp);
    2b40:	609a      	str	r2, [r3, #8]
#endif
    {
      // concept requirements
      __glibcxx_function_requires(_SGIAssignableConcept<_Tp>)

      _Tp __tmp = _GLIBCXX_MOVE(__a);
    2b42:	9a09      	ldr	r2, [sp, #36]	; 0x24
      __a = _GLIBCXX_MOVE(__b);
    2b44:	9709      	str	r7, [sp, #36]	; 0x24
      __b = _GLIBCXX_MOVE(__tmp);
    2b46:	60da      	str	r2, [r3, #12]

    ~_Function_base()
    {
      if (_M_manager)
    2b48:	b11e      	cbz	r6, 2b52 <TeensyTimerTool::GptChannel::~GptChannel()+0x52>
	_M_manager(_M_functor, _M_functor, __destroy_functor);
    2b4a:	2203      	movs	r2, #3
    2b4c:	4629      	mov	r1, r5
    2b4e:	4628      	mov	r0, r5
    2b50:	47b0      	blx	r6

    _Function_base() : _M_manager(nullptr) { }

    ~_Function_base()
    {
      if (_M_manager)
    2b52:	9b04      	ldr	r3, [sp, #16]
    2b54:	b11b      	cbz	r3, 2b5e <TeensyTimerTool::GptChannel::~GptChannel()+0x5e>
	_M_manager(_M_functor, _M_functor, __destroy_functor);
    2b56:	a902      	add	r1, sp, #8
    2b58:	2203      	movs	r2, #3
    2b5a:	4608      	mov	r0, r1
    2b5c:	4798      	blx	r3

    GptChannel::~GptChannel()
    {
        stop();
        setCallback(nullptr);
    }
    2b5e:	4620      	mov	r0, r4
    2b60:	2118      	movs	r1, #24
    2b62:	f001 ff3f 	bl	49e4 <operator delete(void*, unsigned int)>
    2b66:	4620      	mov	r0, r4
    2b68:	b00b      	add	sp, #44	; 0x2c
    2b6a:	bdf0      	pop	{r4, r5, r6, r7, pc}
    2b6c:	200001c0 	.word	0x200001c0

00002b70 <TeensyTimerTool::TckChannel<unsigned long>::begin(std::function<void ()>, float, bool)>:
    }

    template <typename T>
    errorCode TckChannel<T>::begin(callback_t cb, float period, bool periodic)
    {
        this->triggered = false;
    2b70:	2300      	movs	r3, #0
        triggered = false;
        clock = F_CPU / 1'000'000.0f;
    }

    template <typename T>
    errorCode TckChannel<T>::begin(callback_t cb, float period, bool periodic)
    2b72:	b5f0      	push	{r4, r5, r6, r7, lr}
    2b74:	4604      	mov	r4, r0
    2b76:	460e      	mov	r6, r1
    2b78:	ed2d 8b02 	vpush	{d8}
    {
        this->triggered = false;

        this->periodic = periodic;
    2b7c:	7602      	strb	r2, [r0, #24]
        triggered = false;
        clock = F_CPU / 1'000'000.0f;
    }

    template <typename T>
    errorCode TckChannel<T>::begin(callback_t cb, float period, bool periodic)
    2b7e:	b087      	sub	sp, #28
    {
        this->triggered = false;
    2b80:	7643      	strb	r3, [r0, #25]

        this->periodic = periodic;
        if (periodic)
    2b82:	b192      	cbz	r2, 2baa <TeensyTimerTool::TckChannel<unsigned long>::begin(std::function<void ()>, float, bool)+0x3a>
    2b84:	edd0 7a0c 	vldr	s15, [r0, #48]	; 0x30
    }

    template <>
    inline float TckChannel<uint32_t>::getMaxMicros() const
    {
        return 0xF000'0000 / clock; // don't use full range otherwise tick might miss the turnover for large periods
    2b88:	ed9f 7a23 	vldr	s14, [pc, #140]	; 2c18 <TeensyTimerTool::TckChannel<unsigned long>::begin(std::function<void ()>, float, bool)+0xa8>
    2b8c:	ee87 8a27 	vdiv.f32	s16, s14, s15
    }

    template <typename CounterType>
    CounterType TckChannel<CounterType>::microsecondToCycles(float microSecond) const
    {
        if (microSecond > getMaxMicros())
    2b90:	eeb4 0ac8 	vcmpe.f32	s0, s16
    2b94:	eef1 fa10 	vmrs	APSR_nzcv, fpscr
    2b98:	dc34      	bgt.n	2c04 <TeensyTimerTool::TckChannel<unsigned long>::begin(std::function<void ()>, float, bool)+0x94>
        {
            microSecond = getMaxMicros();
            postError(errorCode::periodOverflow);
        }
        return (CounterType)(microSecond * clock);
    2b9a:	ee20 0a27 	vmul.f32	s0, s0, s15
    2b9e:	eefc 7ac0 	vcvt.u32.f32	s15, s0
        this->triggered = false;

        this->periodic = periodic;
        if (periodic)
        {
            this->currentPeriod = microsecondToCycles(period);
    2ba2:	edc4 7a08 	vstr	s15, [r4, #32]
            this->nextPeriod = this->currentPeriod;
    2ba6:	edc4 7a09 	vstr	s15, [r4, #36]	; 0x24
	{
	  _Base::_M_init_functor(__functor, std::__addressof(__f.get()));
	}
      };

    _Function_base() : _M_manager(nullptr) { }
    2baa:	2200      	movs	r2, #0
    2bac:	68b3      	ldr	r3, [r6, #8]
    2bae:	9204      	str	r2, [sp, #16]
  template<typename _Res, typename... _ArgTypes>
    function<_Res(_ArgTypes...)>::
    function(const function& __x)
    : _Function_base()
    {
      if (static_cast<bool>(__x))
    2bb0:	b323      	cbz	r3, 2bfc <TeensyTimerTool::TckChannel<unsigned long>::begin(std::function<void ()>, float, bool)+0x8c>
	{
	  __x._M_manager(_M_functor, __x._M_functor, __clone_functor);
    2bb2:	ad02      	add	r5, sp, #8
    2bb4:	4631      	mov	r1, r6
    2bb6:	2202      	movs	r2, #2
    2bb8:	4628      	mov	r0, r5
    2bba:	4798      	blx	r3
	  _M_invoker = __x._M_invoker;
    2bbc:	68f7      	ldr	r7, [r6, #12]
	  _M_manager = __x._M_manager;
    2bbe:	68b6      	ldr	r6, [r6, #8]
    {
      // concept requirements
      __glibcxx_function_requires(_SGIAssignableConcept<_Tp>)

      _Tp __tmp = _GLIBCXX_MOVE(__a);
      __a = _GLIBCXX_MOVE(__b);
    2bc0:	f104 0308 	add.w	r3, r4, #8
#endif
    {
      // concept requirements
      __glibcxx_function_requires(_SGIAssignableConcept<_Tp>)

      _Tp __tmp = _GLIBCXX_MOVE(__a);
    2bc4:	e895 0003 	ldmia.w	r5, {r0, r1}
    2bc8:	e88d 0003 	stmia.w	sp, {r0, r1}
      __a = _GLIBCXX_MOVE(__b);
    2bcc:	e893 0003 	ldmia.w	r3, {r0, r1}
    2bd0:	e885 0003 	stmia.w	r5, {r0, r1}
      __b = _GLIBCXX_MOVE(__tmp);
    2bd4:	e89d 0003 	ldmia.w	sp, {r0, r1}
    2bd8:	e883 0003 	stmia.w	r3, {r0, r1}
    {
      // concept requirements
      __glibcxx_function_requires(_SGIAssignableConcept<_Tp>)

      _Tp __tmp = _GLIBCXX_MOVE(__a);
      __a = _GLIBCXX_MOVE(__b);
    2bdc:	6923      	ldr	r3, [r4, #16]
    2bde:	6962      	ldr	r2, [r4, #20]
    2be0:	9304      	str	r3, [sp, #16]
      __b = _GLIBCXX_MOVE(__tmp);
    2be2:	6126      	str	r6, [r4, #16]
    {
      // concept requirements
      __glibcxx_function_requires(_SGIAssignableConcept<_Tp>)

      _Tp __tmp = _GLIBCXX_MOVE(__a);
      __a = _GLIBCXX_MOVE(__b);
    2be4:	9205      	str	r2, [sp, #20]
      __b = _GLIBCXX_MOVE(__tmp);
    2be6:	6167      	str	r7, [r4, #20]

    _Function_base() : _M_manager(nullptr) { }

    ~_Function_base()
    {
      if (_M_manager)
    2be8:	b11b      	cbz	r3, 2bf2 <TeensyTimerTool::TckChannel<unsigned long>::begin(std::function<void ()>, float, bool)+0x82>
	_M_manager(_M_functor, _M_functor, __destroy_functor);
    2bea:	2203      	movs	r2, #3
    2bec:	4629      	mov	r1, r5
    2bee:	4628      	mov	r0, r5
    2bf0:	4798      	blx	r3
        }
        this->callback = cb;

        return errorCode::OK;
    }
    2bf2:	2000      	movs	r0, #0
    2bf4:	b007      	add	sp, #28
    2bf6:	ecbd 8b02 	vpop	{d8}
    2bfa:	bdf0      	pop	{r4, r5, r6, r7, pc}
  template<typename _Res, typename... _ArgTypes>
    function<_Res(_ArgTypes...)>::
    function(const function& __x)
    : _Function_base()
    {
      if (static_cast<bool>(__x))
    2bfc:	461e      	mov	r6, r3
    2bfe:	9f05      	ldr	r7, [sp, #20]
    2c00:	ad02      	add	r5, sp, #8
    2c02:	e7dd      	b.n	2bc0 <TeensyTimerTool::TckChannel<unsigned long>::begin(std::function<void ()>, float, bool)+0x50>
    CounterType TckChannel<CounterType>::microsecondToCycles(float microSecond) const
    {
        if (microSecond > getMaxMicros())
        {
            microSecond = getMaxMicros();
            postError(errorCode::periodOverflow);
    2c04:	f06f 0063 	mvn.w	r0, #99	; 0x63
    2c08:	f000 fa40 	bl	308c <TeensyTimerTool::postError(TeensyTimerTool::errorCode)>
    template <typename CounterType>
    CounterType TckChannel<CounterType>::microsecondToCycles(float microSecond) const
    {
        if (microSecond > getMaxMicros())
        {
            microSecond = getMaxMicros();
    2c0c:	eeb0 0a48 	vmov.f32	s0, s16
    2c10:	edd4 7a0c 	vldr	s15, [r4, #48]	; 0x30
    2c14:	e7c1      	b.n	2b9a <TeensyTimerTool::TckChannel<unsigned long>::begin(std::function<void ()>, float, bool)+0x2a>
    2c16:	bf00      	nop
    2c18:	4f700000 	.word	0x4f700000

00002c1c <TeensyTimerTool::GptChannel::~GptChannel()>:
        regs->CR &= ~GPT_CR_EN; // disable timer
        regs->IR = 0;
        return errorCode::OK;
    }

    GptChannel::~GptChannel()
    2c1c:	b5f0      	push	{r4, r5, r6, r7, lr}
    2c1e:	4605      	mov	r5, r0
        return errorCode::OK;
    }

    errorCode GptChannel::stop()
    {
        regs->CR &= ~GPT_CR_EN; // disable timer
    2c20:	68c0      	ldr	r0, [r0, #12]
        regs->IR = 0;
        return errorCode::OK;
    }

    GptChannel::~GptChannel()
    2c22:	b08b      	sub	sp, #44	; 0x2c
    }

    errorCode GptChannel::stop()
    {
        regs->CR &= ~GPT_CR_EN; // disable timer
        regs->IR = 0;
    2c24:	2100      	movs	r1, #0
        return errorCode::OK;
    }

    errorCode GptChannel::stop()
    {
        regs->CR &= ~GPT_CR_EN; // disable timer
    2c26:	6806      	ldr	r6, [r0, #0]
    2c28:	686b      	ldr	r3, [r5, #4]
#endif
    {
      // concept requirements
      __glibcxx_function_requires(_SGIAssignableConcept<_Tp>)

      _Tp __tmp = _GLIBCXX_MOVE(__a);
    2c2a:	ac06      	add	r4, sp, #24
        regs->IR = 0;
        return errorCode::OK;
    }

    GptChannel::~GptChannel()
    2c2c:	4f14      	ldr	r7, [pc, #80]	; (2c80 <TeensyTimerTool::GptChannel::~GptChannel()+0x64>)
        return errorCode::OK;
    }

    errorCode GptChannel::stop()
    {
        regs->CR &= ~GPT_CR_EN; // disable timer
    2c2e:	f026 0601 	bic.w	r6, r6, #1
        regs->IR = 0;
        return errorCode::OK;
    }

    GptChannel::~GptChannel()
    2c32:	602f      	str	r7, [r5, #0]
      __a = _GLIBCXX_MOVE(__b);
    2c34:	68df      	ldr	r7, [r3, #12]
        return errorCode::OK;
    }

    errorCode GptChannel::stop()
    {
        regs->CR &= ~GPT_CR_EN; // disable timer
    2c36:	6006      	str	r6, [r0, #0]
	{
	  _Base::_M_init_functor(__functor, std::__addressof(__f.get()));
	}
      };

    _Function_base() : _M_manager(nullptr) { }
    2c38:	9108      	str	r1, [sp, #32]
        regs->IR = 0;
    2c3a:	60c1      	str	r1, [r0, #12]
    2c3c:	9104      	str	r1, [sp, #16]
#endif
    {
      // concept requirements
      __glibcxx_function_requires(_SGIAssignableConcept<_Tp>)

      _Tp __tmp = _GLIBCXX_MOVE(__a);
    2c3e:	e894 0003 	ldmia.w	r4, {r0, r1}
    2c42:	e88d 0003 	stmia.w	sp, {r0, r1}
      __a = _GLIBCXX_MOVE(__b);
    2c46:	e893 0003 	ldmia.w	r3, {r0, r1}
    2c4a:	e884 0003 	stmia.w	r4, {r0, r1}
      __b = _GLIBCXX_MOVE(__tmp);
    2c4e:	e89d 0003 	ldmia.w	sp, {r0, r1}
    {
      // concept requirements
      __glibcxx_function_requires(_SGIAssignableConcept<_Tp>)

      _Tp __tmp = _GLIBCXX_MOVE(__a);
      __a = _GLIBCXX_MOVE(__b);
    2c52:	689e      	ldr	r6, [r3, #8]
      __b = _GLIBCXX_MOVE(__tmp);
    2c54:	e883 0003 	stmia.w	r3, {r0, r1}
#endif
    {
      // concept requirements
      __glibcxx_function_requires(_SGIAssignableConcept<_Tp>)

      _Tp __tmp = _GLIBCXX_MOVE(__a);
    2c58:	9a08      	ldr	r2, [sp, #32]
      __a = _GLIBCXX_MOVE(__b);
    2c5a:	9608      	str	r6, [sp, #32]
      __b = _GLIBCXX_MOVE(__tmp);
    2c5c:	609a      	str	r2, [r3, #8]
#endif
    {
      // concept requirements
      __glibcxx_function_requires(_SGIAssignableConcept<_Tp>)

      _Tp __tmp = _GLIBCXX_MOVE(__a);
    2c5e:	9a09      	ldr	r2, [sp, #36]	; 0x24
      __a = _GLIBCXX_MOVE(__b);
    2c60:	9709      	str	r7, [sp, #36]	; 0x24
      __b = _GLIBCXX_MOVE(__tmp);
    2c62:	60da      	str	r2, [r3, #12]

    ~_Function_base()
    {
      if (_M_manager)
    2c64:	b11e      	cbz	r6, 2c6e <TeensyTimerTool::GptChannel::~GptChannel()+0x52>
	_M_manager(_M_functor, _M_functor, __destroy_functor);
    2c66:	2203      	movs	r2, #3
    2c68:	4621      	mov	r1, r4
    2c6a:	4620      	mov	r0, r4
    2c6c:	47b0      	blx	r6

    _Function_base() : _M_manager(nullptr) { }

    ~_Function_base()
    {
      if (_M_manager)
    2c6e:	9b04      	ldr	r3, [sp, #16]
    2c70:	b11b      	cbz	r3, 2c7a <TeensyTimerTool::GptChannel::~GptChannel()+0x5e>
	_M_manager(_M_functor, _M_functor, __destroy_functor);
    2c72:	a902      	add	r1, sp, #8
    2c74:	2203      	movs	r2, #3
    2c76:	4608      	mov	r0, r1
    2c78:	4798      	blx	r3

    GptChannel::~GptChannel()
    {
        stop();
        setCallback(nullptr);
    }
    2c7a:	4628      	mov	r0, r5
    2c7c:	b00b      	add	sp, #44	; 0x2c
    2c7e:	bdf0      	pop	{r4, r5, r6, r7, pc}
    2c80:	200001c0 	.word	0x200001c0

00002c84 <TeensyTimerTool::GptChannel::begin(std::function<void ()>, float, bool)>:
    {
        clock = (CCM_CSCMR1 & CCM_CSCMR1_PERCLK_CLK_SEL) ? 24 : (F_BUS_ACTUAL / 1000000);
    }

    errorCode GptChannel::begin(callback_t cb, float period, bool periodic)
    {
    2c84:	b570      	push	{r4, r5, r6, lr}
    2c86:	4604      	mov	r4, r0
    2c88:	b08c      	sub	sp, #48	; 0x30
    2c8a:	460d      	mov	r5, r1
        this->periodic = periodic;
    2c8c:	7202      	strb	r2, [r0, #8]
        if (periodic)
    2c8e:	2a00      	cmp	r2, #0
    2c90:	d13f      	bne.n	2d12 <TeensyTimerTool::GptChannel::begin(std::function<void ()>, float, bool)+0x8e>
	{
	  _Base::_M_init_functor(__functor, std::__addressof(__f.get()));
	}
      };

    _Function_base() : _M_manager(nullptr) { }
    2c92:	2600      	movs	r6, #0
    2c94:	68ab      	ldr	r3, [r5, #8]
    2c96:	9606      	str	r6, [sp, #24]
  template<typename _Res, typename... _ArgTypes>
    function<_Res(_ArgTypes...)>::
    function(const function& __x)
    : _Function_base()
    {
      if (static_cast<bool>(__x))
    2c98:	2b00      	cmp	r3, #0
    2c9a:	d036      	beq.n	2d0a <TeensyTimerTool::GptChannel::begin(std::function<void ()>, float, bool)+0x86>
	{
	  __x._M_manager(_M_functor, __x._M_functor, __clone_functor);
    2c9c:	2202      	movs	r2, #2
    2c9e:	4629      	mov	r1, r5
    2ca0:	a804      	add	r0, sp, #16
    2ca2:	4798      	blx	r3
	  _M_invoker = __x._M_invoker;
    2ca4:	68ea      	ldr	r2, [r5, #12]
	  _M_manager = __x._M_manager;
    2ca6:	68ab      	ldr	r3, [r5, #8]
    function(const function& __x)
    : _Function_base()
    {
      if (static_cast<bool>(__x))
	{
	  __x._M_manager(_M_functor, __x._M_functor, __clone_functor);
    2ca8:	ad08      	add	r5, sp, #32
    2caa:	6864      	ldr	r4, [r4, #4]
	{
	  _Base::_M_init_functor(__functor, std::__addressof(__f.get()));
	}
      };

    _Function_base() : _M_manager(nullptr) { }
    2cac:	960a      	str	r6, [sp, #40]	; 0x28
    : _Function_base()
    {
      if (static_cast<bool>(__x))
	{
	  __x._M_manager(_M_functor, __x._M_functor, __clone_functor);
	  _M_invoker = __x._M_invoker;
    2cae:	9207      	str	r2, [sp, #28]
	  _M_manager = __x._M_manager;
    2cb0:	9306      	str	r3, [sp, #24]
  template<typename _Res, typename... _ArgTypes>
    function<_Res(_ArgTypes...)>::
    function(const function& __x)
    : _Function_base()
    {
      if (static_cast<bool>(__x))
    2cb2:	b13b      	cbz	r3, 2cc4 <TeensyTimerTool::GptChannel::begin(std::function<void ()>, float, bool)+0x40>
	{
	  __x._M_manager(_M_functor, __x._M_functor, __clone_functor);
    2cb4:	2202      	movs	r2, #2
    2cb6:	a904      	add	r1, sp, #16
    2cb8:	4628      	mov	r0, r5
    2cba:	4798      	blx	r3
	  _M_invoker = __x._M_invoker;
    2cbc:	9a07      	ldr	r2, [sp, #28]
	  _M_manager = __x._M_manager;
    2cbe:	9b06      	ldr	r3, [sp, #24]
    : _Function_base()
    {
      if (static_cast<bool>(__x))
	{
	  __x._M_manager(_M_functor, __x._M_functor, __clone_functor);
	  _M_invoker = __x._M_invoker;
    2cc0:	920b      	str	r2, [sp, #44]	; 0x2c
	  _M_manager = __x._M_manager;
    2cc2:	930a      	str	r3, [sp, #40]	; 0x28
#endif
    {
      // concept requirements
      __glibcxx_function_requires(_SGIAssignableConcept<_Tp>)

      _Tp __tmp = _GLIBCXX_MOVE(__a);
    2cc4:	ab02      	add	r3, sp, #8
      __a = _GLIBCXX_MOVE(__b);
    2cc6:	68e6      	ldr	r6, [r4, #12]
#endif
    {
      // concept requirements
      __glibcxx_function_requires(_SGIAssignableConcept<_Tp>)

      _Tp __tmp = _GLIBCXX_MOVE(__a);
    2cc8:	e895 0003 	ldmia.w	r5, {r0, r1}
    2ccc:	e883 0003 	stmia.w	r3, {r0, r1}
      __a = _GLIBCXX_MOVE(__b);
    2cd0:	e894 0003 	ldmia.w	r4, {r0, r1}
    2cd4:	e885 0003 	stmia.w	r5, {r0, r1}
      __b = _GLIBCXX_MOVE(__tmp);
    2cd8:	e893 0003 	ldmia.w	r3, {r0, r1}
    {
      // concept requirements
      __glibcxx_function_requires(_SGIAssignableConcept<_Tp>)

      _Tp __tmp = _GLIBCXX_MOVE(__a);
      __a = _GLIBCXX_MOVE(__b);
    2cdc:	68a3      	ldr	r3, [r4, #8]
      __b = _GLIBCXX_MOVE(__tmp);
    2cde:	e884 0003 	stmia.w	r4, {r0, r1}
#endif
    {
      // concept requirements
      __glibcxx_function_requires(_SGIAssignableConcept<_Tp>)

      _Tp __tmp = _GLIBCXX_MOVE(__a);
    2ce2:	9a0a      	ldr	r2, [sp, #40]	; 0x28
      __a = _GLIBCXX_MOVE(__b);
    2ce4:	930a      	str	r3, [sp, #40]	; 0x28
      __b = _GLIBCXX_MOVE(__tmp);
    2ce6:	60a2      	str	r2, [r4, #8]
#endif
    {
      // concept requirements
      __glibcxx_function_requires(_SGIAssignableConcept<_Tp>)

      _Tp __tmp = _GLIBCXX_MOVE(__a);
    2ce8:	9a0b      	ldr	r2, [sp, #44]	; 0x2c
      __a = _GLIBCXX_MOVE(__b);
    2cea:	960b      	str	r6, [sp, #44]	; 0x2c
      __b = _GLIBCXX_MOVE(__tmp);
    2cec:	60e2      	str	r2, [r4, #12]

    _Function_base() : _M_manager(nullptr) { }

    ~_Function_base()
    {
      if (_M_manager)
    2cee:	b11b      	cbz	r3, 2cf8 <TeensyTimerTool::GptChannel::begin(std::function<void ()>, float, bool)+0x74>
	_M_manager(_M_functor, _M_functor, __destroy_functor);
    2cf0:	2203      	movs	r2, #3
    2cf2:	4629      	mov	r1, r5
    2cf4:	4628      	mov	r0, r5
    2cf6:	4798      	blx	r3

    _Function_base() : _M_manager(nullptr) { }

    ~_Function_base()
    {
      if (_M_manager)
    2cf8:	9b06      	ldr	r3, [sp, #24]
    2cfa:	b11b      	cbz	r3, 2d04 <TeensyTimerTool::GptChannel::begin(std::function<void ()>, float, bool)+0x80>
	_M_manager(_M_functor, _M_functor, __destroy_functor);
    2cfc:	a904      	add	r1, sp, #16
    2cfe:	2203      	movs	r2, #3
    2d00:	4608      	mov	r0, r1
    2d02:	4798      	blx	r3
            regs->OCR1 = reload;
        }
        setCallback(cb);

        return errorCode::OK;
    }
    2d04:	2000      	movs	r0, #0
    2d06:	b00c      	add	sp, #48	; 0x30
    2d08:	bd70      	pop	{r4, r5, r6, pc}
    2d0a:	6864      	ldr	r4, [r4, #4]
    2d0c:	ad08      	add	r5, sp, #32
	{
	  _Base::_M_init_functor(__functor, std::__addressof(__f.get()));
	}
      };

    _Function_base() : _M_manager(nullptr) { }
    2d0e:	930a      	str	r3, [sp, #40]	; 0x28
    2d10:	e7d8      	b.n	2cc4 <TeensyTimerTool::GptChannel::begin(std::function<void ()>, float, bool)+0x40>
    2d12:	edd0 7a05 	vldr	s15, [r0, #20]
        return (uint32_t)(clock * micros) - 1;
    }

    float GptChannel::getMaxMicros() const
    {
        return (float)0xFFFF'FFFE / clock;
    2d16:	eddf 6a15 	vldr	s13, [pc, #84]	; 2d6c <TeensyTimerTool::GptChannel::begin(std::function<void ()>, float, bool)+0xe8>
    2d1a:	ee86 7aa7 	vdiv.f32	s14, s13, s15
        return errorCode::OK;
    }

    uint32_t GptChannel::microsecondToCycles(float micros) const
    {
        if (micros > getMaxMicros())
    2d1e:	eeb4 0ac7 	vcmpe.f32	s0, s14
    2d22:	eef1 fa10 	vmrs	APSR_nzcv, fpscr
    2d26:	dc0a      	bgt.n	2d3e <TeensyTimerTool::GptChannel::begin(std::function<void ()>, float, bool)+0xba>
        {
            micros = getMaxPeriod();
            postError(errorCode::periodOverflow);
        }
        return (uint32_t)(clock * micros) - 1;
    2d28:	ee20 0a27 	vmul.f32	s0, s0, s15
    {
        this->periodic = periodic;
        if (periodic)
        {
            reload = microsecondToCycles(period);
            regs->OCR1 = reload;
    2d2c:	68e2      	ldr	r2, [r4, #12]
        if (micros > getMaxMicros())
        {
            micros = getMaxPeriod();
            postError(errorCode::periodOverflow);
        }
        return (uint32_t)(clock * micros) - 1;
    2d2e:	eebc 0ac0 	vcvt.u32.f32	s0, s0
    2d32:	ee10 3a10 	vmov	r3, s0
    2d36:	3b01      	subs	r3, #1
    errorCode GptChannel::begin(callback_t cb, float period, bool periodic)
    {
        this->periodic = periodic;
        if (periodic)
        {
            reload = microsecondToCycles(period);
    2d38:	6123      	str	r3, [r4, #16]
            regs->OCR1 = reload;
    2d3a:	6113      	str	r3, [r2, #16]
    2d3c:	e7a9      	b.n	2c92 <TeensyTimerTool::GptChannel::begin(std::function<void ()>, float, bool)+0xe>

    uint32_t GptChannel::microsecondToCycles(float micros) const
    {
        if (micros > getMaxMicros())
        {
            micros = getMaxPeriod();
    2d3e:	6803      	ldr	r3, [r0, #0]
    2d40:	4a0b      	ldr	r2, [pc, #44]	; (2d70 <TeensyTimerTool::GptChannel::begin(std::function<void ()>, float, bool)+0xec>)
    2d42:	6a5b      	ldr	r3, [r3, #36]	; 0x24
    2d44:	4293      	cmp	r3, r2
    2d46:	d10e      	bne.n	2d66 <TeensyTimerTool::GptChannel::begin(std::function<void ()>, float, bool)+0xe2>

        inline errorCode trigger(float delay) override;
        inline errorCode triggerDirect(uint32_t delay) override;
        inline errorCode getTriggerReload(float delay, uint32_t* reload) override;

        inline float getMaxPeriod() const override { return getMaxMicros() / 1E6; }
    2d48:	eddf 7a0a 	vldr	s15, [pc, #40]	; 2d74 <TeensyTimerTool::GptChannel::begin(std::function<void ()>, float, bool)+0xf0>
    2d4c:	ee87 0a27 	vdiv.f32	s0, s14, s15
    uint32_t GptChannel::microsecondToCycles(float micros) const
    {
        if (micros > getMaxMicros())
        {
            micros = getMaxPeriod();
            postError(errorCode::periodOverflow);
    2d50:	f06f 0063 	mvn.w	r0, #99	; 0x63
    2d54:	ed8d 0a01 	vstr	s0, [sp, #4]
    2d58:	f000 f998 	bl	308c <TeensyTimerTool::postError(TeensyTimerTool::errorCode)>
    2d5c:	edd4 7a05 	vldr	s15, [r4, #20]
    2d60:	ed9d 0a01 	vldr	s0, [sp, #4]
    2d64:	e7e0      	b.n	2d28 <TeensyTimerTool::GptChannel::begin(std::function<void ()>, float, bool)+0xa4>

    uint32_t GptChannel::microsecondToCycles(float micros) const
    {
        if (micros > getMaxMicros())
        {
            micros = getMaxPeriod();
    2d66:	4798      	blx	r3
    2d68:	e7f2      	b.n	2d50 <TeensyTimerTool::GptChannel::begin(std::function<void ()>, float, bool)+0xcc>
    2d6a:	bf00      	nop
    2d6c:	4f800000 	.word	0x4f800000
    2d70:	00001d19 	.word	0x00001d19
    2d74:	49742400 	.word	0x49742400

00002d78 <_GLOBAL__sub_I__ZN15TeensyTimerTool4TMR1E>:
        TimerGenerator* const TCK = TCK_t::getTimer<uint32_t>;
        TimerGenerator* const TCK32 = TCK_t::getTimer<uint32_t>; // same as TCK
        TimerGenerator* const TCK64 = TCK_t::getTimer<uint64_t>;

        constexpr tick_t tick = &TCK_t::tick;
    }
    2d78:	b570      	push	{r4, r5, r6, lr}

    template <unsigned m>
    bool TMR_t<m>::isInitialized = false;

    template <unsigned m>
    callback_t TMR_t<m>::callbacks[4];
    2d7a:	4d79      	ldr	r5, [pc, #484]	; (2f60 <_GLOBAL__sub_I__ZN15TeensyTimerTool4TMR1E+0x1e8>)
    2d7c:	682b      	ldr	r3, [r5, #0]
    2d7e:	f013 0301 	ands.w	r3, r3, #1
    2d82:	d10b      	bne.n	2d9c <_GLOBAL__sub_I__ZN15TeensyTimerTool4TMR1E+0x24>
    2d84:	4c77      	ldr	r4, [pc, #476]	; (2f64 <_GLOBAL__sub_I__ZN15TeensyTimerTool4TMR1E+0x1ec>)
    2d86:	2601      	movs	r6, #1
    2d88:	4618      	mov	r0, r3
    2d8a:	4a77      	ldr	r2, [pc, #476]	; (2f68 <_GLOBAL__sub_I__ZN15TeensyTimerTool4TMR1E+0x1f0>)
    2d8c:	4977      	ldr	r1, [pc, #476]	; (2f6c <_GLOBAL__sub_I__ZN15TeensyTimerTool4TMR1E+0x1f4>)
    2d8e:	60a3      	str	r3, [r4, #8]
    2d90:	61a3      	str	r3, [r4, #24]
    2d92:	62a3      	str	r3, [r4, #40]	; 0x28
    2d94:	63a3      	str	r3, [r4, #56]	; 0x38
    2d96:	602e      	str	r6, [r5, #0]
    2d98:	f002 f9e6 	bl	5168 <__aeabi_atexit>
    };

    // IMPLEMENTATION ==================================================================

    template <unsigned moduleNr> IMXRT_TMR_t*    const TMR_t<moduleNr>::pTMR = moduleNr == 0 ? &IMXRT_TMR1 : moduleNr == 1 ? &IMXRT_TMR2 : moduleNr == 2 ? &IMXRT_TMR3 : &IMXRT_TMR4;
    template <unsigned moduleNr> IMXRT_TMR_CH_t* const TMR_t<moduleNr>::pCH0 = &pTMR->CH[0]; 
    2d9c:	4b74      	ldr	r3, [pc, #464]	; (2f70 <_GLOBAL__sub_I__ZN15TeensyTimerTool4TMR1E+0x1f8>)
    2d9e:	681a      	ldr	r2, [r3, #0]
    2da0:	07d4      	lsls	r4, r2, #31
    2da2:	d404      	bmi.n	2dae <_GLOBAL__sub_I__ZN15TeensyTimerTool4TMR1E+0x36>
    2da4:	2001      	movs	r0, #1
    2da6:	4a73      	ldr	r2, [pc, #460]	; (2f74 <_GLOBAL__sub_I__ZN15TeensyTimerTool4TMR1E+0x1fc>)
    2da8:	4973      	ldr	r1, [pc, #460]	; (2f78 <_GLOBAL__sub_I__ZN15TeensyTimerTool4TMR1E+0x200>)
    2daa:	6018      	str	r0, [r3, #0]
    2dac:	6011      	str	r1, [r2, #0]

    template <unsigned m>
    bool TMR_t<m>::isInitialized = false;

    template <unsigned m>
    callback_t TMR_t<m>::callbacks[4];
    2dae:	4d73      	ldr	r5, [pc, #460]	; (2f7c <_GLOBAL__sub_I__ZN15TeensyTimerTool4TMR1E+0x204>)
    2db0:	682b      	ldr	r3, [r5, #0]
    2db2:	f013 0301 	ands.w	r3, r3, #1
    2db6:	d10b      	bne.n	2dd0 <_GLOBAL__sub_I__ZN15TeensyTimerTool4TMR1E+0x58>
    2db8:	4c71      	ldr	r4, [pc, #452]	; (2f80 <_GLOBAL__sub_I__ZN15TeensyTimerTool4TMR1E+0x208>)
    2dba:	2601      	movs	r6, #1
    2dbc:	4618      	mov	r0, r3
    2dbe:	4a6a      	ldr	r2, [pc, #424]	; (2f68 <_GLOBAL__sub_I__ZN15TeensyTimerTool4TMR1E+0x1f0>)
    2dc0:	4970      	ldr	r1, [pc, #448]	; (2f84 <_GLOBAL__sub_I__ZN15TeensyTimerTool4TMR1E+0x20c>)
    2dc2:	60a3      	str	r3, [r4, #8]
    2dc4:	61a3      	str	r3, [r4, #24]
    2dc6:	62a3      	str	r3, [r4, #40]	; 0x28
    2dc8:	63a3      	str	r3, [r4, #56]	; 0x38
    2dca:	602e      	str	r6, [r5, #0]
    2dcc:	f002 f9cc 	bl	5168 <__aeabi_atexit>
    };

    // IMPLEMENTATION ==================================================================

    template <unsigned moduleNr> IMXRT_TMR_t*    const TMR_t<moduleNr>::pTMR = moduleNr == 0 ? &IMXRT_TMR1 : moduleNr == 1 ? &IMXRT_TMR2 : moduleNr == 2 ? &IMXRT_TMR3 : &IMXRT_TMR4;
    template <unsigned moduleNr> IMXRT_TMR_CH_t* const TMR_t<moduleNr>::pCH0 = &pTMR->CH[0]; 
    2dd0:	4b6d      	ldr	r3, [pc, #436]	; (2f88 <_GLOBAL__sub_I__ZN15TeensyTimerTool4TMR1E+0x210>)
    2dd2:	681a      	ldr	r2, [r3, #0]
    2dd4:	07d0      	lsls	r0, r2, #31
    2dd6:	d404      	bmi.n	2de2 <_GLOBAL__sub_I__ZN15TeensyTimerTool4TMR1E+0x6a>
    2dd8:	2001      	movs	r0, #1
    2dda:	4a6c      	ldr	r2, [pc, #432]	; (2f8c <_GLOBAL__sub_I__ZN15TeensyTimerTool4TMR1E+0x214>)
    2ddc:	496c      	ldr	r1, [pc, #432]	; (2f90 <_GLOBAL__sub_I__ZN15TeensyTimerTool4TMR1E+0x218>)
    2dde:	6018      	str	r0, [r3, #0]
    2de0:	6011      	str	r1, [r2, #0]

    template <unsigned m>
    bool TMR_t<m>::isInitialized = false;

    template <unsigned m>
    callback_t TMR_t<m>::callbacks[4];
    2de2:	4d6c      	ldr	r5, [pc, #432]	; (2f94 <_GLOBAL__sub_I__ZN15TeensyTimerTool4TMR1E+0x21c>)
    2de4:	682b      	ldr	r3, [r5, #0]
    2de6:	f013 0301 	ands.w	r3, r3, #1
    2dea:	d10b      	bne.n	2e04 <_GLOBAL__sub_I__ZN15TeensyTimerTool4TMR1E+0x8c>
    2dec:	4c6a      	ldr	r4, [pc, #424]	; (2f98 <_GLOBAL__sub_I__ZN15TeensyTimerTool4TMR1E+0x220>)
    2dee:	2601      	movs	r6, #1
    2df0:	4618      	mov	r0, r3
    2df2:	4a5d      	ldr	r2, [pc, #372]	; (2f68 <_GLOBAL__sub_I__ZN15TeensyTimerTool4TMR1E+0x1f0>)
    2df4:	4969      	ldr	r1, [pc, #420]	; (2f9c <_GLOBAL__sub_I__ZN15TeensyTimerTool4TMR1E+0x224>)
    2df6:	60a3      	str	r3, [r4, #8]
    2df8:	61a3      	str	r3, [r4, #24]
    2dfa:	62a3      	str	r3, [r4, #40]	; 0x28
    2dfc:	63a3      	str	r3, [r4, #56]	; 0x38
    2dfe:	602e      	str	r6, [r5, #0]
    2e00:	f002 f9b2 	bl	5168 <__aeabi_atexit>
    };

    // IMPLEMENTATION ==================================================================

    template <unsigned moduleNr> IMXRT_TMR_t*    const TMR_t<moduleNr>::pTMR = moduleNr == 0 ? &IMXRT_TMR1 : moduleNr == 1 ? &IMXRT_TMR2 : moduleNr == 2 ? &IMXRT_TMR3 : &IMXRT_TMR4;
    template <unsigned moduleNr> IMXRT_TMR_CH_t* const TMR_t<moduleNr>::pCH0 = &pTMR->CH[0]; 
    2e04:	4b66      	ldr	r3, [pc, #408]	; (2fa0 <_GLOBAL__sub_I__ZN15TeensyTimerTool4TMR1E+0x228>)
    2e06:	681a      	ldr	r2, [r3, #0]
    2e08:	07d1      	lsls	r1, r2, #31
    2e0a:	d404      	bmi.n	2e16 <_GLOBAL__sub_I__ZN15TeensyTimerTool4TMR1E+0x9e>
    2e0c:	2001      	movs	r0, #1
    2e0e:	4a65      	ldr	r2, [pc, #404]	; (2fa4 <_GLOBAL__sub_I__ZN15TeensyTimerTool4TMR1E+0x22c>)
    2e10:	4965      	ldr	r1, [pc, #404]	; (2fa8 <_GLOBAL__sub_I__ZN15TeensyTimerTool4TMR1E+0x230>)
    2e12:	6018      	str	r0, [r3, #0]
    2e14:	6011      	str	r1, [r2, #0]

    template <unsigned m>
    bool TMR_t<m>::isInitialized = false;

    template <unsigned m>
    callback_t TMR_t<m>::callbacks[4];
    2e16:	4d65      	ldr	r5, [pc, #404]	; (2fac <_GLOBAL__sub_I__ZN15TeensyTimerTool4TMR1E+0x234>)
    2e18:	682b      	ldr	r3, [r5, #0]
    2e1a:	f013 0301 	ands.w	r3, r3, #1
    2e1e:	d10b      	bne.n	2e38 <_GLOBAL__sub_I__ZN15TeensyTimerTool4TMR1E+0xc0>
    2e20:	4c63      	ldr	r4, [pc, #396]	; (2fb0 <_GLOBAL__sub_I__ZN15TeensyTimerTool4TMR1E+0x238>)
    2e22:	2601      	movs	r6, #1
    2e24:	4618      	mov	r0, r3
    2e26:	4a50      	ldr	r2, [pc, #320]	; (2f68 <_GLOBAL__sub_I__ZN15TeensyTimerTool4TMR1E+0x1f0>)
    2e28:	4962      	ldr	r1, [pc, #392]	; (2fb4 <_GLOBAL__sub_I__ZN15TeensyTimerTool4TMR1E+0x23c>)
    2e2a:	60a3      	str	r3, [r4, #8]
    2e2c:	61a3      	str	r3, [r4, #24]
    2e2e:	62a3      	str	r3, [r4, #40]	; 0x28
    2e30:	63a3      	str	r3, [r4, #56]	; 0x38
    2e32:	602e      	str	r6, [r5, #0]
    2e34:	f002 f998 	bl	5168 <__aeabi_atexit>
    };

    // IMPLEMENTATION ==================================================================

    template <unsigned moduleNr> IMXRT_TMR_t*    const TMR_t<moduleNr>::pTMR = moduleNr == 0 ? &IMXRT_TMR1 : moduleNr == 1 ? &IMXRT_TMR2 : moduleNr == 2 ? &IMXRT_TMR3 : &IMXRT_TMR4;
    template <unsigned moduleNr> IMXRT_TMR_CH_t* const TMR_t<moduleNr>::pCH0 = &pTMR->CH[0]; 
    2e38:	4b5f      	ldr	r3, [pc, #380]	; (2fb8 <_GLOBAL__sub_I__ZN15TeensyTimerTool4TMR1E+0x240>)
    2e3a:	681a      	ldr	r2, [r3, #0]
    2e3c:	07d2      	lsls	r2, r2, #31
    2e3e:	d404      	bmi.n	2e4a <_GLOBAL__sub_I__ZN15TeensyTimerTool4TMR1E+0xd2>
    2e40:	2001      	movs	r0, #1
    2e42:	4a5e      	ldr	r2, [pc, #376]	; (2fbc <_GLOBAL__sub_I__ZN15TeensyTimerTool4TMR1E+0x244>)
    2e44:	495e      	ldr	r1, [pc, #376]	; (2fc0 <_GLOBAL__sub_I__ZN15TeensyTimerTool4TMR1E+0x248>)
    2e46:	6018      	str	r0, [r3, #0]
    2e48:	6011      	str	r1, [r2, #0]

    template <unsigned m>
    bool GPT_t<m>::isInitialized = false;

    template <unsigned m>
    callback_t GPT_t<m>::callback = nullptr;
    2e4a:	4c5e      	ldr	r4, [pc, #376]	; (2fc4 <_GLOBAL__sub_I__ZN15TeensyTimerTool4TMR1E+0x24c>)
    2e4c:	6823      	ldr	r3, [r4, #0]
    2e4e:	f013 0301 	ands.w	r3, r3, #1
    2e52:	d071      	beq.n	2f38 <_GLOBAL__sub_I__ZN15TeensyTimerTool4TMR1E+0x1c0>
    2e54:	4c5c      	ldr	r4, [pc, #368]	; (2fc8 <_GLOBAL__sub_I__ZN15TeensyTimerTool4TMR1E+0x250>)
    2e56:	6823      	ldr	r3, [r4, #0]
    2e58:	f013 0301 	ands.w	r3, r3, #1
    2e5c:	d076      	beq.n	2f4c <_GLOBAL__sub_I__ZN15TeensyTimerTool4TMR1E+0x1d4>
    template <unsigned moduleNr> IMXRT_TMR_CH_t* const TMR_t<moduleNr>::pCH1 = &pTMR->CH[1];
    2e5e:	4b5b      	ldr	r3, [pc, #364]	; (2fcc <_GLOBAL__sub_I__ZN15TeensyTimerTool4TMR1E+0x254>)
    2e60:	681a      	ldr	r2, [r3, #0]
    2e62:	07d6      	lsls	r6, r2, #31
    2e64:	d404      	bmi.n	2e70 <_GLOBAL__sub_I__ZN15TeensyTimerTool4TMR1E+0xf8>
    2e66:	2001      	movs	r0, #1
    2e68:	4a59      	ldr	r2, [pc, #356]	; (2fd0 <_GLOBAL__sub_I__ZN15TeensyTimerTool4TMR1E+0x258>)
    2e6a:	495a      	ldr	r1, [pc, #360]	; (2fd4 <_GLOBAL__sub_I__ZN15TeensyTimerTool4TMR1E+0x25c>)
    2e6c:	6018      	str	r0, [r3, #0]
    2e6e:	6011      	str	r1, [r2, #0]
    template <unsigned moduleNr> IMXRT_TMR_CH_t* const TMR_t<moduleNr>::pCH2 = &pTMR->CH[2];
    2e70:	4b59      	ldr	r3, [pc, #356]	; (2fd8 <_GLOBAL__sub_I__ZN15TeensyTimerTool4TMR1E+0x260>)
    2e72:	681a      	ldr	r2, [r3, #0]
    2e74:	07d5      	lsls	r5, r2, #31
    2e76:	d404      	bmi.n	2e82 <_GLOBAL__sub_I__ZN15TeensyTimerTool4TMR1E+0x10a>
    2e78:	2001      	movs	r0, #1
    2e7a:	4a58      	ldr	r2, [pc, #352]	; (2fdc <_GLOBAL__sub_I__ZN15TeensyTimerTool4TMR1E+0x264>)
    2e7c:	4958      	ldr	r1, [pc, #352]	; (2fe0 <_GLOBAL__sub_I__ZN15TeensyTimerTool4TMR1E+0x268>)
    2e7e:	6018      	str	r0, [r3, #0]
    2e80:	6011      	str	r1, [r2, #0]
    template <unsigned moduleNr> IMXRT_TMR_CH_t* const TMR_t<moduleNr>::pCH3 = &pTMR->CH[3];
    2e82:	4b58      	ldr	r3, [pc, #352]	; (2fe4 <_GLOBAL__sub_I__ZN15TeensyTimerTool4TMR1E+0x26c>)
    2e84:	681a      	ldr	r2, [r3, #0]
    2e86:	07d4      	lsls	r4, r2, #31
    2e88:	d404      	bmi.n	2e94 <_GLOBAL__sub_I__ZN15TeensyTimerTool4TMR1E+0x11c>
    2e8a:	2001      	movs	r0, #1
    2e8c:	4a56      	ldr	r2, [pc, #344]	; (2fe8 <_GLOBAL__sub_I__ZN15TeensyTimerTool4TMR1E+0x270>)
    2e8e:	4957      	ldr	r1, [pc, #348]	; (2fec <_GLOBAL__sub_I__ZN15TeensyTimerTool4TMR1E+0x274>)
    2e90:	6018      	str	r0, [r3, #0]
    2e92:	6011      	str	r1, [r2, #0]

    // IMPLEMENTATION ==================================================================

    template <unsigned moduleNr> IMXRT_TMR_t*    const TMR_t<moduleNr>::pTMR = moduleNr == 0 ? &IMXRT_TMR1 : moduleNr == 1 ? &IMXRT_TMR2 : moduleNr == 2 ? &IMXRT_TMR3 : &IMXRT_TMR4;
    template <unsigned moduleNr> IMXRT_TMR_CH_t* const TMR_t<moduleNr>::pCH0 = &pTMR->CH[0]; 
    template <unsigned moduleNr> IMXRT_TMR_CH_t* const TMR_t<moduleNr>::pCH1 = &pTMR->CH[1];
    2e94:	4b56      	ldr	r3, [pc, #344]	; (2ff0 <_GLOBAL__sub_I__ZN15TeensyTimerTool4TMR1E+0x278>)
    2e96:	681a      	ldr	r2, [r3, #0]
    2e98:	07d0      	lsls	r0, r2, #31
    2e9a:	d404      	bmi.n	2ea6 <_GLOBAL__sub_I__ZN15TeensyTimerTool4TMR1E+0x12e>
    2e9c:	2001      	movs	r0, #1
    2e9e:	4a55      	ldr	r2, [pc, #340]	; (2ff4 <_GLOBAL__sub_I__ZN15TeensyTimerTool4TMR1E+0x27c>)
    2ea0:	4955      	ldr	r1, [pc, #340]	; (2ff8 <_GLOBAL__sub_I__ZN15TeensyTimerTool4TMR1E+0x280>)
    2ea2:	6018      	str	r0, [r3, #0]
    2ea4:	6011      	str	r1, [r2, #0]
    template <unsigned moduleNr> IMXRT_TMR_CH_t* const TMR_t<moduleNr>::pCH2 = &pTMR->CH[2];
    2ea6:	4b55      	ldr	r3, [pc, #340]	; (2ffc <_GLOBAL__sub_I__ZN15TeensyTimerTool4TMR1E+0x284>)
    2ea8:	681a      	ldr	r2, [r3, #0]
    2eaa:	07d1      	lsls	r1, r2, #31
    2eac:	d404      	bmi.n	2eb8 <_GLOBAL__sub_I__ZN15TeensyTimerTool4TMR1E+0x140>
    2eae:	2001      	movs	r0, #1
    2eb0:	4a53      	ldr	r2, [pc, #332]	; (3000 <_GLOBAL__sub_I__ZN15TeensyTimerTool4TMR1E+0x288>)
    2eb2:	4954      	ldr	r1, [pc, #336]	; (3004 <_GLOBAL__sub_I__ZN15TeensyTimerTool4TMR1E+0x28c>)
    2eb4:	6018      	str	r0, [r3, #0]
    2eb6:	6011      	str	r1, [r2, #0]
    template <unsigned moduleNr> IMXRT_TMR_CH_t* const TMR_t<moduleNr>::pCH3 = &pTMR->CH[3];
    2eb8:	4b53      	ldr	r3, [pc, #332]	; (3008 <_GLOBAL__sub_I__ZN15TeensyTimerTool4TMR1E+0x290>)
    2eba:	681a      	ldr	r2, [r3, #0]
    2ebc:	07d2      	lsls	r2, r2, #31
    2ebe:	d404      	bmi.n	2eca <_GLOBAL__sub_I__ZN15TeensyTimerTool4TMR1E+0x152>
    2ec0:	2001      	movs	r0, #1
    2ec2:	4a52      	ldr	r2, [pc, #328]	; (300c <_GLOBAL__sub_I__ZN15TeensyTimerTool4TMR1E+0x294>)
    2ec4:	4952      	ldr	r1, [pc, #328]	; (3010 <_GLOBAL__sub_I__ZN15TeensyTimerTool4TMR1E+0x298>)
    2ec6:	6018      	str	r0, [r3, #0]
    2ec8:	6011      	str	r1, [r2, #0]

    // IMPLEMENTATION ==================================================================

    template <unsigned moduleNr> IMXRT_TMR_t*    const TMR_t<moduleNr>::pTMR = moduleNr == 0 ? &IMXRT_TMR1 : moduleNr == 1 ? &IMXRT_TMR2 : moduleNr == 2 ? &IMXRT_TMR3 : &IMXRT_TMR4;
    template <unsigned moduleNr> IMXRT_TMR_CH_t* const TMR_t<moduleNr>::pCH0 = &pTMR->CH[0]; 
    template <unsigned moduleNr> IMXRT_TMR_CH_t* const TMR_t<moduleNr>::pCH1 = &pTMR->CH[1];
    2eca:	4b52      	ldr	r3, [pc, #328]	; (3014 <_GLOBAL__sub_I__ZN15TeensyTimerTool4TMR1E+0x29c>)
    2ecc:	681a      	ldr	r2, [r3, #0]
    2ece:	07d6      	lsls	r6, r2, #31
    2ed0:	d404      	bmi.n	2edc <_GLOBAL__sub_I__ZN15TeensyTimerTool4TMR1E+0x164>
    2ed2:	2001      	movs	r0, #1
    2ed4:	4a50      	ldr	r2, [pc, #320]	; (3018 <_GLOBAL__sub_I__ZN15TeensyTimerTool4TMR1E+0x2a0>)
    2ed6:	4951      	ldr	r1, [pc, #324]	; (301c <_GLOBAL__sub_I__ZN15TeensyTimerTool4TMR1E+0x2a4>)
    2ed8:	6018      	str	r0, [r3, #0]
    2eda:	6011      	str	r1, [r2, #0]
    template <unsigned moduleNr> IMXRT_TMR_CH_t* const TMR_t<moduleNr>::pCH2 = &pTMR->CH[2];
    2edc:	4b50      	ldr	r3, [pc, #320]	; (3020 <_GLOBAL__sub_I__ZN15TeensyTimerTool4TMR1E+0x2a8>)
    2ede:	681a      	ldr	r2, [r3, #0]
    2ee0:	07d5      	lsls	r5, r2, #31
    2ee2:	d404      	bmi.n	2eee <_GLOBAL__sub_I__ZN15TeensyTimerTool4TMR1E+0x176>
    2ee4:	2001      	movs	r0, #1
    2ee6:	4a4f      	ldr	r2, [pc, #316]	; (3024 <_GLOBAL__sub_I__ZN15TeensyTimerTool4TMR1E+0x2ac>)
    2ee8:	494f      	ldr	r1, [pc, #316]	; (3028 <_GLOBAL__sub_I__ZN15TeensyTimerTool4TMR1E+0x2b0>)
    2eea:	6018      	str	r0, [r3, #0]
    2eec:	6011      	str	r1, [r2, #0]
    template <unsigned moduleNr> IMXRT_TMR_CH_t* const TMR_t<moduleNr>::pCH3 = &pTMR->CH[3];
    2eee:	4b4f      	ldr	r3, [pc, #316]	; (302c <_GLOBAL__sub_I__ZN15TeensyTimerTool4TMR1E+0x2b4>)
    2ef0:	681a      	ldr	r2, [r3, #0]
    2ef2:	07d4      	lsls	r4, r2, #31
    2ef4:	d404      	bmi.n	2f00 <_GLOBAL__sub_I__ZN15TeensyTimerTool4TMR1E+0x188>
    2ef6:	2001      	movs	r0, #1
    2ef8:	4a4d      	ldr	r2, [pc, #308]	; (3030 <_GLOBAL__sub_I__ZN15TeensyTimerTool4TMR1E+0x2b8>)
    2efa:	494e      	ldr	r1, [pc, #312]	; (3034 <_GLOBAL__sub_I__ZN15TeensyTimerTool4TMR1E+0x2bc>)
    2efc:	6018      	str	r0, [r3, #0]
    2efe:	6011      	str	r1, [r2, #0]

    // IMPLEMENTATION ==================================================================

    template <unsigned moduleNr> IMXRT_TMR_t*    const TMR_t<moduleNr>::pTMR = moduleNr == 0 ? &IMXRT_TMR1 : moduleNr == 1 ? &IMXRT_TMR2 : moduleNr == 2 ? &IMXRT_TMR3 : &IMXRT_TMR4;
    template <unsigned moduleNr> IMXRT_TMR_CH_t* const TMR_t<moduleNr>::pCH0 = &pTMR->CH[0]; 
    template <unsigned moduleNr> IMXRT_TMR_CH_t* const TMR_t<moduleNr>::pCH1 = &pTMR->CH[1];
    2f00:	4b4d      	ldr	r3, [pc, #308]	; (3038 <_GLOBAL__sub_I__ZN15TeensyTimerTool4TMR1E+0x2c0>)
    2f02:	681a      	ldr	r2, [r3, #0]
    2f04:	07d0      	lsls	r0, r2, #31
    2f06:	d404      	bmi.n	2f12 <_GLOBAL__sub_I__ZN15TeensyTimerTool4TMR1E+0x19a>
    2f08:	2001      	movs	r0, #1
    2f0a:	4a4c      	ldr	r2, [pc, #304]	; (303c <_GLOBAL__sub_I__ZN15TeensyTimerTool4TMR1E+0x2c4>)
    2f0c:	494c      	ldr	r1, [pc, #304]	; (3040 <_GLOBAL__sub_I__ZN15TeensyTimerTool4TMR1E+0x2c8>)
    2f0e:	6018      	str	r0, [r3, #0]
    2f10:	6011      	str	r1, [r2, #0]
    template <unsigned moduleNr> IMXRT_TMR_CH_t* const TMR_t<moduleNr>::pCH2 = &pTMR->CH[2];
    2f12:	4b4c      	ldr	r3, [pc, #304]	; (3044 <_GLOBAL__sub_I__ZN15TeensyTimerTool4TMR1E+0x2cc>)
    2f14:	681a      	ldr	r2, [r3, #0]
    2f16:	07d1      	lsls	r1, r2, #31
    2f18:	d404      	bmi.n	2f24 <_GLOBAL__sub_I__ZN15TeensyTimerTool4TMR1E+0x1ac>
    2f1a:	2001      	movs	r0, #1
    2f1c:	4a4a      	ldr	r2, [pc, #296]	; (3048 <_GLOBAL__sub_I__ZN15TeensyTimerTool4TMR1E+0x2d0>)
    2f1e:	494b      	ldr	r1, [pc, #300]	; (304c <_GLOBAL__sub_I__ZN15TeensyTimerTool4TMR1E+0x2d4>)
    2f20:	6018      	str	r0, [r3, #0]
    2f22:	6011      	str	r1, [r2, #0]
    template <unsigned moduleNr> IMXRT_TMR_CH_t* const TMR_t<moduleNr>::pCH3 = &pTMR->CH[3];
    2f24:	4b4a      	ldr	r3, [pc, #296]	; (3050 <_GLOBAL__sub_I__ZN15TeensyTimerTool4TMR1E+0x2d8>)
    2f26:	681a      	ldr	r2, [r3, #0]
    2f28:	07d2      	lsls	r2, r2, #31
    2f2a:	d404      	bmi.n	2f36 <_GLOBAL__sub_I__ZN15TeensyTimerTool4TMR1E+0x1be>
    2f2c:	2001      	movs	r0, #1
    2f2e:	4a49      	ldr	r2, [pc, #292]	; (3054 <_GLOBAL__sub_I__ZN15TeensyTimerTool4TMR1E+0x2dc>)
    2f30:	4949      	ldr	r1, [pc, #292]	; (3058 <_GLOBAL__sub_I__ZN15TeensyTimerTool4TMR1E+0x2e0>)
    2f32:	6018      	str	r0, [r3, #0]
    2f34:	6011      	str	r1, [r2, #0]
    2f36:	bd70      	pop	{r4, r5, r6, pc}
    2f38:	4d48      	ldr	r5, [pc, #288]	; (305c <_GLOBAL__sub_I__ZN15TeensyTimerTool4TMR1E+0x2e4>)
    2f3a:	2601      	movs	r6, #1
    2f3c:	4a0a      	ldr	r2, [pc, #40]	; (2f68 <_GLOBAL__sub_I__ZN15TeensyTimerTool4TMR1E+0x1f0>)
    2f3e:	4628      	mov	r0, r5
    2f40:	4947      	ldr	r1, [pc, #284]	; (3060 <_GLOBAL__sub_I__ZN15TeensyTimerTool4TMR1E+0x2e8>)
    2f42:	60ab      	str	r3, [r5, #8]
    2f44:	6026      	str	r6, [r4, #0]
    2f46:	f002 f90f 	bl	5168 <__aeabi_atexit>
    2f4a:	e783      	b.n	2e54 <_GLOBAL__sub_I__ZN15TeensyTimerTool4TMR1E+0xdc>
    2f4c:	4d45      	ldr	r5, [pc, #276]	; (3064 <_GLOBAL__sub_I__ZN15TeensyTimerTool4TMR1E+0x2ec>)
    2f4e:	2601      	movs	r6, #1
    2f50:	4a05      	ldr	r2, [pc, #20]	; (2f68 <_GLOBAL__sub_I__ZN15TeensyTimerTool4TMR1E+0x1f0>)
    2f52:	4628      	mov	r0, r5
    2f54:	4942      	ldr	r1, [pc, #264]	; (3060 <_GLOBAL__sub_I__ZN15TeensyTimerTool4TMR1E+0x2e8>)
    2f56:	60ab      	str	r3, [r5, #8]
    2f58:	6026      	str	r6, [r4, #0]
    2f5a:	f002 f905 	bl	5168 <__aeabi_atexit>
    2f5e:	e77e      	b.n	2e5e <_GLOBAL__sub_I__ZN15TeensyTimerTool4TMR1E+0xe6>
    2f60:	20001840 	.word	0x20001840
    2f64:	20001964 	.word	0x20001964
    2f68:	2000069c 	.word	0x2000069c
    2f6c:	000020a5 	.word	0x000020a5
    2f70:	2000183c 	.word	0x2000183c
    2f74:	20001960 	.word	0x20001960
    2f78:	401dc000 	.word	0x401dc000
    2f7c:	20001838 	.word	0x20001838
    2f80:	20001920 	.word	0x20001920
    2f84:	000020c5 	.word	0x000020c5
    2f88:	20001834 	.word	0x20001834
    2f8c:	2000191c 	.word	0x2000191c
    2f90:	401e0000 	.word	0x401e0000
    2f94:	20001830 	.word	0x20001830
    2f98:	200018dc 	.word	0x200018dc
    2f9c:	000020e5 	.word	0x000020e5
    2fa0:	2000182c 	.word	0x2000182c
    2fa4:	200018d8 	.word	0x200018d8
    2fa8:	401e4000 	.word	0x401e4000
    2fac:	20001828 	.word	0x20001828
    2fb0:	20001898 	.word	0x20001898
    2fb4:	00002105 	.word	0x00002105
    2fb8:	20001824 	.word	0x20001824
    2fbc:	20001894 	.word	0x20001894
    2fc0:	401e8000 	.word	0x401e8000
    2fc4:	20001820 	.word	0x20001820
    2fc8:	2000181c 	.word	0x2000181c
    2fcc:	20001818 	.word	0x20001818
    2fd0:	20001870 	.word	0x20001870
    2fd4:	401dc020 	.word	0x401dc020
    2fd8:	20001814 	.word	0x20001814
    2fdc:	2000186c 	.word	0x2000186c
    2fe0:	401dc040 	.word	0x401dc040
    2fe4:	20001810 	.word	0x20001810
    2fe8:	20001868 	.word	0x20001868
    2fec:	401dc060 	.word	0x401dc060
    2ff0:	2000180c 	.word	0x2000180c
    2ff4:	20001864 	.word	0x20001864
    2ff8:	401e0020 	.word	0x401e0020
    2ffc:	20001808 	.word	0x20001808
    3000:	20001860 	.word	0x20001860
    3004:	401e0040 	.word	0x401e0040
    3008:	20001804 	.word	0x20001804
    300c:	2000185c 	.word	0x2000185c
    3010:	401e0060 	.word	0x401e0060
    3014:	20001800 	.word	0x20001800
    3018:	20001858 	.word	0x20001858
    301c:	401e4020 	.word	0x401e4020
    3020:	200017fc 	.word	0x200017fc
    3024:	20001854 	.word	0x20001854
    3028:	401e4040 	.word	0x401e4040
    302c:	200017f8 	.word	0x200017f8
    3030:	20001850 	.word	0x20001850
    3034:	401e4060 	.word	0x401e4060
    3038:	200017f4 	.word	0x200017f4
    303c:	2000184c 	.word	0x2000184c
    3040:	401e8020 	.word	0x401e8020
    3044:	200017f0 	.word	0x200017f0
    3048:	20001848 	.word	0x20001848
    304c:	401e8040 	.word	0x401e8040
    3050:	200017ec 	.word	0x200017ec
    3054:	20001844 	.word	0x20001844
    3058:	401e8060 	.word	0x401e8060
    305c:	20001884 	.word	0x20001884
    3060:	00001b61 	.word	0x00001b61
    3064:	20001874 	.word	0x20001874

00003068 <TeensyTimerTool::Timer::Timer(TeensyTimerTool::ITimerChannel* (*)())>:
#include "timer.h"
#include "config.h"

namespace TeensyTimerTool
{
    Timer::Timer(TimerGenerator* generator)
    3068:	b510      	push	{r4, lr}
    306a:	4604      	mov	r4, r0
    :BaseTimer(generator, true)
    306c:	2201      	movs	r2, #1
    306e:	f7fe fd4f 	bl	1b10 <TeensyTimerTool::BaseTimer::BaseTimer(TeensyTimerTool::ITimerChannel* (*)(), bool)>
    {
    }
    3072:	4620      	mov	r0, r4
    3074:	bd10      	pop	{r4, pc}
    3076:	bf00      	nop

00003078 <std::function<void (TeensyTimerTool::errorCode)>::~function()>:

    ~_Function_base()
    {
      if (_M_manager)
    3078:	6883      	ldr	r3, [r0, #8]
   *  @ingroup functors
   *
   *  Polymorphic function wrapper.
   */
  template<typename _Res, typename... _ArgTypes>
    class function<_Res(_ArgTypes...)>
    307a:	b510      	push	{r4, lr}
    307c:	4604      	mov	r4, r0

    _Function_base() : _M_manager(nullptr) { }

    ~_Function_base()
    {
      if (_M_manager)
    307e:	b113      	cbz	r3, 3086 <std::function<void (TeensyTimerTool::errorCode)>::~function()+0xe>
	_M_manager(_M_functor, _M_functor, __destroy_functor);
    3080:	2203      	movs	r2, #3
    3082:	4601      	mov	r1, r0
    3084:	4798      	blx	r3
   *  @ingroup functors
   *
   *  Polymorphic function wrapper.
   */
  template<typename _Res, typename... _ArgTypes>
    class function<_Res(_ArgTypes...)>
    3086:	4620      	mov	r0, r4
    3088:	bd10      	pop	{r4, pc}
    308a:	bf00      	nop

0000308c <TeensyTimerTool::postError(TeensyTimerTool::errorCode)>:
    }

    errorFunc_t errFunc;

    errorCode postError(errorCode e)
    {
    308c:	4b07      	ldr	r3, [pc, #28]	; (30ac <TeensyTimerTool::postError(TeensyTimerTool::errorCode)+0x20>)
        if (errFunc != nullptr && e != errorCode::OK) errFunc(e);
    308e:	689a      	ldr	r2, [r3, #8]
    }

    errorFunc_t errFunc;

    errorCode postError(errorCode e)
    {
    3090:	b510      	push	{r4, lr}
    3092:	4604      	mov	r4, r0
    3094:	b082      	sub	sp, #8
        if (errFunc != nullptr && e != errorCode::OK) errFunc(e);
    3096:	b132      	cbz	r2, 30a6 <TeensyTimerTool::postError(TeensyTimerTool::errorCode)+0x1a>
    3098:	b128      	cbz	r0, 30a6 <TeensyTimerTool::postError(TeensyTimerTool::errorCode)+0x1a>
    309a:	a902      	add	r1, sp, #8
    function<_Res(_ArgTypes...)>::
    operator()(_ArgTypes... __args) const
    {
      if (_M_empty())
	__throw_bad_function_call();
      return _M_invoker(_M_functor, std::forward<_ArgTypes>(__args)...);
    309c:	68da      	ldr	r2, [r3, #12]
    309e:	4618      	mov	r0, r3
    30a0:	f841 4d04 	str.w	r4, [r1, #-4]!
    30a4:	4790      	blx	r2
        return e;
    }
    30a6:	4620      	mov	r0, r4
    30a8:	b002      	add	sp, #8
    30aa:	bd10      	pop	{r4, pc}
    30ac:	200019a4 	.word	0x200019a4

000030b0 <_GLOBAL__sub_I__ZN15TeensyTimerTool12ErrorHandlerC2ER6Stream>:
    void attachErrFunc(errorFunc_t _errFunc)
    {
        errFunc = _errFunc;
    }

    30b0:	b410      	push	{r4}
	{
	  _Base::_M_init_functor(__functor, std::__addressof(__f.get()));
	}
      };

    _Function_base() : _M_manager(nullptr) { }
    30b2:	4b05      	ldr	r3, [pc, #20]	; (30c8 <_GLOBAL__sub_I__ZN15TeensyTimerTool12ErrorHandlerC2ER6Stream+0x18>)
    30b4:	2400      	movs	r4, #0
            digitalWriteFast(LED_BUILTIN, !digitalReadFast(LED_BUILTIN));
            delay(50);
        }
    }

    errorFunc_t errFunc;
    30b6:	4a05      	ldr	r2, [pc, #20]	; (30cc <_GLOBAL__sub_I__ZN15TeensyTimerTool12ErrorHandlerC2ER6Stream+0x1c>)
    30b8:	609c      	str	r4, [r3, #8]
    30ba:	4618      	mov	r0, r3
    30bc:	4904      	ldr	r1, [pc, #16]	; (30d0 <_GLOBAL__sub_I__ZN15TeensyTimerTool12ErrorHandlerC2ER6Stream+0x20>)
    void attachErrFunc(errorFunc_t _errFunc)
    {
        errFunc = _errFunc;
    }

    30be:	f85d 4b04 	ldr.w	r4, [sp], #4
            digitalWriteFast(LED_BUILTIN, !digitalReadFast(LED_BUILTIN));
            delay(50);
        }
    }

    errorFunc_t errFunc;
    30c2:	f002 b851 	b.w	5168 <__aeabi_atexit>
    30c6:	bf00      	nop
    30c8:	200019a4 	.word	0x200019a4
    30cc:	2000069c 	.word	0x2000069c
    30d0:	00003079 	.word	0x00003079

000030d4 <TeensyTimerTool::PITChannel::start()>:
        return errorCode::OK;
    }

    errorCode PITChannel::start()
    {
       IMXRT_PIT_CHANNELS[chNr].TCTRL = PIT_TCTRL_TEN | PIT_TCTRL_TIE;
    30d4:	68c1      	ldr	r1, [r0, #12]
    30d6:	2203      	movs	r2, #3
    30d8:	4b02      	ldr	r3, [pc, #8]	; (30e4 <TeensyTimerTool::PITChannel::start()+0x10>)
       return errorCode::OK;
    }
    30da:	2000      	movs	r0, #0
        return errorCode::OK;
    }

    errorCode PITChannel::start()
    {
       IMXRT_PIT_CHANNELS[chNr].TCTRL = PIT_TCTRL_TEN | PIT_TCTRL_TIE;
    30dc:	eb03 1301 	add.w	r3, r3, r1, lsl #4
    30e0:	609a      	str	r2, [r3, #8]
       return errorCode::OK;
    }
    30e2:	4770      	bx	lr
    30e4:	40084100 	.word	0x40084100

000030e8 <TeensyTimerTool::PITChannel::stop()>:

    errorCode PITChannel::stop()
    {
        IMXRT_PIT_CHANNELS[chNr].TCTRL = 0;
    30e8:	68c1      	ldr	r1, [r0, #12]
    30ea:	2200      	movs	r2, #0
    30ec:	4b02      	ldr	r3, [pc, #8]	; (30f8 <TeensyTimerTool::PITChannel::stop()+0x10>)
        return errorCode::OK;
    }
    30ee:	4610      	mov	r0, r2
       return errorCode::OK;
    }

    errorCode PITChannel::stop()
    {
        IMXRT_PIT_CHANNELS[chNr].TCTRL = 0;
    30f0:	eb03 1301 	add.w	r3, r3, r1, lsl #4
    30f4:	609a      	str	r2, [r3, #8]
        return errorCode::OK;
    }
    30f6:	4770      	bx	lr
    30f8:	40084100 	.word	0x40084100

000030fc <TeensyTimerTool::PITChannel::~PITChannel()>:
            callback();
            if (!isPeriodic) IMXRT_PIT_CHANNELS[chNr].TCTRL = 0; // switch off timer
        }
    }

    PITChannel::~PITChannel()
    30fc:	4a06      	ldr	r2, [pc, #24]	; (3118 <TeensyTimerTool::PITChannel::~PITChannel()+0x1c>)
       *  The target of @c *this is deallocated, leaving it empty.
       */
      function&
      operator=(nullptr_t) noexcept
      {
	if (_M_manager)
    30fe:	6983      	ldr	r3, [r0, #24]
    3100:	b510      	push	{r4, lr}
    3102:	4604      	mov	r4, r0
    3104:	6002      	str	r2, [r0, #0]
    3106:	b123      	cbz	r3, 3112 <TeensyTimerTool::PITChannel::~PITChannel()+0x16>
	  {
	    _M_manager(_M_functor, _M_functor, __destroy_functor);
    3108:	f100 0110 	add.w	r1, r0, #16
    310c:	2203      	movs	r2, #3
    310e:	4608      	mov	r0, r1
    3110:	4798      	blx	r3
    {
        callback = nullptr;
    }
    3112:	4620      	mov	r0, r4
    3114:	bd10      	pop	{r4, pc}
    3116:	bf00      	nop
    3118:	20000270 	.word	0x20000270

0000311c <TeensyTimerTool::PITChannel::getMaxPeriod() const>:
        return errorCode::OK;
    }

    float PITChannel::getMaxPeriod() const
    {
        return (float)0xFFFF'FFFE / clockFactor / 1'000'000;
    311c:	4b06      	ldr	r3, [pc, #24]	; (3138 <TeensyTimerTool::PITChannel::getMaxPeriod() const+0x1c>)
    311e:	eddf 6a07 	vldr	s13, [pc, #28]	; 313c <TeensyTimerTool::PITChannel::getMaxPeriod() const+0x20>
    3122:	edd3 7a00 	vldr	s15, [r3]
    3126:	ed9f 7a06 	vldr	s14, [pc, #24]	; 3140 <TeensyTimerTool::PITChannel::getMaxPeriod() const+0x24>
    312a:	eef8 7a67 	vcvt.f32.u32	s15, s15
    312e:	ee86 0aa7 	vdiv.f32	s0, s13, s15
    }
    3132:	ee80 0a07 	vdiv.f32	s0, s0, s14
    3136:	4770      	bx	lr
    3138:	200006b0 	.word	0x200006b0
    313c:	4f800000 	.word	0x4f800000
    3140:	49742400 	.word	0x49742400

00003144 <TeensyTimerTool::PITChannel::begin(std::function<void ()>, float, bool)>:
    // {
    //     return begin(cb, (float)micros, periodic);
    // }

    errorCode PITChannel::begin(callback_t cb, float micros, bool periodic)
    {
    3144:	b5f0      	push	{r4, r5, r6, r7, lr}
    3146:	688b      	ldr	r3, [r1, #8]
    3148:	4604      	mov	r4, r0
	{
	  _Base::_M_init_functor(__functor, std::__addressof(__f.get()));
	}
      };

    _Function_base() : _M_manager(nullptr) { }
    314a:	2000      	movs	r0, #0
    314c:	ed2d 8b02 	vpush	{d8}
    3150:	b087      	sub	sp, #28
    3152:	eeb0 8a40 	vmov.f32	s16, s0
        isPeriodic = periodic;
    3156:	7222      	strb	r2, [r4, #8]
    3158:	9004      	str	r0, [sp, #16]
  template<typename _Res, typename... _ArgTypes>
    function<_Res(_ArgTypes...)>::
    function(const function& __x)
    : _Function_base()
    {
      if (static_cast<bool>(__x))
    315a:	2b00      	cmp	r3, #0
    315c:	d043      	beq.n	31e6 <TeensyTimerTool::PITChannel::begin(std::function<void ()>, float, bool)+0xa2>
	{
	  __x._M_manager(_M_functor, __x._M_functor, __clone_functor);
    315e:	ad02      	add	r5, sp, #8
    3160:	460e      	mov	r6, r1
    3162:	2202      	movs	r2, #2
    3164:	4628      	mov	r0, r5
    3166:	4798      	blx	r3
	  _M_invoker = __x._M_invoker;
    3168:	68f7      	ldr	r7, [r6, #12]
	  _M_manager = __x._M_manager;
    316a:	68b6      	ldr	r6, [r6, #8]
    {
      // concept requirements
      __glibcxx_function_requires(_SGIAssignableConcept<_Tp>)

      _Tp __tmp = _GLIBCXX_MOVE(__a);
      __a = _GLIBCXX_MOVE(__b);
    316c:	f104 0310 	add.w	r3, r4, #16
#endif
    {
      // concept requirements
      __glibcxx_function_requires(_SGIAssignableConcept<_Tp>)

      _Tp __tmp = _GLIBCXX_MOVE(__a);
    3170:	e895 0003 	ldmia.w	r5, {r0, r1}
    3174:	e88d 0003 	stmia.w	sp, {r0, r1}
      __a = _GLIBCXX_MOVE(__b);
    3178:	e893 0003 	ldmia.w	r3, {r0, r1}
    317c:	e885 0003 	stmia.w	r5, {r0, r1}
      __b = _GLIBCXX_MOVE(__tmp);
    3180:	e89d 0003 	ldmia.w	sp, {r0, r1}
    3184:	e883 0003 	stmia.w	r3, {r0, r1}
    {
      // concept requirements
      __glibcxx_function_requires(_SGIAssignableConcept<_Tp>)

      _Tp __tmp = _GLIBCXX_MOVE(__a);
      __a = _GLIBCXX_MOVE(__b);
    3188:	69a3      	ldr	r3, [r4, #24]
    318a:	69e2      	ldr	r2, [r4, #28]
    318c:	9304      	str	r3, [sp, #16]
      __b = _GLIBCXX_MOVE(__tmp);
    318e:	61a6      	str	r6, [r4, #24]
    {
      // concept requirements
      __glibcxx_function_requires(_SGIAssignableConcept<_Tp>)

      _Tp __tmp = _GLIBCXX_MOVE(__a);
      __a = _GLIBCXX_MOVE(__b);
    3190:	9205      	str	r2, [sp, #20]
      __b = _GLIBCXX_MOVE(__tmp);
    3192:	61e7      	str	r7, [r4, #28]

    _Function_base() : _M_manager(nullptr) { }

    ~_Function_base()
    {
      if (_M_manager)
    3194:	b11b      	cbz	r3, 319e <TeensyTimerTool::PITChannel::begin(std::function<void ()>, float, bool)+0x5a>
	_M_manager(_M_functor, _M_functor, __destroy_functor);
    3196:	2203      	movs	r2, #3
    3198:	4629      	mov	r1, r5
    319a:	4628      	mov	r0, r5
    319c:	4798      	blx	r3
        callback = cb;

        if (isPeriodic)
    319e:	7a23      	ldrb	r3, [r4, #8]
    31a0:	b1e3      	cbz	r3, 31dc <TeensyTimerTool::PITChannel::begin(std::function<void ()>, float, bool)+0x98>
        {
            IMXRT_PIT_CHANNELS[chNr].TCTRL = 0;
            IMXRT_PIT_CHANNELS[chNr].TFLG = 1;

            float tmp = micros * clockFactor;
    31a2:	4b1a      	ldr	r3, [pc, #104]	; (320c <TeensyTimerTool::PITChannel::begin(std::function<void ()>, float, bool)+0xc8>)
        isPeriodic = periodic;
        callback = cb;

        if (isPeriodic)
        {
            IMXRT_PIT_CHANNELS[chNr].TCTRL = 0;
    31a4:	2000      	movs	r0, #0
            IMXRT_PIT_CHANNELS[chNr].TFLG = 1;

            float tmp = micros * clockFactor;
            if (tmp > 0xFFFF'FFFF)
    31a6:	eddf 7a1a 	vldr	s15, [pc, #104]	; 3210 <TeensyTimerTool::PITChannel::begin(std::function<void ()>, float, bool)+0xcc>
        callback = cb;

        if (isPeriodic)
        {
            IMXRT_PIT_CHANNELS[chNr].TCTRL = 0;
            IMXRT_PIT_CHANNELS[chNr].TFLG = 1;
    31aa:	2101      	movs	r1, #1

            float tmp = micros * clockFactor;
    31ac:	ed93 0a00 	vldr	s0, [r3]
        isPeriodic = periodic;
        callback = cb;

        if (isPeriodic)
        {
            IMXRT_PIT_CHANNELS[chNr].TCTRL = 0;
    31b0:	68e2      	ldr	r2, [r4, #12]
            IMXRT_PIT_CHANNELS[chNr].TFLG = 1;

            float tmp = micros * clockFactor;
    31b2:	eeb8 0a40 	vcvt.f32.u32	s0, s0
        isPeriodic = periodic;
        callback = cb;

        if (isPeriodic)
        {
            IMXRT_PIT_CHANNELS[chNr].TCTRL = 0;
    31b6:	4b17      	ldr	r3, [pc, #92]	; (3214 <TeensyTimerTool::PITChannel::begin(std::function<void ()>, float, bool)+0xd0>)
    31b8:	0112      	lsls	r2, r2, #4
    31ba:	4d16      	ldr	r5, [pc, #88]	; (3214 <TeensyTimerTool::PITChannel::begin(std::function<void ()>, float, bool)+0xd0>)
            IMXRT_PIT_CHANNELS[chNr].TFLG = 1;

            float tmp = micros * clockFactor;
    31bc:	ee20 0a08 	vmul.f32	s0, s0, s16
        isPeriodic = periodic;
        callback = cb;

        if (isPeriodic)
        {
            IMXRT_PIT_CHANNELS[chNr].TCTRL = 0;
    31c0:	4413      	add	r3, r2
    31c2:	6098      	str	r0, [r3, #8]
            IMXRT_PIT_CHANNELS[chNr].TFLG = 1;

            float tmp = micros * clockFactor;
            if (tmp > 0xFFFF'FFFF)
    31c4:	eeb4 0ae7 	vcmpe.f32	s0, s15
        callback = cb;

        if (isPeriodic)
        {
            IMXRT_PIT_CHANNELS[chNr].TCTRL = 0;
            IMXRT_PIT_CHANNELS[chNr].TFLG = 1;
    31c8:	60d9      	str	r1, [r3, #12]

            float tmp = micros * clockFactor;
            if (tmp > 0xFFFF'FFFF)
    31ca:	eef1 fa10 	vmrs	APSR_nzcv, fpscr
    31ce:	dc0e      	bgt.n	31ee <TeensyTimerTool::PITChannel::begin(std::function<void ()>, float, bool)+0xaa>
            {
                postError(errorCode::periodOverflow);
                IMXRT_PIT_CHANNELS[chNr].LDVAL = 0xFFFF'FFFE;
            } else
            {
                IMXRT_PIT_CHANNELS[chNr].LDVAL = (uint32_t)tmp - 1;
    31d0:	eefc 7ac0 	vcvt.u32.f32	s15, s0
    31d4:	ee17 3a90 	vmov	r3, s15
    31d8:	3b01      	subs	r3, #1
    31da:	5153      	str	r3, [r2, r5]
            }
        }
        return errorCode::OK;
    }
    31dc:	2000      	movs	r0, #0
    31de:	b007      	add	sp, #28
    31e0:	ecbd 8b02 	vpop	{d8}
    31e4:	bdf0      	pop	{r4, r5, r6, r7, pc}
  template<typename _Res, typename... _ArgTypes>
    function<_Res(_ArgTypes...)>::
    function(const function& __x)
    : _Function_base()
    {
      if (static_cast<bool>(__x))
    31e6:	461e      	mov	r6, r3
    31e8:	9f05      	ldr	r7, [sp, #20]
    31ea:	ad02      	add	r5, sp, #8
    31ec:	e7be      	b.n	316c <TeensyTimerTool::PITChannel::begin(std::function<void ()>, float, bool)+0x28>
            IMXRT_PIT_CHANNELS[chNr].TFLG = 1;

            float tmp = micros * clockFactor;
            if (tmp > 0xFFFF'FFFF)
            {
                postError(errorCode::periodOverflow);
    31ee:	f06f 0063 	mvn.w	r0, #99	; 0x63
    31f2:	f7ff ff4b 	bl	308c <TeensyTimerTool::postError(TeensyTimerTool::errorCode)>
                IMXRT_PIT_CHANNELS[chNr].LDVAL = 0xFFFF'FFFE;
    31f6:	68e3      	ldr	r3, [r4, #12]
    31f8:	f06f 0201 	mvn.w	r2, #1
            {
                IMXRT_PIT_CHANNELS[chNr].LDVAL = (uint32_t)tmp - 1;
            }
        }
        return errorCode::OK;
    }
    31fc:	2000      	movs	r0, #0

            float tmp = micros * clockFactor;
            if (tmp > 0xFFFF'FFFF)
            {
                postError(errorCode::periodOverflow);
                IMXRT_PIT_CHANNELS[chNr].LDVAL = 0xFFFF'FFFE;
    31fe:	011b      	lsls	r3, r3, #4
    3200:	515a      	str	r2, [r3, r5]
            {
                IMXRT_PIT_CHANNELS[chNr].LDVAL = (uint32_t)tmp - 1;
            }
        }
        return errorCode::OK;
    }
    3202:	b007      	add	sp, #28
    3204:	ecbd 8b02 	vpop	{d8}
    3208:	bdf0      	pop	{r4, r5, r6, r7, pc}
    320a:	bf00      	nop
    320c:	200006b0 	.word	0x200006b0
    3210:	4f800000 	.word	0x4f800000
    3214:	40084100 	.word	0x40084100

00003218 <TeensyTimerTool::PITChannel::trigger(float)>:
    // {
    //     return trigger((float)delay);
    // }

    errorCode PITChannel::trigger(float delay) //should be optimized somehow
    {
    3218:	b538      	push	{r3, r4, r5, lr}
        IMXRT_PIT_CHANNELS[chNr].TCTRL = 0;
        IMXRT_PIT_CHANNELS[chNr].TFLG = 1;

        float tmp = delay * clockFactor;
    321a:	4b1d      	ldr	r3, [pc, #116]	; (3290 <TeensyTimerTool::PITChannel::trigger(float)+0x78>)
    // {
    //     return trigger((float)delay);
    // }

    errorCode PITChannel::trigger(float delay) //should be optimized somehow
    {
    321c:	4604      	mov	r4, r0
        IMXRT_PIT_CHANNELS[chNr].TCTRL = 0;
        IMXRT_PIT_CHANNELS[chNr].TFLG = 1;

        float tmp = delay * clockFactor;
        if (tmp > 0xFFFF'FFFF)
    321e:	ed9f 7a1d 	vldr	s14, [pc, #116]	; 3294 <TeensyTimerTool::PITChannel::trigger(float)+0x7c>
    //     return trigger((float)delay);
    // }

    errorCode PITChannel::trigger(float delay) //should be optimized somehow
    {
        IMXRT_PIT_CHANNELS[chNr].TCTRL = 0;
    3222:	2000      	movs	r0, #0
        IMXRT_PIT_CHANNELS[chNr].TFLG = 1;

        float tmp = delay * clockFactor;
    3224:	edd3 7a00 	vldr	s15, [r3]
    // }

    errorCode PITChannel::trigger(float delay) //should be optimized somehow
    {
        IMXRT_PIT_CHANNELS[chNr].TCTRL = 0;
        IMXRT_PIT_CHANNELS[chNr].TFLG = 1;
    3228:	2301      	movs	r3, #1
    //     return trigger((float)delay);
    // }

    errorCode PITChannel::trigger(float delay) //should be optimized somehow
    {
        IMXRT_PIT_CHANNELS[chNr].TCTRL = 0;
    322a:	68e1      	ldr	r1, [r4, #12]
        IMXRT_PIT_CHANNELS[chNr].TFLG = 1;

        float tmp = delay * clockFactor;
    322c:	eef8 7a67 	vcvt.f32.u32	s15, s15
    //     return trigger((float)delay);
    // }

    errorCode PITChannel::trigger(float delay) //should be optimized somehow
    {
        IMXRT_PIT_CHANNELS[chNr].TCTRL = 0;
    3230:	4a19      	ldr	r2, [pc, #100]	; (3298 <TeensyTimerTool::PITChannel::trigger(float)+0x80>)
    3232:	0109      	lsls	r1, r1, #4
    3234:	4615      	mov	r5, r2
        IMXRT_PIT_CHANNELS[chNr].TFLG = 1;

        float tmp = delay * clockFactor;
    3236:	ee27 0a80 	vmul.f32	s0, s15, s0
    //     return trigger((float)delay);
    // }

    errorCode PITChannel::trigger(float delay) //should be optimized somehow
    {
        IMXRT_PIT_CHANNELS[chNr].TCTRL = 0;
    323a:	440a      	add	r2, r1
    323c:	6090      	str	r0, [r2, #8]
        IMXRT_PIT_CHANNELS[chNr].TFLG = 1;

        float tmp = delay * clockFactor;
        if (tmp > 0xFFFF'FFFF)
    323e:	eeb4 0ac7 	vcmpe.f32	s0, s14
    // }

    errorCode PITChannel::trigger(float delay) //should be optimized somehow
    {
        IMXRT_PIT_CHANNELS[chNr].TCTRL = 0;
        IMXRT_PIT_CHANNELS[chNr].TFLG = 1;
    3242:	60d3      	str	r3, [r2, #12]

        float tmp = delay * clockFactor;
        if (tmp > 0xFFFF'FFFF)
    3244:	eef1 fa10 	vmrs	APSR_nzcv, fpscr
    3248:	dc0e      	bgt.n	3268 <TeensyTimerTool::PITChannel::trigger(float)+0x50>
        {
            postError(errorCode::periodOverflow);
            IMXRT_PIT_CHANNELS[chNr].LDVAL = 0xFFFF'FFFE;
        } else
            IMXRT_PIT_CHANNELS[chNr].LDVAL = (uint32_t)tmp - 1;
    324a:	eebc 0ac0 	vcvt.u32.f32	s0, s0
    324e:	ee10 3a10 	vmov	r3, s0
    3252:	3b01      	subs	r3, #1
    3254:	514b      	str	r3, [r1, r5]

        start();
    3256:	6823      	ldr	r3, [r4, #0]
    3258:	4910      	ldr	r1, [pc, #64]	; (329c <TeensyTimerTool::PITChannel::trigger(float)+0x84>)
    325a:	699b      	ldr	r3, [r3, #24]
    325c:	428b      	cmp	r3, r1
    325e:	d113      	bne.n	3288 <TeensyTimerTool::PITChannel::trigger(float)+0x70>
        return errorCode::OK;
    }

    errorCode PITChannel::start()
    {
       IMXRT_PIT_CHANNELS[chNr].TCTRL = PIT_TCTRL_TEN | PIT_TCTRL_TIE;
    3260:	2303      	movs	r3, #3
            IMXRT_PIT_CHANNELS[chNr].LDVAL = (uint32_t)tmp - 1;

        start();

        return errorCode::OK;
    }
    3262:	2000      	movs	r0, #0
        return errorCode::OK;
    }

    errorCode PITChannel::start()
    {
       IMXRT_PIT_CHANNELS[chNr].TCTRL = PIT_TCTRL_TEN | PIT_TCTRL_TIE;
    3264:	6093      	str	r3, [r2, #8]
            IMXRT_PIT_CHANNELS[chNr].LDVAL = (uint32_t)tmp - 1;

        start();

        return errorCode::OK;
    }
    3266:	bd38      	pop	{r3, r4, r5, pc}
        IMXRT_PIT_CHANNELS[chNr].TFLG = 1;

        float tmp = delay * clockFactor;
        if (tmp > 0xFFFF'FFFF)
        {
            postError(errorCode::periodOverflow);
    3268:	f06f 0063 	mvn.w	r0, #99	; 0x63
    326c:	f7ff ff0e 	bl	308c <TeensyTimerTool::postError(TeensyTimerTool::errorCode)>
            IMXRT_PIT_CHANNELS[chNr].LDVAL = 0xFFFF'FFFE;
    3270:	68e3      	ldr	r3, [r4, #12]
    3272:	f06f 0101 	mvn.w	r1, #1
    3276:	462a      	mov	r2, r5
    3278:	011b      	lsls	r3, r3, #4
    327a:	5159      	str	r1, [r3, r5]
    327c:	441a      	add	r2, r3
        } else
            IMXRT_PIT_CHANNELS[chNr].LDVAL = (uint32_t)tmp - 1;

        start();
    327e:	6823      	ldr	r3, [r4, #0]
    3280:	4906      	ldr	r1, [pc, #24]	; (329c <TeensyTimerTool::PITChannel::trigger(float)+0x84>)
    3282:	699b      	ldr	r3, [r3, #24]
    3284:	428b      	cmp	r3, r1
    3286:	d0eb      	beq.n	3260 <TeensyTimerTool::PITChannel::trigger(float)+0x48>
    3288:	4620      	mov	r0, r4
    328a:	4798      	blx	r3

        return errorCode::OK;
    }
    328c:	2000      	movs	r0, #0
    328e:	bd38      	pop	{r3, r4, r5, pc}
    3290:	200006b0 	.word	0x200006b0
    3294:	4f800000 	.word	0x4f800000
    3298:	40084100 	.word	0x40084100
    329c:	000030d5 	.word	0x000030d5

000032a0 <__tcf_0>:
#include "PIT.h"

namespace TeensyTimerTool
{
    bool PIT_t::isInitialized = false;
    PITChannel PIT_t::channel[4] = {{0}, {1}, {2}, {3}};
    32a0:	e92d 41f0 	stmdb	sp!, {r4, r5, r6, r7, r8, lr}
    32a4:	4c0f      	ldr	r4, [pc, #60]	; (32e4 <__tcf_0+0x44>)
      operator=(nullptr_t) noexcept
      {
	if (_M_manager)
	  {
	    _M_manager(_M_functor, _M_functor, __destroy_functor);
	    _M_manager = nullptr;
    32a6:	2500      	movs	r5, #0
    32a8:	4f0f      	ldr	r7, [pc, #60]	; (32e8 <__tcf_0+0x48>)
    32aa:	f1a4 0680 	sub.w	r6, r4, #128	; 0x80
            callback();
            if (!isPeriodic) IMXRT_PIT_CHANNELS[chNr].TCTRL = 0; // switch off timer
        }
    }

    PITChannel::~PITChannel()
    32ae:	f8df 803c 	ldr.w	r8, [pc, #60]	; 32ec <__tcf_0+0x4c>
    32b2:	f854 3c10 	ldr.w	r3, [r4, #-16]
    32b6:	f1a4 0e10 	sub.w	lr, r4, #16
      function&
      operator=(nullptr_t) noexcept
      {
	if (_M_manager)
	  {
	    _M_manager(_M_functor, _M_functor, __destroy_functor);
    32ba:	2203      	movs	r2, #3
    32bc:	4621      	mov	r1, r4
    32be:	6b9b      	ldr	r3, [r3, #56]	; 0x38
    32c0:	4620      	mov	r0, r4
    32c2:	42bb      	cmp	r3, r7
    32c4:	d10b      	bne.n	32de <__tcf_0+0x3e>
       *  The target of @c *this is deallocated, leaving it empty.
       */
      function&
      operator=(nullptr_t) noexcept
      {
	if (_M_manager)
    32c6:	68a3      	ldr	r3, [r4, #8]
    32c8:	f844 8c10 	str.w	r8, [r4, #-16]
    32cc:	b113      	cbz	r3, 32d4 <__tcf_0+0x34>
	  {
	    _M_manager(_M_functor, _M_functor, __destroy_functor);
    32ce:	4798      	blx	r3
	    _M_manager = nullptr;
    32d0:	60a5      	str	r5, [r4, #8]
	    _M_invoker = nullptr;
    32d2:	60e5      	str	r5, [r4, #12]
    32d4:	3c20      	subs	r4, #32
    32d6:	42b4      	cmp	r4, r6
    32d8:	d1eb      	bne.n	32b2 <__tcf_0+0x12>
    32da:	e8bd 81f0 	ldmia.w	sp!, {r4, r5, r6, r7, r8, pc}
    32de:	4670      	mov	r0, lr
    32e0:	4798      	blx	r3
    32e2:	e7f7      	b.n	32d4 <__tcf_0+0x34>
    32e4:	20001a24 	.word	0x20001a24
    32e8:	000030fd 	.word	0x000030fd
    32ec:	20000270 	.word	0x20000270

000032f0 <TeensyTimerTool::PITChannel::~PITChannel()>:
    32f0:	4a08      	ldr	r2, [pc, #32]	; (3314 <TeensyTimerTool::PITChannel::~PITChannel()+0x24>)
       *  The target of @c *this is deallocated, leaving it empty.
       */
      function&
      operator=(nullptr_t) noexcept
      {
	if (_M_manager)
    32f2:	6983      	ldr	r3, [r0, #24]
    32f4:	b510      	push	{r4, lr}
    32f6:	4604      	mov	r4, r0
    32f8:	6002      	str	r2, [r0, #0]
    32fa:	b123      	cbz	r3, 3306 <TeensyTimerTool::PITChannel::~PITChannel()+0x16>
	  {
	    _M_manager(_M_functor, _M_functor, __destroy_functor);
    32fc:	f100 0110 	add.w	r1, r0, #16
    3300:	2203      	movs	r2, #3
    3302:	4608      	mov	r0, r1
    3304:	4798      	blx	r3
    {
        callback = nullptr;
    }
    3306:	4620      	mov	r0, r4
    3308:	2120      	movs	r1, #32
    330a:	f001 fb6b 	bl	49e4 <operator delete(void*, unsigned int)>
    330e:	4620      	mov	r0, r4
    3310:	bd10      	pop	{r4, pc}
    3312:	bf00      	nop
    3314:	20000270 	.word	0x20000270

00003318 <_GLOBAL__sub_I__ZN15TeensyTimerTool5PIT_t13isInitializedE>:

    PITChannel::PITChannel(unsigned nr)
        : ITimerChannel(nullptr), chNr(nr)
    {
        callback = nullptr;
        clockFactor = (CCM_CSCMR1 & CCM_CSCMR1_PERCLK_CLK_SEL) ? 24 : (F_BUS_ACTUAL / 1000000);
    3318:	481f      	ldr	r0, [pc, #124]	; (3398 <_GLOBAL__sub_I__ZN15TeensyTimerTool5PIT_t13isInitializedE+0x80>)
    331a:	2100      	movs	r1, #0
    331c:	4b1f      	ldr	r3, [pc, #124]	; (339c <_GLOBAL__sub_I__ZN15TeensyTimerTool5PIT_t13isInitializedE+0x84>)
    331e:	69c0      	ldr	r0, [r0, #28]
    };

    // IMPLEMENTATION ==============================================

    PITChannel::PITChannel(unsigned nr)
        : ITimerChannel(nullptr), chNr(nr)
    3320:	4a1f      	ldr	r2, [pc, #124]	; (33a0 <_GLOBAL__sub_I__ZN15TeensyTimerTool5PIT_t13isInitializedE+0x88>)

     uint32_t PITChannel::clockFactor = 1;
}
    3322:	b410      	push	{r4}
    {
        callback = nullptr;
        clockFactor = (CCM_CSCMR1 & CCM_CSCMR1_PERCLK_CLK_SEL) ? 24 : (F_BUS_ACTUAL / 1000000);
    3324:	0644      	lsls	r4, r0, #25
    };

    // IMPLEMENTATION ==============================================

    PITChannel::PITChannel(unsigned nr)
        : ITimerChannel(nullptr), chNr(nr)
    3326:	601a      	str	r2, [r3, #0]
    3328:	6059      	str	r1, [r3, #4]
    332a:	60d9      	str	r1, [r3, #12]
	{
	  _Base::_M_init_functor(__functor, std::__addressof(__f.get()));
	}
      };

    _Function_base() : _M_manager(nullptr) { }
    332c:	6199      	str	r1, [r3, #24]
    {
        callback = nullptr;
        clockFactor = (CCM_CSCMR1 & CCM_CSCMR1_PERCLK_CLK_SEL) ? 24 : (F_BUS_ACTUAL / 1000000);
    332e:	d401      	bmi.n	3334 <_GLOBAL__sub_I__ZN15TeensyTimerTool5PIT_t13isInitializedE+0x1c>
    3330:	491c      	ldr	r1, [pc, #112]	; (33a4 <_GLOBAL__sub_I__ZN15TeensyTimerTool5PIT_t13isInitializedE+0x8c>)
    3332:	6809      	ldr	r1, [r1, #0]
    3334:	4818      	ldr	r0, [pc, #96]	; (3398 <_GLOBAL__sub_I__ZN15TeensyTimerTool5PIT_t13isInitializedE+0x80>)
    3336:	2100      	movs	r1, #0
    };

    // IMPLEMENTATION ==============================================

    PITChannel::PITChannel(unsigned nr)
        : ITimerChannel(nullptr), chNr(nr)
    3338:	2401      	movs	r4, #1
    333a:	621a      	str	r2, [r3, #32]
    {
        callback = nullptr;
        clockFactor = (CCM_CSCMR1 & CCM_CSCMR1_PERCLK_CLK_SEL) ? 24 : (F_BUS_ACTUAL / 1000000);
    333c:	69c0      	ldr	r0, [r0, #28]
    333e:	6259      	str	r1, [r3, #36]	; 0x24
    3340:	0640      	lsls	r0, r0, #25
    3342:	6399      	str	r1, [r3, #56]	; 0x38
    };

    // IMPLEMENTATION ==============================================

    PITChannel::PITChannel(unsigned nr)
        : ITimerChannel(nullptr), chNr(nr)
    3344:	62dc      	str	r4, [r3, #44]	; 0x2c
    {
        callback = nullptr;
        clockFactor = (CCM_CSCMR1 & CCM_CSCMR1_PERCLK_CLK_SEL) ? 24 : (F_BUS_ACTUAL / 1000000);
    3346:	d401      	bmi.n	334c <_GLOBAL__sub_I__ZN15TeensyTimerTool5PIT_t13isInitializedE+0x34>
    3348:	4916      	ldr	r1, [pc, #88]	; (33a4 <_GLOBAL__sub_I__ZN15TeensyTimerTool5PIT_t13isInitializedE+0x8c>)
    334a:	6809      	ldr	r1, [r1, #0]
    334c:	4812      	ldr	r0, [pc, #72]	; (3398 <_GLOBAL__sub_I__ZN15TeensyTimerTool5PIT_t13isInitializedE+0x80>)
    334e:	2100      	movs	r1, #0
    };

    // IMPLEMENTATION ==============================================

    PITChannel::PITChannel(unsigned nr)
        : ITimerChannel(nullptr), chNr(nr)
    3350:	2402      	movs	r4, #2
    3352:	641a      	str	r2, [r3, #64]	; 0x40
    {
        callback = nullptr;
        clockFactor = (CCM_CSCMR1 & CCM_CSCMR1_PERCLK_CLK_SEL) ? 24 : (F_BUS_ACTUAL / 1000000);
    3354:	69c0      	ldr	r0, [r0, #28]
    3356:	6459      	str	r1, [r3, #68]	; 0x44
    3358:	6599      	str	r1, [r3, #88]	; 0x58
    335a:	0641      	lsls	r1, r0, #25
    };

    // IMPLEMENTATION ==============================================

    PITChannel::PITChannel(unsigned nr)
        : ITimerChannel(nullptr), chNr(nr)
    335c:	64dc      	str	r4, [r3, #76]	; 0x4c
    {
        callback = nullptr;
        clockFactor = (CCM_CSCMR1 & CCM_CSCMR1_PERCLK_CLK_SEL) ? 24 : (F_BUS_ACTUAL / 1000000);
    335e:	d401      	bmi.n	3364 <_GLOBAL__sub_I__ZN15TeensyTimerTool5PIT_t13isInitializedE+0x4c>
    3360:	4910      	ldr	r1, [pc, #64]	; (33a4 <_GLOBAL__sub_I__ZN15TeensyTimerTool5PIT_t13isInitializedE+0x8c>)
    3362:	6809      	ldr	r1, [r1, #0]
    3364:	4c0c      	ldr	r4, [pc, #48]	; (3398 <_GLOBAL__sub_I__ZN15TeensyTimerTool5PIT_t13isInitializedE+0x80>)
    3366:	2100      	movs	r1, #0
    };

    // IMPLEMENTATION ==============================================

    PITChannel::PITChannel(unsigned nr)
        : ITimerChannel(nullptr), chNr(nr)
    3368:	661a      	str	r2, [r3, #96]	; 0x60
    336a:	2003      	movs	r0, #3
    {
        callback = nullptr;
        clockFactor = (CCM_CSCMR1 & CCM_CSCMR1_PERCLK_CLK_SEL) ? 24 : (F_BUS_ACTUAL / 1000000);
    336c:	69e2      	ldr	r2, [r4, #28]
    336e:	6659      	str	r1, [r3, #100]	; 0x64
    3370:	6799      	str	r1, [r3, #120]	; 0x78
    };

    // IMPLEMENTATION ==============================================

    PITChannel::PITChannel(unsigned nr)
        : ITimerChannel(nullptr), chNr(nr)
    3372:	66d8      	str	r0, [r3, #108]	; 0x6c
    {
        callback = nullptr;
        clockFactor = (CCM_CSCMR1 & CCM_CSCMR1_PERCLK_CLK_SEL) ? 24 : (F_BUS_ACTUAL / 1000000);
    3374:	0653      	lsls	r3, r2, #25
    3376:	d40d      	bmi.n	3394 <_GLOBAL__sub_I__ZN15TeensyTimerTool5PIT_t13isInitializedE+0x7c>
    3378:	4b0a      	ldr	r3, [pc, #40]	; (33a4 <_GLOBAL__sub_I__ZN15TeensyTimerTool5PIT_t13isInitializedE+0x8c>)
    337a:	4a0b      	ldr	r2, [pc, #44]	; (33a8 <_GLOBAL__sub_I__ZN15TeensyTimerTool5PIT_t13isInitializedE+0x90>)
    337c:	681b      	ldr	r3, [r3, #0]
    337e:	fbb3 f3f2 	udiv	r3, r3, r2
    3382:	4c0a      	ldr	r4, [pc, #40]	; (33ac <_GLOBAL__sub_I__ZN15TeensyTimerTool5PIT_t13isInitializedE+0x94>)
#include "PIT.h"

namespace TeensyTimerTool
{
    bool PIT_t::isInitialized = false;
    PITChannel PIT_t::channel[4] = {{0}, {1}, {2}, {3}};
    3384:	2000      	movs	r0, #0
    3386:	4a0a      	ldr	r2, [pc, #40]	; (33b0 <_GLOBAL__sub_I__ZN15TeensyTimerTool5PIT_t13isInitializedE+0x98>)
    3388:	6023      	str	r3, [r4, #0]
    338a:	490a      	ldr	r1, [pc, #40]	; (33b4 <_GLOBAL__sub_I__ZN15TeensyTimerTool5PIT_t13isInitializedE+0x9c>)

     uint32_t PITChannel::clockFactor = 1;
}
    338c:	f85d 4b04 	ldr.w	r4, [sp], #4
#include "PIT.h"

namespace TeensyTimerTool
{
    bool PIT_t::isInitialized = false;
    PITChannel PIT_t::channel[4] = {{0}, {1}, {2}, {3}};
    3390:	f001 beea 	b.w	5168 <__aeabi_atexit>
    3394:	2318      	movs	r3, #24
    3396:	e7f4      	b.n	3382 <_GLOBAL__sub_I__ZN15TeensyTimerTool5PIT_t13isInitializedE+0x6a>
    3398:	400fc000 	.word	0x400fc000
    339c:	200019b4 	.word	0x200019b4
    33a0:	20000270 	.word	0x20000270
    33a4:	200006d4 	.word	0x200006d4
    33a8:	000f4240 	.word	0x000f4240
    33ac:	200006b0 	.word	0x200006b0
    33b0:	2000069c 	.word	0x2000069c
    33b4:	000032a1 	.word	0x000032a1

000033b8 <EventResponder::~EventResponder()>:
class EventResponder
{
public:
	constexpr EventResponder() {
	}
	~EventResponder() {
    33b8:	b538      	push	{r3, r4, r5, lr}
    33ba:	4b06      	ldr	r3, [pc, #24]	; (33d4 <EventResponder::~EventResponder()+0x1c>)
    33bc:	4605      	mov	r5, r0
    33be:	6003      	str	r3, [r0, #0]
	static EventResponder *lastInterrupt;
	static bool runningFromYield;
private:
	static bool disableInterrupts() {
		uint32_t primask;
		__asm__ volatile("mrs %0, primask\n" : "=r" (primask)::);
    33c0:	f3ef 8410 	mrs	r4, PRIMASK
		__disable_irq();
    33c4:	b672      	cpsid	i

	// Do not call any function.  The user's program must occasionally check
	// whether the event has occurred, or use one of the wait functions.
	void detach() {
		bool irq = disableInterrupts();
		detachNoInterrupts();
    33c6:	f001 fabf 	bl	4948 <EventResponder::detachNoInterrupts()>
		__asm__ volatile("mrs %0, primask\n" : "=r" (primask)::);
		__disable_irq();
		return (primask == 0) ? true : false;
	}
	static void enableInterrupts(bool doit) {
		if (doit) __enable_irq();
    33ca:	b904      	cbnz	r4, 33ce <EventResponder::~EventResponder()+0x16>
    33cc:	b662      	cpsie	i
public:
	constexpr EventResponder() {
	}
	~EventResponder() {
		detach();
	}
    33ce:	4628      	mov	r0, r5
    33d0:	bd38      	pop	{r3, r4, r5, pc}
    33d2:	bf00      	nop
    33d4:	200002b8 	.word	0x200002b8

000033d8 <EventResponder::triggerEvent(int, void*)>:
	}

	// Trigger the event.  An optional status code and data may be provided.
	// The code triggering the event does NOT control which of the above
	// response methods will be used.
	virtual void triggerEvent(int status=0, void *data=nullptr) {
    33d8:	b410      	push	{r4}
		_status = status;
		_data = data;
		if (_type == EventTypeImmediate) {
    33da:	7f04      	ldrb	r4, [r0, #28]

	// Trigger the event.  An optional status code and data may be provided.
	// The code triggering the event does NOT control which of the above
	// response methods will be used.
	virtual void triggerEvent(int status=0, void *data=nullptr) {
		_status = status;
    33dc:	6041      	str	r1, [r0, #4]
		_data = data;
		if (_type == EventTypeImmediate) {
    33de:	2c02      	cmp	r4, #2
	// Trigger the event.  An optional status code and data may be provided.
	// The code triggering the event does NOT control which of the above
	// response methods will be used.
	virtual void triggerEvent(int status=0, void *data=nullptr) {
		_status = status;
		_data = data;
    33e0:	60c2      	str	r2, [r0, #12]
		if (_type == EventTypeImmediate) {
    33e2:	d003      	beq.n	33ec <EventResponder::triggerEvent(int, void*)+0x14>
			(*_function)(*this);
		} else {
			triggerEventNotImmediate();
		}
	}
    33e4:	f85d 4b04 	ldr.w	r4, [sp], #4
		_status = status;
		_data = data;
		if (_type == EventTypeImmediate) {
			(*_function)(*this);
		} else {
			triggerEventNotImmediate();
    33e8:	f001 ba4c 	b.w	4884 <EventResponder::triggerEventNotImmediate()>
	// response methods will be used.
	virtual void triggerEvent(int status=0, void *data=nullptr) {
		_status = status;
		_data = data;
		if (_type == EventTypeImmediate) {
			(*_function)(*this);
    33ec:	6883      	ldr	r3, [r0, #8]
		} else {
			triggerEventNotImmediate();
		}
	}
    33ee:	f85d 4b04 	ldr.w	r4, [sp], #4
	// response methods will be used.
	virtual void triggerEvent(int status=0, void *data=nullptr) {
		_status = status;
		_data = data;
		if (_type == EventTypeImmediate) {
			(*_function)(*this);
    33f2:	4718      	bx	r3

000033f4 <TeensyTimerTool::initYieldHook()::{lambda(EventResponder&)#1}::_FUN(EventResponder&)>:
    {
        static EventResponder er;

        void initYieldHook()
        {
            er.attach([](EventResponderRef r)
    33f4:	b570      	push	{r4, r5, r6, lr}
    33f6:	4c14      	ldr	r4, [pc, #80]	; (3448 <TeensyTimerTool::initYieldHook()::{lambda(EventResponder&)#1}::_FUN(EventResponder&)+0x54>)
    33f8:	4606      	mov	r6, r0
    33fa:	f104 0550 	add.w	r5, r4, #80	; 0x50

    void TCK_t::tick()
    {
        for (unsigned i = 0; i < NR_OF_TCK_TIMERS; i++)
        {
            if (channels[i] != nullptr)
    33fe:	f854 3f04 	ldr.w	r3, [r4, #4]!
            {
                channels[i]->tick();
    3402:	4618      	mov	r0, r3

    void TCK_t::tick()
    {
        for (unsigned i = 0; i < NR_OF_TCK_TIMERS; i++)
        {
            if (channels[i] != nullptr)
    3404:	b113      	cbz	r3, 340c <TeensyTimerTool::initYieldHook()::{lambda(EventResponder&)#1}::_FUN(EventResponder&)+0x18>
            {
                channels[i]->tick();
    3406:	681b      	ldr	r3, [r3, #0]
    3408:	6b9b      	ldr	r3, [r3, #56]	; 0x38
    340a:	4798      	blx	r3
        }
    }

    void TCK_t::tick()
    {
        for (unsigned i = 0; i < NR_OF_TCK_TIMERS; i++)
    340c:	42ac      	cmp	r4, r5
    340e:	d1f6      	bne.n	33fe <TeensyTimerTool::initYieldHook()::{lambda(EventResponder&)#1}::_FUN(EventResponder&)+0xa>
            {
                TeensyTimerTool::TCK_t::tick();
                r.triggerEvent();
    3410:	6833      	ldr	r3, [r6, #0]
    3412:	4a0e      	ldr	r2, [pc, #56]	; (344c <TeensyTimerTool::initYieldHook()::{lambda(EventResponder&)#1}::_FUN(EventResponder&)+0x58>)
    3414:	681b      	ldr	r3, [r3, #0]
    3416:	4293      	cmp	r3, r2
    3418:	d10a      	bne.n	3430 <TeensyTimerTool::initYieldHook()::{lambda(EventResponder&)#1}::_FUN(EventResponder&)+0x3c>
	// The code triggering the event does NOT control which of the above
	// response methods will be used.
	virtual void triggerEvent(int status=0, void *data=nullptr) {
		_status = status;
		_data = data;
		if (_type == EventTypeImmediate) {
    341a:	7f32      	ldrb	r2, [r6, #28]

	// Trigger the event.  An optional status code and data may be provided.
	// The code triggering the event does NOT control which of the above
	// response methods will be used.
	virtual void triggerEvent(int status=0, void *data=nullptr) {
		_status = status;
    341c:	2300      	movs	r3, #0
		_data = data;
		if (_type == EventTypeImmediate) {
    341e:	2a02      	cmp	r2, #2

	// Trigger the event.  An optional status code and data may be provided.
	// The code triggering the event does NOT control which of the above
	// response methods will be used.
	virtual void triggerEvent(int status=0, void *data=nullptr) {
		_status = status;
    3420:	6073      	str	r3, [r6, #4]
		_data = data;
    3422:	60f3      	str	r3, [r6, #12]
		if (_type == EventTypeImmediate) {
    3424:	d00a      	beq.n	343c <TeensyTimerTool::initYieldHook()::{lambda(EventResponder&)#1}::_FUN(EventResponder&)+0x48>
			(*_function)(*this);
		} else {
			triggerEventNotImmediate();
    3426:	4630      	mov	r0, r6
            });
    3428:	e8bd 4070 	ldmia.w	sp!, {r4, r5, r6, lr}
    342c:	f001 ba2a 	b.w	4884 <EventResponder::triggerEventNotImmediate()>
        void initYieldHook()
        {
            er.attach([](EventResponderRef r)
            {
                TeensyTimerTool::TCK_t::tick();
                r.triggerEvent();
    3430:	2200      	movs	r2, #0
    3432:	4630      	mov	r0, r6
    3434:	4611      	mov	r1, r2
            });
    3436:	e8bd 4070 	ldmia.w	sp!, {r4, r5, r6, lr}
        void initYieldHook()
        {
            er.attach([](EventResponderRef r)
            {
                TeensyTimerTool::TCK_t::tick();
                r.triggerEvent();
    343a:	4718      	bx	r3
	// response methods will be used.
	virtual void triggerEvent(int status=0, void *data=nullptr) {
		_status = status;
		_data = data;
		if (_type == EventTypeImmediate) {
			(*_function)(*this);
    343c:	68b3      	ldr	r3, [r6, #8]
    343e:	4630      	mov	r0, r6
            });
    3440:	e8bd 4070 	ldmia.w	sp!, {r4, r5, r6, lr}
    3444:	4718      	bx	r3
    3446:	bf00      	nop
    3448:	20001a30 	.word	0x20001a30
    344c:	000033d9 	.word	0x000033d9

00003450 <TeensyTimerTool::initYieldHook()>:
    namespace TeensyTimerTool
    {
        static EventResponder er;

        void initYieldHook()
        {
    3450:	b570      	push	{r4, r5, r6, lr}
	static EventResponder *lastInterrupt;
	static bool runningFromYield;
private:
	static bool disableInterrupts() {
		uint32_t primask;
		__asm__ volatile("mrs %0, primask\n" : "=r" (primask)::);
    3452:	f3ef 8510 	mrs	r5, PRIMASK
		__disable_irq();
    3456:	b672      	cpsid	i
	// Attach a function to be called from yield().  This should be the
	// default way to use EventResponder.  Calls from yield() allow use
	// of Arduino libraries, String, Serial, etc.
	void attach(EventResponderFunction function, uint8_t priority=128) {
		bool irq = disableInterrupts();
		detachNoInterrupts();
    3458:	4c12      	ldr	r4, [pc, #72]	; (34a4 <TeensyTimerTool::initYieldHook()+0x54>)
    345a:	4620      	mov	r0, r4
    345c:	f001 fa74 	bl	4948 <EventResponder::detachNoInterrupts()>
		_function = function;
		_type = EventTypeYield;
		yield_active_check_flags |= YIELD_CHECK_EVENT_RESPONDER; // user setup a yield type...
    3460:	4a11      	ldr	r2, [pc, #68]	; (34a8 <TeensyTimerTool::initYieldHook()+0x58>)
	// default way to use EventResponder.  Calls from yield() allow use
	// of Arduino libraries, String, Serial, etc.
	void attach(EventResponderFunction function, uint8_t priority=128) {
		bool irq = disableInterrupts();
		detachNoInterrupts();
		_function = function;
    3462:	4812      	ldr	r0, [pc, #72]	; (34ac <TeensyTimerTool::initYieldHook()+0x5c>)
		_type = EventTypeYield;
    3464:	2101      	movs	r1, #1
		yield_active_check_flags |= YIELD_CHECK_EVENT_RESPONDER; // user setup a yield type...
    3466:	7813      	ldrb	r3, [r2, #0]
	// default way to use EventResponder.  Calls from yield() allow use
	// of Arduino libraries, String, Serial, etc.
	void attach(EventResponderFunction function, uint8_t priority=128) {
		bool irq = disableInterrupts();
		detachNoInterrupts();
		_function = function;
    3468:	60a0      	str	r0, [r4, #8]
		_type = EventTypeYield;
		yield_active_check_flags |= YIELD_CHECK_EVENT_RESPONDER; // user setup a yield type...
    346a:	f043 0304 	orr.w	r3, r3, #4
	// of Arduino libraries, String, Serial, etc.
	void attach(EventResponderFunction function, uint8_t priority=128) {
		bool irq = disableInterrupts();
		detachNoInterrupts();
		_function = function;
		_type = EventTypeYield;
    346e:	7721      	strb	r1, [r4, #28]
		yield_active_check_flags |= YIELD_CHECK_EVENT_RESPONDER; // user setup a yield type...
    3470:	7013      	strb	r3, [r2, #0]
		__asm__ volatile("mrs %0, primask\n" : "=r" (primask)::);
		__disable_irq();
		return (primask == 0) ? true : false;
	}
	static void enableInterrupts(bool doit) {
		if (doit) __enable_irq();
    3472:	b955      	cbnz	r5, 348a <TeensyTimerTool::initYieldHook()+0x3a>
    3474:	b662      	cpsie	i
    3476:	7f23      	ldrb	r3, [r4, #28]

	// Trigger the event.  An optional status code and data may be provided.
	// The code triggering the event does NOT control which of the above
	// response methods will be used.
	virtual void triggerEvent(int status=0, void *data=nullptr) {
		_status = status;
    3478:	6065      	str	r5, [r4, #4]
		_data = data;
		if (_type == EventTypeImmediate) {
    347a:	2b02      	cmp	r3, #2
	// Trigger the event.  An optional status code and data may be provided.
	// The code triggering the event does NOT control which of the above
	// response methods will be used.
	virtual void triggerEvent(int status=0, void *data=nullptr) {
		_status = status;
		_data = data;
    347c:	60e5      	str	r5, [r4, #12]
		if (_type == EventTypeImmediate) {
    347e:	d00c      	beq.n	349a <TeensyTimerTool::initYieldHook()+0x4a>
			(*_function)(*this);
		} else {
			triggerEventNotImmediate();
    3480:	4808      	ldr	r0, [pc, #32]	; (34a4 <TeensyTimerTool::initYieldHook()+0x54>)
            {
                TeensyTimerTool::TCK_t::tick();
                r.triggerEvent();
            });
            er.triggerEvent();
        }
    3482:	e8bd 4070 	ldmia.w	sp!, {r4, r5, r6, lr}
    3486:	f001 b9fd 	b.w	4884 <EventResponder::triggerEventNotImmediate()>

	// Trigger the event.  An optional status code and data may be provided.
	// The code triggering the event does NOT control which of the above
	// response methods will be used.
	virtual void triggerEvent(int status=0, void *data=nullptr) {
		_status = status;
    348a:	2300      	movs	r3, #0
		_data = data;
		if (_type == EventTypeImmediate) {
			(*_function)(*this);
		} else {
			triggerEventNotImmediate();
    348c:	4805      	ldr	r0, [pc, #20]	; (34a4 <TeensyTimerTool::initYieldHook()+0x54>)

	// Trigger the event.  An optional status code and data may be provided.
	// The code triggering the event does NOT control which of the above
	// response methods will be used.
	virtual void triggerEvent(int status=0, void *data=nullptr) {
		_status = status;
    348e:	6063      	str	r3, [r4, #4]
		_data = data;
    3490:	60e3      	str	r3, [r4, #12]
    3492:	e8bd 4070 	ldmia.w	sp!, {r4, r5, r6, lr}
		if (_type == EventTypeImmediate) {
			(*_function)(*this);
		} else {
			triggerEventNotImmediate();
    3496:	f001 b9f5 	b.w	4884 <EventResponder::triggerEventNotImmediate()>
	// response methods will be used.
	virtual void triggerEvent(int status=0, void *data=nullptr) {
		_status = status;
		_data = data;
		if (_type == EventTypeImmediate) {
			(*_function)(*this);
    349a:	68a3      	ldr	r3, [r4, #8]
    349c:	4620      	mov	r0, r4
    349e:	e8bd 4070 	ldmia.w	sp!, {r4, r5, r6, lr}
    34a2:	4718      	bx	r3
    34a4:	200006b4 	.word	0x200006b4
    34a8:	2000070a 	.word	0x2000070a
    34ac:	000033f5 	.word	0x000033f5

000034b0 <_GLOBAL__sub_I__ZN15TeensyTimerTool5TCK_t13isInitializedE>:

    #include "EventResponder.h"

    namespace TeensyTimerTool
    {
        static EventResponder er;
    34b0:	4a02      	ldr	r2, [pc, #8]	; (34bc <_GLOBAL__sub_I__ZN15TeensyTimerTool5TCK_t13isInitializedE+0xc>)
    34b2:	4903      	ldr	r1, [pc, #12]	; (34c0 <_GLOBAL__sub_I__ZN15TeensyTimerTool5TCK_t13isInitializedE+0x10>)
    34b4:	4803      	ldr	r0, [pc, #12]	; (34c4 <_GLOBAL__sub_I__ZN15TeensyTimerTool5TCK_t13isInitializedE+0x14>)
    34b6:	f001 be57 	b.w	5168 <__aeabi_atexit>
    34ba:	bf00      	nop
    34bc:	2000069c 	.word	0x2000069c
    34c0:	000033b9 	.word	0x000033b9
    34c4:	200006b4 	.word	0x200006b4

000034c8 <set_arm_clock>:
	uint32_t cbcmr = CCM_CBCMR; // pg 1023
	uint32_t dcdc = DCDC_REG3;

	// compute required voltage
	uint32_t voltage = 1150; // default = 1.15V
	if (frequency > 528000000) {
    34c8:	4a95      	ldr	r2, [pc, #596]	; (3720 <set_arm_clock+0x258>)
//  CCM_CBCDR  AHB_PODF
//  CCM_CBCDR  SEMC_PODF

uint32_t set_arm_clock(uint32_t frequency)
{
	uint32_t cbcdr = CCM_CBCDR; // pg 1021
    34ca:	4b96      	ldr	r3, [pc, #600]	; (3724 <set_arm_clock+0x25c>)
	uint32_t cbcmr = CCM_CBCMR; // pg 1023
	uint32_t dcdc = DCDC_REG3;

	// compute required voltage
	uint32_t voltage = 1150; // default = 1.15V
	if (frequency > 528000000) {
    34cc:	4290      	cmp	r0, r2
//  CCM_CBCMR  PERIPH2_CLK_SEL
//  CCM_CBCDR  AHB_PODF
//  CCM_CBCDR  SEMC_PODF

uint32_t set_arm_clock(uint32_t frequency)
{
    34ce:	e92d 43f0 	stmdb	sp!, {r4, r5, r6, r7, r8, r9, lr}
	uint32_t cbcdr = CCM_CBCDR; // pg 1021
	uint32_t cbcmr = CCM_CBCMR; // pg 1023
	uint32_t dcdc = DCDC_REG3;
    34d2:	4c95      	ldr	r4, [pc, #596]	; (3728 <set_arm_clock+0x260>)
//  CCM_CBCDR  AHB_PODF
//  CCM_CBCDR  SEMC_PODF

uint32_t set_arm_clock(uint32_t frequency)
{
	uint32_t cbcdr = CCM_CBCDR; // pg 1021
    34d4:	f8d3 e014 	ldr.w	lr, [r3, #20]
	uint32_t cbcmr = CCM_CBCMR; // pg 1023
    34d8:	6999      	ldr	r1, [r3, #24]
	uint32_t dcdc = DCDC_REG3;
    34da:	68e6      	ldr	r6, [r4, #12]

	// compute required voltage
	uint32_t voltage = 1150; // default = 1.15V
	if (frequency > 528000000) {
    34dc:	d91c      	bls.n	3518 <set_arm_clock+0x50>
		voltage = 1250; // 1.25V
#if defined(OVERCLOCK_STEPSIZE) && defined(OVERCLOCK_MAX_VOLT)
		if (frequency > 600000000) {
    34de:	4b93      	ldr	r3, [pc, #588]	; (372c <set_arm_clock+0x264>)
    34e0:	4298      	cmp	r0, r3
    34e2:	f240 8113 	bls.w	370c <set_arm_clock+0x244>
			voltage += ((frequency - 600000000) / OVERCLOCK_STEPSIZE) * 25;
    34e6:	4b92      	ldr	r3, [pc, #584]	; (3730 <set_arm_clock+0x268>)
    34e8:	f240 6527 	movw	r5, #1575	; 0x627
    34ec:	4f91      	ldr	r7, [pc, #580]	; (3734 <set_arm_clock+0x26c>)
    34ee:	4403      	add	r3, r0
    34f0:	4c91      	ldr	r4, [pc, #580]	; (3738 <set_arm_clock+0x270>)
    34f2:	0a1a      	lsrs	r2, r3, #8
    34f4:	fba7 3202 	umull	r3, r2, r7, r2
    34f8:	09d3      	lsrs	r3, r2, #7
    34fa:	eb03 0383 	add.w	r3, r3, r3, lsl #2
    34fe:	eb03 0283 	add.w	r2, r3, r3, lsl #2
    3502:	f202 43e2 	addw	r3, r2, #1250	; 0x4e2
    3506:	42ab      	cmp	r3, r5
    3508:	bf28      	it	cs
    350a:	462b      	movcs	r3, r5
    350c:	f5a3 7348 	sub.w	r3, r3, #800	; 0x320
    3510:	fba4 3503 	umull	r3, r5, r4, r3
    3514:	08ed      	lsrs	r5, r5, #3
    3516:	e004      	b.n	3522 <set_arm_clock+0x5a>
			if (voltage > OVERCLOCK_MAX_VOLT) voltage = OVERCLOCK_MAX_VOLT;
		}
#endif
	} else if (frequency <= 24000000) {
    3518:	4d88      	ldr	r5, [pc, #544]	; (373c <set_arm_clock+0x274>)
    351a:	42a8      	cmp	r0, r5
    351c:	bf94      	ite	ls
    351e:	2506      	movls	r5, #6
    3520:	250e      	movhi	r5, #14
		voltage = 950; // 0.95
	}

	// if voltage needs to increase, do it before switch clock speed
	CCM_CCGR6 |= CCM_CCGR6_DCDC(CCM_CCGR_ON);
    3522:	4a80      	ldr	r2, [pc, #512]	; (3724 <set_arm_clock+0x25c>)
	if ((dcdc & DCDC_REG3_TRG_MASK) < DCDC_REG3_TRG((voltage - 800) / 25)) {
    3524:	f006 071f 	and.w	r7, r6, #31
	} else if (frequency <= 24000000) {
		voltage = 950; // 0.95
	}

	// if voltage needs to increase, do it before switch clock speed
	CCM_CCGR6 |= CCM_CCGR6_DCDC(CCM_CCGR_ON);
    3528:	f8d2 3080 	ldr.w	r3, [r2, #128]	; 0x80
	if ((dcdc & DCDC_REG3_TRG_MASK) < DCDC_REG3_TRG((voltage - 800) / 25)) {
    352c:	42af      	cmp	r7, r5
	} else if (frequency <= 24000000) {
		voltage = 950; // 0.95
	}

	// if voltage needs to increase, do it before switch clock speed
	CCM_CCGR6 |= CCM_CCGR6_DCDC(CCM_CCGR_ON);
    352e:	f043 03c0 	orr.w	r3, r3, #192	; 0xc0
    3532:	f8c2 3080 	str.w	r3, [r2, #128]	; 0x80
	if ((dcdc & DCDC_REG3_TRG_MASK) < DCDC_REG3_TRG((voltage - 800) / 25)) {
    3536:	d20a      	bcs.n	354e <set_arm_clock+0x86>
		printf("Increasing voltage to %u mV\n", voltage);
		dcdc &= ~DCDC_REG3_TRG_MASK;
		dcdc |= DCDC_REG3_TRG((voltage - 800) / 25);
		DCDC_REG3 = dcdc;
    3538:	4b7b      	ldr	r3, [pc, #492]	; (3728 <set_arm_clock+0x260>)

	// if voltage needs to increase, do it before switch clock speed
	CCM_CCGR6 |= CCM_CCGR6_DCDC(CCM_CCGR_ON);
	if ((dcdc & DCDC_REG3_TRG_MASK) < DCDC_REG3_TRG((voltage - 800) / 25)) {
		printf("Increasing voltage to %u mV\n", voltage);
		dcdc &= ~DCDC_REG3_TRG_MASK;
    353a:	f026 061f 	bic.w	r6, r6, #31
		dcdc |= DCDC_REG3_TRG((voltage - 800) / 25);
		DCDC_REG3 = dcdc;
		while (!(DCDC_REG0 & DCDC_REG0_STS_DC_OK)) ; // wait voltage settling
    353e:	461a      	mov	r2, r3
	// if voltage needs to increase, do it before switch clock speed
	CCM_CCGR6 |= CCM_CCGR6_DCDC(CCM_CCGR_ON);
	if ((dcdc & DCDC_REG3_TRG_MASK) < DCDC_REG3_TRG((voltage - 800) / 25)) {
		printf("Increasing voltage to %u mV\n", voltage);
		dcdc &= ~DCDC_REG3_TRG_MASK;
		dcdc |= DCDC_REG3_TRG((voltage - 800) / 25);
    3540:	432e      	orrs	r6, r5
		DCDC_REG3 = dcdc;
    3542:	60de      	str	r6, [r3, #12]
		while (!(DCDC_REG0 & DCDC_REG0_STS_DC_OK)) ; // wait voltage settling
    3544:	6813      	ldr	r3, [r2, #0]
    3546:	2b00      	cmp	r3, #0
    3548:	dafc      	bge.n	3544 <set_arm_clock+0x7c>
    354a:	f006 071f 	and.w	r7, r6, #31
	}

	if (!(cbcdr & CCM_CBCDR_PERIPH_CLK_SEL)) {
    354e:	f01e 7300 	ands.w	r3, lr, #33554432	; 0x2000000
    3552:	d12f      	bne.n	35b4 <set_arm_clock+0xec>
		printf("need to switch to alternate clock during reconfigure of ARM PLL\n");
		const uint32_t need1s = CCM_ANALOG_PLL_USB1_ENABLE | CCM_ANALOG_PLL_USB1_POWER |
			CCM_ANALOG_PLL_USB1_LOCK | CCM_ANALOG_PLL_USB1_EN_USB_CLKS;
		uint32_t sel, div;
		if ((CCM_ANALOG_PLL_USB1 & need1s) == need1s) {
    3554:	4c7a      	ldr	r4, [pc, #488]	; (3740 <set_arm_clock+0x278>)
    3556:	4a7b      	ldr	r2, [pc, #492]	; (3744 <set_arm_clock+0x27c>)
    3558:	f8d4 c010 	ldr.w	ip, [r4, #16]
    355c:	4614      	mov	r4, r2
    355e:	ea0c 0202 	and.w	r2, ip, r2
    3562:	42a2      	cmp	r2, r4
    3564:	bf0a      	itet	eq
    3566:	f04f 53c0 	moveq.w	r3, #402653184	; 0x18000000
    356a:	f44f 5280 	movne.w	r2, #4096	; 0x1000
    356e:	2200      	moveq	r2, #0
		} else {
			printf("USB PLL is off, use 24 MHz crystal\n");
			sel = 1;
			div = 0;
		}
		if ((cbcdr & CCM_CBCDR_PERIPH_CLK2_PODF_MASK) != CCM_CBCDR_PERIPH_CLK2_PODF(div)) {
    3570:	ea8e 0403 	eor.w	r4, lr, r3
    3574:	f014 5f60 	tst.w	r4, #939524096	; 0x38000000
    3578:	d006      	beq.n	3588 <set_arm_clock+0xc0>
			// PERIPH_CLK2 divider needs to be changed
			cbcdr &= ~CCM_CBCDR_PERIPH_CLK2_PODF_MASK;
    357a:	f02e 5e60 	bic.w	lr, lr, #939524096	; 0x38000000
			cbcdr |= CCM_CBCDR_PERIPH_CLK2_PODF(div);
			CCM_CBCDR = cbcdr;
    357e:	4c69      	ldr	r4, [pc, #420]	; (3724 <set_arm_clock+0x25c>)
			div = 0;
		}
		if ((cbcdr & CCM_CBCDR_PERIPH_CLK2_PODF_MASK) != CCM_CBCDR_PERIPH_CLK2_PODF(div)) {
			// PERIPH_CLK2 divider needs to be changed
			cbcdr &= ~CCM_CBCDR_PERIPH_CLK2_PODF_MASK;
			cbcdr |= CCM_CBCDR_PERIPH_CLK2_PODF(div);
    3580:	ea4e 0e03 	orr.w	lr, lr, r3
			CCM_CBCDR = cbcdr;
    3584:	f8c4 e014 	str.w	lr, [r4, #20]
		}
		if ((cbcmr & CCM_CBCMR_PERIPH_CLK2_SEL_MASK) != CCM_CBCMR_PERIPH_CLK2_SEL(sel)) {
    3588:	ea81 0302 	eor.w	r3, r1, r2
    358c:	f413 5f40 	tst.w	r3, #12288	; 0x3000
    3590:	d008      	beq.n	35a4 <set_arm_clock+0xdc>
			// PERIPH_CLK2 source select needs to be changed
			cbcmr &= ~CCM_CBCMR_PERIPH_CLK2_SEL_MASK;
			cbcmr |= CCM_CBCMR_PERIPH_CLK2_SEL(sel);
			CCM_CBCMR = cbcmr;
    3592:	4b64      	ldr	r3, [pc, #400]	; (3724 <set_arm_clock+0x25c>)
			cbcdr |= CCM_CBCDR_PERIPH_CLK2_PODF(div);
			CCM_CBCDR = cbcdr;
		}
		if ((cbcmr & CCM_CBCMR_PERIPH_CLK2_SEL_MASK) != CCM_CBCMR_PERIPH_CLK2_SEL(sel)) {
			// PERIPH_CLK2 source select needs to be changed
			cbcmr &= ~CCM_CBCMR_PERIPH_CLK2_SEL_MASK;
    3594:	f421 5140 	bic.w	r1, r1, #12288	; 0x3000
			cbcmr |= CCM_CBCMR_PERIPH_CLK2_SEL(sel);
    3598:	4311      	orrs	r1, r2
			CCM_CBCMR = cbcmr;
			while (CCM_CDHIPR & CCM_CDHIPR_PERIPH2_CLK_SEL_BUSY) ; // wait
    359a:	461a      	mov	r2, r3
		}
		if ((cbcmr & CCM_CBCMR_PERIPH_CLK2_SEL_MASK) != CCM_CBCMR_PERIPH_CLK2_SEL(sel)) {
			// PERIPH_CLK2 source select needs to be changed
			cbcmr &= ~CCM_CBCMR_PERIPH_CLK2_SEL_MASK;
			cbcmr |= CCM_CBCMR_PERIPH_CLK2_SEL(sel);
			CCM_CBCMR = cbcmr;
    359c:	6199      	str	r1, [r3, #24]
			while (CCM_CDHIPR & CCM_CDHIPR_PERIPH2_CLK_SEL_BUSY) ; // wait
    359e:	6c93      	ldr	r3, [r2, #72]	; 0x48
    35a0:	071c      	lsls	r4, r3, #28
    35a2:	d4fc      	bmi.n	359e <set_arm_clock+0xd6>
		}
		// switch over to PERIPH_CLK2
		cbcdr |= CCM_CBCDR_PERIPH_CLK_SEL;
    35a4:	f04e 7e00 	orr.w	lr, lr, #33554432	; 0x2000000
		CCM_CBCDR = cbcdr;
    35a8:	4a5e      	ldr	r2, [pc, #376]	; (3724 <set_arm_clock+0x25c>)
    35aa:	f8c2 e014 	str.w	lr, [r2, #20]
		while (CCM_CDHIPR & CCM_CDHIPR_PERIPH_CLK_SEL_BUSY) ; // wait
    35ae:	6c93      	ldr	r3, [r2, #72]	; 0x48
    35b0:	0699      	lsls	r1, r3, #26
    35b2:	d4fc      	bmi.n	35ae <set_arm_clock+0xe6>

	// TODO: check if PLL2 running, can 352, 396 or 528 can work? (no need for ARM PLL)

	// DIV_SELECT: 54-108 = official range 648 to 1296 in 12 MHz steps
	uint32_t div_arm = 1;
	uint32_t div_ahb = 1;
    35b4:	2101      	movs	r1, #1
	while (frequency * div_arm * div_ahb < 648000000) {
    35b6:	4c64      	ldr	r4, [pc, #400]	; (3748 <set_arm_clock+0x280>)
	}

	// TODO: check if PLL2 running, can 352, 396 or 528 can work? (no need for ARM PLL)

	// DIV_SELECT: 54-108 = official range 648 to 1296 in 12 MHz steps
	uint32_t div_arm = 1;
    35b8:	460a      	mov	r2, r1
	uint32_t div_ahb = 1;
	while (frequency * div_arm * div_ahb < 648000000) {
    35ba:	fb01 f302 	mul.w	r3, r1, r2
    35be:	fb00 f303 	mul.w	r3, r0, r3
    35c2:	42a3      	cmp	r3, r4
    35c4:	d809      	bhi.n	35da <set_arm_clock+0x112>
		if (div_arm < 8) {
    35c6:	2a07      	cmp	r2, #7
    35c8:	f200 8095 	bhi.w	36f6 <set_arm_clock+0x22e>
			div_arm = div_arm + 1;
    35cc:	3201      	adds	r2, #1
	// TODO: check if PLL2 running, can 352, 396 or 528 can work? (no need for ARM PLL)

	// DIV_SELECT: 54-108 = official range 648 to 1296 in 12 MHz steps
	uint32_t div_arm = 1;
	uint32_t div_ahb = 1;
	while (frequency * div_arm * div_ahb < 648000000) {
    35ce:	fb01 f302 	mul.w	r3, r1, r2
    35d2:	fb00 f303 	mul.w	r3, r0, r3
    35d6:	42a3      	cmp	r3, r4
    35d8:	d9f5      	bls.n	35c6 <set_arm_clock+0xfe>
			} else {
				break;
			}
		}
	}
	uint32_t mult = (frequency * div_arm * div_ahb + 6000000) / 12000000;
    35da:	485c      	ldr	r0, [pc, #368]	; (374c <set_arm_clock+0x284>)
    35dc:	4c5c      	ldr	r4, [pc, #368]	; (3750 <set_arm_clock+0x288>)
    35de:	4418      	add	r0, r3
    35e0:	fba4 0300 	umull	r0, r3, r4, r0
    35e4:	0d1b      	lsrs	r3, r3, #20
	if (mult > 108) mult = 108;
    35e6:	2b6c      	cmp	r3, #108	; 0x6c
    35e8:	f200 808b 	bhi.w	3702 <set_arm_clock+0x23a>
	if (mult < 54) mult = 54;
    35ec:	2b35      	cmp	r3, #53	; 0x35
    35ee:	f200 808f 	bhi.w	3710 <set_arm_clock+0x248>
    35f2:	f8df 8188 	ldr.w	r8, [pc, #392]	; 377c <set_arm_clock+0x2b4>
    35f6:	2336      	movs	r3, #54	; 0x36
    35f8:	4856      	ldr	r0, [pc, #344]	; (3754 <set_arm_clock+0x28c>)

	printf("ARM PLL=%x\n", CCM_ANALOG_PLL_ARM);
	const uint32_t arm_pll_mask = CCM_ANALOG_PLL_ARM_LOCK | CCM_ANALOG_PLL_ARM_BYPASS |
		CCM_ANALOG_PLL_ARM_ENABLE | CCM_ANALOG_PLL_ARM_POWERDOWN |
		CCM_ANALOG_PLL_ARM_DIV_SELECT_MASK;
	if ((CCM_ANALOG_PLL_ARM & arm_pll_mask) != (CCM_ANALOG_PLL_ARM_LOCK
    35fa:	f8df c144 	ldr.w	ip, [pc, #324]	; 3740 <set_arm_clock+0x278>
    35fe:	4c56      	ldr	r4, [pc, #344]	; (3758 <set_arm_clock+0x290>)
    3600:	f8dc 9000 	ldr.w	r9, [ip]
	}
	uint32_t mult = (frequency * div_arm * div_ahb + 6000000) / 12000000;
	if (mult > 108) mult = 108;
	if (mult < 54) mult = 54;
	printf("Freq: 12 MHz * %u / %u / %u\n", mult, div_arm, div_ahb);
	frequency = mult * 12000000 / div_arm / div_ahb;
    3604:	fbb0 f0f2 	udiv	r0, r0, r2

	printf("ARM PLL=%x\n", CCM_ANALOG_PLL_ARM);
	const uint32_t arm_pll_mask = CCM_ANALOG_PLL_ARM_LOCK | CCM_ANALOG_PLL_ARM_BYPASS |
		CCM_ANALOG_PLL_ARM_ENABLE | CCM_ANALOG_PLL_ARM_POWERDOWN |
		CCM_ANALOG_PLL_ARM_DIV_SELECT_MASK;
	if ((CCM_ANALOG_PLL_ARM & arm_pll_mask) != (CCM_ANALOG_PLL_ARM_LOCK
    3608:	ea09 0404 	and.w	r4, r9, r4
    360c:	4544      	cmp	r4, r8
	}
	uint32_t mult = (frequency * div_arm * div_ahb + 6000000) / 12000000;
	if (mult > 108) mult = 108;
	if (mult < 54) mult = 54;
	printf("Freq: 12 MHz * %u / %u / %u\n", mult, div_arm, div_ahb);
	frequency = mult * 12000000 / div_arm / div_ahb;
    360e:	fbb0 f0f1 	udiv	r0, r0, r1

	printf("ARM PLL=%x\n", CCM_ANALOG_PLL_ARM);
	const uint32_t arm_pll_mask = CCM_ANALOG_PLL_ARM_LOCK | CCM_ANALOG_PLL_ARM_BYPASS |
		CCM_ANALOG_PLL_ARM_ENABLE | CCM_ANALOG_PLL_ARM_POWERDOWN |
		CCM_ANALOG_PLL_ARM_DIV_SELECT_MASK;
	if ((CCM_ANALOG_PLL_ARM & arm_pll_mask) != (CCM_ANALOG_PLL_ARM_LOCK
    3612:	d00b      	beq.n	362c <set_arm_clock+0x164>
	  | CCM_ANALOG_PLL_ARM_ENABLE | CCM_ANALOG_PLL_ARM_DIV_SELECT(mult))) {
		printf("ARM PLL needs reconfigure\n");
		CCM_ANALOG_PLL_ARM = CCM_ANALOG_PLL_ARM_POWERDOWN;
		// TODO: delay needed?
		CCM_ANALOG_PLL_ARM = CCM_ANALOG_PLL_ARM_ENABLE
			| CCM_ANALOG_PLL_ARM_DIV_SELECT(mult);
    3614:	f443 5300 	orr.w	r3, r3, #8192	; 0x2000
		CCM_ANALOG_PLL_ARM_ENABLE | CCM_ANALOG_PLL_ARM_POWERDOWN |
		CCM_ANALOG_PLL_ARM_DIV_SELECT_MASK;
	if ((CCM_ANALOG_PLL_ARM & arm_pll_mask) != (CCM_ANALOG_PLL_ARM_LOCK
	  | CCM_ANALOG_PLL_ARM_ENABLE | CCM_ANALOG_PLL_ARM_DIV_SELECT(mult))) {
		printf("ARM PLL needs reconfigure\n");
		CCM_ANALOG_PLL_ARM = CCM_ANALOG_PLL_ARM_POWERDOWN;
    3618:	f44f 5880 	mov.w	r8, #4096	; 0x1000
		// TODO: delay needed?
		CCM_ANALOG_PLL_ARM = CCM_ANALOG_PLL_ARM_ENABLE
			| CCM_ANALOG_PLL_ARM_DIV_SELECT(mult);
		while (!(CCM_ANALOG_PLL_ARM & CCM_ANALOG_PLL_ARM_LOCK)) ; // wait for lock
    361c:	4664      	mov	r4, ip
		CCM_ANALOG_PLL_ARM_ENABLE | CCM_ANALOG_PLL_ARM_POWERDOWN |
		CCM_ANALOG_PLL_ARM_DIV_SELECT_MASK;
	if ((CCM_ANALOG_PLL_ARM & arm_pll_mask) != (CCM_ANALOG_PLL_ARM_LOCK
	  | CCM_ANALOG_PLL_ARM_ENABLE | CCM_ANALOG_PLL_ARM_DIV_SELECT(mult))) {
		printf("ARM PLL needs reconfigure\n");
		CCM_ANALOG_PLL_ARM = CCM_ANALOG_PLL_ARM_POWERDOWN;
    361e:	f8cc 8000 	str.w	r8, [ip]
		// TODO: delay needed?
		CCM_ANALOG_PLL_ARM = CCM_ANALOG_PLL_ARM_ENABLE
    3622:	f8cc 3000 	str.w	r3, [ip]
			| CCM_ANALOG_PLL_ARM_DIV_SELECT(mult);
		while (!(CCM_ANALOG_PLL_ARM & CCM_ANALOG_PLL_ARM_LOCK)) ; // wait for lock
    3626:	6823      	ldr	r3, [r4, #0]
    3628:	2b00      	cmp	r3, #0
    362a:	dafc      	bge.n	3626 <set_arm_clock+0x15e>
		printf("ARM PLL=%x\n", CCM_ANALOG_PLL_ARM);
	} else {
		printf("ARM PLL already running at required frequency\n");
	}

	if ((CCM_CACRR & CCM_CACRR_ARM_PODF_MASK) != (div_arm - 1)) {
    362c:	f8df c0f4 	ldr.w	ip, [pc, #244]	; 3724 <set_arm_clock+0x25c>
    3630:	3a01      	subs	r2, #1
    3632:	f8dc 3010 	ldr.w	r3, [ip, #16]
    3636:	f003 0307 	and.w	r3, r3, #7
    363a:	4293      	cmp	r3, r2
    363c:	d007      	beq.n	364e <set_arm_clock+0x186>
		CCM_CACRR = CCM_CACRR_ARM_PODF(div_arm - 1);
    363e:	f002 0207 	and.w	r2, r2, #7
		while (CCM_CDHIPR & CCM_CDHIPR_ARM_PODF_BUSY) ; // wait
    3642:	4664      	mov	r4, ip
	} else {
		printf("ARM PLL already running at required frequency\n");
	}

	if ((CCM_CACRR & CCM_CACRR_ARM_PODF_MASK) != (div_arm - 1)) {
		CCM_CACRR = CCM_CACRR_ARM_PODF(div_arm - 1);
    3644:	f8cc 2010 	str.w	r2, [ip, #16]
		while (CCM_CDHIPR & CCM_CDHIPR_ARM_PODF_BUSY) ; // wait
    3648:	6ca3      	ldr	r3, [r4, #72]	; 0x48
    364a:	03db      	lsls	r3, r3, #15
    364c:	d4fc      	bmi.n	3648 <set_arm_clock+0x180>
	}

	if ((cbcdr & CCM_CBCDR_AHB_PODF_MASK) != CCM_CBCDR_AHB_PODF(div_ahb - 1)) {
    364e:	3901      	subs	r1, #1
    3650:	0289      	lsls	r1, r1, #10
    3652:	ea8e 0301 	eor.w	r3, lr, r1
    3656:	f413 5fe0 	tst.w	r3, #7168	; 0x1c00
    365a:	d00c      	beq.n	3676 <set_arm_clock+0x1ae>
		cbcdr &= ~CCM_CBCDR_AHB_PODF_MASK;
		cbcdr |= CCM_CBCDR_AHB_PODF(div_ahb - 1);
		CCM_CBCDR = cbcdr;
    365c:	4b31      	ldr	r3, [pc, #196]	; (3724 <set_arm_clock+0x25c>)
		CCM_CACRR = CCM_CACRR_ARM_PODF(div_arm - 1);
		while (CCM_CDHIPR & CCM_CDHIPR_ARM_PODF_BUSY) ; // wait
	}

	if ((cbcdr & CCM_CBCDR_AHB_PODF_MASK) != CCM_CBCDR_AHB_PODF(div_ahb - 1)) {
		cbcdr &= ~CCM_CBCDR_AHB_PODF_MASK;
    365e:	f42e 5ee0 	bic.w	lr, lr, #7168	; 0x1c00
		cbcdr |= CCM_CBCDR_AHB_PODF(div_ahb - 1);
    3662:	f401 51e0 	and.w	r1, r1, #7168	; 0x1c00
		CCM_CBCDR = cbcdr;
		while (CCM_CDHIPR & CCM_CDHIPR_AHB_PODF_BUSY); // wait
    3666:	461a      	mov	r2, r3
		while (CCM_CDHIPR & CCM_CDHIPR_ARM_PODF_BUSY) ; // wait
	}

	if ((cbcdr & CCM_CBCDR_AHB_PODF_MASK) != CCM_CBCDR_AHB_PODF(div_ahb - 1)) {
		cbcdr &= ~CCM_CBCDR_AHB_PODF_MASK;
		cbcdr |= CCM_CBCDR_AHB_PODF(div_ahb - 1);
    3668:	ea41 0e0e 	orr.w	lr, r1, lr
		CCM_CBCDR = cbcdr;
    366c:	f8c3 e014 	str.w	lr, [r3, #20]
		while (CCM_CDHIPR & CCM_CDHIPR_AHB_PODF_BUSY); // wait
    3670:	6c93      	ldr	r3, [r2, #72]	; 0x48
    3672:	0799      	lsls	r1, r3, #30
    3674:	d4fc      	bmi.n	3670 <set_arm_clock+0x1a8>
	}

	uint32_t div_ipg = (frequency + 149999999) / 150000000;
    3676:	4b39      	ldr	r3, [pc, #228]	; (375c <set_arm_clock+0x294>)
    3678:	4939      	ldr	r1, [pc, #228]	; (3760 <set_arm_clock+0x298>)
    367a:	4403      	add	r3, r0
    367c:	09db      	lsrs	r3, r3, #7
    367e:	fba1 3103 	umull	r3, r1, r1, r3
    3682:	0b09      	lsrs	r1, r1, #12
    3684:	2904      	cmp	r1, #4
    3686:	bf28      	it	cs
    3688:	2104      	movcs	r1, #4
	if (div_ipg > 4) div_ipg = 4;
	if ((cbcdr & CCM_CBCDR_IPG_PODF_MASK) != (CCM_CBCDR_IPG_PODF(div_ipg - 1))) {
    368a:	1e4b      	subs	r3, r1, #1
    368c:	021b      	lsls	r3, r3, #8
    368e:	ea8e 0203 	eor.w	r2, lr, r3
    3692:	f412 7f40 	tst.w	r2, #768	; 0x300
    3696:	d007      	beq.n	36a8 <set_arm_clock+0x1e0>
		cbcdr &= ~CCM_CBCDR_IPG_PODF_MASK;
    3698:	f42e 7e40 	bic.w	lr, lr, #768	; 0x300
		cbcdr |= CCM_CBCDR_IPG_PODF(div_ipg - 1);
    369c:	f403 7340 	and.w	r3, r3, #768	; 0x300
		// TODO: how to safely change IPG_PODF ??
		CCM_CBCDR = cbcdr;
    36a0:	4a20      	ldr	r2, [pc, #128]	; (3724 <set_arm_clock+0x25c>)

	uint32_t div_ipg = (frequency + 149999999) / 150000000;
	if (div_ipg > 4) div_ipg = 4;
	if ((cbcdr & CCM_CBCDR_IPG_PODF_MASK) != (CCM_CBCDR_IPG_PODF(div_ipg - 1))) {
		cbcdr &= ~CCM_CBCDR_IPG_PODF_MASK;
		cbcdr |= CCM_CBCDR_IPG_PODF(div_ipg - 1);
    36a2:	ea43 030e 	orr.w	r3, r3, lr
		// TODO: how to safely change IPG_PODF ??
		CCM_CBCDR = cbcdr;
    36a6:	6153      	str	r3, [r2, #20]
	}

	//cbcdr &= ~CCM_CBCDR_PERIPH_CLK_SEL;
	//CCM_CBCDR = cbcdr;  // why does this not work at 24 MHz?
	CCM_CBCDR &= ~CCM_CBCDR_PERIPH_CLK_SEL;
    36a8:	4b1e      	ldr	r3, [pc, #120]	; (3724 <set_arm_clock+0x25c>)
    36aa:	695c      	ldr	r4, [r3, #20]
	while (CCM_CDHIPR & CCM_CDHIPR_PERIPH_CLK_SEL_BUSY) ; // wait
    36ac:	461a      	mov	r2, r3
		CCM_CBCDR = cbcdr;
	}

	//cbcdr &= ~CCM_CBCDR_PERIPH_CLK_SEL;
	//CCM_CBCDR = cbcdr;  // why does this not work at 24 MHz?
	CCM_CBCDR &= ~CCM_CBCDR_PERIPH_CLK_SEL;
    36ae:	f024 7400 	bic.w	r4, r4, #33554432	; 0x2000000
    36b2:	615c      	str	r4, [r3, #20]
	while (CCM_CDHIPR & CCM_CDHIPR_PERIPH_CLK_SEL_BUSY) ; // wait
    36b4:	6c93      	ldr	r3, [r2, #72]	; 0x48
    36b6:	069b      	lsls	r3, r3, #26
    36b8:	d4fc      	bmi.n	36b4 <set_arm_clock+0x1ec>

	F_CPU_ACTUAL = frequency;
	F_BUS_ACTUAL = frequency / div_ipg;
	scale_cpu_cycles_to_microseconds = 0xFFFFFFFFu / (uint32_t)(frequency / 1000000u);
    36ba:	4b2a      	ldr	r3, [pc, #168]	; (3764 <set_arm_clock+0x29c>)
    36bc:	f04f 32ff 	mov.w	r2, #4294967295
	//cbcdr &= ~CCM_CBCDR_PERIPH_CLK_SEL;
	//CCM_CBCDR = cbcdr;  // why does this not work at 24 MHz?
	CCM_CBCDR &= ~CCM_CBCDR_PERIPH_CLK_SEL;
	while (CCM_CDHIPR & CCM_CDHIPR_PERIPH_CLK_SEL_BUSY) ; // wait

	F_CPU_ACTUAL = frequency;
    36c0:	4c29      	ldr	r4, [pc, #164]	; (3768 <set_arm_clock+0x2a0>)
	scale_cpu_cycles_to_microseconds = 0xFFFFFFFFu / (uint32_t)(frequency / 1000000u);

	printf("New Frequency: ARM=%u, IPG=%u\n", frequency, frequency / div_ipg);

	// if voltage needs to decrease, do it after switch clock speed
	if ((dcdc & DCDC_REG3_TRG_MASK) > DCDC_REG3_TRG((voltage - 800) / 25)) {
    36c2:	42bd      	cmp	r5, r7
	CCM_CBCDR &= ~CCM_CBCDR_PERIPH_CLK_SEL;
	while (CCM_CDHIPR & CCM_CDHIPR_PERIPH_CLK_SEL_BUSY) ; // wait

	F_CPU_ACTUAL = frequency;
	F_BUS_ACTUAL = frequency / div_ipg;
	scale_cpu_cycles_to_microseconds = 0xFFFFFFFFu / (uint32_t)(frequency / 1000000u);
    36c4:	fba3 e300 	umull	lr, r3, r3, r0
	//cbcdr &= ~CCM_CBCDR_PERIPH_CLK_SEL;
	//CCM_CBCDR = cbcdr;  // why does this not work at 24 MHz?
	CCM_CBCDR &= ~CCM_CBCDR_PERIPH_CLK_SEL;
	while (CCM_CDHIPR & CCM_CDHIPR_PERIPH_CLK_SEL_BUSY) ; // wait

	F_CPU_ACTUAL = frequency;
    36c8:	6020      	str	r0, [r4, #0]
	F_BUS_ACTUAL = frequency / div_ipg;
	scale_cpu_cycles_to_microseconds = 0xFFFFFFFFu / (uint32_t)(frequency / 1000000u);
    36ca:	ea4f 4393 	mov.w	r3, r3, lsr #18
	//CCM_CBCDR = cbcdr;  // why does this not work at 24 MHz?
	CCM_CBCDR &= ~CCM_CBCDR_PERIPH_CLK_SEL;
	while (CCM_CDHIPR & CCM_CDHIPR_PERIPH_CLK_SEL_BUSY) ; // wait

	F_CPU_ACTUAL = frequency;
	F_BUS_ACTUAL = frequency / div_ipg;
    36ce:	4c27      	ldr	r4, [pc, #156]	; (376c <set_arm_clock+0x2a4>)
	scale_cpu_cycles_to_microseconds = 0xFFFFFFFFu / (uint32_t)(frequency / 1000000u);
    36d0:	fbb2 f3f3 	udiv	r3, r2, r3
	//CCM_CBCDR = cbcdr;  // why does this not work at 24 MHz?
	CCM_CBCDR &= ~CCM_CBCDR_PERIPH_CLK_SEL;
	while (CCM_CDHIPR & CCM_CDHIPR_PERIPH_CLK_SEL_BUSY) ; // wait

	F_CPU_ACTUAL = frequency;
	F_BUS_ACTUAL = frequency / div_ipg;
    36d4:	fbb0 f1f1 	udiv	r1, r0, r1
	scale_cpu_cycles_to_microseconds = 0xFFFFFFFFu / (uint32_t)(frequency / 1000000u);
    36d8:	4a25      	ldr	r2, [pc, #148]	; (3770 <set_arm_clock+0x2a8>)
	//CCM_CBCDR = cbcdr;  // why does this not work at 24 MHz?
	CCM_CBCDR &= ~CCM_CBCDR_PERIPH_CLK_SEL;
	while (CCM_CDHIPR & CCM_CDHIPR_PERIPH_CLK_SEL_BUSY) ; // wait

	F_CPU_ACTUAL = frequency;
	F_BUS_ACTUAL = frequency / div_ipg;
    36da:	6021      	str	r1, [r4, #0]
	scale_cpu_cycles_to_microseconds = 0xFFFFFFFFu / (uint32_t)(frequency / 1000000u);
    36dc:	6013      	str	r3, [r2, #0]

	printf("New Frequency: ARM=%u, IPG=%u\n", frequency, frequency / div_ipg);

	// if voltage needs to decrease, do it after switch clock speed
	if ((dcdc & DCDC_REG3_TRG_MASK) > DCDC_REG3_TRG((voltage - 800) / 25)) {
    36de:	d208      	bcs.n	36f2 <set_arm_clock+0x22a>
		printf("Decreasing voltage to %u mV\n", voltage);
		dcdc &= ~DCDC_REG3_TRG_MASK;
		dcdc |= DCDC_REG3_TRG((voltage - 800) / 25);
		DCDC_REG3 = dcdc;
    36e0:	4b11      	ldr	r3, [pc, #68]	; (3728 <set_arm_clock+0x260>)
	printf("New Frequency: ARM=%u, IPG=%u\n", frequency, frequency / div_ipg);

	// if voltage needs to decrease, do it after switch clock speed
	if ((dcdc & DCDC_REG3_TRG_MASK) > DCDC_REG3_TRG((voltage - 800) / 25)) {
		printf("Decreasing voltage to %u mV\n", voltage);
		dcdc &= ~DCDC_REG3_TRG_MASK;
    36e2:	f026 061f 	bic.w	r6, r6, #31
		dcdc |= DCDC_REG3_TRG((voltage - 800) / 25);
		DCDC_REG3 = dcdc;
		while (!(DCDC_REG0 & DCDC_REG0_STS_DC_OK)) ; // wait voltage settling
    36e6:	461a      	mov	r2, r3

	// if voltage needs to decrease, do it after switch clock speed
	if ((dcdc & DCDC_REG3_TRG_MASK) > DCDC_REG3_TRG((voltage - 800) / 25)) {
		printf("Decreasing voltage to %u mV\n", voltage);
		dcdc &= ~DCDC_REG3_TRG_MASK;
		dcdc |= DCDC_REG3_TRG((voltage - 800) / 25);
    36e8:	432e      	orrs	r6, r5
		DCDC_REG3 = dcdc;
    36ea:	60de      	str	r6, [r3, #12]
		while (!(DCDC_REG0 & DCDC_REG0_STS_DC_OK)) ; // wait voltage settling
    36ec:	6813      	ldr	r3, [r2, #0]
    36ee:	2b00      	cmp	r3, #0
    36f0:	dafc      	bge.n	36ec <set_arm_clock+0x224>
	}

	return frequency;
}
    36f2:	e8bd 83f0 	ldmia.w	sp!, {r4, r5, r6, r7, r8, r9, pc}
	uint32_t div_ahb = 1;
	while (frequency * div_arm * div_ahb < 648000000) {
		if (div_arm < 8) {
			div_arm = div_arm + 1;
		} else {
			if (div_ahb < 5) {
    36f6:	2904      	cmp	r1, #4
    36f8:	f63f af6f 	bhi.w	35da <set_arm_clock+0x112>
				div_ahb = div_ahb + 1;
    36fc:	3101      	adds	r1, #1
				div_arm = 1;
    36fe:	2201      	movs	r2, #1
    3700:	e75b      	b.n	35ba <set_arm_clock+0xf2>
    3702:	f8df 807c 	ldr.w	r8, [pc, #124]	; 3780 <set_arm_clock+0x2b8>
				break;
			}
		}
	}
	uint32_t mult = (frequency * div_arm * div_ahb + 6000000) / 12000000;
	if (mult > 108) mult = 108;
    3706:	236c      	movs	r3, #108	; 0x6c
    3708:	481a      	ldr	r0, [pc, #104]	; (3774 <set_arm_clock+0x2ac>)
    370a:	e776      	b.n	35fa <set_arm_clock+0x132>
    370c:	2512      	movs	r5, #18
    370e:	e708      	b.n	3522 <set_arm_clock+0x5a>
    3710:	4819      	ldr	r0, [pc, #100]	; (3778 <set_arm_clock+0x2b0>)
    3712:	f8df 8070 	ldr.w	r8, [pc, #112]	; 3784 <set_arm_clock+0x2bc>
    3716:	fb00 f003 	mul.w	r0, r0, r3
    371a:	ea43 0808 	orr.w	r8, r3, r8
    371e:	e76c      	b.n	35fa <set_arm_clock+0x132>
    3720:	1f78a400 	.word	0x1f78a400
    3724:	400fc000 	.word	0x400fc000
    3728:	40080000 	.word	0x40080000
    372c:	23c34600 	.word	0x23c34600
    3730:	dc3cba00 	.word	0xdc3cba00
    3734:	004cb223 	.word	0x004cb223
    3738:	51eb851f 	.word	0x51eb851f
    373c:	016e3600 	.word	0x016e3600
    3740:	400d8000 	.word	0x400d8000
    3744:	80003040 	.word	0x80003040
    3748:	269fb1ff 	.word	0x269fb1ff
    374c:	005b8d80 	.word	0x005b8d80
    3750:	165e9f81 	.word	0x165e9f81
    3754:	269fb200 	.word	0x269fb200
    3758:	8001307f 	.word	0x8001307f
    375c:	08f0d17f 	.word	0x08f0d17f
    3760:	00e5109f 	.word	0x00e5109f
    3764:	431bde83 	.word	0x431bde83
    3768:	200006d8 	.word	0x200006d8
    376c:	200006d4 	.word	0x200006d4
    3770:	20001a8c 	.word	0x20001a8c
    3774:	4d3f6400 	.word	0x4d3f6400
    3778:	00b71b00 	.word	0x00b71b00
    377c:	80002036 	.word	0x80002036
    3780:	8000206c 	.word	0x8000206c
    3784:	80002000 	.word	0x80002000

00003788 <delay>:

void delay(uint32_t msec)
{
	uint32_t start;

	if (msec == 0) return;
    3788:	2800      	cmp	r0, #0
    378a:	d057      	beq.n	383c <delay+0xb4>
 */
__attribute__( ( always_inline ) ) __STATIC_INLINE uint32_t __STREXW(uint32_t value, volatile uint32_t *addr)
{
   uint32_t result;

   __ASM volatile ("strex %0, %2, [%1]" : "=&r" (result) : "r" (addr), "r" (value) );
    378c:	2201      	movs	r2, #1
{

}*/

void delay(uint32_t msec)
{
    378e:	e92d 4ff0 	stmdb	sp!, {r4, r5, r6, r7, r8, r9, sl, fp, lr}
    3792:	b085      	sub	sp, #20
    3794:	4683      	mov	fp, r0
    3796:	4c2a      	ldr	r4, [pc, #168]	; (3840 <delay+0xb8>)
    3798:	4d2a      	ldr	r5, [pc, #168]	; (3844 <delay+0xbc>)
    379a:	4e2b      	ldr	r6, [pc, #172]	; (3848 <delay+0xc0>)
    379c:	e9dd 8902 	ldrd	r8, r9, [sp, #8]
 */
__attribute__( ( always_inline ) ) __STATIC_INLINE uint32_t __LDREXW(volatile uint32_t *addr)
{
    uint32_t result;

   __ASM volatile ("ldrex %0, [%1]" : "=r" (result) : "r" (addr) );
    37a0:	e854 3f00 	ldrex	r3, [r4]
uint32_t micros(void)
{
	uint32_t smc, scc;
	do {
		__LDREXW(&systick_safe_read);
		smc = systick_millis_count;
    37a4:	6828      	ldr	r0, [r5, #0]
		scc = systick_cycle_count;
    37a6:	6833      	ldr	r3, [r6, #0]
 */
__attribute__( ( always_inline ) ) __STATIC_INLINE uint32_t __STREXW(uint32_t value, volatile uint32_t *addr)
{
   uint32_t result;

   __ASM volatile ("strex %0, %2, [%1]" : "=&r" (result) : "r" (addr), "r" (value) );
    37a8:	e844 2100 	strex	r1, r2, [r4]
	} while ( __STREXW(1, &systick_safe_read));
    37ac:	2900      	cmp	r1, #0
    37ae:	d1f7      	bne.n	37a0 <delay+0x18>
	uint32_t cyccnt = ARM_DWT_CYCCNT;
    37b0:	4f26      	ldr	r7, [pc, #152]	; (384c <delay+0xc4>)
    37b2:	e9cd 8902 	strd	r8, r9, [sp, #8]
    37b6:	683a      	ldr	r2, [r7, #0]
	asm volatile("" : : : "memory");
	uint32_t ccdelta = cyccnt - scc;
    37b8:	1ad3      	subs	r3, r2, r3
	uint32_t frac = ((uint64_t)ccdelta * scale_cpu_cycles_to_microseconds) >> 32;
    37ba:	4a25      	ldr	r2, [pc, #148]	; (3850 <delay+0xc8>)
	if (frac > 1000) frac = 1000;
	uint32_t usec = 1000*smc + frac;
    37bc:	f44f 7e7a 	mov.w	lr, #1000	; 0x3e8
	do {
		__LDREXW(&systick_safe_read);
		smc = systick_millis_count;
		scc = systick_cycle_count;
	} while ( __STREXW(1, &systick_safe_read));
	uint32_t cyccnt = ARM_DWT_CYCCNT;
    37c0:	9701      	str	r7, [sp, #4]
	asm volatile("" : : : "memory");
	uint32_t ccdelta = cyccnt - scc;
	uint32_t frac = ((uint64_t)ccdelta * scale_cpu_cycles_to_microseconds) >> 32;
    37c2:	6812      	ldr	r2, [r2, #0]
    37c4:	2701      	movs	r7, #1
    37c6:	fba3 2302 	umull	r2, r3, r3, r2
	if (frac > 1000) frac = 1000;
    37ca:	f44f 727a 	mov.w	r2, #1000	; 0x3e8
		scc = systick_cycle_count;
	} while ( __STREXW(1, &systick_safe_read));
	uint32_t cyccnt = ARM_DWT_CYCCNT;
	asm volatile("" : : : "memory");
	uint32_t ccdelta = cyccnt - scc;
	uint32_t frac = ((uint64_t)ccdelta * scale_cpu_cycles_to_microseconds) >> 32;
    37ce:	4698      	mov	r8, r3
	if (frac > 1000) frac = 1000;
    37d0:	2300      	movs	r3, #0
		scc = systick_cycle_count;
	} while ( __STREXW(1, &systick_safe_read));
	uint32_t cyccnt = ARM_DWT_CYCCNT;
	asm volatile("" : : : "memory");
	uint32_t ccdelta = cyccnt - scc;
	uint32_t frac = ((uint64_t)ccdelta * scale_cpu_cycles_to_microseconds) >> 32;
    37d2:	428b      	cmp	r3, r1
    37d4:	bf08      	it	eq
    37d6:	4542      	cmpeq	r2, r8
    37d8:	bf2c      	ite	cs
    37da:	46c2      	movcs	sl, r8
    37dc:	46f2      	movcc	sl, lr
	if (frac > 1000) frac = 1000;
	uint32_t usec = 1000*smc + frac;
    37de:	fb0e aa00 	mla	sl, lr, r0, sl
 */
__attribute__( ( always_inline ) ) __STATIC_INLINE uint32_t __LDREXW(volatile uint32_t *addr)
{
    uint32_t result;

   __ASM volatile ("ldrex %0, [%1]" : "=r" (result) : "r" (addr) );
    37e2:	e854 3f00 	ldrex	r3, [r4]
uint32_t micros(void)
{
	uint32_t smc, scc;
	do {
		__LDREXW(&systick_safe_read);
		smc = systick_millis_count;
    37e6:	682a      	ldr	r2, [r5, #0]
		scc = systick_cycle_count;
    37e8:	6831      	ldr	r1, [r6, #0]
 */
__attribute__( ( always_inline ) ) __STATIC_INLINE uint32_t __STREXW(uint32_t value, volatile uint32_t *addr)
{
   uint32_t result;

   __ASM volatile ("strex %0, %2, [%1]" : "=&r" (result) : "r" (addr), "r" (value) );
    37ea:	e844 7300 	strex	r3, r7, [r4]
	} while ( __STREXW(1, &systick_safe_read));
    37ee:	2b00      	cmp	r3, #0
    37f0:	d1f7      	bne.n	37e2 <delay+0x5a>
	uint32_t cyccnt = ARM_DWT_CYCCNT;
    37f2:	9801      	ldr	r0, [sp, #4]
    37f4:	6800      	ldr	r0, [r0, #0]
	asm volatile("" : : : "memory");
	uint32_t ccdelta = cyccnt - scc;
    37f6:	1a41      	subs	r1, r0, r1
	uint32_t frac = ((uint64_t)ccdelta * scale_cpu_cycles_to_microseconds) >> 32;
    37f8:	4815      	ldr	r0, [pc, #84]	; (3850 <delay+0xc8>)
	uint32_t start;

	if (msec == 0) return;
	start = micros();
	while (1) {
		while ((micros() - start) >= 1000) {
    37fa:	f44f 7e7a 	mov.w	lr, #1000	; 0x3e8
		scc = systick_cycle_count;
	} while ( __STREXW(1, &systick_safe_read));
	uint32_t cyccnt = ARM_DWT_CYCCNT;
	asm volatile("" : : : "memory");
	uint32_t ccdelta = cyccnt - scc;
	uint32_t frac = ((uint64_t)ccdelta * scale_cpu_cycles_to_microseconds) >> 32;
    37fe:	6800      	ldr	r0, [r0, #0]
	uint32_t start;

	if (msec == 0) return;
	start = micros();
	while (1) {
		while ((micros() - start) >= 1000) {
    3800:	fb0e f202 	mul.w	r2, lr, r2
		scc = systick_cycle_count;
	} while ( __STREXW(1, &systick_safe_read));
	uint32_t cyccnt = ARM_DWT_CYCCNT;
	asm volatile("" : : : "memory");
	uint32_t ccdelta = cyccnt - scc;
	uint32_t frac = ((uint64_t)ccdelta * scale_cpu_cycles_to_microseconds) >> 32;
    3804:	fba1 0100 	umull	r0, r1, r1, r0
	if (frac > 1000) frac = 1000;
    3808:	f44f 707a 	mov.w	r0, #1000	; 0x3e8
	uint32_t start;

	if (msec == 0) return;
	start = micros();
	while (1) {
		while ((micros() - start) >= 1000) {
    380c:	ebca 0202 	rsb	r2, sl, r2
		scc = systick_cycle_count;
	} while ( __STREXW(1, &systick_safe_read));
	uint32_t cyccnt = ARM_DWT_CYCCNT;
	asm volatile("" : : : "memory");
	uint32_t ccdelta = cyccnt - scc;
	uint32_t frac = ((uint64_t)ccdelta * scale_cpu_cycles_to_microseconds) >> 32;
    3810:	4688      	mov	r8, r1
	if (frac > 1000) frac = 1000;
    3812:	2100      	movs	r1, #0
		scc = systick_cycle_count;
	} while ( __STREXW(1, &systick_safe_read));
	uint32_t cyccnt = ARM_DWT_CYCCNT;
	asm volatile("" : : : "memory");
	uint32_t ccdelta = cyccnt - scc;
	uint32_t frac = ((uint64_t)ccdelta * scale_cpu_cycles_to_microseconds) >> 32;
    3814:	4299      	cmp	r1, r3
    3816:	bf08      	it	eq
    3818:	4540      	cmpeq	r0, r8
    381a:	bf2c      	ite	cs
    381c:	4643      	movcs	r3, r8
    381e:	4673      	movcc	r3, lr
	uint32_t start;

	if (msec == 0) return;
	start = micros();
	while (1) {
		while ((micros() - start) >= 1000) {
    3820:	441a      	add	r2, r3
    3822:	4572      	cmp	r2, lr
    3824:	d307      	bcc.n	3836 <delay+0xae>
			if (--msec == 0) return;
    3826:	f1bb 0b01 	subs.w	fp, fp, #1
			start += 1000;
    382a:	f50a 7a7a 	add.w	sl, sl, #1000	; 0x3e8

	if (msec == 0) return;
	start = micros();
	while (1) {
		while ((micros() - start) >= 1000) {
			if (--msec == 0) return;
    382e:	d1d8      	bne.n	37e2 <delay+0x5a>
			start += 1000;
		}
		yield();
	}
	// TODO...
}
    3830:	b005      	add	sp, #20
    3832:	e8bd 8ff0 	ldmia.w	sp!, {r4, r5, r6, r7, r8, r9, sl, fp, pc}
	while (1) {
		while ((micros() - start) >= 1000) {
			if (--msec == 0) return;
			start += 1000;
		}
		yield();
    3836:	f001 f8d7 	bl	49e8 <yield>
	}
    383a:	e7d2      	b.n	37e2 <delay+0x5a>
    383c:	4770      	bx	lr
    383e:	bf00      	nop
    3840:	20001d20 	.word	0x20001d20
    3844:	20001a90 	.word	0x20001a90
    3848:	20001a88 	.word	0x20001a88
    384c:	e0001004 	.word	0xe0001004
    3850:	20001a8c 	.word	0x20001a8c

00003854 <pinMode>:

void pinMode(uint8_t pin, uint8_t mode)
{
	const struct digital_pin_bitband_and_config_table_struct *p;

	if (pin >= CORE_NUM_DIGITAL) return;
    3854:	2836      	cmp	r0, #54	; 0x36
    3856:	d81c      	bhi.n	3892 <pinMode+0x3e>
	p = digital_pin_to_info_PGM + pin;
    3858:	0100      	lsls	r0, r0, #4
    385a:	4a1a      	ldr	r2, [pc, #104]	; (38c4 <pinMode+0x70>)
	if (mode == OUTPUT || mode == OUTPUT_OPENDRAIN) {
    385c:	2901      	cmp	r1, #1
void pinMode(uint8_t pin, uint8_t mode)
{
	const struct digital_pin_bitband_and_config_table_struct *p;

	if (pin >= CORE_NUM_DIGITAL) return;
	p = digital_pin_to_info_PGM + pin;
    385e:	eb02 0300 	add.w	r3, r2, r0
			*(p->pad) = IOMUXC_PAD_DSE(7);
		} else { // OUTPUT_OPENDRAIN
			*(p->pad) = IOMUXC_PAD_DSE(7) | IOMUXC_PAD_ODE;
		}
	} else {
		*(p->reg + 1) &= ~(p->mask); // TODO: atomic
    3862:	5810      	ldr	r0, [r2, r0]
	p = digital_pin_to_info_PGM + pin;
	return (*(p->reg + 2) & p->mask) ? 1 : 0;
}

void pinMode(uint8_t pin, uint8_t mode)
{
    3864:	b410      	push	{r4}
	const struct digital_pin_bitband_and_config_table_struct *p;

	if (pin >= CORE_NUM_DIGITAL) return;
	p = digital_pin_to_info_PGM + pin;
	if (mode == OUTPUT || mode == OUTPUT_OPENDRAIN) {
    3866:	d015      	beq.n	3894 <pinMode+0x40>
    3868:	2904      	cmp	r1, #4
    386a:	d013      	beq.n	3894 <pinMode+0x40>
			*(p->pad) = IOMUXC_PAD_DSE(7);
		} else { // OUTPUT_OPENDRAIN
			*(p->pad) = IOMUXC_PAD_DSE(7) | IOMUXC_PAD_ODE;
		}
	} else {
		*(p->reg + 1) &= ~(p->mask); // TODO: atomic
    386c:	68dc      	ldr	r4, [r3, #12]
    386e:	6842      	ldr	r2, [r0, #4]
    3870:	ea22 0204 	bic.w	r2, r2, r4
    3874:	6042      	str	r2, [r0, #4]
		if (mode == INPUT) {
			*(p->pad) = IOMUXC_PAD_DSE(7);
    3876:	689a      	ldr	r2, [r3, #8]
		} else { // OUTPUT_OPENDRAIN
			*(p->pad) = IOMUXC_PAD_DSE(7) | IOMUXC_PAD_ODE;
		}
	} else {
		*(p->reg + 1) &= ~(p->mask); // TODO: atomic
		if (mode == INPUT) {
    3878:	b1e9      	cbz	r1, 38b6 <pinMode+0x62>
			*(p->pad) = IOMUXC_PAD_DSE(7);
		} else if (mode == INPUT_PULLUP) {
    387a:	2902      	cmp	r1, #2
    387c:	d01e      	beq.n	38bc <pinMode+0x68>
			*(p->pad) = IOMUXC_PAD_DSE(7) | IOMUXC_PAD_PKE | IOMUXC_PAD_PUE | IOMUXC_PAD_PUS(3) | IOMUXC_PAD_HYS;
		} else if (mode == INPUT_PULLDOWN) {
    387e:	2903      	cmp	r1, #3
			*(p->pad) = IOMUXC_PAD_DSE(7) | IOMUXC_PAD_PKE | IOMUXC_PAD_PUE | IOMUXC_PAD_PUS(0) | IOMUXC_PAD_HYS;
		} else { // INPUT_DISABLE
			*(p->pad) = IOMUXC_PAD_DSE(7) | IOMUXC_PAD_HYS;
		}
	}
	*(p->mux) = 5 | 0x10;
    3880:	685b      	ldr	r3, [r3, #4]
}
    3882:	f85d 4b04 	ldr.w	r4, [sp], #4
		if (mode == INPUT) {
			*(p->pad) = IOMUXC_PAD_DSE(7);
		} else if (mode == INPUT_PULLUP) {
			*(p->pad) = IOMUXC_PAD_DSE(7) | IOMUXC_PAD_PKE | IOMUXC_PAD_PUE | IOMUXC_PAD_PUS(3) | IOMUXC_PAD_HYS;
		} else if (mode == INPUT_PULLDOWN) {
			*(p->pad) = IOMUXC_PAD_DSE(7) | IOMUXC_PAD_PKE | IOMUXC_PAD_PUE | IOMUXC_PAD_PUS(0) | IOMUXC_PAD_HYS;
    3886:	bf0c      	ite	eq
    3888:	490f      	ldreq	r1, [pc, #60]	; (38c8 <pinMode+0x74>)
		} else { // INPUT_DISABLE
			*(p->pad) = IOMUXC_PAD_DSE(7) | IOMUXC_PAD_HYS;
    388a:	4910      	ldrne	r1, [pc, #64]	; (38cc <pinMode+0x78>)
    388c:	6011      	str	r1, [r2, #0]
		}
	}
	*(p->mux) = 5 | 0x10;
    388e:	2215      	movs	r2, #21
    3890:	601a      	str	r2, [r3, #0]
}
    3892:	4770      	bx	lr
	const struct digital_pin_bitband_and_config_table_struct *p;

	if (pin >= CORE_NUM_DIGITAL) return;
	p = digital_pin_to_info_PGM + pin;
	if (mode == OUTPUT || mode == OUTPUT_OPENDRAIN) {
		*(p->reg + 1) |= p->mask; // TODO: atomic
    3894:	68da      	ldr	r2, [r3, #12]
		if (mode == OUTPUT) {
    3896:	2901      	cmp	r1, #1
	const struct digital_pin_bitband_and_config_table_struct *p;

	if (pin >= CORE_NUM_DIGITAL) return;
	p = digital_pin_to_info_PGM + pin;
	if (mode == OUTPUT || mode == OUTPUT_OPENDRAIN) {
		*(p->reg + 1) |= p->mask; // TODO: atomic
    3898:	6844      	ldr	r4, [r0, #4]
    389a:	ea42 0204 	orr.w	r2, r2, r4
    389e:	6042      	str	r2, [r0, #4]
		if (mode == OUTPUT) {
			*(p->pad) = IOMUXC_PAD_DSE(7);
    38a0:	689a      	ldr	r2, [r3, #8]

	if (pin >= CORE_NUM_DIGITAL) return;
	p = digital_pin_to_info_PGM + pin;
	if (mode == OUTPUT || mode == OUTPUT_OPENDRAIN) {
		*(p->reg + 1) |= p->mask; // TODO: atomic
		if (mode == OUTPUT) {
    38a2:	d008      	beq.n	38b6 <pinMode+0x62>
			*(p->pad) = IOMUXC_PAD_DSE(7);
		} else { // OUTPUT_OPENDRAIN
			*(p->pad) = IOMUXC_PAD_DSE(7) | IOMUXC_PAD_ODE;
    38a4:	f640 0138 	movw	r1, #2104	; 0x838
    38a8:	6011      	str	r1, [r2, #0]
			*(p->pad) = IOMUXC_PAD_DSE(7) | IOMUXC_PAD_PKE | IOMUXC_PAD_PUE | IOMUXC_PAD_PUS(0) | IOMUXC_PAD_HYS;
		} else { // INPUT_DISABLE
			*(p->pad) = IOMUXC_PAD_DSE(7) | IOMUXC_PAD_HYS;
		}
	}
	*(p->mux) = 5 | 0x10;
    38aa:	685b      	ldr	r3, [r3, #4]
    38ac:	2215      	movs	r2, #21
}
    38ae:	f85d 4b04 	ldr.w	r4, [sp], #4
			*(p->pad) = IOMUXC_PAD_DSE(7) | IOMUXC_PAD_PKE | IOMUXC_PAD_PUE | IOMUXC_PAD_PUS(0) | IOMUXC_PAD_HYS;
		} else { // INPUT_DISABLE
			*(p->pad) = IOMUXC_PAD_DSE(7) | IOMUXC_PAD_HYS;
		}
	}
	*(p->mux) = 5 | 0x10;
    38b2:	601a      	str	r2, [r3, #0]
}
    38b4:	4770      	bx	lr
			*(p->pad) = IOMUXC_PAD_DSE(7) | IOMUXC_PAD_ODE;
		}
	} else {
		*(p->reg + 1) &= ~(p->mask); // TODO: atomic
		if (mode == INPUT) {
			*(p->pad) = IOMUXC_PAD_DSE(7);
    38b6:	2138      	movs	r1, #56	; 0x38
    38b8:	6011      	str	r1, [r2, #0]
    38ba:	e7f6      	b.n	38aa <pinMode+0x56>
		} else if (mode == INPUT_PULLUP) {
			*(p->pad) = IOMUXC_PAD_DSE(7) | IOMUXC_PAD_PKE | IOMUXC_PAD_PUE | IOMUXC_PAD_PUS(3) | IOMUXC_PAD_HYS;
    38bc:	4904      	ldr	r1, [pc, #16]	; (38d0 <pinMode+0x7c>)
    38be:	6011      	str	r1, [r2, #0]
    38c0:	e7f3      	b.n	38aa <pinMode+0x56>
    38c2:	bf00      	nop
    38c4:	200002bc 	.word	0x200002bc
    38c8:	00013038 	.word	0x00013038
    38cc:	00010038 	.word	0x00010038
    38d0:	0001f038 	.word	0x0001f038

000038d4 <unused_interrupt_vector>:
//  R0
// Code from :: https://community.nxp.com/thread/389002
__attribute__((naked))
void unused_interrupt_vector(void)
{
  __asm( ".syntax unified\n"
    38d4:	2004      	movs	r0, #4
    38d6:	4671      	mov	r1, lr
    38d8:	4208      	tst	r0, r1
    38da:	d003      	beq.n	38e4 <_MSP>
    38dc:	f3ef 8009 	mrs	r0, PSP
    38e0:	f000 b808 	b.w	38f4 <HardFault_HandlerC>

000038e4 <_MSP>:
    38e4:	f3ef 8008 	mrs	r0, MSP
    38e8:	f000 b804 	b.w	38f4 <HardFault_HandlerC>

000038ec <startup_default_early_hook>:
         "B HardFault_HandlerC \n"
         "_MSP: \n"
         "MRS R0, MSP \n"
         "B HardFault_HandlerC \n"
         ".syntax divided\n") ;
}
    38ec:	4770      	bx	lr
    38ee:	bf00      	nop

000038f0 <startup_default_late_hook>:
uint8_t external_psram_size = 0;

extern int main (void);
void startup_default_early_hook(void) {}
void startup_early_hook(void)		__attribute__ ((weak, alias("startup_default_early_hook")));
void startup_default_late_hook(void) {}
    38f0:	4770      	bx	lr
    38f2:	bf00      	nop

000038f4 <HardFault_HandlerC>:
  printf(" _MMAR ::  %x\n", _MMAR);
#endif

  IOMUXC_SW_MUX_CTL_PAD_GPIO_B0_03 = 5; // pin 13
  IOMUXC_SW_PAD_CTL_PAD_GPIO_B0_03 = IOMUXC_PAD_DSE(7);
  GPIO2_GDIR |= (1 << 3);
    38f4:	4b1b      	ldr	r3, [pc, #108]	; (3964 <HardFault_HandlerC+0x70>)
  printf(" _AFSR ::  %x\n", _AFSR);
  printf(" _BFAR ::  %x\n", _BFAR);
  printf(" _MMAR ::  %x\n", _MMAR);
#endif

  IOMUXC_SW_MUX_CTL_PAD_GPIO_B0_03 = 5; // pin 13
    38f6:	2105      	movs	r1, #5
    38f8:	4a1b      	ldr	r2, [pc, #108]	; (3968 <HardFault_HandlerC+0x74>)
  IOMUXC_SW_PAD_CTL_PAD_GPIO_B0_03 = IOMUXC_PAD_DSE(7);
    38fa:	2038      	movs	r0, #56	; 0x38
         ".syntax divided\n") ;
}

__attribute__((weak))
void HardFault_HandlerC(unsigned int *hardfault_args)
{
    38fc:	b530      	push	{r4, r5, lr}
  printf(" _AFSR ::  %x\n", _AFSR);
  printf(" _BFAR ::  %x\n", _BFAR);
  printf(" _MMAR ::  %x\n", _MMAR);
#endif

  IOMUXC_SW_MUX_CTL_PAD_GPIO_B0_03 = 5; // pin 13
    38fe:	f8c2 1148 	str.w	r1, [r2, #328]	; 0x148
  IOMUXC_SW_PAD_CTL_PAD_GPIO_B0_03 = IOMUXC_PAD_DSE(7);
  GPIO2_GDIR |= (1 << 3);
  GPIO2_DR_SET = (1 << 3);
    3902:	2108      	movs	r1, #8
  printf(" _BFAR ::  %x\n", _BFAR);
  printf(" _MMAR ::  %x\n", _MMAR);
#endif

  IOMUXC_SW_MUX_CTL_PAD_GPIO_B0_03 = 5; // pin 13
  IOMUXC_SW_PAD_CTL_PAD_GPIO_B0_03 = IOMUXC_PAD_DSE(7);
    3904:	f8c2 0338 	str.w	r0, [r2, #824]	; 0x338
         ".syntax divided\n") ;
}

__attribute__((weak))
void HardFault_HandlerC(unsigned int *hardfault_args)
{
    3908:	b083      	sub	sp, #12
  printf(" _MMAR ::  %x\n", _MMAR);
#endif

  IOMUXC_SW_MUX_CTL_PAD_GPIO_B0_03 = 5; // pin 13
  IOMUXC_SW_PAD_CTL_PAD_GPIO_B0_03 = IOMUXC_PAD_DSE(7);
  GPIO2_GDIR |= (1 << 3);
    390a:	685a      	ldr	r2, [r3, #4]
  GPIO2_DR_SET = (1 << 3);
  GPIO2_DR_CLEAR = (1 << 3); //digitalWrite(13, LOW);

  if ( F_CPU_ACTUAL >= 600000000 )
    390c:	4c17      	ldr	r4, [pc, #92]	; (396c <HardFault_HandlerC+0x78>)
  printf(" _MMAR ::  %x\n", _MMAR);
#endif

  IOMUXC_SW_MUX_CTL_PAD_GPIO_B0_03 = 5; // pin 13
  IOMUXC_SW_PAD_CTL_PAD_GPIO_B0_03 = IOMUXC_PAD_DSE(7);
  GPIO2_GDIR |= (1 << 3);
    390e:	430a      	orrs	r2, r1
  GPIO2_DR_SET = (1 << 3);
  GPIO2_DR_CLEAR = (1 << 3); //digitalWrite(13, LOW);

  if ( F_CPU_ACTUAL >= 600000000 )
    3910:	4817      	ldr	r0, [pc, #92]	; (3970 <HardFault_HandlerC+0x7c>)
  printf(" _MMAR ::  %x\n", _MMAR);
#endif

  IOMUXC_SW_MUX_CTL_PAD_GPIO_B0_03 = 5; // pin 13
  IOMUXC_SW_PAD_CTL_PAD_GPIO_B0_03 = IOMUXC_PAD_DSE(7);
  GPIO2_GDIR |= (1 << 3);
    3912:	605a      	str	r2, [r3, #4]
  GPIO2_DR_SET = (1 << 3);
    3914:	f8c3 1084 	str.w	r1, [r3, #132]	; 0x84
  GPIO2_DR_CLEAR = (1 << 3); //digitalWrite(13, LOW);
    3918:	f8c3 1088 	str.w	r1, [r3, #136]	; 0x88

  if ( F_CPU_ACTUAL >= 600000000 )
    391c:	6823      	ldr	r3, [r4, #0]
    391e:	4283      	cmp	r3, r0
    3920:	d902      	bls.n	3928 <HardFault_HandlerC+0x34>
    set_arm_clock(300000000);
    3922:	4814      	ldr	r0, [pc, #80]	; (3974 <HardFault_HandlerC+0x80>)
    3924:	f7ff fdd0 	bl	34c8 <set_arm_clock>

  while (1)
  {
    GPIO2_DR_SET = (1 << 3); //digitalWrite(13, HIGH);
    3928:	4d0e      	ldr	r5, [pc, #56]	; (3964 <HardFault_HandlerC+0x70>)
    392a:	2408      	movs	r4, #8
    // digitalWrite(13, HIGH);
    for (nn = 0; nn < 2000000/2; nn++) ;
    392c:	2000      	movs	r0, #0
    392e:	4a12      	ldr	r2, [pc, #72]	; (3978 <HardFault_HandlerC+0x84>)
    GPIO2_DR_CLEAR = (1 << 3); //digitalWrite(13, LOW);
    // digitalWrite(13, LOW);
    for (nn = 0; nn < 18000000/2; nn++) ;
    3930:	4912      	ldr	r1, [pc, #72]	; (397c <HardFault_HandlerC+0x88>)
  if ( F_CPU_ACTUAL >= 600000000 )
    set_arm_clock(300000000);

  while (1)
  {
    GPIO2_DR_SET = (1 << 3); //digitalWrite(13, HIGH);
    3932:	f8c5 4084 	str.w	r4, [r5, #132]	; 0x84
    // digitalWrite(13, HIGH);
    for (nn = 0; nn < 2000000/2; nn++) ;
    3936:	9001      	str	r0, [sp, #4]
    3938:	9b01      	ldr	r3, [sp, #4]
    393a:	4293      	cmp	r3, r2
    393c:	d805      	bhi.n	394a <HardFault_HandlerC+0x56>
    393e:	9b01      	ldr	r3, [sp, #4]
    3940:	3301      	adds	r3, #1
    3942:	9301      	str	r3, [sp, #4]
    3944:	9b01      	ldr	r3, [sp, #4]
    3946:	4293      	cmp	r3, r2
    3948:	d9f9      	bls.n	393e <HardFault_HandlerC+0x4a>
    GPIO2_DR_CLEAR = (1 << 3); //digitalWrite(13, LOW);
    394a:	f8c5 4088 	str.w	r4, [r5, #136]	; 0x88
    // digitalWrite(13, LOW);
    for (nn = 0; nn < 18000000/2; nn++) ;
    394e:	9001      	str	r0, [sp, #4]
    3950:	9b01      	ldr	r3, [sp, #4]
    3952:	428b      	cmp	r3, r1
    3954:	d8ed      	bhi.n	3932 <HardFault_HandlerC+0x3e>
    3956:	9b01      	ldr	r3, [sp, #4]
    3958:	3301      	adds	r3, #1
    395a:	9301      	str	r3, [sp, #4]
    395c:	9b01      	ldr	r3, [sp, #4]
    395e:	428b      	cmp	r3, r1
    3960:	d9f9      	bls.n	3956 <HardFault_HandlerC+0x62>
    3962:	e7e6      	b.n	3932 <HardFault_HandlerC+0x3e>
    3964:	401bc000 	.word	0x401bc000
    3968:	401f8000 	.word	0x401f8000
    396c:	200006d8 	.word	0x200006d8
    3970:	23c345ff 	.word	0x23c345ff
    3974:	11e1a300 	.word	0x11e1a300
    3978:	000f423f 	.word	0x000f423f
    397c:	0089543f 	.word	0x0089543f

00003980 <_sbrk>:

char *__brkval = (char *)&_heap_start;

void * _sbrk(int incr)
{
        char *prev = __brkval;
    3980:	4a09      	ldr	r2, [pc, #36]	; (39a8 <_sbrk+0x28>)
extern unsigned long _heap_end;

char *__brkval = (char *)&_heap_start;

void * _sbrk(int incr)
{
    3982:	b508      	push	{r3, lr}
        char *prev = __brkval;
    3984:	6813      	ldr	r3, [r2, #0]
        if (incr != 0) {
    3986:	b120      	cbz	r0, 3992 <_sbrk+0x12>
                if (prev + incr > (char *)&_heap_end) {
    3988:	4418      	add	r0, r3
    398a:	4908      	ldr	r1, [pc, #32]	; (39ac <_sbrk+0x2c>)
    398c:	4288      	cmp	r0, r1
    398e:	d802      	bhi.n	3996 <_sbrk+0x16>
                        errno = ENOMEM;
                        return (void *)-1;
                }
                __brkval = prev + incr;
    3990:	6010      	str	r0, [r2, #0]
        }
        return prev;
}
    3992:	4618      	mov	r0, r3
    3994:	bd08      	pop	{r3, pc}
void * _sbrk(int incr)
{
        char *prev = __brkval;
        if (incr != 0) {
                if (prev + incr > (char *)&_heap_end) {
                        errno = ENOMEM;
    3996:	f001 fbf3 	bl	5180 <__errno>
    399a:	220c      	movs	r2, #12
                        return (void *)-1;
    399c:	f04f 33ff 	mov.w	r3, #4294967295
void * _sbrk(int incr)
{
        char *prev = __brkval;
        if (incr != 0) {
                if (prev + incr > (char *)&_heap_end) {
                        errno = ENOMEM;
    39a0:	6002      	str	r2, [r0, #0]
                        return (void *)-1;
                }
                __brkval = prev + incr;
        }
        return prev;
}
    39a2:	4618      	mov	r0, r3
    39a4:	bd08      	pop	{r3, pc}
    39a6:	bf00      	nop
    39a8:	200006dc 	.word	0x200006dc
    39ac:	20280000 	.word	0x20280000

000039b0 <Panic_Temp_isr>:

static uint32_t s_hotTemp, s_hotCount, s_roomC_hotC;
static float s_hot_ROOM;

void Panic_Temp_isr(void) {
  __disable_irq();
    39b0:	b672      	cpsid	i
  IOMUXC_GPR_GPR16 = 0x00000007;
  SNVS_LPCR |= SNVS_LPCR_TOP; //Switch off now
    39b2:	4a06      	ldr	r2, [pc, #24]	; (39cc <Panic_Temp_isr+0x1c>)
static uint32_t s_hotTemp, s_hotCount, s_roomC_hotC;
static float s_hot_ROOM;

void Panic_Temp_isr(void) {
  __disable_irq();
  IOMUXC_GPR_GPR16 = 0x00000007;
    39b4:	2107      	movs	r1, #7
    39b6:	4b06      	ldr	r3, [pc, #24]	; (39d0 <Panic_Temp_isr+0x20>)
    39b8:	6419      	str	r1, [r3, #64]	; 0x40
  SNVS_LPCR |= SNVS_LPCR_TOP; //Switch off now
    39ba:	6b93      	ldr	r3, [r2, #56]	; 0x38
    39bc:	f043 0340 	orr.w	r3, r3, #64	; 0x40
    39c0:	6393      	str	r3, [r2, #56]	; 0x38
  asm volatile ("dsb":::"memory");
    39c2:	f3bf 8f4f 	dsb	sy
  while (1) asm ("wfi");
    39c6:	bf30      	wfi
    39c8:	e7fd      	b.n	39c6 <Panic_Temp_isr+0x16>
    39ca:	bf00      	nop
    39cc:	400d4000 	.word	0x400d4000
    39d0:	400ac000 	.word	0x400ac000

000039d4 <isr>:
	//USB1_PORTSC1 |= USB_PORTSC1_PFSC; // force 12 Mbit/sec
}


static void isr(void)
{
    39d4:	e92d 4ff0 	stmdb	sp!, {r4, r5, r6, r7, r8, r9, sl, fp, lr}
	//printf("*");

	//  Port control in device mode is only used for
	//  status port reset, suspend, and current connect status.
	uint32_t status = USB1_USBSTS;
    39d8:	4ca6      	ldr	r4, [pc, #664]	; (3c74 <isr+0x2a0>)
	//USB1_PORTSC1 |= USB_PORTSC1_PFSC; // force 12 Mbit/sec
}


static void isr(void)
{
    39da:	b083      	sub	sp, #12
	//printf("*");

	//  Port control in device mode is only used for
	//  status port reset, suspend, and current connect status.
	uint32_t status = USB1_USBSTS;
    39dc:	f8d4 8144 	ldr.w	r8, [r4, #324]	; 0x144

	// USB_USBSTS_SLI - set to 1 when enters a suspend state from an active state
	// USB_USBSTS_SRI - set at start of frame
	// USB_USBSTS_SRI - set when USB reset detected

	if (status & USB_USBSTS_UI) {
    39e0:	f018 0f01 	tst.w	r8, #1
	//printf("*");

	//  Port control in device mode is only used for
	//  status port reset, suspend, and current connect status.
	uint32_t status = USB1_USBSTS;
	USB1_USBSTS = status;
    39e4:	f8c4 8144 	str.w	r8, [r4, #324]	; 0x144

	// USB_USBSTS_SLI - set to 1 when enters a suspend state from an active state
	// USB_USBSTS_SRI - set at start of frame
	// USB_USBSTS_SRI - set when USB reset detected

	if (status & USB_USBSTS_UI) {
    39e8:	f000 808e 	beq.w	3b08 <isr+0x134>
		//printf("data\n");
		uint32_t setupstatus = USB1_ENDPTSETUPSTAT;
    39ec:	f8d4 31ac 	ldr.w	r3, [r4, #428]	; 0x1ac
		//printf("USB1_ENDPTSETUPSTAT=%X\n", setupstatus);
		while (setupstatus) {
    39f0:	2b00      	cmp	r3, #0
    39f2:	f000 8084 	beq.w	3afe <isr+0x12a>
				s.word1 = endpoint_queue_head[0].setup0;
				s.word2 = endpoint_queue_head[0].setup1;
			} while (!(USB1_USBCMD & USB_USBCMD_SUTW));
			USB1_USBCMD &= ~USB_USBCMD_SUTW;
			//printf("setup %08lX %08lX\n", s.word1, s.word2);
			USB1_ENDPTFLUSH = (1<<16) | (1<<0); // page 3174
    39f6:	f04f 1a01 	mov.w	sl, #65537	; 0x10001
    39fa:	f8df 92b0 	ldr.w	r9, [pc, #688]	; 3cac <isr+0x2d8>
    39fe:	4e9e      	ldr	r6, [pc, #632]	; (3c78 <isr+0x2a4>)
		//printf("USB1_ENDPTSETUPSTAT=%X\n", setupstatus);
		while (setupstatus) {
			USB1_ENDPTSETUPSTAT = setupstatus;
			setup_t s;
			do {
				USB1_USBCMD |= USB_USBCMD_SUTW;
    3a00:	4625      	mov	r5, r4
				s.word1 = endpoint_queue_head[0].setup0;
				s.word2 = endpoint_queue_head[0].setup1;
			} while (!(USB1_USBCMD & USB_USBCMD_SUTW));
			USB1_USBCMD &= ~USB_USBCMD_SUTW;
			//printf("setup %08lX %08lX\n", s.word1, s.word2);
			USB1_ENDPTFLUSH = (1<<16) | (1<<0); // page 3174
    3a02:	46d3      	mov	fp, sl
	if (status & USB_USBSTS_UI) {
		//printf("data\n");
		uint32_t setupstatus = USB1_ENDPTSETUPSTAT;
		//printf("USB1_ENDPTSETUPSTAT=%X\n", setupstatus);
		while (setupstatus) {
			USB1_ENDPTSETUPSTAT = setupstatus;
    3a04:	f8c4 31ac 	str.w	r3, [r4, #428]	; 0x1ac
    3a08:	6ab0      	ldr	r0, [r6, #40]	; 0x28
    3a0a:	6af2      	ldr	r2, [r6, #44]	; 0x2c
			setup_t s;
			do {
				USB1_USBCMD |= USB_USBCMD_SUTW;
    3a0c:	f8d4 3140 	ldr.w	r3, [r4, #320]	; 0x140
    3a10:	f443 5300 	orr.w	r3, r3, #8192	; 0x2000
    3a14:	f8c4 3140 	str.w	r3, [r4, #320]	; 0x140
				s.word1 = endpoint_queue_head[0].setup0;
				s.word2 = endpoint_queue_head[0].setup1;
			} while (!(USB1_USBCMD & USB_USBCMD_SUTW));
    3a18:	f8d4 3140 	ldr.w	r3, [r4, #320]	; 0x140
    3a1c:	0499      	lsls	r1, r3, #18
    3a1e:	d5f5      	bpl.n	3a0c <isr+0x38>
			USB1_USBCMD &= ~USB_USBCMD_SUTW;
    3a20:	f8d5 3140 	ldr.w	r3, [r5, #320]	; 0x140
    3a24:	f423 5300 	bic.w	r3, r3, #8192	; 0x2000
    3a28:	f8c5 3140 	str.w	r3, [r5, #320]	; 0x140
			//printf("setup %08lX %08lX\n", s.word1, s.word2);
			USB1_ENDPTFLUSH = (1<<16) | (1<<0); // page 3174
    3a2c:	f8c5 b1b4 	str.w	fp, [r5, #436]	; 0x1b4
			while (USB1_ENDPTFLUSH & ((1<<16) | (1<<0))) ;
    3a30:	f8d4 31b4 	ldr.w	r3, [r4, #436]	; 0x1b4
    3a34:	f013 1301 	ands.w	r3, r3, #65537	; 0x10001
    3a38:	d1fa      	bne.n	3a30 <isr+0x5c>
	setup_t setup;
	uint32_t endpoint, dir, ctrl;
	const usb_descriptor_list_t *list;

	setup.bothwords = setupdata;
	switch (setup.wRequestAndType) {
    3a3a:	b281      	uxth	r1, r0
    3a3c:	f240 6781 	movw	r7, #1665	; 0x681
			} while (!(USB1_USBCMD & USB_USBCMD_SUTW));
			USB1_USBCMD &= ~USB_USBCMD_SUTW;
			//printf("setup %08lX %08lX\n", s.word1, s.word2);
			USB1_ENDPTFLUSH = (1<<16) | (1<<0); // page 3174
			while (USB1_ENDPTFLUSH & ((1<<16) | (1<<0))) ;
			endpoint0_notify_mask = 0;
    3a40:	f8c9 3000 	str.w	r3, [r9]
	setup_t setup;
	uint32_t endpoint, dir, ctrl;
	const usb_descriptor_list_t *list;

	setup.bothwords = setupdata;
	switch (setup.wRequestAndType) {
    3a44:	42b9      	cmp	r1, r7
    3a46:	f200 8133 	bhi.w	3cb0 <isr+0x2dc>
    3a4a:	f5b1 6fd0 	cmp.w	r1, #1664	; 0x680
    3a4e:	f080 82a4 	bcs.w	3f9a <isr+0x5c6>
    3a52:	f5b1 7f81 	cmp.w	r1, #258	; 0x102
    3a56:	f000 81f7 	beq.w	3e48 <isr+0x474>
    3a5a:	f200 816e 	bhi.w	3d3a <isr+0x366>
    3a5e:	2980      	cmp	r1, #128	; 0x80
    3a60:	f000 81b7 	beq.w	3dd2 <isr+0x3fe>
    3a64:	2982      	cmp	r1, #130	; 0x82
    3a66:	f040 8160 	bne.w	3d2a <isr+0x356>
		reply_buffer[0] = 0;
		reply_buffer[1] = 0;
		endpoint0_transmit(reply_buffer, 2, 0);
		return;
	  case 0x0082: // GET_STATUS (endpoint)
		endpoint = setup.wIndex & 0x7F;
    3a6a:	b292      	uxth	r2, r2
    3a6c:	f002 017f 	and.w	r1, r2, #127	; 0x7f
		if (endpoint > 7) break;
    3a70:	2907      	cmp	r1, #7
    3a72:	f200 815a 	bhi.w	3d2a <isr+0x356>
		dir = setup.wIndex & 0x80;
		ctrl = *((uint32_t *)&USB1_ENDPTCTRL0 + endpoint);
    3a76:	0089      	lsls	r1, r1, #2
    3a78:	4f80      	ldr	r7, [pc, #512]	; (3c7c <isr+0x2a8>)
		reply_buffer[0] = 0;
    3a7a:	4881      	ldr	r0, [pc, #516]	; (3c80 <isr+0x2ac>)
		reply_buffer[1] = 0;
		if ((dir && (ctrl & USB_ENDPTCTRL_TXS)) || (!dir && (ctrl & USB_ENDPTCTRL_RXS))) {
    3a7c:	0612      	lsls	r2, r2, #24
		return;
	  case 0x0082: // GET_STATUS (endpoint)
		endpoint = setup.wIndex & 0x7F;
		if (endpoint > 7) break;
		dir = setup.wIndex & 0x80;
		ctrl = *((uint32_t *)&USB1_ENDPTCTRL0 + endpoint);
    3a7e:	440f      	add	r7, r1
    3a80:	6839      	ldr	r1, [r7, #0]
		reply_buffer[0] = 0;
    3a82:	7003      	strb	r3, [r0, #0]
		reply_buffer[1] = 0;
    3a84:	7043      	strb	r3, [r0, #1]
		if ((dir && (ctrl & USB_ENDPTCTRL_TXS)) || (!dir && (ctrl & USB_ENDPTCTRL_RXS))) {
    3a86:	f140 831b 	bpl.w	40c0 <isr+0x6ec>
    3a8a:	03cb      	lsls	r3, r1, #15
    3a8c:	d501      	bpl.n	3a92 <isr+0xbe>
			reply_buffer[0] = 1;
    3a8e:	2301      	movs	r3, #1
    3a90:	7003      	strb	r3, [r0, #0]
static void endpoint0_transmit(const void *data, uint32_t len, int notify)
{
	//printf("tx %lu\n", len);
	if (len > 0) {
		// Executing A Transfer Descriptor, page 3182
		endpoint0_transfer_data.next = 1;
    3a92:	4a7c      	ldr	r2, [pc, #496]	; (3c84 <isr+0x2b0>)
    3a94:	2701      	movs	r7, #1
		endpoint0_transfer_data.status = (len << 16) | (1<<7);
    3a96:	4b7c      	ldr	r3, [pc, #496]	; (3c88 <isr+0x2b4>)
		endpoint0_transfer_data.pointer2 = addr + 8192;
		endpoint0_transfer_data.pointer3 = addr + 12288;
		endpoint0_transfer_data.pointer4 = addr + 16384;
		//  Case 1: Link list is empty, page 3182
		endpoint_queue_head[1].next = (uint32_t)&endpoint0_transfer_data;
		endpoint_queue_head[1].status = 0;
    3a98:	2100      	movs	r1, #0
static void endpoint0_transmit(const void *data, uint32_t len, int notify)
{
	//printf("tx %lu\n", len);
	if (len > 0) {
		// Executing A Transfer Descriptor, page 3182
		endpoint0_transfer_data.next = 1;
    3a9a:	6017      	str	r7, [r2, #0]
		endpoint0_transfer_data.status = (len << 16) | (1<<7);
    3a9c:	6053      	str	r3, [r2, #4]
		endpoint0_transfer_data.pointer1 = addr + 4096;
		endpoint0_transfer_data.pointer2 = addr + 8192;
		endpoint0_transfer_data.pointer3 = addr + 12288;
		endpoint0_transfer_data.pointer4 = addr + 16384;
		//  Case 1: Link list is empty, page 3182
		endpoint_queue_head[1].next = (uint32_t)&endpoint0_transfer_data;
    3a9e:	64b2      	str	r2, [r6, #72]	; 0x48
		// Executing A Transfer Descriptor, page 3182
		endpoint0_transfer_data.next = 1;
		endpoint0_transfer_data.status = (len << 16) | (1<<7);
		uint32_t addr = (uint32_t)data;
		endpoint0_transfer_data.pointer0 = addr; // format: table 55-60, pg 3159
		endpoint0_transfer_data.pointer1 = addr + 4096;
    3aa0:	4b7a      	ldr	r3, [pc, #488]	; (3c8c <isr+0x2b8>)
		endpoint0_transfer_data.pointer2 = addr + 8192;
		endpoint0_transfer_data.pointer3 = addr + 12288;
		endpoint0_transfer_data.pointer4 = addr + 16384;
		//  Case 1: Link list is empty, page 3182
		endpoint_queue_head[1].next = (uint32_t)&endpoint0_transfer_data;
		endpoint_queue_head[1].status = 0;
    3aa2:	64f1      	str	r1, [r6, #76]	; 0x4c
		USB1_ENDPTPRIME |= (1<<16);
    3aa4:	f8d4 11b0 	ldr.w	r1, [r4, #432]	; 0x1b0
		endpoint0_transfer_data.next = 1;
		endpoint0_transfer_data.status = (len << 16) | (1<<7);
		uint32_t addr = (uint32_t)data;
		endpoint0_transfer_data.pointer0 = addr; // format: table 55-60, pg 3159
		endpoint0_transfer_data.pointer1 = addr + 4096;
		endpoint0_transfer_data.pointer2 = addr + 8192;
    3aa8:	f503 5780 	add.w	r7, r3, #4096	; 0x1000
	if (len > 0) {
		// Executing A Transfer Descriptor, page 3182
		endpoint0_transfer_data.next = 1;
		endpoint0_transfer_data.status = (len << 16) | (1<<7);
		uint32_t addr = (uint32_t)data;
		endpoint0_transfer_data.pointer0 = addr; // format: table 55-60, pg 3159
    3aac:	6090      	str	r0, [r2, #8]
		endpoint0_transfer_data.pointer1 = addr + 4096;
		endpoint0_transfer_data.pointer2 = addr + 8192;
		endpoint0_transfer_data.pointer3 = addr + 12288;
    3aae:	f503 5000 	add.w	r0, r3, #8192	; 0x2000
		// Executing A Transfer Descriptor, page 3182
		endpoint0_transfer_data.next = 1;
		endpoint0_transfer_data.status = (len << 16) | (1<<7);
		uint32_t addr = (uint32_t)data;
		endpoint0_transfer_data.pointer0 = addr; // format: table 55-60, pg 3159
		endpoint0_transfer_data.pointer1 = addr + 4096;
    3ab2:	60d3      	str	r3, [r2, #12]
		endpoint0_transfer_data.pointer3 = addr + 12288;
		endpoint0_transfer_data.pointer4 = addr + 16384;
		//  Case 1: Link list is empty, page 3182
		endpoint_queue_head[1].next = (uint32_t)&endpoint0_transfer_data;
		endpoint_queue_head[1].status = 0;
		USB1_ENDPTPRIME |= (1<<16);
    3ab4:	f441 3180 	orr.w	r1, r1, #65536	; 0x10000
		uint32_t addr = (uint32_t)data;
		endpoint0_transfer_data.pointer0 = addr; // format: table 55-60, pg 3159
		endpoint0_transfer_data.pointer1 = addr + 4096;
		endpoint0_transfer_data.pointer2 = addr + 8192;
		endpoint0_transfer_data.pointer3 = addr + 12288;
		endpoint0_transfer_data.pointer4 = addr + 16384;
    3ab8:	f503 5340 	add.w	r3, r3, #12288	; 0x3000
		endpoint0_transfer_data.next = 1;
		endpoint0_transfer_data.status = (len << 16) | (1<<7);
		uint32_t addr = (uint32_t)data;
		endpoint0_transfer_data.pointer0 = addr; // format: table 55-60, pg 3159
		endpoint0_transfer_data.pointer1 = addr + 4096;
		endpoint0_transfer_data.pointer2 = addr + 8192;
    3abc:	6117      	str	r7, [r2, #16]
		endpoint0_transfer_data.pointer3 = addr + 12288;
    3abe:	6150      	str	r0, [r2, #20]
		endpoint0_transfer_data.pointer4 = addr + 16384;
    3ac0:	6193      	str	r3, [r2, #24]
		//  Case 1: Link list is empty, page 3182
		endpoint_queue_head[1].next = (uint32_t)&endpoint0_transfer_data;
		endpoint_queue_head[1].status = 0;
		USB1_ENDPTPRIME |= (1<<16);
    3ac2:	f8c4 11b0 	str.w	r1, [r4, #432]	; 0x1b0
		while (USB1_ENDPTPRIME) ;
    3ac6:	f8d4 31b0 	ldr.w	r3, [r4, #432]	; 0x1b0
    3aca:	2b00      	cmp	r3, #0
    3acc:	d1fb      	bne.n	3ac6 <isr+0xf2>
	}
	endpoint0_transfer_ack.next = 1;
    3ace:	4a70      	ldr	r2, [pc, #448]	; (3c90 <isr+0x2bc>)
    3ad0:	2001      	movs	r0, #1
	endpoint0_transfer_ack.status = (1<<7) | (notify ? (1 << 15) : 0);
    3ad2:	2180      	movs	r1, #128	; 0x80
	endpoint0_transfer_ack.pointer0 = 0;
	endpoint_queue_head[0].next = (uint32_t)&endpoint0_transfer_ack;
	endpoint_queue_head[0].status = 0;
    3ad4:	60f3      	str	r3, [r6, #12]
		while (USB1_ENDPTPRIME) ;
	}
	endpoint0_transfer_ack.next = 1;
	endpoint0_transfer_ack.status = (1<<7) | (notify ? (1 << 15) : 0);
	endpoint0_transfer_ack.pointer0 = 0;
	endpoint_queue_head[0].next = (uint32_t)&endpoint0_transfer_ack;
    3ad6:	60b2      	str	r2, [r6, #8]
		endpoint_queue_head[1].next = (uint32_t)&endpoint0_transfer_data;
		endpoint_queue_head[1].status = 0;
		USB1_ENDPTPRIME |= (1<<16);
		while (USB1_ENDPTPRIME) ;
	}
	endpoint0_transfer_ack.next = 1;
    3ad8:	6010      	str	r0, [r2, #0]
	endpoint0_transfer_ack.status = (1<<7) | (notify ? (1 << 15) : 0);
    3ada:	6051      	str	r1, [r2, #4]
	endpoint0_transfer_ack.pointer0 = 0;
	endpoint_queue_head[0].next = (uint32_t)&endpoint0_transfer_ack;
	endpoint_queue_head[0].status = 0;
	USB1_ENDPTCOMPLETE = (1<<0) | (1<<16);
    3adc:	f8c5 a1bc 	str.w	sl, [r5, #444]	; 0x1bc
	USB1_ENDPTPRIME |= (1<<0);
    3ae0:	f8d5 11b0 	ldr.w	r1, [r5, #432]	; 0x1b0
		USB1_ENDPTPRIME |= (1<<16);
		while (USB1_ENDPTPRIME) ;
	}
	endpoint0_transfer_ack.next = 1;
	endpoint0_transfer_ack.status = (1<<7) | (notify ? (1 << 15) : 0);
	endpoint0_transfer_ack.pointer0 = 0;
    3ae4:	6093      	str	r3, [r2, #8]
	endpoint_queue_head[0].next = (uint32_t)&endpoint0_transfer_ack;
	endpoint_queue_head[0].status = 0;
	USB1_ENDPTCOMPLETE = (1<<0) | (1<<16);
	USB1_ENDPTPRIME |= (1<<0);
    3ae6:	ea41 0300 	orr.w	r3, r1, r0
    3aea:	f8c5 31b0 	str.w	r3, [r5, #432]	; 0x1b0
	endpoint0_notify_mask = (notify ? (1 << 0) : 0);
	while (USB1_ENDPTPRIME) ;
    3aee:	f8d4 31b0 	ldr.w	r3, [r4, #432]	; 0x1b0
    3af2:	2b00      	cmp	r3, #0
    3af4:	d1fb      	bne.n	3aee <isr+0x11a>
			//printf("setup %08lX %08lX\n", s.word1, s.word2);
			USB1_ENDPTFLUSH = (1<<16) | (1<<0); // page 3174
			while (USB1_ENDPTFLUSH & ((1<<16) | (1<<0))) ;
			endpoint0_notify_mask = 0;
			endpoint0_setup(s.bothwords);
			setupstatus = USB1_ENDPTSETUPSTAT; // page 3175
    3af6:	f8d4 31ac 	ldr.w	r3, [r4, #428]	; 0x1ac

	if (status & USB_USBSTS_UI) {
		//printf("data\n");
		uint32_t setupstatus = USB1_ENDPTSETUPSTAT;
		//printf("USB1_ENDPTSETUPSTAT=%X\n", setupstatus);
		while (setupstatus) {
    3afa:	2b00      	cmp	r3, #0
    3afc:	d182      	bne.n	3a04 <isr+0x30>
			while (USB1_ENDPTFLUSH & ((1<<16) | (1<<0))) ;
			endpoint0_notify_mask = 0;
			endpoint0_setup(s.bothwords);
			setupstatus = USB1_ENDPTSETUPSTAT; // page 3175
		}
		uint32_t completestatus = USB1_ENDPTCOMPLETE;
    3afe:	4a5d      	ldr	r2, [pc, #372]	; (3c74 <isr+0x2a0>)
    3b00:	f8d2 31bc 	ldr.w	r3, [r2, #444]	; 0x1bc
		if (completestatus) {
    3b04:	2b00      	cmp	r3, #0
    3b06:	d150      	bne.n	3baa <isr+0x1d6>
			}
#endif

		}
	}
	if (status & USB_USBSTS_URI) { // page 3164
    3b08:	f018 0f40 	tst.w	r8, #64	; 0x40
    3b0c:	d018      	beq.n	3b40 <isr+0x16c>
		USB1_ENDPTSETUPSTAT = USB1_ENDPTSETUPSTAT; // Clear all setup token semaphores
    3b0e:	4b59      	ldr	r3, [pc, #356]	; (3c74 <isr+0x2a0>)
    3b10:	f8d3 11ac 	ldr.w	r1, [r3, #428]	; 0x1ac
		USB1_ENDPTCOMPLETE = USB1_ENDPTCOMPLETE; // Clear all the endpoint complete status
		while (USB1_ENDPTPRIME != 0) ; // Wait for any endpoint priming
    3b14:	461a      	mov	r2, r3
#endif

		}
	}
	if (status & USB_USBSTS_URI) { // page 3164
		USB1_ENDPTSETUPSTAT = USB1_ENDPTSETUPSTAT; // Clear all setup token semaphores
    3b16:	f8c3 11ac 	str.w	r1, [r3, #428]	; 0x1ac
		USB1_ENDPTCOMPLETE = USB1_ENDPTCOMPLETE; // Clear all the endpoint complete status
    3b1a:	f8d3 11bc 	ldr.w	r1, [r3, #444]	; 0x1bc
    3b1e:	f8c3 11bc 	str.w	r1, [r3, #444]	; 0x1bc
		while (USB1_ENDPTPRIME != 0) ; // Wait for any endpoint priming
    3b22:	f8d2 41b0 	ldr.w	r4, [r2, #432]	; 0x1b0
    3b26:	4b53      	ldr	r3, [pc, #332]	; (3c74 <isr+0x2a0>)
    3b28:	2c00      	cmp	r4, #0
    3b2a:	d1fa      	bne.n	3b22 <isr+0x14e>
		USB1_ENDPTFLUSH = 0xFFFFFFFF;  // Cancel all endpoint primed status
    3b2c:	f04f 32ff 	mov.w	r2, #4294967295
    3b30:	f8c3 21b4 	str.w	r2, [r3, #436]	; 0x1b4
		if ((USB1_PORTSC1 & USB_PORTSC1_PR)) {
    3b34:	f8d3 3184 	ldr.w	r3, [r3, #388]	; 0x184
			// we took too long to respond :(
			// TODO; is this ever really a problem?
			//printf("reset too slow\n");
		}
		#if defined(CDC_STATUS_INTERFACE) && defined(CDC_DATA_INTERFACE)
		usb_serial_reset();
    3b38:	f000 fde6 	bl	4708 <usb_serial_reset>
		#endif
		endpointN_notify_mask = 0;
    3b3c:	4b55      	ldr	r3, [pc, #340]	; (3c94 <isr+0x2c0>)
    3b3e:	601c      	str	r4, [r3, #0]
			// shut off USB - easier to see results in protocol analyzer
			//USB1_USBCMD &= ~USB_USBCMD_RS;
			//printf("shut off USB\n");
		//}
	}
	if (status & USB_USBSTS_TI0) {
    3b40:	f018 7f80 	tst.w	r8, #16777216	; 0x1000000
    3b44:	d003      	beq.n	3b4e <isr+0x17a>
		if (usb_timer0_callback != NULL) usb_timer0_callback();
    3b46:	4b54      	ldr	r3, [pc, #336]	; (3c98 <isr+0x2c4>)
    3b48:	681b      	ldr	r3, [r3, #0]
    3b4a:	b103      	cbz	r3, 3b4e <isr+0x17a>
    3b4c:	4798      	blx	r3
	}
	if (status & USB_USBSTS_TI1) {
    3b4e:	f018 7f00 	tst.w	r8, #33554432	; 0x2000000
    3b52:	d003      	beq.n	3b5c <isr+0x188>
		if (usb_timer1_callback != NULL) usb_timer1_callback();
    3b54:	4b51      	ldr	r3, [pc, #324]	; (3c9c <isr+0x2c8>)
    3b56:	681b      	ldr	r3, [r3, #0]
    3b58:	b103      	cbz	r3, 3b5c <isr+0x188>
    3b5a:	4798      	blx	r3
	}
	if (status & USB_USBSTS_PCI) {
    3b5c:	f018 0f04 	tst.w	r8, #4
    3b60:	d008      	beq.n	3b74 <isr+0x1a0>
		if (USB1_PORTSC1 & USB_PORTSC1_HSP) {
    3b62:	4b44      	ldr	r3, [pc, #272]	; (3c74 <isr+0x2a0>)
    3b64:	f8d3 3184 	ldr.w	r3, [r3, #388]	; 0x184
    3b68:	f413 7300 	ands.w	r3, r3, #512	; 0x200
    3b6c:	d07f      	beq.n	3c6e <isr+0x29a>
			//printf("port at 480 Mbit\n");
			usb_high_speed = 1;
    3b6e:	4b4c      	ldr	r3, [pc, #304]	; (3ca0 <isr+0x2cc>)
    3b70:	2201      	movs	r2, #1
    3b72:	701a      	strb	r2, [r3, #0]
		//printf("suspend\n");
	}
	if (status & USB_USBSTS_UEI) {
		//printf("error\n");
	}
	if ((USB1_USBINTR & USB_USBINTR_SRE) && (status & USB_USBSTS_SRI)) {
    3b74:	4b3f      	ldr	r3, [pc, #252]	; (3c74 <isr+0x2a0>)
    3b76:	f8d3 2148 	ldr.w	r2, [r3, #328]	; 0x148
    3b7a:	0612      	lsls	r2, r2, #24
    3b7c:	d512      	bpl.n	3ba4 <isr+0x1d0>
    3b7e:	f018 0f80 	tst.w	r8, #128	; 0x80
    3b82:	d00f      	beq.n	3ba4 <isr+0x1d0>
		//printf("sof %d\n", usb_reboot_timer);
		if (usb_reboot_timer) {
    3b84:	4947      	ldr	r1, [pc, #284]	; (3ca4 <isr+0x2d0>)
    3b86:	780a      	ldrb	r2, [r1, #0]
    3b88:	b162      	cbz	r2, 3ba4 <isr+0x1d0>
			if (--usb_reboot_timer == 0) {
    3b8a:	3a01      	subs	r2, #1
    3b8c:	b2d2      	uxtb	r2, r2
    3b8e:	700a      	strb	r2, [r1, #0]
    3b90:	b942      	cbnz	r2, 3ba4 <isr+0x1d0>
	__enable_irq();
}

void usb_stop_sof_interrupts(int interface)
{
	sof_usage &= ~(1 << interface);
    3b92:	4945      	ldr	r1, [pc, #276]	; (3ca8 <isr+0x2d4>)
    3b94:	780a      	ldrb	r2, [r1, #0]
    3b96:	f002 02fb 	and.w	r2, r2, #251	; 0xfb
    3b9a:	700a      	strb	r2, [r1, #0]
	if (sof_usage == 0) {
    3b9c:	2a00      	cmp	r2, #0
    3b9e:	f000 831b 	beq.w	41d8 <isr+0x804>
	if ((USB1_USBINTR & USB_USBINTR_SRE) && (status & USB_USBSTS_SRI)) {
		//printf("sof %d\n", usb_reboot_timer);
		if (usb_reboot_timer) {
			if (--usb_reboot_timer == 0) {
				usb_stop_sof_interrupts(NUM_INTERFACE);
				asm("bkpt #251"); // run bootloader
    3ba2:	befb      	bkpt	0x00fb
		#endif
		#ifdef FLIGHTSIM_INTERFACE
		usb_flightsim_flush_output();
		#endif
	}
}
    3ba4:	b003      	add	sp, #12
    3ba6:	e8bd 8ff0 	ldmia.w	sp!, {r4, r5, r6, r7, r8, r9, sl, fp, pc}
		}
		uint32_t completestatus = USB1_ENDPTCOMPLETE;
		if (completestatus) {
			USB1_ENDPTCOMPLETE = completestatus;
			//printf("USB1_ENDPTCOMPLETE=%lX\n", completestatus);
			if (completestatus & endpoint0_notify_mask) {
    3baa:	4940      	ldr	r1, [pc, #256]	; (3cac <isr+0x2d8>)
			endpoint0_setup(s.bothwords);
			setupstatus = USB1_ENDPTSETUPSTAT; // page 3175
		}
		uint32_t completestatus = USB1_ENDPTCOMPLETE;
		if (completestatus) {
			USB1_ENDPTCOMPLETE = completestatus;
    3bac:	f8c2 31bc 	str.w	r3, [r2, #444]	; 0x1bc
			//printf("USB1_ENDPTCOMPLETE=%lX\n", completestatus);
			if (completestatus & endpoint0_notify_mask) {
    3bb0:	6808      	ldr	r0, [r1, #0]
    3bb2:	4203      	tst	r3, r0
    3bb4:	f040 82c7 	bne.w	4146 <isr+0x772>
				endpoint0_notify_mask = 0;
				endpoint0_complete();
			}
			completestatus &= endpointN_notify_mask;
    3bb8:	4a36      	ldr	r2, [pc, #216]	; (3c94 <isr+0x2c0>)
    3bba:	6817      	ldr	r7, [r2, #0]
#if 1
			if (completestatus) {
    3bbc:	403b      	ands	r3, r7
    3bbe:	9301      	str	r3, [sp, #4]
    3bc0:	d0a2      	beq.n	3b08 <isr+0x134>

				// transmit:
				uint32_t tx = completestatus >> 16;
				while (tx) {
    3bc2:	ea5f 4913 	movs.w	r9, r3, lsr #16
    3bc6:	d025      	beq.n	3c14 <isr+0x240>
    3bc8:	4e2b      	ldr	r6, [pc, #172]	; (3c78 <isr+0x2a4>)
					int p=__builtin_ctz(tx);
					run_callbacks(endpoint_queue_head + p * 2 + 1);
					tx &= ~(1<<p);
    3bca:	f04f 0a01 	mov.w	sl, #1
    3bce:	46b3      	mov	fp, r6
			if (completestatus) {

				// transmit:
				uint32_t tx = completestatus >> 16;
				while (tx) {
					int p=__builtin_ctz(tx);
    3bd0:	fa99 f5a9 	rbit	r5, r9
    3bd4:	fab5 f585 	clz	r5, r5
					run_callbacks(endpoint_queue_head + p * 2 + 1);
    3bd8:	eb0b 17c5 	add.w	r7, fp, r5, lsl #7
    3bdc:	3740      	adds	r7, #64	; 0x40
};*/

static void run_callbacks(endpoint_t *ep)
{
	//printf("run_callbacks\n");
	transfer_t *first = ep->first_transfer;
    3bde:	6b38      	ldr	r0, [r7, #48]	; 0x30
	if (first == NULL) return;
    3be0:	b198      	cbz	r0, 3c0a <isr+0x236>
    3be2:	4602      	mov	r2, r0
    3be4:	2400      	movs	r4, #0
    3be6:	e004      	b.n	3bf2 <isr+0x21e>
			//printf(" still active\n");
			ep->first_transfer = t;
			break;
		}
		count++;
		t = (transfer_t *)t->next;
    3be8:	6812      	ldr	r2, [r2, #0]
			// found a still-active transfer, new list begins here
			//printf(" still active\n");
			ep->first_transfer = t;
			break;
		}
		count++;
    3bea:	3401      	adds	r4, #1
		t = (transfer_t *)t->next;
		if ((uint32_t)t == 1) {
    3bec:	2a01      	cmp	r2, #1
    3bee:	f000 82dd 	beq.w	41ac <isr+0x7d8>

	// count how many transfers are completed, then remove them from the endpoint's list
	uint32_t count = 0;
	transfer_t *t = first;
	while (1) {
		if (t->status & (1<<7)) {
    3bf2:	6853      	ldr	r3, [r2, #4]
    3bf4:	f013 0380 	ands.w	r3, r3, #128	; 0x80
    3bf8:	d0f6      	beq.n	3be8 <isr+0x214>
			// found a still-active transfer, new list begins here
			//printf(" still active\n");
			ep->first_transfer = t;
    3bfa:	633a      	str	r2, [r7, #48]	; 0x30
			ep->last_transfer = NULL;
			break;
		}
	}
	// do all the callbacks
	while (count) {
    3bfc:	b12c      	cbz	r4, 3c0a <isr+0x236>
		transfer_t *next = (transfer_t *)first->next;
		ep->callback_function(first);
    3bfe:	6bbb      	ldr	r3, [r7, #56]	; 0x38
			break;
		}
	}
	// do all the callbacks
	while (count) {
		transfer_t *next = (transfer_t *)first->next;
    3c00:	6806      	ldr	r6, [r0, #0]
		ep->callback_function(first);
    3c02:	4798      	blx	r3
			ep->last_transfer = NULL;
			break;
		}
	}
	// do all the callbacks
	while (count) {
    3c04:	3c01      	subs	r4, #1
		transfer_t *next = (transfer_t *)first->next;
		ep->callback_function(first);
		first = next;
    3c06:	4630      	mov	r0, r6
			ep->last_transfer = NULL;
			break;
		}
	}
	// do all the callbacks
	while (count) {
    3c08:	d1f9      	bne.n	3bfe <isr+0x22a>
				// transmit:
				uint32_t tx = completestatus >> 16;
				while (tx) {
					int p=__builtin_ctz(tx);
					run_callbacks(endpoint_queue_head + p * 2 + 1);
					tx &= ~(1<<p);
    3c0a:	fa0a f505 	lsl.w	r5, sl, r5
#if 1
			if (completestatus) {

				// transmit:
				uint32_t tx = completestatus >> 16;
				while (tx) {
    3c0e:	ea39 0905 	bics.w	r9, r9, r5
    3c12:	d1dd      	bne.n	3bd0 <isr+0x1fc>
					run_callbacks(endpoint_queue_head + p * 2 + 1);
					tx &= ~(1<<p);
				}

				// receive:
				uint32_t rx = completestatus & 0xffff;
    3c14:	f8bd 7004 	ldrh.w	r7, [sp, #4]
				while(rx) {
    3c18:	2f00      	cmp	r7, #0
    3c1a:	f43f af75 	beq.w	3b08 <isr+0x134>
    3c1e:	4e16      	ldr	r6, [pc, #88]	; (3c78 <isr+0x2a4>)
					int p=__builtin_ctz(rx);
					run_callbacks(endpoint_queue_head + p * 2);
					rx &= ~(1<<p);
    3c20:	f04f 0901 	mov.w	r9, #1
    3c24:	46b3      	mov	fp, r6
				}

				// receive:
				uint32_t rx = completestatus & 0xffff;
				while(rx) {
					int p=__builtin_ctz(rx);
    3c26:	fa97 f5a7 	rbit	r5, r7
    3c2a:	fab5 f585 	clz	r5, r5
					run_callbacks(endpoint_queue_head + p * 2);
    3c2e:	eb0b 1ac5 	add.w	sl, fp, r5, lsl #7
};*/

static void run_callbacks(endpoint_t *ep)
{
	//printf("run_callbacks\n");
	transfer_t *first = ep->first_transfer;
    3c32:	f8da 0030 	ldr.w	r0, [sl, #48]	; 0x30
	if (first == NULL) return;
    3c36:	b1a8      	cbz	r0, 3c64 <isr+0x290>
    3c38:	4602      	mov	r2, r0
    3c3a:	2400      	movs	r4, #0
    3c3c:	e004      	b.n	3c48 <isr+0x274>
			//printf(" still active\n");
			ep->first_transfer = t;
			break;
		}
		count++;
		t = (transfer_t *)t->next;
    3c3e:	6812      	ldr	r2, [r2, #0]
			// found a still-active transfer, new list begins here
			//printf(" still active\n");
			ep->first_transfer = t;
			break;
		}
		count++;
    3c40:	3401      	adds	r4, #1
		t = (transfer_t *)t->next;
		if ((uint32_t)t == 1) {
    3c42:	2a01      	cmp	r2, #1
    3c44:	f000 82ad 	beq.w	41a2 <isr+0x7ce>

	// count how many transfers are completed, then remove them from the endpoint's list
	uint32_t count = 0;
	transfer_t *t = first;
	while (1) {
		if (t->status & (1<<7)) {
    3c48:	6853      	ldr	r3, [r2, #4]
    3c4a:	f013 0380 	ands.w	r3, r3, #128	; 0x80
    3c4e:	d0f6      	beq.n	3c3e <isr+0x26a>
			// found a still-active transfer, new list begins here
			//printf(" still active\n");
			ep->first_transfer = t;
    3c50:	f8ca 2030 	str.w	r2, [sl, #48]	; 0x30
			ep->last_transfer = NULL;
			break;
		}
	}
	// do all the callbacks
	while (count) {
    3c54:	b134      	cbz	r4, 3c64 <isr+0x290>
		transfer_t *next = (transfer_t *)first->next;
		ep->callback_function(first);
    3c56:	f8da 3038 	ldr.w	r3, [sl, #56]	; 0x38
			break;
		}
	}
	// do all the callbacks
	while (count) {
		transfer_t *next = (transfer_t *)first->next;
    3c5a:	6806      	ldr	r6, [r0, #0]
		ep->callback_function(first);
    3c5c:	4798      	blx	r3
			ep->last_transfer = NULL;
			break;
		}
	}
	// do all the callbacks
	while (count) {
    3c5e:	3c01      	subs	r4, #1
		transfer_t *next = (transfer_t *)first->next;
		ep->callback_function(first);
		first = next;
    3c60:	4630      	mov	r0, r6
			ep->last_transfer = NULL;
			break;
		}
	}
	// do all the callbacks
	while (count) {
    3c62:	d1f8      	bne.n	3c56 <isr+0x282>
				// receive:
				uint32_t rx = completestatus & 0xffff;
				while(rx) {
					int p=__builtin_ctz(rx);
					run_callbacks(endpoint_queue_head + p * 2);
					rx &= ~(1<<p);
    3c64:	fa09 f505 	lsl.w	r5, r9, r5
					tx &= ~(1<<p);
				}

				// receive:
				uint32_t rx = completestatus & 0xffff;
				while(rx) {
    3c68:	43af      	bics	r7, r5
    3c6a:	d1dc      	bne.n	3c26 <isr+0x252>
    3c6c:	e74c      	b.n	3b08 <isr+0x134>
		if (USB1_PORTSC1 & USB_PORTSC1_HSP) {
			//printf("port at 480 Mbit\n");
			usb_high_speed = 1;
		} else {
			//printf("port at 12 Mbit\n");
			usb_high_speed = 0;
    3c6e:	4a0c      	ldr	r2, [pc, #48]	; (3ca0 <isr+0x2cc>)
    3c70:	7013      	strb	r3, [r2, #0]
    3c72:	e77f      	b.n	3b74 <isr+0x1a0>
    3c74:	402e0000 	.word	0x402e0000
    3c78:	20004000 	.word	0x20004000
    3c7c:	402e01c0 	.word	0x402e01c0
    3c80:	20001ad0 	.word	0x20001ad0
    3c84:	20003000 	.word	0x20003000
    3c88:	00020080 	.word	0x00020080
    3c8c:	20002ad0 	.word	0x20002ad0
    3c90:	20003020 	.word	0x20003020
    3c94:	20001aac 	.word	0x20001aac
    3c98:	20001aa8 	.word	0x20001aa8
    3c9c:	20001ab4 	.word	0x20001ab4
    3ca0:	20001ab8 	.word	0x20001ab8
    3ca4:	20001ac0 	.word	0x20001ac0
    3ca8:	20001ab0 	.word	0x20001ab0
    3cac:	20001abc 	.word	0x20001abc
	setup_t setup;
	uint32_t endpoint, dir, ctrl;
	const usb_descriptor_list_t *list;

	setup.bothwords = setupdata;
	switch (setup.wRequestAndType) {
    3cb0:	f242 0721 	movw	r7, #8225	; 0x2021
    3cb4:	42b9      	cmp	r1, r7
    3cb6:	d034      	beq.n	3d22 <isr+0x34e>
    3cb8:	d867      	bhi.n	3d8a <isr+0x3b6>
    3cba:	f5b1 6f08 	cmp.w	r1, #2176	; 0x880
    3cbe:	f000 8130 	beq.w	3f22 <isr+0x54e>
    3cc2:	f5b1 6f10 	cmp.w	r1, #2304	; 0x900
    3cc6:	d130      	bne.n	3d2a <isr+0x356>
	  case 0x0500: // SET_ADDRESS
		endpoint0_receive(NULL, 0, 0);
		USB1_DEVICEADDR = USB_DEVICEADDR_USBADR(setup.wValue) | USB_DEVICEADDR_USBADRA;
		return;
	  case 0x0900: // SET_CONFIGURATION
		usb_configuration = setup.wValue;
    3cc8:	f3c0 4007 	ubfx	r0, r0, #16, #8
    3ccc:	4ab7      	ldr	r2, [pc, #732]	; (3fac <isr+0x5d8>)
		// configure all other endpoints
		#if defined(ENDPOINT2_CONFIG)
		USB1_ENDPTCTRL2 = ENDPOINT2_CONFIG;
		#endif
		#if defined(ENDPOINT3_CONFIG)
		USB1_ENDPTCTRL3 = ENDPOINT3_CONFIG;
    3cce:	49b8      	ldr	r1, [pc, #736]	; (3fb0 <isr+0x5dc>)
	  case 0x0500: // SET_ADDRESS
		endpoint0_receive(NULL, 0, 0);
		USB1_DEVICEADDR = USB_DEVICEADDR_USBADR(setup.wValue) | USB_DEVICEADDR_USBADRA;
		return;
	  case 0x0900: // SET_CONFIGURATION
		usb_configuration = setup.wValue;
    3cd0:	7010      	strb	r0, [r2, #0]
		// configure all other endpoints
		#if defined(ENDPOINT2_CONFIG)
		USB1_ENDPTCTRL2 = ENDPOINT2_CONFIG;
    3cd2:	4fb8      	ldr	r7, [pc, #736]	; (3fb4 <isr+0x5e0>)
		#endif
		#if defined(ENDPOINT3_CONFIG)
		USB1_ENDPTCTRL3 = ENDPOINT3_CONFIG;
		#endif
		#if defined(ENDPOINT4_CONFIG)
		USB1_ENDPTCTRL4 = ENDPOINT4_CONFIG;
    3cd4:	4ab8      	ldr	r2, [pc, #736]	; (3fb8 <isr+0x5e4>)
    3cd6:	9301      	str	r3, [sp, #4]
		return;
	  case 0x0900: // SET_CONFIGURATION
		usb_configuration = setup.wValue;
		// configure all other endpoints
		#if defined(ENDPOINT2_CONFIG)
		USB1_ENDPTCTRL2 = ENDPOINT2_CONFIG;
    3cd8:	f8c5 71c8 	str.w	r7, [r5, #456]	; 0x1c8
		#endif
		#if defined(ENDPOINT3_CONFIG)
		USB1_ENDPTCTRL3 = ENDPOINT3_CONFIG;
    3cdc:	f8c5 11cc 	str.w	r1, [r5, #460]	; 0x1cc
		#endif
		#if defined(ENDPOINT4_CONFIG)
		USB1_ENDPTCTRL4 = ENDPOINT4_CONFIG;
    3ce0:	f8c5 21d0 	str.w	r2, [r5, #464]	; 0x1d0
		#endif
		#if defined(ENDPOINT7_CONFIG)
		USB1_ENDPTCTRL7 = ENDPOINT7_CONFIG;
		#endif
		#if defined(CDC_STATUS_INTERFACE) && defined(CDC_DATA_INTERFACE)
		usb_serial_configure();
    3ce4:	f000 fd12 	bl	470c <usb_serial_configure>
		endpoint_queue_head[0].next = (uint32_t)&endpoint0_transfer_data;
		endpoint_queue_head[0].status = 0;
		USB1_ENDPTPRIME |= (1<<0);
		while (USB1_ENDPTPRIME) ;
	}
	endpoint0_transfer_ack.next = 1;
    3ce8:	4ab4      	ldr	r2, [pc, #720]	; (3fbc <isr+0x5e8>)
	endpoint0_transfer_ack.status = (1<<7) | (notify ? (1 << 15) : 0);
	endpoint0_transfer_ack.pointer0 = 0;
	endpoint_queue_head[1].next = (uint32_t)&endpoint0_transfer_ack;
	endpoint_queue_head[1].status = 0;
    3cea:	9b01      	ldr	r3, [sp, #4]
		endpoint_queue_head[0].status = 0;
		USB1_ENDPTPRIME |= (1<<0);
		while (USB1_ENDPTPRIME) ;
	}
	endpoint0_transfer_ack.next = 1;
	endpoint0_transfer_ack.status = (1<<7) | (notify ? (1 << 15) : 0);
    3cec:	2180      	movs	r1, #128	; 0x80
		endpoint_queue_head[0].next = (uint32_t)&endpoint0_transfer_data;
		endpoint_queue_head[0].status = 0;
		USB1_ENDPTPRIME |= (1<<0);
		while (USB1_ENDPTPRIME) ;
	}
	endpoint0_transfer_ack.next = 1;
    3cee:	2001      	movs	r0, #1
	endpoint0_transfer_ack.status = (1<<7) | (notify ? (1 << 15) : 0);
	endpoint0_transfer_ack.pointer0 = 0;
	endpoint_queue_head[1].next = (uint32_t)&endpoint0_transfer_ack;
    3cf0:	64b2      	str	r2, [r6, #72]	; 0x48
		endpoint_queue_head[0].status = 0;
		USB1_ENDPTPRIME |= (1<<0);
		while (USB1_ENDPTPRIME) ;
	}
	endpoint0_transfer_ack.next = 1;
	endpoint0_transfer_ack.status = (1<<7) | (notify ? (1 << 15) : 0);
    3cf2:	6051      	str	r1, [r2, #4]
		endpoint_queue_head[0].next = (uint32_t)&endpoint0_transfer_data;
		endpoint_queue_head[0].status = 0;
		USB1_ENDPTPRIME |= (1<<0);
		while (USB1_ENDPTPRIME) ;
	}
	endpoint0_transfer_ack.next = 1;
    3cf4:	6010      	str	r0, [r2, #0]
	endpoint0_transfer_ack.status = (1<<7) | (notify ? (1 << 15) : 0);
	endpoint0_transfer_ack.pointer0 = 0;
	endpoint_queue_head[1].next = (uint32_t)&endpoint0_transfer_ack;
	endpoint_queue_head[1].status = 0;
    3cf6:	64f3      	str	r3, [r6, #76]	; 0x4c
	USB1_ENDPTCOMPLETE = (1<<0) | (1<<16);
    3cf8:	f8c5 a1bc 	str.w	sl, [r5, #444]	; 0x1bc
	USB1_ENDPTPRIME |= (1<<16);
    3cfc:	f8d5 11b0 	ldr.w	r1, [r5, #432]	; 0x1b0
		USB1_ENDPTPRIME |= (1<<0);
		while (USB1_ENDPTPRIME) ;
	}
	endpoint0_transfer_ack.next = 1;
	endpoint0_transfer_ack.status = (1<<7) | (notify ? (1 << 15) : 0);
	endpoint0_transfer_ack.pointer0 = 0;
    3d00:	6093      	str	r3, [r2, #8]
	endpoint_queue_head[1].next = (uint32_t)&endpoint0_transfer_ack;
	endpoint_queue_head[1].status = 0;
	USB1_ENDPTCOMPLETE = (1<<0) | (1<<16);
	USB1_ENDPTPRIME |= (1<<16);
    3d02:	f441 3280 	orr.w	r2, r1, #65536	; 0x10000
    3d06:	f8c5 21b0 	str.w	r2, [r5, #432]	; 0x1b0
	endpoint0_notify_mask = (notify ? (1 << 16) : 0);
    3d0a:	4aad      	ldr	r2, [pc, #692]	; (3fc0 <isr+0x5ec>)
    3d0c:	6013      	str	r3, [r2, #0]
	while (USB1_ENDPTPRIME) ;
    3d0e:	f8d4 31b0 	ldr.w	r3, [r4, #432]	; 0x1b0
    3d12:	2b00      	cmp	r3, #0
    3d14:	d1fb      	bne.n	3d0e <isr+0x33a>
			//printf("setup %08lX %08lX\n", s.word1, s.word2);
			USB1_ENDPTFLUSH = (1<<16) | (1<<0); // page 3174
			while (USB1_ENDPTFLUSH & ((1<<16) | (1<<0))) ;
			endpoint0_notify_mask = 0;
			endpoint0_setup(s.bothwords);
			setupstatus = USB1_ENDPTSETUPSTAT; // page 3175
    3d16:	f8d4 31ac 	ldr.w	r3, [r4, #428]	; 0x1ac

	if (status & USB_USBSTS_UI) {
		//printf("data\n");
		uint32_t setupstatus = USB1_ENDPTSETUPSTAT;
		//printf("USB1_ENDPTSETUPSTAT=%X\n", setupstatus);
		while (setupstatus) {
    3d1a:	2b00      	cmp	r3, #0
    3d1c:	f47f ae72 	bne.w	3a04 <isr+0x30>
    3d20:	e6ed      	b.n	3afe <isr+0x12a>
		// fall through to next case, to always send ZLP ACK
	  case 0x2321: // CDC_SEND_BREAK
		endpoint0_receive(NULL, 0, 0);
		return;
	  case 0x2021: // CDC_SET_LINE_CODING
		if (setup.wLength != 7) break;
    3d22:	0c11      	lsrs	r1, r2, #16
    3d24:	2907      	cmp	r1, #7
    3d26:	f000 81cf 	beq.w	40c8 <isr+0x6f4>
			return;
		}
		break;
#endif
	}
	USB1_ENDPTCTRL0 = 0x000010001; // stall
    3d2a:	f8c4 a1c0 	str.w	sl, [r4, #448]	; 0x1c0
			//printf("setup %08lX %08lX\n", s.word1, s.word2);
			USB1_ENDPTFLUSH = (1<<16) | (1<<0); // page 3174
			while (USB1_ENDPTFLUSH & ((1<<16) | (1<<0))) ;
			endpoint0_notify_mask = 0;
			endpoint0_setup(s.bothwords);
			setupstatus = USB1_ENDPTSETUPSTAT; // page 3175
    3d2e:	f8d4 31ac 	ldr.w	r3, [r4, #428]	; 0x1ac

	if (status & USB_USBSTS_UI) {
		//printf("data\n");
		uint32_t setupstatus = USB1_ENDPTSETUPSTAT;
		//printf("USB1_ENDPTSETUPSTAT=%X\n", setupstatus);
		while (setupstatus) {
    3d32:	2b00      	cmp	r3, #0
    3d34:	f47f ae66 	bne.w	3a04 <isr+0x30>
    3d38:	e6e1      	b.n	3afe <isr+0x12a>
	setup_t setup;
	uint32_t endpoint, dir, ctrl;
	const usb_descriptor_list_t *list;

	setup.bothwords = setupdata;
	switch (setup.wRequestAndType) {
    3d3a:	f240 3702 	movw	r7, #770	; 0x302
    3d3e:	42b9      	cmp	r1, r7
    3d40:	f000 80bf 	beq.w	3ec2 <isr+0x4ee>
    3d44:	f5b1 6fa0 	cmp.w	r1, #1280	; 0x500
    3d48:	d1ef      	bne.n	3d2a <isr+0x356>
		endpoint_queue_head[0].next = (uint32_t)&endpoint0_transfer_data;
		endpoint_queue_head[0].status = 0;
		USB1_ENDPTPRIME |= (1<<0);
		while (USB1_ENDPTPRIME) ;
	}
	endpoint0_transfer_ack.next = 1;
    3d4a:	4a9c      	ldr	r2, [pc, #624]	; (3fbc <isr+0x5e8>)
	endpoint0_transfer_ack.status = (1<<7) | (notify ? (1 << 15) : 0);
    3d4c:	2180      	movs	r1, #128	; 0x80
		endpoint_queue_head[0].next = (uint32_t)&endpoint0_transfer_data;
		endpoint_queue_head[0].status = 0;
		USB1_ENDPTPRIME |= (1<<0);
		while (USB1_ENDPTPRIME) ;
	}
	endpoint0_transfer_ack.next = 1;
    3d4e:	2701      	movs	r7, #1
	endpoint0_transfer_ack.status = (1<<7) | (notify ? (1 << 15) : 0);
	endpoint0_transfer_ack.pointer0 = 0;
	endpoint_queue_head[1].next = (uint32_t)&endpoint0_transfer_ack;
	endpoint_queue_head[1].status = 0;
    3d50:	64f3      	str	r3, [r6, #76]	; 0x4c
		while (USB1_ENDPTPRIME) ;
	}
	endpoint0_transfer_ack.next = 1;
	endpoint0_transfer_ack.status = (1<<7) | (notify ? (1 << 15) : 0);
	endpoint0_transfer_ack.pointer0 = 0;
	endpoint_queue_head[1].next = (uint32_t)&endpoint0_transfer_ack;
    3d52:	64b2      	str	r2, [r6, #72]	; 0x48
		endpoint_queue_head[0].next = (uint32_t)&endpoint0_transfer_data;
		endpoint_queue_head[0].status = 0;
		USB1_ENDPTPRIME |= (1<<0);
		while (USB1_ENDPTPRIME) ;
	}
	endpoint0_transfer_ack.next = 1;
    3d54:	6017      	str	r7, [r2, #0]
	endpoint0_transfer_ack.status = (1<<7) | (notify ? (1 << 15) : 0);
    3d56:	6051      	str	r1, [r2, #4]
	endpoint0_transfer_ack.pointer0 = 0;
	endpoint_queue_head[1].next = (uint32_t)&endpoint0_transfer_ack;
	endpoint_queue_head[1].status = 0;
	USB1_ENDPTCOMPLETE = (1<<0) | (1<<16);
    3d58:	f8c5 a1bc 	str.w	sl, [r5, #444]	; 0x1bc
	USB1_ENDPTPRIME |= (1<<16);
    3d5c:	f8d5 11b0 	ldr.w	r1, [r5, #432]	; 0x1b0
		USB1_ENDPTPRIME |= (1<<0);
		while (USB1_ENDPTPRIME) ;
	}
	endpoint0_transfer_ack.next = 1;
	endpoint0_transfer_ack.status = (1<<7) | (notify ? (1 << 15) : 0);
	endpoint0_transfer_ack.pointer0 = 0;
    3d60:	6093      	str	r3, [r2, #8]
	endpoint_queue_head[1].next = (uint32_t)&endpoint0_transfer_ack;
	endpoint_queue_head[1].status = 0;
	USB1_ENDPTCOMPLETE = (1<<0) | (1<<16);
	USB1_ENDPTPRIME |= (1<<16);
    3d62:	f441 3380 	orr.w	r3, r1, #65536	; 0x10000
    3d66:	f8c5 31b0 	str.w	r3, [r5, #432]	; 0x1b0
	endpoint0_notify_mask = (notify ? (1 << 16) : 0);
	while (USB1_ENDPTPRIME) ;
    3d6a:	f8d4 31b0 	ldr.w	r3, [r4, #432]	; 0x1b0
    3d6e:	2b00      	cmp	r3, #0
    3d70:	d1fb      	bne.n	3d6a <isr+0x396>

	setup.bothwords = setupdata;
	switch (setup.wRequestAndType) {
	  case 0x0500: // SET_ADDRESS
		endpoint0_receive(NULL, 0, 0);
		USB1_DEVICEADDR = USB_DEVICEADDR_USBADR(setup.wValue) | USB_DEVICEADDR_USBADRA;
    3d72:	0c03      	lsrs	r3, r0, #16
    3d74:	065b      	lsls	r3, r3, #25
    3d76:	f043 7380 	orr.w	r3, r3, #16777216	; 0x1000000
    3d7a:	f8c5 3154 	str.w	r3, [r5, #340]	; 0x154
			//printf("setup %08lX %08lX\n", s.word1, s.word2);
			USB1_ENDPTFLUSH = (1<<16) | (1<<0); // page 3174
			while (USB1_ENDPTFLUSH & ((1<<16) | (1<<0))) ;
			endpoint0_notify_mask = 0;
			endpoint0_setup(s.bothwords);
			setupstatus = USB1_ENDPTSETUPSTAT; // page 3175
    3d7e:	f8d4 31ac 	ldr.w	r3, [r4, #428]	; 0x1ac

	if (status & USB_USBSTS_UI) {
		//printf("data\n");
		uint32_t setupstatus = USB1_ENDPTSETUPSTAT;
		//printf("USB1_ENDPTSETUPSTAT=%X\n", setupstatus);
		while (setupstatus) {
    3d82:	2b00      	cmp	r3, #0
    3d84:	f47f ae3e 	bne.w	3a04 <isr+0x30>
    3d88:	e6b9      	b.n	3afe <isr+0x12a>
	setup_t setup;
	uint32_t endpoint, dir, ctrl;
	const usb_descriptor_list_t *list;

	setup.bothwords = setupdata;
	switch (setup.wRequestAndType) {
    3d8a:	f242 2321 	movw	r3, #8737	; 0x2221
    3d8e:	4299      	cmp	r1, r3
    3d90:	f000 808a 	beq.w	3ea8 <isr+0x4d4>
    3d94:	f242 3321 	movw	r3, #8993	; 0x2321
    3d98:	4299      	cmp	r1, r3
    3d9a:	d1c6      	bne.n	3d2a <isr+0x356>
		endpoint_queue_head[0].next = (uint32_t)&endpoint0_transfer_data;
		endpoint_queue_head[0].status = 0;
		USB1_ENDPTPRIME |= (1<<0);
		while (USB1_ENDPTPRIME) ;
	}
	endpoint0_transfer_ack.next = 1;
    3d9c:	4b87      	ldr	r3, [pc, #540]	; (3fbc <isr+0x5e8>)
	endpoint0_transfer_ack.status = (1<<7) | (notify ? (1 << 15) : 0);
    3d9e:	2280      	movs	r2, #128	; 0x80
	endpoint0_transfer_ack.pointer0 = 0;
    3da0:	2100      	movs	r1, #0
		endpoint_queue_head[0].next = (uint32_t)&endpoint0_transfer_data;
		endpoint_queue_head[0].status = 0;
		USB1_ENDPTPRIME |= (1<<0);
		while (USB1_ENDPTPRIME) ;
	}
	endpoint0_transfer_ack.next = 1;
    3da2:	2001      	movs	r0, #1
	endpoint0_transfer_ack.status = (1<<7) | (notify ? (1 << 15) : 0);
	endpoint0_transfer_ack.pointer0 = 0;
	endpoint_queue_head[1].next = (uint32_t)&endpoint0_transfer_ack;
    3da4:	64b3      	str	r3, [r6, #72]	; 0x48
		endpoint_queue_head[0].next = (uint32_t)&endpoint0_transfer_data;
		endpoint_queue_head[0].status = 0;
		USB1_ENDPTPRIME |= (1<<0);
		while (USB1_ENDPTPRIME) ;
	}
	endpoint0_transfer_ack.next = 1;
    3da6:	6018      	str	r0, [r3, #0]
	endpoint0_transfer_ack.status = (1<<7) | (notify ? (1 << 15) : 0);
    3da8:	605a      	str	r2, [r3, #4]
	endpoint0_transfer_ack.pointer0 = 0;
	endpoint_queue_head[1].next = (uint32_t)&endpoint0_transfer_ack;
	endpoint_queue_head[1].status = 0;
    3daa:	64f1      	str	r1, [r6, #76]	; 0x4c
	USB1_ENDPTCOMPLETE = (1<<0) | (1<<16);
    3dac:	f8c4 a1bc 	str.w	sl, [r4, #444]	; 0x1bc
	USB1_ENDPTPRIME |= (1<<16);
    3db0:	f8d4 21b0 	ldr.w	r2, [r4, #432]	; 0x1b0
		USB1_ENDPTPRIME |= (1<<0);
		while (USB1_ENDPTPRIME) ;
	}
	endpoint0_transfer_ack.next = 1;
	endpoint0_transfer_ack.status = (1<<7) | (notify ? (1 << 15) : 0);
	endpoint0_transfer_ack.pointer0 = 0;
    3db4:	6099      	str	r1, [r3, #8]
	endpoint_queue_head[1].next = (uint32_t)&endpoint0_transfer_ack;
	endpoint_queue_head[1].status = 0;
	USB1_ENDPTCOMPLETE = (1<<0) | (1<<16);
	USB1_ENDPTPRIME |= (1<<16);
    3db6:	f442 3380 	orr.w	r3, r2, #65536	; 0x10000
    3dba:	f8c4 31b0 	str.w	r3, [r4, #432]	; 0x1b0
	endpoint0_notify_mask = (notify ? (1 << 16) : 0);
	while (USB1_ENDPTPRIME) ;
    3dbe:	f8d4 31b0 	ldr.w	r3, [r4, #432]	; 0x1b0
    3dc2:	2b00      	cmp	r3, #0
    3dc4:	d1fb      	bne.n	3dbe <isr+0x3ea>
			//printf("setup %08lX %08lX\n", s.word1, s.word2);
			USB1_ENDPTFLUSH = (1<<16) | (1<<0); // page 3174
			while (USB1_ENDPTFLUSH & ((1<<16) | (1<<0))) ;
			endpoint0_notify_mask = 0;
			endpoint0_setup(s.bothwords);
			setupstatus = USB1_ENDPTSETUPSTAT; // page 3175
    3dc6:	f8d4 31ac 	ldr.w	r3, [r4, #428]	; 0x1ac

	if (status & USB_USBSTS_UI) {
		//printf("data\n");
		uint32_t setupstatus = USB1_ENDPTSETUPSTAT;
		//printf("USB1_ENDPTSETUPSTAT=%X\n", setupstatus);
		while (setupstatus) {
    3dca:	2b00      	cmp	r3, #0
    3dcc:	f47f ae1a 	bne.w	3a04 <isr+0x30>
    3dd0:	e695      	b.n	3afe <isr+0x12a>
static void endpoint0_transmit(const void *data, uint32_t len, int notify)
{
	//printf("tx %lu\n", len);
	if (len > 0) {
		// Executing A Transfer Descriptor, page 3182
		endpoint0_transfer_data.next = 1;
    3dd2:	487c      	ldr	r0, [pc, #496]	; (3fc4 <isr+0x5f0>)
    3dd4:	2701      	movs	r7, #1
	  case 0x0880: // GET_CONFIGURATION
		reply_buffer[0] = usb_configuration;
		endpoint0_transmit(reply_buffer, 1, 0);
		return;
	  case 0x0080: // GET_STATUS (device)
		reply_buffer[0] = 0;
    3dd6:	497c      	ldr	r1, [pc, #496]	; (3fc8 <isr+0x5f4>)
{
	//printf("tx %lu\n", len);
	if (len > 0) {
		// Executing A Transfer Descriptor, page 3182
		endpoint0_transfer_data.next = 1;
		endpoint0_transfer_data.status = (len << 16) | (1<<7);
    3dd8:	4a7c      	ldr	r2, [pc, #496]	; (3fcc <isr+0x5f8>)
		endpoint0_transfer_data.pointer2 = addr + 8192;
		endpoint0_transfer_data.pointer3 = addr + 12288;
		endpoint0_transfer_data.pointer4 = addr + 16384;
		//  Case 1: Link list is empty, page 3182
		endpoint_queue_head[1].next = (uint32_t)&endpoint0_transfer_data;
		endpoint_queue_head[1].status = 0;
    3dda:	64f3      	str	r3, [r6, #76]	; 0x4c
	  case 0x0880: // GET_CONFIGURATION
		reply_buffer[0] = usb_configuration;
		endpoint0_transmit(reply_buffer, 1, 0);
		return;
	  case 0x0080: // GET_STATUS (device)
		reply_buffer[0] = 0;
    3ddc:	700b      	strb	r3, [r1, #0]
		reply_buffer[1] = 0;
    3dde:	704b      	strb	r3, [r1, #1]
		endpoint0_transfer_data.next = 1;
		endpoint0_transfer_data.status = (len << 16) | (1<<7);
		uint32_t addr = (uint32_t)data;
		endpoint0_transfer_data.pointer0 = addr; // format: table 55-60, pg 3159
		endpoint0_transfer_data.pointer1 = addr + 4096;
		endpoint0_transfer_data.pointer2 = addr + 8192;
    3de0:	f501 5300 	add.w	r3, r1, #8192	; 0x2000
static void endpoint0_transmit(const void *data, uint32_t len, int notify)
{
	//printf("tx %lu\n", len);
	if (len > 0) {
		// Executing A Transfer Descriptor, page 3182
		endpoint0_transfer_data.next = 1;
    3de4:	6007      	str	r7, [r0, #0]
		endpoint0_transfer_data.status = (len << 16) | (1<<7);
		uint32_t addr = (uint32_t)data;
		endpoint0_transfer_data.pointer0 = addr; // format: table 55-60, pg 3159
		endpoint0_transfer_data.pointer1 = addr + 4096;
    3de6:	f501 5780 	add.w	r7, r1, #4096	; 0x1000
		endpoint0_transfer_data.pointer2 = addr + 8192;
		endpoint0_transfer_data.pointer3 = addr + 12288;
		endpoint0_transfer_data.pointer4 = addr + 16384;
		//  Case 1: Link list is empty, page 3182
		endpoint_queue_head[1].next = (uint32_t)&endpoint0_transfer_data;
    3dea:	64b0      	str	r0, [r6, #72]	; 0x48
{
	//printf("tx %lu\n", len);
	if (len > 0) {
		// Executing A Transfer Descriptor, page 3182
		endpoint0_transfer_data.next = 1;
		endpoint0_transfer_data.status = (len << 16) | (1<<7);
    3dec:	6042      	str	r2, [r0, #4]
		endpoint0_transfer_data.pointer3 = addr + 12288;
		endpoint0_transfer_data.pointer4 = addr + 16384;
		//  Case 1: Link list is empty, page 3182
		endpoint_queue_head[1].next = (uint32_t)&endpoint0_transfer_data;
		endpoint_queue_head[1].status = 0;
		USB1_ENDPTPRIME |= (1<<16);
    3dee:	f8d5 21b0 	ldr.w	r2, [r5, #432]	; 0x1b0
		// Executing A Transfer Descriptor, page 3182
		endpoint0_transfer_data.next = 1;
		endpoint0_transfer_data.status = (len << 16) | (1<<7);
		uint32_t addr = (uint32_t)data;
		endpoint0_transfer_data.pointer0 = addr; // format: table 55-60, pg 3159
		endpoint0_transfer_data.pointer1 = addr + 4096;
    3df2:	60c7      	str	r7, [r0, #12]
		endpoint0_transfer_data.pointer2 = addr + 8192;
		endpoint0_transfer_data.pointer3 = addr + 12288;
    3df4:	f501 5740 	add.w	r7, r1, #12288	; 0x3000
		endpoint0_transfer_data.next = 1;
		endpoint0_transfer_data.status = (len << 16) | (1<<7);
		uint32_t addr = (uint32_t)data;
		endpoint0_transfer_data.pointer0 = addr; // format: table 55-60, pg 3159
		endpoint0_transfer_data.pointer1 = addr + 4096;
		endpoint0_transfer_data.pointer2 = addr + 8192;
    3df8:	6103      	str	r3, [r0, #16]
		endpoint0_transfer_data.pointer3 = addr + 12288;
		endpoint0_transfer_data.pointer4 = addr + 16384;
		//  Case 1: Link list is empty, page 3182
		endpoint_queue_head[1].next = (uint32_t)&endpoint0_transfer_data;
		endpoint_queue_head[1].status = 0;
		USB1_ENDPTPRIME |= (1<<16);
    3dfa:	f442 3280 	orr.w	r2, r2, #65536	; 0x10000
		uint32_t addr = (uint32_t)data;
		endpoint0_transfer_data.pointer0 = addr; // format: table 55-60, pg 3159
		endpoint0_transfer_data.pointer1 = addr + 4096;
		endpoint0_transfer_data.pointer2 = addr + 8192;
		endpoint0_transfer_data.pointer3 = addr + 12288;
		endpoint0_transfer_data.pointer4 = addr + 16384;
    3dfe:	f501 4380 	add.w	r3, r1, #16384	; 0x4000
	if (len > 0) {
		// Executing A Transfer Descriptor, page 3182
		endpoint0_transfer_data.next = 1;
		endpoint0_transfer_data.status = (len << 16) | (1<<7);
		uint32_t addr = (uint32_t)data;
		endpoint0_transfer_data.pointer0 = addr; // format: table 55-60, pg 3159
    3e02:	6081      	str	r1, [r0, #8]
		endpoint0_transfer_data.pointer3 = addr + 12288;
		endpoint0_transfer_data.pointer4 = addr + 16384;
		//  Case 1: Link list is empty, page 3182
		endpoint_queue_head[1].next = (uint32_t)&endpoint0_transfer_data;
		endpoint_queue_head[1].status = 0;
		USB1_ENDPTPRIME |= (1<<16);
    3e04:	f8c5 21b0 	str.w	r2, [r5, #432]	; 0x1b0
		endpoint0_transfer_data.status = (len << 16) | (1<<7);
		uint32_t addr = (uint32_t)data;
		endpoint0_transfer_data.pointer0 = addr; // format: table 55-60, pg 3159
		endpoint0_transfer_data.pointer1 = addr + 4096;
		endpoint0_transfer_data.pointer2 = addr + 8192;
		endpoint0_transfer_data.pointer3 = addr + 12288;
    3e08:	6147      	str	r7, [r0, #20]
		endpoint0_transfer_data.pointer4 = addr + 16384;
    3e0a:	6183      	str	r3, [r0, #24]
		//  Case 1: Link list is empty, page 3182
		endpoint_queue_head[1].next = (uint32_t)&endpoint0_transfer_data;
		endpoint_queue_head[1].status = 0;
		USB1_ENDPTPRIME |= (1<<16);
		while (USB1_ENDPTPRIME) ;
    3e0c:	f8d4 31b0 	ldr.w	r3, [r4, #432]	; 0x1b0
    3e10:	2b00      	cmp	r3, #0
    3e12:	d1fb      	bne.n	3e0c <isr+0x438>
	}
	endpoint0_transfer_ack.next = 1;
    3e14:	4a69      	ldr	r2, [pc, #420]	; (3fbc <isr+0x5e8>)
    3e16:	2001      	movs	r0, #1
	endpoint0_transfer_ack.status = (1<<7) | (notify ? (1 << 15) : 0);
    3e18:	2180      	movs	r1, #128	; 0x80
	endpoint0_transfer_ack.pointer0 = 0;
	endpoint_queue_head[0].next = (uint32_t)&endpoint0_transfer_ack;
	endpoint_queue_head[0].status = 0;
    3e1a:	60f3      	str	r3, [r6, #12]
		while (USB1_ENDPTPRIME) ;
	}
	endpoint0_transfer_ack.next = 1;
	endpoint0_transfer_ack.status = (1<<7) | (notify ? (1 << 15) : 0);
	endpoint0_transfer_ack.pointer0 = 0;
	endpoint_queue_head[0].next = (uint32_t)&endpoint0_transfer_ack;
    3e1c:	60b2      	str	r2, [r6, #8]
		endpoint_queue_head[1].next = (uint32_t)&endpoint0_transfer_data;
		endpoint_queue_head[1].status = 0;
		USB1_ENDPTPRIME |= (1<<16);
		while (USB1_ENDPTPRIME) ;
	}
	endpoint0_transfer_ack.next = 1;
    3e1e:	6010      	str	r0, [r2, #0]
	endpoint0_transfer_ack.status = (1<<7) | (notify ? (1 << 15) : 0);
    3e20:	6051      	str	r1, [r2, #4]
	endpoint0_transfer_ack.pointer0 = 0;
	endpoint_queue_head[0].next = (uint32_t)&endpoint0_transfer_ack;
	endpoint_queue_head[0].status = 0;
	USB1_ENDPTCOMPLETE = (1<<0) | (1<<16);
    3e22:	f8c5 a1bc 	str.w	sl, [r5, #444]	; 0x1bc
	USB1_ENDPTPRIME |= (1<<0);
    3e26:	f8d5 11b0 	ldr.w	r1, [r5, #432]	; 0x1b0
		USB1_ENDPTPRIME |= (1<<16);
		while (USB1_ENDPTPRIME) ;
	}
	endpoint0_transfer_ack.next = 1;
	endpoint0_transfer_ack.status = (1<<7) | (notify ? (1 << 15) : 0);
	endpoint0_transfer_ack.pointer0 = 0;
    3e2a:	6093      	str	r3, [r2, #8]
	endpoint_queue_head[0].next = (uint32_t)&endpoint0_transfer_ack;
	endpoint_queue_head[0].status = 0;
	USB1_ENDPTCOMPLETE = (1<<0) | (1<<16);
	USB1_ENDPTPRIME |= (1<<0);
    3e2c:	ea41 0300 	orr.w	r3, r1, r0
    3e30:	f8c5 31b0 	str.w	r3, [r5, #432]	; 0x1b0
	endpoint0_notify_mask = (notify ? (1 << 0) : 0);
	while (USB1_ENDPTPRIME) ;
    3e34:	f8d4 31b0 	ldr.w	r3, [r4, #432]	; 0x1b0
    3e38:	2b00      	cmp	r3, #0
    3e3a:	d1fb      	bne.n	3e34 <isr+0x460>
			//printf("setup %08lX %08lX\n", s.word1, s.word2);
			USB1_ENDPTFLUSH = (1<<16) | (1<<0); // page 3174
			while (USB1_ENDPTFLUSH & ((1<<16) | (1<<0))) ;
			endpoint0_notify_mask = 0;
			endpoint0_setup(s.bothwords);
			setupstatus = USB1_ENDPTSETUPSTAT; // page 3175
    3e3c:	f8d4 31ac 	ldr.w	r3, [r4, #428]	; 0x1ac

	if (status & USB_USBSTS_UI) {
		//printf("data\n");
		uint32_t setupstatus = USB1_ENDPTSETUPSTAT;
		//printf("USB1_ENDPTSETUPSTAT=%X\n", setupstatus);
		while (setupstatus) {
    3e40:	2b00      	cmp	r3, #0
    3e42:	f47f addf 	bne.w	3a04 <isr+0x30>
    3e46:	e65a      	b.n	3afe <isr+0x12a>
			*((volatile uint32_t *)&USB1_ENDPTCTRL0 + endpoint) |= USB_ENDPTCTRL_RXS;
		}
		endpoint0_receive(NULL, 0, 0);
		return;
	  case 0x0102: // CLEAR_FEATURE (endpoint)
		endpoint = setup.wIndex & 0x7F;
    3e48:	b292      	uxth	r2, r2
    3e4a:	f002 037f 	and.w	r3, r2, #127	; 0x7f
		if (endpoint > 7) break;
    3e4e:	2b07      	cmp	r3, #7
    3e50:	f63f af6b 	bhi.w	3d2a <isr+0x356>
		dir = setup.wIndex & 0x80;
		if (dir) {
    3e54:	f012 0f80 	tst.w	r2, #128	; 0x80
			*((volatile uint32_t *)&USB1_ENDPTCTRL0 + endpoint) &= ~USB_ENDPTCTRL_TXS;
    3e58:	ea4f 0383 	mov.w	r3, r3, lsl #2
    3e5c:	4a5c      	ldr	r2, [pc, #368]	; (3fd0 <isr+0x5fc>)
		USB1_ENDPTPRIME |= (1<<0);
		while (USB1_ENDPTPRIME) ;
	}
	endpoint0_transfer_ack.next = 1;
	endpoint0_transfer_ack.status = (1<<7) | (notify ? (1 << 15) : 0);
	endpoint0_transfer_ack.pointer0 = 0;
    3e5e:	f04f 0100 	mov.w	r1, #0
		endpoint_queue_head[0].next = (uint32_t)&endpoint0_transfer_data;
		endpoint_queue_head[0].status = 0;
		USB1_ENDPTPRIME |= (1<<0);
		while (USB1_ENDPTPRIME) ;
	}
	endpoint0_transfer_ack.next = 1;
    3e62:	f04f 0001 	mov.w	r0, #1
	  case 0x0102: // CLEAR_FEATURE (endpoint)
		endpoint = setup.wIndex & 0x7F;
		if (endpoint > 7) break;
		dir = setup.wIndex & 0x80;
		if (dir) {
			*((volatile uint32_t *)&USB1_ENDPTCTRL0 + endpoint) &= ~USB_ENDPTCTRL_TXS;
    3e66:	441a      	add	r2, r3
    3e68:	6813      	ldr	r3, [r2, #0]
    3e6a:	bf14      	ite	ne
    3e6c:	f423 3380 	bicne.w	r3, r3, #65536	; 0x10000
		} else {
			*((volatile uint32_t *)&USB1_ENDPTCTRL0 + endpoint) &= ~USB_ENDPTCTRL_RXS;
    3e70:	f023 0301 	biceq.w	r3, r3, #1
    3e74:	6013      	str	r3, [r2, #0]
		endpoint_queue_head[0].status = 0;
		USB1_ENDPTPRIME |= (1<<0);
		while (USB1_ENDPTPRIME) ;
	}
	endpoint0_transfer_ack.next = 1;
	endpoint0_transfer_ack.status = (1<<7) | (notify ? (1 << 15) : 0);
    3e76:	2280      	movs	r2, #128	; 0x80
		endpoint_queue_head[0].next = (uint32_t)&endpoint0_transfer_data;
		endpoint_queue_head[0].status = 0;
		USB1_ENDPTPRIME |= (1<<0);
		while (USB1_ENDPTPRIME) ;
	}
	endpoint0_transfer_ack.next = 1;
    3e78:	4b50      	ldr	r3, [pc, #320]	; (3fbc <isr+0x5e8>)
	endpoint0_transfer_ack.status = (1<<7) | (notify ? (1 << 15) : 0);
	endpoint0_transfer_ack.pointer0 = 0;
	endpoint_queue_head[1].next = (uint32_t)&endpoint0_transfer_ack;
	endpoint_queue_head[1].status = 0;
    3e7a:	64f1      	str	r1, [r6, #76]	; 0x4c
		while (USB1_ENDPTPRIME) ;
	}
	endpoint0_transfer_ack.next = 1;
	endpoint0_transfer_ack.status = (1<<7) | (notify ? (1 << 15) : 0);
	endpoint0_transfer_ack.pointer0 = 0;
	endpoint_queue_head[1].next = (uint32_t)&endpoint0_transfer_ack;
    3e7c:	64b3      	str	r3, [r6, #72]	; 0x48
		endpoint_queue_head[0].next = (uint32_t)&endpoint0_transfer_data;
		endpoint_queue_head[0].status = 0;
		USB1_ENDPTPRIME |= (1<<0);
		while (USB1_ENDPTPRIME) ;
	}
	endpoint0_transfer_ack.next = 1;
    3e7e:	6018      	str	r0, [r3, #0]
	endpoint0_transfer_ack.status = (1<<7) | (notify ? (1 << 15) : 0);
    3e80:	605a      	str	r2, [r3, #4]
	endpoint0_transfer_ack.pointer0 = 0;
	endpoint_queue_head[1].next = (uint32_t)&endpoint0_transfer_ack;
	endpoint_queue_head[1].status = 0;
	USB1_ENDPTCOMPLETE = (1<<0) | (1<<16);
    3e82:	f8c4 a1bc 	str.w	sl, [r4, #444]	; 0x1bc
	USB1_ENDPTPRIME |= (1<<16);
    3e86:	f8d4 21b0 	ldr.w	r2, [r4, #432]	; 0x1b0
		USB1_ENDPTPRIME |= (1<<0);
		while (USB1_ENDPTPRIME) ;
	}
	endpoint0_transfer_ack.next = 1;
	endpoint0_transfer_ack.status = (1<<7) | (notify ? (1 << 15) : 0);
	endpoint0_transfer_ack.pointer0 = 0;
    3e8a:	6099      	str	r1, [r3, #8]
	endpoint_queue_head[1].next = (uint32_t)&endpoint0_transfer_ack;
	endpoint_queue_head[1].status = 0;
	USB1_ENDPTCOMPLETE = (1<<0) | (1<<16);
	USB1_ENDPTPRIME |= (1<<16);
    3e8c:	f442 3380 	orr.w	r3, r2, #65536	; 0x10000
    3e90:	f8c4 31b0 	str.w	r3, [r4, #432]	; 0x1b0
	endpoint0_notify_mask = (notify ? (1 << 16) : 0);
	while (USB1_ENDPTPRIME) ;
    3e94:	f8d4 31b0 	ldr.w	r3, [r4, #432]	; 0x1b0
    3e98:	2b00      	cmp	r3, #0
    3e9a:	d1fb      	bne.n	3e94 <isr+0x4c0>
			//printf("setup %08lX %08lX\n", s.word1, s.word2);
			USB1_ENDPTFLUSH = (1<<16) | (1<<0); // page 3174
			while (USB1_ENDPTFLUSH & ((1<<16) | (1<<0))) ;
			endpoint0_notify_mask = 0;
			endpoint0_setup(s.bothwords);
			setupstatus = USB1_ENDPTSETUPSTAT; // page 3175
    3e9c:	f8d4 31ac 	ldr.w	r3, [r4, #428]	; 0x1ac

	if (status & USB_USBSTS_UI) {
		//printf("data\n");
		uint32_t setupstatus = USB1_ENDPTSETUPSTAT;
		//printf("USB1_ENDPTSETUPSTAT=%X\n", setupstatus);
		while (setupstatus) {
    3ea0:	2b00      	cmp	r3, #0
    3ea2:	f47f adaf 	bne.w	3a04 <isr+0x30>
    3ea6:	e62a      	b.n	3afe <isr+0x12a>
		}
		break;
#if defined(CDC_STATUS_INTERFACE)
	  case 0x2221: // CDC_SET_CONTROL_LINE_STATE
		#ifdef CDC_STATUS_INTERFACE
		if (setup.wIndex == CDC_STATUS_INTERFACE) {
    3ea8:	b292      	uxth	r2, r2
    3eaa:	2a00      	cmp	r2, #0
    3eac:	f47f af76 	bne.w	3d9c <isr+0x3c8>
			usb_cdc_line_rtsdtr_millis = systick_millis_count;
    3eb0:	4b48      	ldr	r3, [pc, #288]	; (3fd4 <isr+0x600>)
			usb_cdc_line_rtsdtr = setup.wValue;
    3eb2:	f3c0 4007 	ubfx	r0, r0, #16, #8
		break;
#if defined(CDC_STATUS_INTERFACE)
	  case 0x2221: // CDC_SET_CONTROL_LINE_STATE
		#ifdef CDC_STATUS_INTERFACE
		if (setup.wIndex == CDC_STATUS_INTERFACE) {
			usb_cdc_line_rtsdtr_millis = systick_millis_count;
    3eb6:	4a48      	ldr	r2, [pc, #288]	; (3fd8 <isr+0x604>)
    3eb8:	6819      	ldr	r1, [r3, #0]
			usb_cdc_line_rtsdtr = setup.wValue;
    3eba:	4b48      	ldr	r3, [pc, #288]	; (3fdc <isr+0x608>)
		break;
#if defined(CDC_STATUS_INTERFACE)
	  case 0x2221: // CDC_SET_CONTROL_LINE_STATE
		#ifdef CDC_STATUS_INTERFACE
		if (setup.wIndex == CDC_STATUS_INTERFACE) {
			usb_cdc_line_rtsdtr_millis = systick_millis_count;
    3ebc:	6011      	str	r1, [r2, #0]
			usb_cdc_line_rtsdtr = setup.wValue;
    3ebe:	7018      	strb	r0, [r3, #0]
    3ec0:	e76c      	b.n	3d9c <isr+0x3c8>
			reply_buffer[0] = 1;
		}
		endpoint0_transmit(reply_buffer, 2, 0);
		return;
	  case 0x0302: // SET_FEATURE (endpoint)
		endpoint = setup.wIndex & 0x7F;
    3ec2:	b292      	uxth	r2, r2
    3ec4:	f002 037f 	and.w	r3, r2, #127	; 0x7f
		if (endpoint > 7) break;
    3ec8:	2b07      	cmp	r3, #7
    3eca:	f63f af2e 	bhi.w	3d2a <isr+0x356>
		dir = setup.wIndex & 0x80;
		if (dir) {
    3ece:	f012 0f80 	tst.w	r2, #128	; 0x80
			*((volatile uint32_t *)&USB1_ENDPTCTRL0 + endpoint) |= USB_ENDPTCTRL_TXS;
    3ed2:	ea4f 0383 	mov.w	r3, r3, lsl #2
    3ed6:	4a3e      	ldr	r2, [pc, #248]	; (3fd0 <isr+0x5fc>)
		USB1_ENDPTPRIME |= (1<<0);
		while (USB1_ENDPTPRIME) ;
	}
	endpoint0_transfer_ack.next = 1;
	endpoint0_transfer_ack.status = (1<<7) | (notify ? (1 << 15) : 0);
	endpoint0_transfer_ack.pointer0 = 0;
    3ed8:	f04f 0100 	mov.w	r1, #0
		endpoint_queue_head[0].next = (uint32_t)&endpoint0_transfer_data;
		endpoint_queue_head[0].status = 0;
		USB1_ENDPTPRIME |= (1<<0);
		while (USB1_ENDPTPRIME) ;
	}
	endpoint0_transfer_ack.next = 1;
    3edc:	f04f 0001 	mov.w	r0, #1
	  case 0x0302: // SET_FEATURE (endpoint)
		endpoint = setup.wIndex & 0x7F;
		if (endpoint > 7) break;
		dir = setup.wIndex & 0x80;
		if (dir) {
			*((volatile uint32_t *)&USB1_ENDPTCTRL0 + endpoint) |= USB_ENDPTCTRL_TXS;
    3ee0:	441a      	add	r2, r3
    3ee2:	6813      	ldr	r3, [r2, #0]
    3ee4:	bf14      	ite	ne
    3ee6:	f443 3380 	orrne.w	r3, r3, #65536	; 0x10000
		} else {
			*((volatile uint32_t *)&USB1_ENDPTCTRL0 + endpoint) |= USB_ENDPTCTRL_RXS;
    3eea:	f043 0301 	orreq.w	r3, r3, #1
    3eee:	6013      	str	r3, [r2, #0]
		endpoint_queue_head[0].status = 0;
		USB1_ENDPTPRIME |= (1<<0);
		while (USB1_ENDPTPRIME) ;
	}
	endpoint0_transfer_ack.next = 1;
	endpoint0_transfer_ack.status = (1<<7) | (notify ? (1 << 15) : 0);
    3ef0:	2280      	movs	r2, #128	; 0x80
		endpoint_queue_head[0].next = (uint32_t)&endpoint0_transfer_data;
		endpoint_queue_head[0].status = 0;
		USB1_ENDPTPRIME |= (1<<0);
		while (USB1_ENDPTPRIME) ;
	}
	endpoint0_transfer_ack.next = 1;
    3ef2:	4b32      	ldr	r3, [pc, #200]	; (3fbc <isr+0x5e8>)
	endpoint0_transfer_ack.status = (1<<7) | (notify ? (1 << 15) : 0);
	endpoint0_transfer_ack.pointer0 = 0;
	endpoint_queue_head[1].next = (uint32_t)&endpoint0_transfer_ack;
	endpoint_queue_head[1].status = 0;
    3ef4:	64f1      	str	r1, [r6, #76]	; 0x4c
		while (USB1_ENDPTPRIME) ;
	}
	endpoint0_transfer_ack.next = 1;
	endpoint0_transfer_ack.status = (1<<7) | (notify ? (1 << 15) : 0);
	endpoint0_transfer_ack.pointer0 = 0;
	endpoint_queue_head[1].next = (uint32_t)&endpoint0_transfer_ack;
    3ef6:	64b3      	str	r3, [r6, #72]	; 0x48
		endpoint_queue_head[0].next = (uint32_t)&endpoint0_transfer_data;
		endpoint_queue_head[0].status = 0;
		USB1_ENDPTPRIME |= (1<<0);
		while (USB1_ENDPTPRIME) ;
	}
	endpoint0_transfer_ack.next = 1;
    3ef8:	6018      	str	r0, [r3, #0]
	endpoint0_transfer_ack.status = (1<<7) | (notify ? (1 << 15) : 0);
    3efa:	605a      	str	r2, [r3, #4]
	endpoint0_transfer_ack.pointer0 = 0;
	endpoint_queue_head[1].next = (uint32_t)&endpoint0_transfer_ack;
	endpoint_queue_head[1].status = 0;
	USB1_ENDPTCOMPLETE = (1<<0) | (1<<16);
    3efc:	f8c4 a1bc 	str.w	sl, [r4, #444]	; 0x1bc
	USB1_ENDPTPRIME |= (1<<16);
    3f00:	f8d4 21b0 	ldr.w	r2, [r4, #432]	; 0x1b0
		USB1_ENDPTPRIME |= (1<<0);
		while (USB1_ENDPTPRIME) ;
	}
	endpoint0_transfer_ack.next = 1;
	endpoint0_transfer_ack.status = (1<<7) | (notify ? (1 << 15) : 0);
	endpoint0_transfer_ack.pointer0 = 0;
    3f04:	6099      	str	r1, [r3, #8]
	endpoint_queue_head[1].next = (uint32_t)&endpoint0_transfer_ack;
	endpoint_queue_head[1].status = 0;
	USB1_ENDPTCOMPLETE = (1<<0) | (1<<16);
	USB1_ENDPTPRIME |= (1<<16);
    3f06:	f442 3380 	orr.w	r3, r2, #65536	; 0x10000
    3f0a:	f8c4 31b0 	str.w	r3, [r4, #432]	; 0x1b0
	endpoint0_notify_mask = (notify ? (1 << 16) : 0);
	while (USB1_ENDPTPRIME) ;
    3f0e:	f8d4 31b0 	ldr.w	r3, [r4, #432]	; 0x1b0
    3f12:	2b00      	cmp	r3, #0
    3f14:	d1fb      	bne.n	3f0e <isr+0x53a>
			//printf("setup %08lX %08lX\n", s.word1, s.word2);
			USB1_ENDPTFLUSH = (1<<16) | (1<<0); // page 3174
			while (USB1_ENDPTFLUSH & ((1<<16) | (1<<0))) ;
			endpoint0_notify_mask = 0;
			endpoint0_setup(s.bothwords);
			setupstatus = USB1_ENDPTSETUPSTAT; // page 3175
    3f16:	f8d4 31ac 	ldr.w	r3, [r4, #428]	; 0x1ac

	if (status & USB_USBSTS_UI) {
		//printf("data\n");
		uint32_t setupstatus = USB1_ENDPTSETUPSTAT;
		//printf("USB1_ENDPTSETUPSTAT=%X\n", setupstatus);
		while (setupstatus) {
    3f1a:	2b00      	cmp	r3, #0
    3f1c:	f47f ad72 	bne.w	3a04 <isr+0x30>
    3f20:	e5ed      	b.n	3afe <isr+0x12a>
		usb_audio_configure();
		#endif
		endpoint0_receive(NULL, 0, 0);
		return;
	  case 0x0880: // GET_CONFIGURATION
		reply_buffer[0] = usb_configuration;
    3f22:	4922      	ldr	r1, [pc, #136]	; (3fac <isr+0x5d8>)
static void endpoint0_transmit(const void *data, uint32_t len, int notify)
{
	//printf("tx %lu\n", len);
	if (len > 0) {
		// Executing A Transfer Descriptor, page 3182
		endpoint0_transfer_data.next = 1;
    3f24:	2201      	movs	r2, #1
		usb_audio_configure();
		#endif
		endpoint0_receive(NULL, 0, 0);
		return;
	  case 0x0880: // GET_CONFIGURATION
		reply_buffer[0] = usb_configuration;
    3f26:	4828      	ldr	r0, [pc, #160]	; (3fc8 <isr+0x5f4>)
    3f28:	7809      	ldrb	r1, [r1, #0]
		endpoint0_transfer_data.pointer2 = addr + 8192;
		endpoint0_transfer_data.pointer3 = addr + 12288;
		endpoint0_transfer_data.pointer4 = addr + 16384;
		//  Case 1: Link list is empty, page 3182
		endpoint_queue_head[1].next = (uint32_t)&endpoint0_transfer_data;
		endpoint_queue_head[1].status = 0;
    3f2a:	64f3      	str	r3, [r6, #76]	; 0x4c
		// Executing A Transfer Descriptor, page 3182
		endpoint0_transfer_data.next = 1;
		endpoint0_transfer_data.status = (len << 16) | (1<<7);
		uint32_t addr = (uint32_t)data;
		endpoint0_transfer_data.pointer0 = addr; // format: table 55-60, pg 3159
		endpoint0_transfer_data.pointer1 = addr + 4096;
    3f2c:	f500 5780 	add.w	r7, r0, #4096	; 0x1000
		usb_audio_configure();
		#endif
		endpoint0_receive(NULL, 0, 0);
		return;
	  case 0x0880: // GET_CONFIGURATION
		reply_buffer[0] = usb_configuration;
    3f30:	7001      	strb	r1, [r0, #0]
{
	//printf("tx %lu\n", len);
	if (len > 0) {
		// Executing A Transfer Descriptor, page 3182
		endpoint0_transfer_data.next = 1;
		endpoint0_transfer_data.status = (len << 16) | (1<<7);
    3f32:	4b2b      	ldr	r3, [pc, #172]	; (3fe0 <isr+0x60c>)
static void endpoint0_transmit(const void *data, uint32_t len, int notify)
{
	//printf("tx %lu\n", len);
	if (len > 0) {
		// Executing A Transfer Descriptor, page 3182
		endpoint0_transfer_data.next = 1;
    3f34:	4923      	ldr	r1, [pc, #140]	; (3fc4 <isr+0x5f0>)
		endpoint0_transfer_data.status = (len << 16) | (1<<7);
    3f36:	604b      	str	r3, [r1, #4]
		uint32_t addr = (uint32_t)data;
		endpoint0_transfer_data.pointer0 = addr; // format: table 55-60, pg 3159
		endpoint0_transfer_data.pointer1 = addr + 4096;
		endpoint0_transfer_data.pointer2 = addr + 8192;
    3f38:	f500 5300 	add.w	r3, r0, #8192	; 0x2000
		endpoint0_transfer_data.pointer3 = addr + 12288;
		endpoint0_transfer_data.pointer4 = addr + 16384;
		//  Case 1: Link list is empty, page 3182
		endpoint_queue_head[1].next = (uint32_t)&endpoint0_transfer_data;
    3f3c:	64b1      	str	r1, [r6, #72]	; 0x48
static void endpoint0_transmit(const void *data, uint32_t len, int notify)
{
	//printf("tx %lu\n", len);
	if (len > 0) {
		// Executing A Transfer Descriptor, page 3182
		endpoint0_transfer_data.next = 1;
    3f3e:	600a      	str	r2, [r1, #0]
		endpoint0_transfer_data.pointer3 = addr + 12288;
		endpoint0_transfer_data.pointer4 = addr + 16384;
		//  Case 1: Link list is empty, page 3182
		endpoint_queue_head[1].next = (uint32_t)&endpoint0_transfer_data;
		endpoint_queue_head[1].status = 0;
		USB1_ENDPTPRIME |= (1<<16);
    3f40:	f8d5 21b0 	ldr.w	r2, [r5, #432]	; 0x1b0
		// Executing A Transfer Descriptor, page 3182
		endpoint0_transfer_data.next = 1;
		endpoint0_transfer_data.status = (len << 16) | (1<<7);
		uint32_t addr = (uint32_t)data;
		endpoint0_transfer_data.pointer0 = addr; // format: table 55-60, pg 3159
		endpoint0_transfer_data.pointer1 = addr + 4096;
    3f44:	60cf      	str	r7, [r1, #12]
		endpoint0_transfer_data.pointer2 = addr + 8192;
		endpoint0_transfer_data.pointer3 = addr + 12288;
    3f46:	f500 5740 	add.w	r7, r0, #12288	; 0x3000
		endpoint0_transfer_data.next = 1;
		endpoint0_transfer_data.status = (len << 16) | (1<<7);
		uint32_t addr = (uint32_t)data;
		endpoint0_transfer_data.pointer0 = addr; // format: table 55-60, pg 3159
		endpoint0_transfer_data.pointer1 = addr + 4096;
		endpoint0_transfer_data.pointer2 = addr + 8192;
    3f4a:	610b      	str	r3, [r1, #16]
		endpoint0_transfer_data.pointer3 = addr + 12288;
		endpoint0_transfer_data.pointer4 = addr + 16384;
		//  Case 1: Link list is empty, page 3182
		endpoint_queue_head[1].next = (uint32_t)&endpoint0_transfer_data;
		endpoint_queue_head[1].status = 0;
		USB1_ENDPTPRIME |= (1<<16);
    3f4c:	f442 3280 	orr.w	r2, r2, #65536	; 0x10000
		uint32_t addr = (uint32_t)data;
		endpoint0_transfer_data.pointer0 = addr; // format: table 55-60, pg 3159
		endpoint0_transfer_data.pointer1 = addr + 4096;
		endpoint0_transfer_data.pointer2 = addr + 8192;
		endpoint0_transfer_data.pointer3 = addr + 12288;
		endpoint0_transfer_data.pointer4 = addr + 16384;
    3f50:	f500 4380 	add.w	r3, r0, #16384	; 0x4000
	if (len > 0) {
		// Executing A Transfer Descriptor, page 3182
		endpoint0_transfer_data.next = 1;
		endpoint0_transfer_data.status = (len << 16) | (1<<7);
		uint32_t addr = (uint32_t)data;
		endpoint0_transfer_data.pointer0 = addr; // format: table 55-60, pg 3159
    3f54:	6088      	str	r0, [r1, #8]
		endpoint0_transfer_data.pointer3 = addr + 12288;
		endpoint0_transfer_data.pointer4 = addr + 16384;
		//  Case 1: Link list is empty, page 3182
		endpoint_queue_head[1].next = (uint32_t)&endpoint0_transfer_data;
		endpoint_queue_head[1].status = 0;
		USB1_ENDPTPRIME |= (1<<16);
    3f56:	f8c5 21b0 	str.w	r2, [r5, #432]	; 0x1b0
		endpoint0_transfer_data.status = (len << 16) | (1<<7);
		uint32_t addr = (uint32_t)data;
		endpoint0_transfer_data.pointer0 = addr; // format: table 55-60, pg 3159
		endpoint0_transfer_data.pointer1 = addr + 4096;
		endpoint0_transfer_data.pointer2 = addr + 8192;
		endpoint0_transfer_data.pointer3 = addr + 12288;
    3f5a:	614f      	str	r7, [r1, #20]
		endpoint0_transfer_data.pointer4 = addr + 16384;
    3f5c:	618b      	str	r3, [r1, #24]
		//  Case 1: Link list is empty, page 3182
		endpoint_queue_head[1].next = (uint32_t)&endpoint0_transfer_data;
		endpoint_queue_head[1].status = 0;
		USB1_ENDPTPRIME |= (1<<16);
		while (USB1_ENDPTPRIME) ;
    3f5e:	f8d4 31b0 	ldr.w	r3, [r4, #432]	; 0x1b0
    3f62:	2b00      	cmp	r3, #0
    3f64:	d1fb      	bne.n	3f5e <isr+0x58a>
	}
	endpoint0_transfer_ack.next = 1;
    3f66:	4a15      	ldr	r2, [pc, #84]	; (3fbc <isr+0x5e8>)
    3f68:	2001      	movs	r0, #1
	endpoint0_transfer_ack.status = (1<<7) | (notify ? (1 << 15) : 0);
    3f6a:	2180      	movs	r1, #128	; 0x80
	endpoint0_transfer_ack.pointer0 = 0;
	endpoint_queue_head[0].next = (uint32_t)&endpoint0_transfer_ack;
	endpoint_queue_head[0].status = 0;
    3f6c:	60f3      	str	r3, [r6, #12]
		while (USB1_ENDPTPRIME) ;
	}
	endpoint0_transfer_ack.next = 1;
	endpoint0_transfer_ack.status = (1<<7) | (notify ? (1 << 15) : 0);
	endpoint0_transfer_ack.pointer0 = 0;
	endpoint_queue_head[0].next = (uint32_t)&endpoint0_transfer_ack;
    3f6e:	60b2      	str	r2, [r6, #8]
		endpoint_queue_head[1].next = (uint32_t)&endpoint0_transfer_data;
		endpoint_queue_head[1].status = 0;
		USB1_ENDPTPRIME |= (1<<16);
		while (USB1_ENDPTPRIME) ;
	}
	endpoint0_transfer_ack.next = 1;
    3f70:	6010      	str	r0, [r2, #0]
	endpoint0_transfer_ack.status = (1<<7) | (notify ? (1 << 15) : 0);
    3f72:	6051      	str	r1, [r2, #4]
	endpoint0_transfer_ack.pointer0 = 0;
	endpoint_queue_head[0].next = (uint32_t)&endpoint0_transfer_ack;
	endpoint_queue_head[0].status = 0;
	USB1_ENDPTCOMPLETE = (1<<0) | (1<<16);
    3f74:	f8c5 a1bc 	str.w	sl, [r5, #444]	; 0x1bc
	USB1_ENDPTPRIME |= (1<<0);
    3f78:	f8d5 11b0 	ldr.w	r1, [r5, #432]	; 0x1b0
		USB1_ENDPTPRIME |= (1<<16);
		while (USB1_ENDPTPRIME) ;
	}
	endpoint0_transfer_ack.next = 1;
	endpoint0_transfer_ack.status = (1<<7) | (notify ? (1 << 15) : 0);
	endpoint0_transfer_ack.pointer0 = 0;
    3f7c:	6093      	str	r3, [r2, #8]
	endpoint_queue_head[0].next = (uint32_t)&endpoint0_transfer_ack;
	endpoint_queue_head[0].status = 0;
	USB1_ENDPTCOMPLETE = (1<<0) | (1<<16);
	USB1_ENDPTPRIME |= (1<<0);
    3f7e:	ea41 0300 	orr.w	r3, r1, r0
    3f82:	f8c5 31b0 	str.w	r3, [r5, #432]	; 0x1b0
	endpoint0_notify_mask = (notify ? (1 << 0) : 0);
	while (USB1_ENDPTPRIME) ;
    3f86:	f8d4 31b0 	ldr.w	r3, [r4, #432]	; 0x1b0
    3f8a:	2b00      	cmp	r3, #0
    3f8c:	d1fb      	bne.n	3f86 <isr+0x5b2>
			//printf("setup %08lX %08lX\n", s.word1, s.word2);
			USB1_ENDPTFLUSH = (1<<16) | (1<<0); // page 3174
			while (USB1_ENDPTFLUSH & ((1<<16) | (1<<0))) ;
			endpoint0_notify_mask = 0;
			endpoint0_setup(s.bothwords);
			setupstatus = USB1_ENDPTSETUPSTAT; // page 3175
    3f8e:	f8d4 31ac 	ldr.w	r3, [r4, #428]	; 0x1ac

	if (status & USB_USBSTS_UI) {
		//printf("data\n");
		uint32_t setupstatus = USB1_ENDPTSETUPSTAT;
		//printf("USB1_ENDPTSETUPSTAT=%X\n", setupstatus);
		while (setupstatus) {
    3f92:	2b00      	cmp	r3, #0
    3f94:	f47f ad36 	bne.w	3a04 <isr+0x30>
    3f98:	e5b1      	b.n	3afe <isr+0x12a>
		}
		endpoint0_receive(NULL, 0, 0);
		return;
	  case 0x0680: // GET_DESCRIPTOR
	  case 0x0681:
		for (list = usb_descriptor_list; list->addr != NULL; list++) {
    3f9a:	4b12      	ldr	r3, [pc, #72]	; (3fe4 <isr+0x610>)
    3f9c:	6859      	ldr	r1, [r3, #4]
    3f9e:	2900      	cmp	r1, #0
    3fa0:	f43f aec3 	beq.w	3d2a <isr+0x356>
    3fa4:	0c00      	lsrs	r0, r0, #16
			if (setup.wValue == list->wValue && setup.wIndex == list->wIndex) {
    3fa6:	fa1f fe82 	uxth.w	lr, r2
    3faa:	e022      	b.n	3ff2 <isr+0x61e>
    3fac:	20001ae0 	.word	0x20001ae0
    3fb0:	000200c8 	.word	0x000200c8
    3fb4:	00cc0002 	.word	0x00cc0002
    3fb8:	00c80002 	.word	0x00c80002
    3fbc:	20003020 	.word	0x20003020
    3fc0:	20001abc 	.word	0x20001abc
    3fc4:	20003000 	.word	0x20003000
    3fc8:	20001ad0 	.word	0x20001ad0
    3fcc:	00020080 	.word	0x00020080
    3fd0:	402e01c0 	.word	0x402e01c0
    3fd4:	20001a90 	.word	0x20001a90
    3fd8:	20004288 	.word	0x20004288
    3fdc:	20001cb0 	.word	0x20001cb0
    3fe0:	00010080 	.word	0x00010080
    3fe4:	2000062c 	.word	0x2000062c
		}
		endpoint0_receive(NULL, 0, 0);
		return;
	  case 0x0680: // GET_DESCRIPTOR
	  case 0x0681:
		for (list = usb_descriptor_list; list->addr != NULL; list++) {
    3fe8:	330c      	adds	r3, #12
    3fea:	6859      	ldr	r1, [r3, #4]
    3fec:	2900      	cmp	r1, #0
    3fee:	f43f ae9c 	beq.w	3d2a <isr+0x356>
			if (setup.wValue == list->wValue && setup.wIndex == list->wIndex) {
    3ff2:	881f      	ldrh	r7, [r3, #0]
    3ff4:	4287      	cmp	r7, r0
    3ff6:	d1f7      	bne.n	3fe8 <isr+0x614>
    3ff8:	885f      	ldrh	r7, [r3, #2]
    3ffa:	4577      	cmp	r7, lr
    3ffc:	d1f4      	bne.n	3fe8 <isr+0x614>
				uint32_t datalen;
				if ((setup.wValue >> 8) == 3) {
    3ffe:	0a07      	lsrs	r7, r0, #8
    4000:	2f03      	cmp	r7, #3
    4002:	f000 80ff 	beq.w	4204 <isr+0x830>
					// for string descriptors, use the descriptor's
					// length field, allowing runtime configured length.
					datalen = *(list->addr);
				} else {
					datalen = list->length;
    4006:	891b      	ldrh	r3, [r3, #8]
				}
				if (datalen > setup.wLength) datalen = setup.wLength;
    4008:	0c12      	lsrs	r2, r2, #16
    400a:	4293      	cmp	r3, r2
    400c:	bf28      	it	cs
    400e:	4613      	movcs	r3, r2

				// copy the descriptor, from PROGMEM to DMAMEM
				if (setup.wValue == 0x200) {
    4010:	f5b0 7f00 	cmp.w	r0, #512	; 0x200
    4014:	f000 80e7 	beq.w	41e6 <isr+0x812>
					// config descriptor needs to adapt to speed
					const uint8_t *src = usb_config_descriptor_12;
					if (usb_high_speed) src = usb_config_descriptor_480;
					memcpy(usb_descriptor_buffer, src, datalen);
				} else if (setup.wValue == 0x700) {
    4018:	f5b0 6fe0 	cmp.w	r0, #1792	; 0x700
    401c:	f000 80c9 	beq.w	41b2 <isr+0x7de>
    4020:	4f7b      	ldr	r7, [pc, #492]	; (4210 <isr+0x83c>)
					const uint8_t *src = usb_config_descriptor_480;
					if (usb_high_speed) src = usb_config_descriptor_12;
					memcpy(usb_descriptor_buffer, src, datalen);
					usb_descriptor_buffer[1] = 7;
				} else {
					memcpy(usb_descriptor_buffer, list->addr, datalen);
    4022:	461a      	mov	r2, r3
    4024:	9301      	str	r3, [sp, #4]
    4026:	4638      	mov	r0, r7
    4028:	f000 fd56 	bl	4ad8 <memcpy>
    402c:	9b01      	ldr	r3, [sp, #4]
// any cached data written to memory, and then removed from the cache,
// because you no longer need to access the data after transmission.
__attribute__((always_inline, unused))
static inline void arm_dcache_flush_delete(void *addr, uint32_t size)
{
	uint32_t location = (uint32_t)addr & 0xFFFFFFE0;
    402e:	f027 021f 	bic.w	r2, r7, #31
    4032:	4977      	ldr	r1, [pc, #476]	; (4210 <isr+0x83c>)
	uint32_t end_addr = (uint32_t)addr + size;
    4034:	441f      	add	r7, r3
	asm volatile("": : :"memory");
	asm("dsb");
    4036:	f3bf 8f4f 	dsb	sy
	do {
		SCB_CACHE_DCCIMVAC = location;
    403a:	4876      	ldr	r0, [pc, #472]	; (4214 <isr+0x840>)
    403c:	6002      	str	r2, [r0, #0]
		location += 32;
    403e:	3220      	adds	r2, #32
	} while (location < end_addr);
    4040:	4297      	cmp	r7, r2
    4042:	d8fa      	bhi.n	403a <isr+0x666>
	asm("dsb");
    4044:	f3bf 8f4f 	dsb	sy
	asm("isb");
    4048:	f3bf 8f6f 	isb	sy
}

static void endpoint0_transmit(const void *data, uint32_t len, int notify)
{
	//printf("tx %lu\n", len);
	if (len > 0) {
    404c:	b303      	cbz	r3, 4090 <isr+0x6bc>
		// Executing A Transfer Descriptor, page 3182
		endpoint0_transfer_data.next = 1;
		endpoint0_transfer_data.status = (len << 16) | (1<<7);
    404e:	041b      	lsls	r3, r3, #16
static void endpoint0_transmit(const void *data, uint32_t len, int notify)
{
	//printf("tx %lu\n", len);
	if (len > 0) {
		// Executing A Transfer Descriptor, page 3182
		endpoint0_transfer_data.next = 1;
    4050:	4a71      	ldr	r2, [pc, #452]	; (4218 <isr+0x844>)
    4052:	2701      	movs	r7, #1
		endpoint0_transfer_data.pointer2 = addr + 8192;
		endpoint0_transfer_data.pointer3 = addr + 12288;
		endpoint0_transfer_data.pointer4 = addr + 16384;
		//  Case 1: Link list is empty, page 3182
		endpoint_queue_head[1].next = (uint32_t)&endpoint0_transfer_data;
		endpoint_queue_head[1].status = 0;
    4054:	2000      	movs	r0, #0
{
	//printf("tx %lu\n", len);
	if (len > 0) {
		// Executing A Transfer Descriptor, page 3182
		endpoint0_transfer_data.next = 1;
		endpoint0_transfer_data.status = (len << 16) | (1<<7);
    4056:	f043 0380 	orr.w	r3, r3, #128	; 0x80
		endpoint0_transfer_data.pointer1 = addr + 4096;
		endpoint0_transfer_data.pointer2 = addr + 8192;
		endpoint0_transfer_data.pointer3 = addr + 12288;
		endpoint0_transfer_data.pointer4 = addr + 16384;
		//  Case 1: Link list is empty, page 3182
		endpoint_queue_head[1].next = (uint32_t)&endpoint0_transfer_data;
    405a:	64b2      	str	r2, [r6, #72]	; 0x48
static void endpoint0_transmit(const void *data, uint32_t len, int notify)
{
	//printf("tx %lu\n", len);
	if (len > 0) {
		// Executing A Transfer Descriptor, page 3182
		endpoint0_transfer_data.next = 1;
    405c:	6017      	str	r7, [r2, #0]
		endpoint0_transfer_data.status = (len << 16) | (1<<7);
    405e:	6053      	str	r3, [r2, #4]
		endpoint0_transfer_data.pointer2 = addr + 8192;
		endpoint0_transfer_data.pointer3 = addr + 12288;
		endpoint0_transfer_data.pointer4 = addr + 16384;
		//  Case 1: Link list is empty, page 3182
		endpoint_queue_head[1].next = (uint32_t)&endpoint0_transfer_data;
		endpoint_queue_head[1].status = 0;
    4060:	64f0      	str	r0, [r6, #76]	; 0x4c
		// Executing A Transfer Descriptor, page 3182
		endpoint0_transfer_data.next = 1;
		endpoint0_transfer_data.status = (len << 16) | (1<<7);
		uint32_t addr = (uint32_t)data;
		endpoint0_transfer_data.pointer0 = addr; // format: table 55-60, pg 3159
		endpoint0_transfer_data.pointer1 = addr + 4096;
    4062:	4b6e      	ldr	r3, [pc, #440]	; (421c <isr+0x848>)
		endpoint0_transfer_data.pointer3 = addr + 12288;
		endpoint0_transfer_data.pointer4 = addr + 16384;
		//  Case 1: Link list is empty, page 3182
		endpoint_queue_head[1].next = (uint32_t)&endpoint0_transfer_data;
		endpoint_queue_head[1].status = 0;
		USB1_ENDPTPRIME |= (1<<16);
    4064:	f8d4 01b0 	ldr.w	r0, [r4, #432]	; 0x1b0
		endpoint0_transfer_data.next = 1;
		endpoint0_transfer_data.status = (len << 16) | (1<<7);
		uint32_t addr = (uint32_t)data;
		endpoint0_transfer_data.pointer0 = addr; // format: table 55-60, pg 3159
		endpoint0_transfer_data.pointer1 = addr + 4096;
		endpoint0_transfer_data.pointer2 = addr + 8192;
    4068:	f503 5780 	add.w	r7, r3, #4096	; 0x1000
	if (len > 0) {
		// Executing A Transfer Descriptor, page 3182
		endpoint0_transfer_data.next = 1;
		endpoint0_transfer_data.status = (len << 16) | (1<<7);
		uint32_t addr = (uint32_t)data;
		endpoint0_transfer_data.pointer0 = addr; // format: table 55-60, pg 3159
    406c:	6091      	str	r1, [r2, #8]
		endpoint0_transfer_data.pointer1 = addr + 4096;
		endpoint0_transfer_data.pointer2 = addr + 8192;
		endpoint0_transfer_data.pointer3 = addr + 12288;
    406e:	f503 5e00 	add.w	lr, r3, #8192	; 0x2000
		// Executing A Transfer Descriptor, page 3182
		endpoint0_transfer_data.next = 1;
		endpoint0_transfer_data.status = (len << 16) | (1<<7);
		uint32_t addr = (uint32_t)data;
		endpoint0_transfer_data.pointer0 = addr; // format: table 55-60, pg 3159
		endpoint0_transfer_data.pointer1 = addr + 4096;
    4072:	60d3      	str	r3, [r2, #12]
		endpoint0_transfer_data.pointer3 = addr + 12288;
		endpoint0_transfer_data.pointer4 = addr + 16384;
		//  Case 1: Link list is empty, page 3182
		endpoint_queue_head[1].next = (uint32_t)&endpoint0_transfer_data;
		endpoint_queue_head[1].status = 0;
		USB1_ENDPTPRIME |= (1<<16);
    4074:	f440 3180 	orr.w	r1, r0, #65536	; 0x10000
		uint32_t addr = (uint32_t)data;
		endpoint0_transfer_data.pointer0 = addr; // format: table 55-60, pg 3159
		endpoint0_transfer_data.pointer1 = addr + 4096;
		endpoint0_transfer_data.pointer2 = addr + 8192;
		endpoint0_transfer_data.pointer3 = addr + 12288;
		endpoint0_transfer_data.pointer4 = addr + 16384;
    4078:	f503 5340 	add.w	r3, r3, #12288	; 0x3000
		endpoint0_transfer_data.next = 1;
		endpoint0_transfer_data.status = (len << 16) | (1<<7);
		uint32_t addr = (uint32_t)data;
		endpoint0_transfer_data.pointer0 = addr; // format: table 55-60, pg 3159
		endpoint0_transfer_data.pointer1 = addr + 4096;
		endpoint0_transfer_data.pointer2 = addr + 8192;
    407c:	6117      	str	r7, [r2, #16]
		endpoint0_transfer_data.pointer3 = addr + 12288;
    407e:	f8c2 e014 	str.w	lr, [r2, #20]
		endpoint0_transfer_data.pointer4 = addr + 16384;
    4082:	6193      	str	r3, [r2, #24]
		//  Case 1: Link list is empty, page 3182
		endpoint_queue_head[1].next = (uint32_t)&endpoint0_transfer_data;
		endpoint_queue_head[1].status = 0;
		USB1_ENDPTPRIME |= (1<<16);
    4084:	f8c4 11b0 	str.w	r1, [r4, #432]	; 0x1b0
		while (USB1_ENDPTPRIME) ;
    4088:	f8d4 31b0 	ldr.w	r3, [r4, #432]	; 0x1b0
    408c:	2b00      	cmp	r3, #0
    408e:	d1fb      	bne.n	4088 <isr+0x6b4>
	}
	endpoint0_transfer_ack.next = 1;
    4090:	4b63      	ldr	r3, [pc, #396]	; (4220 <isr+0x84c>)
	endpoint0_transfer_ack.status = (1<<7) | (notify ? (1 << 15) : 0);
	endpoint0_transfer_ack.pointer0 = 0;
    4092:	2200      	movs	r2, #0
		endpoint_queue_head[1].next = (uint32_t)&endpoint0_transfer_data;
		endpoint_queue_head[1].status = 0;
		USB1_ENDPTPRIME |= (1<<16);
		while (USB1_ENDPTPRIME) ;
	}
	endpoint0_transfer_ack.next = 1;
    4094:	2001      	movs	r0, #1
	endpoint0_transfer_ack.status = (1<<7) | (notify ? (1 << 15) : 0);
    4096:	2180      	movs	r1, #128	; 0x80
	endpoint0_transfer_ack.pointer0 = 0;
	endpoint_queue_head[0].next = (uint32_t)&endpoint0_transfer_ack;
    4098:	60b3      	str	r3, [r6, #8]
		endpoint_queue_head[1].next = (uint32_t)&endpoint0_transfer_data;
		endpoint_queue_head[1].status = 0;
		USB1_ENDPTPRIME |= (1<<16);
		while (USB1_ENDPTPRIME) ;
	}
	endpoint0_transfer_ack.next = 1;
    409a:	6018      	str	r0, [r3, #0]
	endpoint0_transfer_ack.status = (1<<7) | (notify ? (1 << 15) : 0);
    409c:	6059      	str	r1, [r3, #4]
	endpoint0_transfer_ack.pointer0 = 0;
	endpoint_queue_head[0].next = (uint32_t)&endpoint0_transfer_ack;
	endpoint_queue_head[0].status = 0;
    409e:	60f2      	str	r2, [r6, #12]
	USB1_ENDPTCOMPLETE = (1<<0) | (1<<16);
    40a0:	f8c4 a1bc 	str.w	sl, [r4, #444]	; 0x1bc
	USB1_ENDPTPRIME |= (1<<0);
    40a4:	f8d4 11b0 	ldr.w	r1, [r4, #432]	; 0x1b0
		USB1_ENDPTPRIME |= (1<<16);
		while (USB1_ENDPTPRIME) ;
	}
	endpoint0_transfer_ack.next = 1;
	endpoint0_transfer_ack.status = (1<<7) | (notify ? (1 << 15) : 0);
	endpoint0_transfer_ack.pointer0 = 0;
    40a8:	609a      	str	r2, [r3, #8]
	endpoint_queue_head[0].next = (uint32_t)&endpoint0_transfer_ack;
	endpoint_queue_head[0].status = 0;
	USB1_ENDPTCOMPLETE = (1<<0) | (1<<16);
	USB1_ENDPTPRIME |= (1<<0);
    40aa:	ea41 0300 	orr.w	r3, r1, r0
    40ae:	f8c4 31b0 	str.w	r3, [r4, #432]	; 0x1b0
	endpoint0_notify_mask = (notify ? (1 << 0) : 0);
    40b2:	f8c9 2000 	str.w	r2, [r9]
	while (USB1_ENDPTPRIME) ;
    40b6:	f8d4 31b0 	ldr.w	r3, [r4, #432]	; 0x1b0
    40ba:	2b00      	cmp	r3, #0
    40bc:	d1fb      	bne.n	40b6 <isr+0x6e2>
    40be:	e51a      	b.n	3af6 <isr+0x122>
		if (endpoint > 7) break;
		dir = setup.wIndex & 0x80;
		ctrl = *((uint32_t *)&USB1_ENDPTCTRL0 + endpoint);
		reply_buffer[0] = 0;
		reply_buffer[1] = 0;
		if ((dir && (ctrl & USB_ENDPTCTRL_TXS)) || (!dir && (ctrl & USB_ENDPTCTRL_RXS))) {
    40c0:	07cf      	lsls	r7, r1, #31
    40c2:	f57f ace6 	bpl.w	3a92 <isr+0xbe>
    40c6:	e4e2      	b.n	3a8e <isr+0xba>
	  case 0x2321: // CDC_SEND_BREAK
		endpoint0_receive(NULL, 0, 0);
		return;
	  case 0x2021: // CDC_SET_LINE_CODING
		if (setup.wLength != 7) break;
		endpoint0_setupdata.bothwords = setupdata;
    40c8:	4f56      	ldr	r7, [pc, #344]	; (4224 <isr+0x850>)
static void endpoint0_receive(void *data, uint32_t len, int notify)
{
	//printf("rx %lu\n", len);
	if (len > 0) {
		// Executing A Transfer Descriptor, page 3182
		endpoint0_transfer_data.next = 1;
    40ca:	f04f 0e01 	mov.w	lr, #1
		endpoint0_transfer_data.pointer2 = addr + 8192;
		endpoint0_transfer_data.pointer3 = addr + 12288;
		endpoint0_transfer_data.pointer4 = addr + 16384;
		//  Case 1: Link list is empty, page 3182
		endpoint_queue_head[0].next = (uint32_t)&endpoint0_transfer_data;
		endpoint_queue_head[0].status = 0;
    40ce:	60f3      	str	r3, [r6, #12]
{
	//printf("rx %lu\n", len);
	if (len > 0) {
		// Executing A Transfer Descriptor, page 3182
		endpoint0_transfer_data.next = 1;
		endpoint0_transfer_data.status = (len << 16) | (1<<7);
    40d0:	4955      	ldr	r1, [pc, #340]	; (4228 <isr+0x854>)
static void endpoint0_receive(void *data, uint32_t len, int notify)
{
	//printf("rx %lu\n", len);
	if (len > 0) {
		// Executing A Transfer Descriptor, page 3182
		endpoint0_transfer_data.next = 1;
    40d2:	4b51      	ldr	r3, [pc, #324]	; (4218 <isr+0x844>)
	  case 0x2321: // CDC_SEND_BREAK
		endpoint0_receive(NULL, 0, 0);
		return;
	  case 0x2021: // CDC_SET_LINE_CODING
		if (setup.wLength != 7) break;
		endpoint0_setupdata.bothwords = setupdata;
    40d4:	6038      	str	r0, [r7, #0]
static void endpoint0_receive(void *data, uint32_t len, int notify)
{
	//printf("rx %lu\n", len);
	if (len > 0) {
		// Executing A Transfer Descriptor, page 3182
		endpoint0_transfer_data.next = 1;
    40d6:	f8c3 e000 	str.w	lr, [r3]
		endpoint0_transfer_data.status = (len << 16) | (1<<7);
    40da:	6059      	str	r1, [r3, #4]
		endpoint0_transfer_data.pointer1 = addr + 4096;
		endpoint0_transfer_data.pointer2 = addr + 8192;
		endpoint0_transfer_data.pointer3 = addr + 12288;
		endpoint0_transfer_data.pointer4 = addr + 16384;
		//  Case 1: Link list is empty, page 3182
		endpoint_queue_head[0].next = (uint32_t)&endpoint0_transfer_data;
    40dc:	60b3      	str	r3, [r6, #8]
	//printf("rx %lu\n", len);
	if (len > 0) {
		// Executing A Transfer Descriptor, page 3182
		endpoint0_transfer_data.next = 1;
		endpoint0_transfer_data.status = (len << 16) | (1<<7);
		uint32_t addr = (uint32_t)data;
    40de:	4953      	ldr	r1, [pc, #332]	; (422c <isr+0x858>)
		endpoint0_transfer_data.pointer3 = addr + 12288;
		endpoint0_transfer_data.pointer4 = addr + 16384;
		//  Case 1: Link list is empty, page 3182
		endpoint_queue_head[0].next = (uint32_t)&endpoint0_transfer_data;
		endpoint_queue_head[0].status = 0;
		USB1_ENDPTPRIME |= (1<<0);
    40e0:	f8d5 01b0 	ldr.w	r0, [r5, #432]	; 0x1b0
	  case 0x2321: // CDC_SEND_BREAK
		endpoint0_receive(NULL, 0, 0);
		return;
	  case 0x2021: // CDC_SET_LINE_CODING
		if (setup.wLength != 7) break;
		endpoint0_setupdata.bothwords = setupdata;
    40e4:	607a      	str	r2, [r7, #4]
		// Executing A Transfer Descriptor, page 3182
		endpoint0_transfer_data.next = 1;
		endpoint0_transfer_data.status = (len << 16) | (1<<7);
		uint32_t addr = (uint32_t)data;
		endpoint0_transfer_data.pointer0 = addr; // format: table 55-60, pg 3159
		endpoint0_transfer_data.pointer1 = addr + 4096;
    40e6:	f501 5780 	add.w	r7, r1, #4096	; 0x1000
		endpoint0_transfer_data.pointer3 = addr + 12288;
		endpoint0_transfer_data.pointer4 = addr + 16384;
		//  Case 1: Link list is empty, page 3182
		endpoint_queue_head[0].next = (uint32_t)&endpoint0_transfer_data;
		endpoint_queue_head[0].status = 0;
		USB1_ENDPTPRIME |= (1<<0);
    40ea:	ea40 020e 	orr.w	r2, r0, lr
	if (len > 0) {
		// Executing A Transfer Descriptor, page 3182
		endpoint0_transfer_data.next = 1;
		endpoint0_transfer_data.status = (len << 16) | (1<<7);
		uint32_t addr = (uint32_t)data;
		endpoint0_transfer_data.pointer0 = addr; // format: table 55-60, pg 3159
    40ee:	6099      	str	r1, [r3, #8]
		endpoint0_transfer_data.pointer1 = addr + 4096;
		endpoint0_transfer_data.pointer2 = addr + 8192;
    40f0:	f501 5e00 	add.w	lr, r1, #8192	; 0x2000
		endpoint0_transfer_data.pointer3 = addr + 12288;
    40f4:	f501 5040 	add.w	r0, r1, #12288	; 0x3000
		endpoint0_transfer_data.pointer4 = addr + 16384;
    40f8:	f501 4180 	add.w	r1, r1, #16384	; 0x4000
		//  Case 1: Link list is empty, page 3182
		endpoint_queue_head[0].next = (uint32_t)&endpoint0_transfer_data;
		endpoint_queue_head[0].status = 0;
		USB1_ENDPTPRIME |= (1<<0);
    40fc:	f8c5 21b0 	str.w	r2, [r5, #432]	; 0x1b0
		// Executing A Transfer Descriptor, page 3182
		endpoint0_transfer_data.next = 1;
		endpoint0_transfer_data.status = (len << 16) | (1<<7);
		uint32_t addr = (uint32_t)data;
		endpoint0_transfer_data.pointer0 = addr; // format: table 55-60, pg 3159
		endpoint0_transfer_data.pointer1 = addr + 4096;
    4100:	60df      	str	r7, [r3, #12]
		endpoint0_transfer_data.pointer2 = addr + 8192;
    4102:	f8c3 e010 	str.w	lr, [r3, #16]
		endpoint0_transfer_data.pointer3 = addr + 12288;
    4106:	6158      	str	r0, [r3, #20]
		endpoint0_transfer_data.pointer4 = addr + 16384;
    4108:	6199      	str	r1, [r3, #24]
		//  Case 1: Link list is empty, page 3182
		endpoint_queue_head[0].next = (uint32_t)&endpoint0_transfer_data;
		endpoint_queue_head[0].status = 0;
		USB1_ENDPTPRIME |= (1<<0);
		while (USB1_ENDPTPRIME) ;
    410a:	f8d4 31b0 	ldr.w	r3, [r4, #432]	; 0x1b0
    410e:	2b00      	cmp	r3, #0
    4110:	d1fb      	bne.n	410a <isr+0x736>
	}
	endpoint0_transfer_ack.next = 1;
    4112:	4a43      	ldr	r2, [pc, #268]	; (4220 <isr+0x84c>)
    4114:	2001      	movs	r0, #1
	endpoint0_transfer_ack.status = (1<<7) | (notify ? (1 << 15) : 0);
    4116:	f248 0180 	movw	r1, #32896	; 0x8080
	endpoint0_transfer_ack.pointer0 = 0;
	endpoint_queue_head[1].next = (uint32_t)&endpoint0_transfer_ack;
	endpoint_queue_head[1].status = 0;
    411a:	64f3      	str	r3, [r6, #76]	; 0x4c
		endpoint_queue_head[0].next = (uint32_t)&endpoint0_transfer_data;
		endpoint_queue_head[0].status = 0;
		USB1_ENDPTPRIME |= (1<<0);
		while (USB1_ENDPTPRIME) ;
	}
	endpoint0_transfer_ack.next = 1;
    411c:	6010      	str	r0, [r2, #0]
	endpoint0_transfer_ack.pointer0 = 0;
	endpoint_queue_head[1].next = (uint32_t)&endpoint0_transfer_ack;
	endpoint_queue_head[1].status = 0;
	USB1_ENDPTCOMPLETE = (1<<0) | (1<<16);
	USB1_ENDPTPRIME |= (1<<16);
	endpoint0_notify_mask = (notify ? (1 << 16) : 0);
    411e:	f44f 3080 	mov.w	r0, #65536	; 0x10000
		while (USB1_ENDPTPRIME) ;
	}
	endpoint0_transfer_ack.next = 1;
	endpoint0_transfer_ack.status = (1<<7) | (notify ? (1 << 15) : 0);
	endpoint0_transfer_ack.pointer0 = 0;
	endpoint_queue_head[1].next = (uint32_t)&endpoint0_transfer_ack;
    4122:	64b2      	str	r2, [r6, #72]	; 0x48
		endpoint_queue_head[0].status = 0;
		USB1_ENDPTPRIME |= (1<<0);
		while (USB1_ENDPTPRIME) ;
	}
	endpoint0_transfer_ack.next = 1;
	endpoint0_transfer_ack.status = (1<<7) | (notify ? (1 << 15) : 0);
    4124:	6051      	str	r1, [r2, #4]
	endpoint0_transfer_ack.pointer0 = 0;
	endpoint_queue_head[1].next = (uint32_t)&endpoint0_transfer_ack;
	endpoint_queue_head[1].status = 0;
	USB1_ENDPTCOMPLETE = (1<<0) | (1<<16);
    4126:	f8c5 a1bc 	str.w	sl, [r5, #444]	; 0x1bc
	USB1_ENDPTPRIME |= (1<<16);
    412a:	f8d5 11b0 	ldr.w	r1, [r5, #432]	; 0x1b0
		USB1_ENDPTPRIME |= (1<<0);
		while (USB1_ENDPTPRIME) ;
	}
	endpoint0_transfer_ack.next = 1;
	endpoint0_transfer_ack.status = (1<<7) | (notify ? (1 << 15) : 0);
	endpoint0_transfer_ack.pointer0 = 0;
    412e:	6093      	str	r3, [r2, #8]
	endpoint_queue_head[1].next = (uint32_t)&endpoint0_transfer_ack;
	endpoint_queue_head[1].status = 0;
	USB1_ENDPTCOMPLETE = (1<<0) | (1<<16);
	USB1_ENDPTPRIME |= (1<<16);
    4130:	ea41 0300 	orr.w	r3, r1, r0
    4134:	f8c5 31b0 	str.w	r3, [r5, #432]	; 0x1b0
	endpoint0_notify_mask = (notify ? (1 << 16) : 0);
    4138:	f8c9 0000 	str.w	r0, [r9]
	while (USB1_ENDPTPRIME) ;
    413c:	f8d4 31b0 	ldr.w	r3, [r4, #432]	; 0x1b0
    4140:	2b00      	cmp	r3, #0
    4142:	d1fb      	bne.n	413c <isr+0x768>
    4144:	e4d7      	b.n	3af6 <isr+0x122>

static void endpoint0_complete(void)
{
	setup_t setup;

	setup.bothwords = endpoint0_setupdata.bothwords;
    4146:	4837      	ldr	r0, [pc, #220]	; (4224 <isr+0x850>)
	//printf("complete %x %x %x\n", setup.word1, setup.word2, endpoint0_buffer[0]);
#ifdef CDC_STATUS_INTERFACE
	// 0x2021 is CDC_SET_LINE_CODING
	if (setup.wRequestAndType == 0x2021 && setup.wIndex == CDC_STATUS_INTERFACE) {
    4148:	f242 0421 	movw	r4, #8225	; 0x2021
		uint32_t completestatus = USB1_ENDPTCOMPLETE;
		if (completestatus) {
			USB1_ENDPTCOMPLETE = completestatus;
			//printf("USB1_ENDPTCOMPLETE=%lX\n", completestatus);
			if (completestatus & endpoint0_notify_mask) {
				endpoint0_notify_mask = 0;
    414c:	2600      	movs	r6, #0

	setup.bothwords = endpoint0_setupdata.bothwords;
	//printf("complete %x %x %x\n", setup.word1, setup.word2, endpoint0_buffer[0]);
#ifdef CDC_STATUS_INTERFACE
	// 0x2021 is CDC_SET_LINE_CODING
	if (setup.wRequestAndType == 0x2021 && setup.wIndex == CDC_STATUS_INTERFACE) {
    414e:	8805      	ldrh	r5, [r0, #0]
		uint32_t completestatus = USB1_ENDPTCOMPLETE;
		if (completestatus) {
			USB1_ENDPTCOMPLETE = completestatus;
			//printf("USB1_ENDPTCOMPLETE=%lX\n", completestatus);
			if (completestatus & endpoint0_notify_mask) {
				endpoint0_notify_mask = 0;
    4150:	600e      	str	r6, [r1, #0]

	setup.bothwords = endpoint0_setupdata.bothwords;
	//printf("complete %x %x %x\n", setup.word1, setup.word2, endpoint0_buffer[0]);
#ifdef CDC_STATUS_INTERFACE
	// 0x2021 is CDC_SET_LINE_CODING
	if (setup.wRequestAndType == 0x2021 && setup.wIndex == CDC_STATUS_INTERFACE) {
    4152:	42a5      	cmp	r5, r4

static void endpoint0_complete(void)
{
	setup_t setup;

	setup.bothwords = endpoint0_setupdata.bothwords;
    4154:	6840      	ldr	r0, [r0, #4]
	//printf("complete %x %x %x\n", setup.word1, setup.word2, endpoint0_buffer[0]);
#ifdef CDC_STATUS_INTERFACE
	// 0x2021 is CDC_SET_LINE_CODING
	if (setup.wRequestAndType == 0x2021 && setup.wIndex == CDC_STATUS_INTERFACE) {
    4156:	f47f ad2f 	bne.w	3bb8 <isr+0x1e4>
    415a:	b281      	uxth	r1, r0
    415c:	2900      	cmp	r1, #0
    415e:	f47f ad2b 	bne.w	3bb8 <isr+0x1e4>
		memcpy(usb_cdc_line_coding, endpoint0_buffer, 7);
    4162:	4932      	ldr	r1, [pc, #200]	; (422c <isr+0x858>)
    4164:	4c32      	ldr	r4, [pc, #200]	; (4230 <isr+0x85c>)
    4166:	c903      	ldmia	r1, {r0, r1}
    4168:	0c0d      	lsrs	r5, r1, #16
		printf("usb_cdc_line_coding, baud=%u\n", usb_cdc_line_coding[0]);
		if (usb_cdc_line_coding[0] == 134) {
    416a:	2886      	cmp	r0, #134	; 0x86
	setup.bothwords = endpoint0_setupdata.bothwords;
	//printf("complete %x %x %x\n", setup.word1, setup.word2, endpoint0_buffer[0]);
#ifdef CDC_STATUS_INTERFACE
	// 0x2021 is CDC_SET_LINE_CODING
	if (setup.wRequestAndType == 0x2021 && setup.wIndex == CDC_STATUS_INTERFACE) {
		memcpy(usb_cdc_line_coding, endpoint0_buffer, 7);
    416c:	6020      	str	r0, [r4, #0]
    416e:	80a1      	strh	r1, [r4, #4]
    4170:	71a5      	strb	r5, [r4, #6]
		printf("usb_cdc_line_coding, baud=%u\n", usb_cdc_line_coding[0]);
		if (usb_cdc_line_coding[0] == 134) {
    4172:	f47f ad21 	bne.w	3bb8 <isr+0x1e4>
}


void usb_start_sof_interrupts(int interface)
{
	__disable_irq();
    4176:	b672      	cpsid	i
	sof_usage |= (1 << interface);
    4178:	482e      	ldr	r0, [pc, #184]	; (4234 <isr+0x860>)
    417a:	7801      	ldrb	r1, [r0, #0]
    417c:	f041 0104 	orr.w	r1, r1, #4
    4180:	7001      	strb	r1, [r0, #0]
	uint32_t intr = USB1_USBINTR;
    4182:	f8d2 1148 	ldr.w	r1, [r2, #328]	; 0x148
	if (!(intr & USB_USBINTR_SRE)) {
    4186:	0608      	lsls	r0, r1, #24
    4188:	d406      	bmi.n	4198 <isr+0x7c4>
		USB1_USBSTS = USB_USBSTS_SRI; // clear prior SOF before SOF IRQ enable
		USB1_USBINTR = intr | USB_USBINTR_SRE;
    418a:	f041 0180 	orr.w	r1, r1, #128	; 0x80
{
	__disable_irq();
	sof_usage |= (1 << interface);
	uint32_t intr = USB1_USBINTR;
	if (!(intr & USB_USBINTR_SRE)) {
		USB1_USBSTS = USB_USBSTS_SRI; // clear prior SOF before SOF IRQ enable
    418e:	2080      	movs	r0, #128	; 0x80
    4190:	f8c2 0144 	str.w	r0, [r2, #324]	; 0x144
		USB1_USBINTR = intr | USB_USBINTR_SRE;
    4194:	f8c2 1148 	str.w	r1, [r2, #328]	; 0x148
	}
	__enable_irq();
    4198:	b662      	cpsie	i
	if (setup.wRequestAndType == 0x2021 && setup.wIndex == CDC_STATUS_INTERFACE) {
		memcpy(usb_cdc_line_coding, endpoint0_buffer, 7);
		printf("usb_cdc_line_coding, baud=%u\n", usb_cdc_line_coding[0]);
		if (usb_cdc_line_coding[0] == 134) {
			usb_start_sof_interrupts(NUM_INTERFACE);
			usb_reboot_timer = 80; // TODO: 10 if only 12 Mbit/sec
    419a:	4a27      	ldr	r2, [pc, #156]	; (4238 <isr+0x864>)
    419c:	2150      	movs	r1, #80	; 0x50
    419e:	7011      	strb	r1, [r2, #0]
    41a0:	e50a      	b.n	3bb8 <isr+0x1e4>
		count++;
		t = (transfer_t *)t->next;
		if ((uint32_t)t == 1) {
			// reached end of list, all need callbacks, new list is empty
			//printf(" end of list\n");
			ep->first_transfer = NULL;
    41a2:	f8ca 3030 	str.w	r3, [sl, #48]	; 0x30
			ep->last_transfer = NULL;
    41a6:	f8ca 3034 	str.w	r3, [sl, #52]	; 0x34
    41aa:	e553      	b.n	3c54 <isr+0x280>
		count++;
		t = (transfer_t *)t->next;
		if ((uint32_t)t == 1) {
			// reached end of list, all need callbacks, new list is empty
			//printf(" end of list\n");
			ep->first_transfer = NULL;
    41ac:	633b      	str	r3, [r7, #48]	; 0x30
			ep->last_transfer = NULL;
    41ae:	637b      	str	r3, [r7, #52]	; 0x34
    41b0:	e524      	b.n	3bfc <isr+0x228>
					if (usb_high_speed) src = usb_config_descriptor_480;
					memcpy(usb_descriptor_buffer, src, datalen);
				} else if (setup.wValue == 0x700) {
					// other speed config also needs to adapt
					const uint8_t *src = usb_config_descriptor_480;
					if (usb_high_speed) src = usb_config_descriptor_12;
    41b2:	4822      	ldr	r0, [pc, #136]	; (423c <isr+0x868>)
					memcpy(usb_descriptor_buffer, src, datalen);
    41b4:	461a      	mov	r2, r3
    41b6:	4f16      	ldr	r7, [pc, #88]	; (4210 <isr+0x83c>)
					if (usb_high_speed) src = usb_config_descriptor_480;
					memcpy(usb_descriptor_buffer, src, datalen);
				} else if (setup.wValue == 0x700) {
					// other speed config also needs to adapt
					const uint8_t *src = usb_config_descriptor_480;
					if (usb_high_speed) src = usb_config_descriptor_12;
    41b8:	f890 e000 	ldrb.w	lr, [r0]
					const uint8_t *src = usb_config_descriptor_12;
					if (usb_high_speed) src = usb_config_descriptor_480;
					memcpy(usb_descriptor_buffer, src, datalen);
				} else if (setup.wValue == 0x700) {
					// other speed config also needs to adapt
					const uint8_t *src = usb_config_descriptor_480;
    41bc:	4920      	ldr	r1, [pc, #128]	; (4240 <isr+0x86c>)
    41be:	4821      	ldr	r0, [pc, #132]	; (4244 <isr+0x870>)
					if (usb_high_speed) src = usb_config_descriptor_12;
					memcpy(usb_descriptor_buffer, src, datalen);
    41c0:	9301      	str	r3, [sp, #4]
    41c2:	f1be 0f00 	cmp.w	lr, #0
    41c6:	bf08      	it	eq
    41c8:	4601      	moveq	r1, r0
    41ca:	4638      	mov	r0, r7
    41cc:	f000 fc84 	bl	4ad8 <memcpy>
					usb_descriptor_buffer[1] = 7;
    41d0:	2207      	movs	r2, #7
    41d2:	9b01      	ldr	r3, [sp, #4]
    41d4:	707a      	strb	r2, [r7, #1]
    41d6:	e72a      	b.n	402e <isr+0x65a>

void usb_stop_sof_interrupts(int interface)
{
	sof_usage &= ~(1 << interface);
	if (sof_usage == 0) {
		USB1_USBINTR &= ~USB_USBINTR_SRE;
    41d8:	f8d3 2148 	ldr.w	r2, [r3, #328]	; 0x148
    41dc:	f022 0280 	bic.w	r2, r2, #128	; 0x80
    41e0:	f8c3 2148 	str.w	r2, [r3, #328]	; 0x148
    41e4:	e4dd      	b.n	3ba2 <isr+0x1ce>

				// copy the descriptor, from PROGMEM to DMAMEM
				if (setup.wValue == 0x200) {
					// config descriptor needs to adapt to speed
					const uint8_t *src = usb_config_descriptor_12;
					if (usb_high_speed) src = usb_config_descriptor_480;
    41e6:	4815      	ldr	r0, [pc, #84]	; (423c <isr+0x868>)
					memcpy(usb_descriptor_buffer, src, datalen);
    41e8:	461a      	mov	r2, r3
				if (datalen > setup.wLength) datalen = setup.wLength;

				// copy the descriptor, from PROGMEM to DMAMEM
				if (setup.wValue == 0x200) {
					// config descriptor needs to adapt to speed
					const uint8_t *src = usb_config_descriptor_12;
    41ea:	4916      	ldr	r1, [pc, #88]	; (4244 <isr+0x870>)
					if (usb_high_speed) src = usb_config_descriptor_480;
    41ec:	7807      	ldrb	r7, [r0, #0]
				if (datalen > setup.wLength) datalen = setup.wLength;

				// copy the descriptor, from PROGMEM to DMAMEM
				if (setup.wValue == 0x200) {
					// config descriptor needs to adapt to speed
					const uint8_t *src = usb_config_descriptor_12;
    41ee:	4814      	ldr	r0, [pc, #80]	; (4240 <isr+0x86c>)
					if (usb_high_speed) src = usb_config_descriptor_480;
					memcpy(usb_descriptor_buffer, src, datalen);
    41f0:	9301      	str	r3, [sp, #4]
    41f2:	2f00      	cmp	r7, #0
    41f4:	bf08      	it	eq
    41f6:	4601      	moveq	r1, r0
    41f8:	4805      	ldr	r0, [pc, #20]	; (4210 <isr+0x83c>)
    41fa:	f000 fc6d 	bl	4ad8 <memcpy>
    41fe:	4f04      	ldr	r7, [pc, #16]	; (4210 <isr+0x83c>)
    4200:	9b01      	ldr	r3, [sp, #4]
    4202:	e714      	b.n	402e <isr+0x65a>
					// length field, allowing runtime configured length.
					datalen = *(list->addr);
				} else {
					datalen = list->length;
				}
				if (datalen > setup.wLength) datalen = setup.wLength;
    4204:	0c12      	lsrs	r2, r2, #16
			if (setup.wValue == list->wValue && setup.wIndex == list->wIndex) {
				uint32_t datalen;
				if ((setup.wValue >> 8) == 3) {
					// for string descriptors, use the descriptor's
					// length field, allowing runtime configured length.
					datalen = *(list->addr);
    4206:	780b      	ldrb	r3, [r1, #0]
    4208:	4293      	cmp	r3, r2
    420a:	bf28      	it	cs
    420c:	4613      	movcs	r3, r2
    420e:	e703      	b.n	4018 <isr+0x644>
    4210:	20200000 	.word	0x20200000
    4214:	e000ef70 	.word	0xe000ef70
    4218:	20003000 	.word	0x20003000
    421c:	20201000 	.word	0x20201000
    4220:	20003020 	.word	0x20003020
    4224:	20001ac8 	.word	0x20001ac8
    4228:	00070080 	.word	0x00070080
    422c:	20001ad8 	.word	0x20001ad8
    4230:	20004280 	.word	0x20004280
    4234:	20001ab0 	.word	0x20001ab0
    4238:	20001ac0 	.word	0x20001ac0
    423c:	20001ab8 	.word	0x20001ab8
    4240:	60001a14 	.word	0x60001a14
    4244:	60001a58 	.word	0x60001a58

00004248 <usb_config_rx>:
	qh->callback_function = callback;
}

void usb_config_rx(uint32_t ep, uint32_t packet_size, int do_zlp, void (*cb)(transfer_t *))
{
	uint32_t config = (packet_size << 16) | (do_zlp ? 0 : (1 << 29));
    4248:	2a00      	cmp	r2, #0
	if (ep < 2 || ep > NUM_ENDPOINTS) return;
    424a:	f1a0 0202 	sub.w	r2, r0, #2
	qh->next = 1; // Terminate bit = 1
	qh->callback_function = callback;
}

void usb_config_rx(uint32_t ep, uint32_t packet_size, int do_zlp, void (*cb)(transfer_t *))
{
    424e:	e92d 47f0 	stmdb	sp!, {r4, r5, r6, r7, r8, r9, sl, lr}
	uint32_t config = (packet_size << 16) | (do_zlp ? 0 : (1 << 29));
    4252:	bf14      	ite	ne
    4254:	2700      	movne	r7, #0
    4256:	f04f 5700 	moveq.w	r7, #536870912	; 0x20000000
	if (ep < 2 || ep > NUM_ENDPOINTS) return;
    425a:	2a02      	cmp	r2, #2
    425c:	d901      	bls.n	4262 <usb_config_rx+0x1a>
    425e:	e8bd 87f0 	ldmia.w	sp!, {r4, r5, r6, r7, r8, r9, sl, pc}
	usb_endpoint_config(endpoint_queue_head + ep * 2, config, cb);
    4262:	ea4f 1ac0 	mov.w	sl, r0, lsl #7
    4266:	f8df 9040 	ldr.w	r9, [pc, #64]	; 42a8 <usb_config_rx+0x60>
    426a:	460d      	mov	r5, r1
    426c:	4604      	mov	r4, r0
    426e:	eb0a 0609 	add.w	r6, sl, r9
#endif
}

static void usb_endpoint_config(endpoint_t *qh, uint32_t config, void (*callback)(transfer_t *))
{
	memset(qh, 0, sizeof(endpoint_t));
    4272:	2100      	movs	r1, #0
    4274:	2240      	movs	r2, #64	; 0x40
    4276:	4698      	mov	r8, r3
    4278:	4630      	mov	r0, r6
    427a:	f001 fa77 	bl	576c <memset>
	qh->config = config;
	qh->next = 1; // Terminate bit = 1
    427e:	2001      	movs	r0, #1
}

static void usb_endpoint_config(endpoint_t *qh, uint32_t config, void (*callback)(transfer_t *))
{
	memset(qh, 0, sizeof(endpoint_t));
	qh->config = config;
    4280:	ea47 4105 	orr.w	r1, r7, r5, lsl #16
    4284:	f84a 1009 	str.w	r1, [sl, r9]
	qh->next = 1; // Terminate bit = 1
	qh->callback_function = callback;
    4288:	f8c6 8038 	str.w	r8, [r6, #56]	; 0x38

static void usb_endpoint_config(endpoint_t *qh, uint32_t config, void (*callback)(transfer_t *))
{
	memset(qh, 0, sizeof(endpoint_t));
	qh->config = config;
	qh->next = 1; // Terminate bit = 1
    428c:	60b0      	str	r0, [r6, #8]
void usb_config_rx(uint32_t ep, uint32_t packet_size, int do_zlp, void (*cb)(transfer_t *))
{
	uint32_t config = (packet_size << 16) | (do_zlp ? 0 : (1 << 29));
	if (ep < 2 || ep > NUM_ENDPOINTS) return;
	usb_endpoint_config(endpoint_queue_head + ep * 2, config, cb);
	if (cb) endpointN_notify_mask |= (1 << ep);
    428e:	f1b8 0f00 	cmp.w	r8, #0
    4292:	d0e4      	beq.n	425e <usb_config_rx+0x16>
    4294:	4b03      	ldr	r3, [pc, #12]	; (42a4 <usb_config_rx+0x5c>)
    4296:	40a0      	lsls	r0, r4
    4298:	681c      	ldr	r4, [r3, #0]
    429a:	4320      	orrs	r0, r4
    429c:	6018      	str	r0, [r3, #0]
    429e:	e8bd 87f0 	ldmia.w	sp!, {r4, r5, r6, r7, r8, r9, sl, pc}
    42a2:	bf00      	nop
    42a4:	20001aac 	.word	0x20001aac
    42a8:	20004000 	.word	0x20004000

000042ac <usb_config_tx>:
}

void usb_config_tx(uint32_t ep, uint32_t packet_size, int do_zlp, void (*cb)(transfer_t *))
{
	uint32_t config = (packet_size << 16) | (do_zlp ? 0 : (1 << 29));
    42ac:	2a00      	cmp	r2, #0
	if (ep < 2 || ep > NUM_ENDPOINTS) return;
    42ae:	f1a0 0202 	sub.w	r2, r0, #2
	usb_endpoint_config(endpoint_queue_head + ep * 2, config, cb);
	if (cb) endpointN_notify_mask |= (1 << ep);
}

void usb_config_tx(uint32_t ep, uint32_t packet_size, int do_zlp, void (*cb)(transfer_t *))
{
    42b2:	e92d 47f0 	stmdb	sp!, {r4, r5, r6, r7, r8, r9, sl, lr}
	uint32_t config = (packet_size << 16) | (do_zlp ? 0 : (1 << 29));
    42b6:	bf14      	ite	ne
    42b8:	2700      	movne	r7, #0
    42ba:	f04f 5700 	moveq.w	r7, #536870912	; 0x20000000
	if (ep < 2 || ep > NUM_ENDPOINTS) return;
    42be:	2a02      	cmp	r2, #2
    42c0:	d901      	bls.n	42c6 <usb_config_tx+0x1a>
    42c2:	e8bd 87f0 	ldmia.w	sp!, {r4, r5, r6, r7, r8, r9, sl, pc}
#endif
}

static void usb_endpoint_config(endpoint_t *qh, uint32_t config, void (*callback)(transfer_t *))
{
	memset(qh, 0, sizeof(endpoint_t));
    42c6:	2240      	movs	r2, #64	; 0x40

void usb_config_tx(uint32_t ep, uint32_t packet_size, int do_zlp, void (*cb)(transfer_t *))
{
	uint32_t config = (packet_size << 16) | (do_zlp ? 0 : (1 << 29));
	if (ep < 2 || ep > NUM_ENDPOINTS) return;
	usb_endpoint_config(endpoint_queue_head + ep * 2 + 1, config, cb);
    42c8:	01c5      	lsls	r5, r0, #7
    42ca:	f8df 9044 	ldr.w	r9, [pc, #68]	; 4310 <usb_config_tx+0x64>
    42ce:	4688      	mov	r8, r1
    42d0:	4415      	add	r5, r2
#endif
}

static void usb_endpoint_config(endpoint_t *qh, uint32_t config, void (*callback)(transfer_t *))
{
	memset(qh, 0, sizeof(endpoint_t));
    42d2:	2100      	movs	r1, #0
    42d4:	4604      	mov	r4, r0
    42d6:	461e      	mov	r6, r3

void usb_config_tx(uint32_t ep, uint32_t packet_size, int do_zlp, void (*cb)(transfer_t *))
{
	uint32_t config = (packet_size << 16) | (do_zlp ? 0 : (1 << 29));
	if (ep < 2 || ep > NUM_ENDPOINTS) return;
	usb_endpoint_config(endpoint_queue_head + ep * 2 + 1, config, cb);
    42d8:	eb05 0a09 	add.w	sl, r5, r9
#endif
}

static void usb_endpoint_config(endpoint_t *qh, uint32_t config, void (*callback)(transfer_t *))
{
	memset(qh, 0, sizeof(endpoint_t));
    42dc:	4650      	mov	r0, sl
    42de:	f001 fa45 	bl	576c <memset>
	qh->config = config;
	qh->next = 1; // Terminate bit = 1
    42e2:	2201      	movs	r2, #1
}

static void usb_endpoint_config(endpoint_t *qh, uint32_t config, void (*callback)(transfer_t *))
{
	memset(qh, 0, sizeof(endpoint_t));
	qh->config = config;
    42e4:	ea47 4108 	orr.w	r1, r7, r8, lsl #16
    42e8:	f845 1009 	str.w	r1, [r5, r9]
	qh->next = 1; // Terminate bit = 1
	qh->callback_function = callback;
    42ec:	f8ca 6038 	str.w	r6, [sl, #56]	; 0x38

static void usb_endpoint_config(endpoint_t *qh, uint32_t config, void (*callback)(transfer_t *))
{
	memset(qh, 0, sizeof(endpoint_t));
	qh->config = config;
	qh->next = 1; // Terminate bit = 1
    42f0:	f8ca 2008 	str.w	r2, [sl, #8]
void usb_config_tx(uint32_t ep, uint32_t packet_size, int do_zlp, void (*cb)(transfer_t *))
{
	uint32_t config = (packet_size << 16) | (do_zlp ? 0 : (1 << 29));
	if (ep < 2 || ep > NUM_ENDPOINTS) return;
	usb_endpoint_config(endpoint_queue_head + ep * 2 + 1, config, cb);
	if (cb) endpointN_notify_mask |= (1 << (ep + 16));
    42f4:	2e00      	cmp	r6, #0
    42f6:	d0e4      	beq.n	42c2 <usb_config_tx+0x16>
    42f8:	f104 0010 	add.w	r0, r4, #16
    42fc:	4b03      	ldr	r3, [pc, #12]	; (430c <usb_config_tx+0x60>)
    42fe:	4082      	lsls	r2, r0
    4300:	6818      	ldr	r0, [r3, #0]
    4302:	4302      	orrs	r2, r0
    4304:	601a      	str	r2, [r3, #0]
    4306:	e8bd 87f0 	ldmia.w	sp!, {r4, r5, r6, r7, r8, r9, sl, pc}
    430a:	bf00      	nop
    430c:	20001aac 	.word	0x20001aac
    4310:	20004000 	.word	0x20004000

00004314 <usb_prepare_transfer>:


void usb_prepare_transfer(transfer_t *transfer, const void *data, uint32_t len, uint32_t param)
{
	transfer->next = 1;
	transfer->status = (len << 16) | (1<<7);
    4314:	0412      	lsls	r2, r2, #16
	uint32_t addr = (uint32_t)data;
	transfer->pointer0 = addr;
    4316:	6081      	str	r1, [r0, #8]
	transfer->pointer1 = addr + 4096;
	transfer->pointer2 = addr + 8192;
	transfer->pointer3 = addr + 12288;
	transfer->pointer4 = addr + 16384;
	transfer->callback_param = param;
    4318:	61c3      	str	r3, [r0, #28]


void usb_prepare_transfer(transfer_t *transfer, const void *data, uint32_t len, uint32_t param)
{
	transfer->next = 1;
	transfer->status = (len << 16) | (1<<7);
    431a:	f042 0280 	orr.w	r2, r2, #128	; 0x80
}



void usb_prepare_transfer(transfer_t *transfer, const void *data, uint32_t len, uint32_t param)
{
    431e:	b4f0      	push	{r4, r5, r6, r7}
	transfer->next = 1;
	transfer->status = (len << 16) | (1<<7);
    4320:	6042      	str	r2, [r0, #4]



void usb_prepare_transfer(transfer_t *transfer, const void *data, uint32_t len, uint32_t param)
{
	transfer->next = 1;
    4322:	2701      	movs	r7, #1
	transfer->status = (len << 16) | (1<<7);
	uint32_t addr = (uint32_t)data;
	transfer->pointer0 = addr;
	transfer->pointer1 = addr + 4096;
    4324:	f501 5680 	add.w	r6, r1, #4096	; 0x1000
	transfer->pointer2 = addr + 8192;
    4328:	f501 5500 	add.w	r5, r1, #8192	; 0x2000
	transfer->pointer3 = addr + 12288;
    432c:	f501 5440 	add.w	r4, r1, #12288	; 0x3000
	transfer->pointer4 = addr + 16384;
    4330:	f501 4280 	add.w	r2, r1, #16384	; 0x4000



void usb_prepare_transfer(transfer_t *transfer, const void *data, uint32_t len, uint32_t param)
{
	transfer->next = 1;
    4334:	6007      	str	r7, [r0, #0]
	transfer->status = (len << 16) | (1<<7);
	uint32_t addr = (uint32_t)data;
	transfer->pointer0 = addr;
	transfer->pointer1 = addr + 4096;
    4336:	60c6      	str	r6, [r0, #12]
	transfer->pointer2 = addr + 8192;
    4338:	6105      	str	r5, [r0, #16]
	transfer->pointer3 = addr + 12288;
    433a:	6144      	str	r4, [r0, #20]
	transfer->pointer4 = addr + 16384;
    433c:	6182      	str	r2, [r0, #24]
	transfer->callback_param = param;
}
    433e:	bcf0      	pop	{r4, r5, r6, r7}
    4340:	4770      	bx	lr
    4342:	bf00      	nop

00004344 <usb_transmit>:
	}
}

void usb_transmit(int endpoint_number, transfer_t *transfer)
{
	if (endpoint_number < 2 || endpoint_number > NUM_ENDPOINTS) return;
    4344:	1e83      	subs	r3, r0, #2
    4346:	2b02      	cmp	r3, #2
    4348:	d900      	bls.n	434c <usb_transmit+0x8>
	endpoint_t *endpoint = endpoint_queue_head + endpoint_number * 2 + 1;
	uint32_t mask = 1 << (endpoint_number + 16);
	schedule_transfer(endpoint, mask, transfer);
}
    434a:	4770      	bx	lr
}

void usb_transmit(int endpoint_number, transfer_t *transfer)
{
	if (endpoint_number < 2 || endpoint_number > NUM_ENDPOINTS) return;
	endpoint_t *endpoint = endpoint_queue_head + endpoint_number * 2 + 1;
    434c:	4a1d      	ldr	r2, [pc, #116]	; (43c4 <usb_transmit+0x80>)
	uint32_t mask = 1 << (endpoint_number + 16);
    434e:	f100 0310 	add.w	r3, r0, #16
		count--;
	}
}

void usb_transmit(int endpoint_number, transfer_t *transfer)
{
    4352:	b4f0      	push	{r4, r5, r6, r7}
	if (endpoint_number < 2 || endpoint_number > NUM_ENDPOINTS) return;
	endpoint_t *endpoint = endpoint_queue_head + endpoint_number * 2 + 1;
    4354:	eb02 10c0 	add.w	r0, r2, r0, lsl #7
	uint32_t mask = 1 << (endpoint_number + 16);
    4358:	2701      	movs	r7, #1
    435a:	409f      	lsls	r7, r3
{
	// when we stop at 6, why is the last transfer missing from the USB output?
	//if (transfer_log_count >= 6) return;

	//uint32_t ret = (*(const uint8_t *)transfer->pointer0) << 8;
	if (endpoint->callback_function) {
    435c:	6b83      	ldr	r3, [r0, #56]	; 0x38
    435e:	b11b      	cbz	r3, 4368 <usb_transmit+0x24>
		transfer->status |= (1<<15);
    4360:	684b      	ldr	r3, [r1, #4]
    4362:	f443 4300 	orr.w	r3, r3, #32768	; 0x8000
    4366:	604b      	str	r3, [r1, #4]
	}
	__disable_irq();
    4368:	b672      	cpsid	i
	//digitalWriteFast(1, HIGH);
	// Executing A Transfer Descriptor, page 2468 (RT1060 manual, Rev 1, 12/2018)
	transfer_t *last = endpoint->last_transfer;
    436a:	6b42      	ldr	r2, [r0, #52]	; 0x34
	if (last) {
    436c:	b1da      	cbz	r2, 43a6 <usb_transmit+0x62>
		last->next = (uint32_t)transfer;
		if (USB1_ENDPTPRIME & epmask) goto end;
    436e:	4b16      	ldr	r3, [pc, #88]	; (43c8 <usb_transmit+0x84>)
	__disable_irq();
	//digitalWriteFast(1, HIGH);
	// Executing A Transfer Descriptor, page 2468 (RT1060 manual, Rev 1, 12/2018)
	transfer_t *last = endpoint->last_transfer;
	if (last) {
		last->next = (uint32_t)transfer;
    4370:	6011      	str	r1, [r2, #0]
		if (USB1_ENDPTPRIME & epmask) goto end;
    4372:	f8d3 21b0 	ldr.w	r2, [r3, #432]	; 0x1b0
    4376:	4217      	tst	r7, r2
    4378:	d11f      	bne.n	43ba <usb_transmit+0x76>
		//digitalWriteFast(2, HIGH);
		//ret |= 0x01;
		uint32_t status, cyccnt=ARM_DWT_CYCCNT;
    437a:	4c14      	ldr	r4, [pc, #80]	; (43cc <usb_transmit+0x88>)
    437c:	6826      	ldr	r6, [r4, #0]
    437e:	e004      	b.n	438a <usb_transmit+0x46>
		do {
			USB1_USBCMD |= USB_USBCMD_ATDTW;
			status = USB1_ENDPTSTATUS;
		} while (!(USB1_USBCMD & USB_USBCMD_ATDTW) && (ARM_DWT_CYCCNT - cyccnt < 2400));
    4380:	6822      	ldr	r2, [r4, #0]
    4382:	1b92      	subs	r2, r2, r6
    4384:	f5b2 6f16 	cmp.w	r2, #2400	; 0x960
    4388:	d20b      	bcs.n	43a2 <usb_transmit+0x5e>
		if (USB1_ENDPTPRIME & epmask) goto end;
		//digitalWriteFast(2, HIGH);
		//ret |= 0x01;
		uint32_t status, cyccnt=ARM_DWT_CYCCNT;
		do {
			USB1_USBCMD |= USB_USBCMD_ATDTW;
    438a:	f8d3 2140 	ldr.w	r2, [r3, #320]	; 0x140
    438e:	f442 4280 	orr.w	r2, r2, #16384	; 0x4000
    4392:	f8c3 2140 	str.w	r2, [r3, #320]	; 0x140
			status = USB1_ENDPTSTATUS;
    4396:	f8d3 51b8 	ldr.w	r5, [r3, #440]	; 0x1b8
		} while (!(USB1_USBCMD & USB_USBCMD_ATDTW) && (ARM_DWT_CYCCNT - cyccnt < 2400));
    439a:	f8d3 2140 	ldr.w	r2, [r3, #320]	; 0x140
    439e:	0452      	lsls	r2, r2, #17
    43a0:	d5ee      	bpl.n	4380 <usb_transmit+0x3c>
		//USB1_USBCMD &= ~USB_USBCMD_ATDTW;
		if (status & epmask) goto end;
    43a2:	422f      	tst	r7, r5
    43a4:	d109      	bne.n	43ba <usb_transmit+0x76>
		//ret |= 0x02;
	}
	//digitalWriteFast(4, HIGH);
	endpoint->next = (uint32_t)transfer;
	endpoint->status = 0;
    43a6:	2300      	movs	r3, #0
	USB1_ENDPTPRIME |= epmask;
    43a8:	4a07      	ldr	r2, [pc, #28]	; (43c8 <usb_transmit+0x84>)
		//USB1_USBCMD &= ~USB_USBCMD_ATDTW;
		if (status & epmask) goto end;
		//ret |= 0x02;
	}
	//digitalWriteFast(4, HIGH);
	endpoint->next = (uint32_t)transfer;
    43aa:	6081      	str	r1, [r0, #8]
	endpoint->status = 0;
    43ac:	60c3      	str	r3, [r0, #12]
	USB1_ENDPTPRIME |= epmask;
    43ae:	f8d2 31b0 	ldr.w	r3, [r2, #432]	; 0x1b0
    43b2:	431f      	orrs	r7, r3
    43b4:	f8c2 71b0 	str.w	r7, [r2, #432]	; 0x1b0
	endpoint->first_transfer = transfer;
    43b8:	6301      	str	r1, [r0, #48]	; 0x30
end:
	endpoint->last_transfer = transfer;
    43ba:	6341      	str	r1, [r0, #52]	; 0x34
	__enable_irq();
    43bc:	b662      	cpsie	i
{
	if (endpoint_number < 2 || endpoint_number > NUM_ENDPOINTS) return;
	endpoint_t *endpoint = endpoint_queue_head + endpoint_number * 2 + 1;
	uint32_t mask = 1 << (endpoint_number + 16);
	schedule_transfer(endpoint, mask, transfer);
}
    43be:	bcf0      	pop	{r4, r5, r6, r7}
    43c0:	4770      	bx	lr
    43c2:	bf00      	nop
    43c4:	20004040 	.word	0x20004040
    43c8:	402e0000 	.word	0x402e0000
    43cc:	e0001004 	.word	0xe0001004

000043d0 <usb_receive>:

void usb_receive(int endpoint_number, transfer_t *transfer)
{
	if (endpoint_number < 2 || endpoint_number > NUM_ENDPOINTS) return;
    43d0:	1e83      	subs	r3, r0, #2
    43d2:	2b02      	cmp	r3, #2
    43d4:	d900      	bls.n	43d8 <usb_receive+0x8>
	endpoint_t *endpoint = endpoint_queue_head + endpoint_number * 2;
	uint32_t mask = 1 << endpoint_number;
	schedule_transfer(endpoint, mask, transfer);
}
    43d6:	4770      	bx	lr
	uint32_t mask = 1 << (endpoint_number + 16);
	schedule_transfer(endpoint, mask, transfer);
}

void usb_receive(int endpoint_number, transfer_t *transfer)
{
    43d8:	b4f0      	push	{r4, r5, r6, r7}
	if (endpoint_number < 2 || endpoint_number > NUM_ENDPOINTS) return;
	endpoint_t *endpoint = endpoint_queue_head + endpoint_number * 2;
    43da:	4d1c      	ldr	r5, [pc, #112]	; (444c <usb_receive+0x7c>)
	uint32_t mask = 1 << endpoint_number;
    43dc:	2301      	movs	r3, #1
}

void usb_receive(int endpoint_number, transfer_t *transfer)
{
	if (endpoint_number < 2 || endpoint_number > NUM_ENDPOINTS) return;
	endpoint_t *endpoint = endpoint_queue_head + endpoint_number * 2;
    43de:	eb05 15c0 	add.w	r5, r5, r0, lsl #7
	uint32_t mask = 1 << endpoint_number;
    43e2:	fa03 f000 	lsl.w	r0, r3, r0
{
	// when we stop at 6, why is the last transfer missing from the USB output?
	//if (transfer_log_count >= 6) return;

	//uint32_t ret = (*(const uint8_t *)transfer->pointer0) << 8;
	if (endpoint->callback_function) {
    43e6:	6bab      	ldr	r3, [r5, #56]	; 0x38
    43e8:	b11b      	cbz	r3, 43f2 <usb_receive+0x22>
		transfer->status |= (1<<15);
    43ea:	684b      	ldr	r3, [r1, #4]
    43ec:	f443 4300 	orr.w	r3, r3, #32768	; 0x8000
    43f0:	604b      	str	r3, [r1, #4]
	}
	__disable_irq();
    43f2:	b672      	cpsid	i
	//digitalWriteFast(1, HIGH);
	// Executing A Transfer Descriptor, page 2468 (RT1060 manual, Rev 1, 12/2018)
	transfer_t *last = endpoint->last_transfer;
    43f4:	6b6a      	ldr	r2, [r5, #52]	; 0x34
	if (last) {
    43f6:	b1da      	cbz	r2, 4430 <usb_receive+0x60>
		last->next = (uint32_t)transfer;
		if (USB1_ENDPTPRIME & epmask) goto end;
    43f8:	4b15      	ldr	r3, [pc, #84]	; (4450 <usb_receive+0x80>)
	__disable_irq();
	//digitalWriteFast(1, HIGH);
	// Executing A Transfer Descriptor, page 2468 (RT1060 manual, Rev 1, 12/2018)
	transfer_t *last = endpoint->last_transfer;
	if (last) {
		last->next = (uint32_t)transfer;
    43fa:	6011      	str	r1, [r2, #0]
		if (USB1_ENDPTPRIME & epmask) goto end;
    43fc:	f8d3 21b0 	ldr.w	r2, [r3, #432]	; 0x1b0
    4400:	4210      	tst	r0, r2
    4402:	d11f      	bne.n	4444 <usb_receive+0x74>
		//digitalWriteFast(2, HIGH);
		//ret |= 0x01;
		uint32_t status, cyccnt=ARM_DWT_CYCCNT;
    4404:	4c13      	ldr	r4, [pc, #76]	; (4454 <usb_receive+0x84>)
    4406:	6827      	ldr	r7, [r4, #0]
    4408:	e004      	b.n	4414 <usb_receive+0x44>
		do {
			USB1_USBCMD |= USB_USBCMD_ATDTW;
			status = USB1_ENDPTSTATUS;
		} while (!(USB1_USBCMD & USB_USBCMD_ATDTW) && (ARM_DWT_CYCCNT - cyccnt < 2400));
    440a:	6822      	ldr	r2, [r4, #0]
    440c:	1bd2      	subs	r2, r2, r7
    440e:	f5b2 6f16 	cmp.w	r2, #2400	; 0x960
    4412:	d20b      	bcs.n	442c <usb_receive+0x5c>
		if (USB1_ENDPTPRIME & epmask) goto end;
		//digitalWriteFast(2, HIGH);
		//ret |= 0x01;
		uint32_t status, cyccnt=ARM_DWT_CYCCNT;
		do {
			USB1_USBCMD |= USB_USBCMD_ATDTW;
    4414:	f8d3 2140 	ldr.w	r2, [r3, #320]	; 0x140
    4418:	f442 4280 	orr.w	r2, r2, #16384	; 0x4000
    441c:	f8c3 2140 	str.w	r2, [r3, #320]	; 0x140
			status = USB1_ENDPTSTATUS;
    4420:	f8d3 61b8 	ldr.w	r6, [r3, #440]	; 0x1b8
		} while (!(USB1_USBCMD & USB_USBCMD_ATDTW) && (ARM_DWT_CYCCNT - cyccnt < 2400));
    4424:	f8d3 2140 	ldr.w	r2, [r3, #320]	; 0x140
    4428:	0452      	lsls	r2, r2, #17
    442a:	d5ee      	bpl.n	440a <usb_receive+0x3a>
		//USB1_USBCMD &= ~USB_USBCMD_ATDTW;
		if (status & epmask) goto end;
    442c:	4230      	tst	r0, r6
    442e:	d109      	bne.n	4444 <usb_receive+0x74>
		//ret |= 0x02;
	}
	//digitalWriteFast(4, HIGH);
	endpoint->next = (uint32_t)transfer;
	endpoint->status = 0;
    4430:	2300      	movs	r3, #0
	USB1_ENDPTPRIME |= epmask;
    4432:	4a07      	ldr	r2, [pc, #28]	; (4450 <usb_receive+0x80>)
		//USB1_USBCMD &= ~USB_USBCMD_ATDTW;
		if (status & epmask) goto end;
		//ret |= 0x02;
	}
	//digitalWriteFast(4, HIGH);
	endpoint->next = (uint32_t)transfer;
    4434:	60a9      	str	r1, [r5, #8]
	endpoint->status = 0;
    4436:	60eb      	str	r3, [r5, #12]
	USB1_ENDPTPRIME |= epmask;
    4438:	f8d2 31b0 	ldr.w	r3, [r2, #432]	; 0x1b0
    443c:	4318      	orrs	r0, r3
    443e:	f8c2 01b0 	str.w	r0, [r2, #432]	; 0x1b0
	endpoint->first_transfer = transfer;
    4442:	6329      	str	r1, [r5, #48]	; 0x30
end:
	endpoint->last_transfer = transfer;
    4444:	6369      	str	r1, [r5, #52]	; 0x34
	__enable_irq();
    4446:	b662      	cpsie	i
{
	if (endpoint_number < 2 || endpoint_number > NUM_ENDPOINTS) return;
	endpoint_t *endpoint = endpoint_queue_head + endpoint_number * 2;
	uint32_t mask = 1 << endpoint_number;
	schedule_transfer(endpoint, mask, transfer);
}
    4448:	bcf0      	pop	{r4, r5, r6, r7}
    444a:	4770      	bx	lr
    444c:	20004000 	.word	0x20004000
    4450:	402e0000 	.word	0x402e0000
    4454:	e0001004 	.word	0xe0001004

00004458 <usb_init_serialnumber>:
void usb_init_serialnumber(void)
{
	char buf[11];
	uint32_t i, num;

	num = HW_OCOTP_MAC0 & 0xFFFFFF;
    4458:	4a2b      	ldr	r2, [pc, #172]	; (4508 <usb_init_serialnumber+0xb0>)
	// add extra zero to work around OS-X CDC-ACM driver bug
	if (num < 10000000) num = num * 10;
    445a:	4b2c      	ldr	r3, [pc, #176]	; (450c <usb_init_serialnumber+0xb4>)
void usb_init_serialnumber(void)
{
	char buf[11];
	uint32_t i, num;

	num = HW_OCOTP_MAC0 & 0xFFFFFF;
    445c:	f8d2 0220 	ldr.w	r0, [r2, #544]	; 0x220
    4460:	f020 407f 	bic.w	r0, r0, #4278190080	; 0xff000000
	// add extra zero to work around OS-X CDC-ACM driver bug
	if (num < 10000000) num = num * 10;
    4464:	4298      	cmp	r0, r3
	{'M','T','P'}
};
#endif

void usb_init_serialnumber(void)
{
    4466:	b500      	push	{lr}
    4468:	b085      	sub	sp, #20
	char buf[11];
	uint32_t i, num;

	num = HW_OCOTP_MAC0 & 0xFFFFFF;
	// add extra zero to work around OS-X CDC-ACM driver bug
	if (num < 10000000) num = num * 10;
    446a:	d802      	bhi.n	4472 <usb_init_serialnumber+0x1a>
    446c:	eb00 0080 	add.w	r0, r0, r0, lsl #2
    4470:	0040      	lsls	r0, r0, #1
	ultoa(num, buf, 10);
    4472:	220a      	movs	r2, #10
    4474:	a901      	add	r1, sp, #4
    4476:	f000 fbc9 	bl	4c0c <ultoa>
	for (i=0; i<10; i++) {
		char c = buf[i];
    447a:	f89d 2004 	ldrb.w	r2, [sp, #4]
    447e:	4b24      	ldr	r3, [pc, #144]	; (4510 <usb_init_serialnumber+0xb8>)
		if (!c) break;
    4480:	b352      	cbz	r2, 44d8 <usb_init_serialnumber+0x80>
	num = HW_OCOTP_MAC0 & 0xFFFFFF;
	// add extra zero to work around OS-X CDC-ACM driver bug
	if (num < 10000000) num = num * 10;
	ultoa(num, buf, 10);
	for (i=0; i<10; i++) {
		char c = buf[i];
    4482:	f89d 1005 	ldrb.w	r1, [sp, #5]
		if (!c) break;
		usb_string_serial_number_default.wString[i] = c;
    4486:	805a      	strh	r2, [r3, #2]
	// add extra zero to work around OS-X CDC-ACM driver bug
	if (num < 10000000) num = num * 10;
	ultoa(num, buf, 10);
	for (i=0; i<10; i++) {
		char c = buf[i];
		if (!c) break;
    4488:	b369      	cbz	r1, 44e6 <usb_init_serialnumber+0x8e>
	num = HW_OCOTP_MAC0 & 0xFFFFFF;
	// add extra zero to work around OS-X CDC-ACM driver bug
	if (num < 10000000) num = num * 10;
	ultoa(num, buf, 10);
	for (i=0; i<10; i++) {
		char c = buf[i];
    448a:	f89d 2006 	ldrb.w	r2, [sp, #6]
		if (!c) break;
		usb_string_serial_number_default.wString[i] = c;
    448e:	8099      	strh	r1, [r3, #4]
	// add extra zero to work around OS-X CDC-ACM driver bug
	if (num < 10000000) num = num * 10;
	ultoa(num, buf, 10);
	for (i=0; i<10; i++) {
		char c = buf[i];
		if (!c) break;
    4490:	b35a      	cbz	r2, 44ea <usb_init_serialnumber+0x92>
	num = HW_OCOTP_MAC0 & 0xFFFFFF;
	// add extra zero to work around OS-X CDC-ACM driver bug
	if (num < 10000000) num = num * 10;
	ultoa(num, buf, 10);
	for (i=0; i<10; i++) {
		char c = buf[i];
    4492:	f89d 1007 	ldrb.w	r1, [sp, #7]
		if (!c) break;
		usb_string_serial_number_default.wString[i] = c;
    4496:	80da      	strh	r2, [r3, #6]
	// add extra zero to work around OS-X CDC-ACM driver bug
	if (num < 10000000) num = num * 10;
	ultoa(num, buf, 10);
	for (i=0; i<10; i++) {
		char c = buf[i];
		if (!c) break;
    4498:	b349      	cbz	r1, 44ee <usb_init_serialnumber+0x96>
	num = HW_OCOTP_MAC0 & 0xFFFFFF;
	// add extra zero to work around OS-X CDC-ACM driver bug
	if (num < 10000000) num = num * 10;
	ultoa(num, buf, 10);
	for (i=0; i<10; i++) {
		char c = buf[i];
    449a:	f89d 2008 	ldrb.w	r2, [sp, #8]
		if (!c) break;
		usb_string_serial_number_default.wString[i] = c;
    449e:	8119      	strh	r1, [r3, #8]
	// add extra zero to work around OS-X CDC-ACM driver bug
	if (num < 10000000) num = num * 10;
	ultoa(num, buf, 10);
	for (i=0; i<10; i++) {
		char c = buf[i];
		if (!c) break;
    44a0:	b33a      	cbz	r2, 44f2 <usb_init_serialnumber+0x9a>
	num = HW_OCOTP_MAC0 & 0xFFFFFF;
	// add extra zero to work around OS-X CDC-ACM driver bug
	if (num < 10000000) num = num * 10;
	ultoa(num, buf, 10);
	for (i=0; i<10; i++) {
		char c = buf[i];
    44a2:	f89d 1009 	ldrb.w	r1, [sp, #9]
		if (!c) break;
		usb_string_serial_number_default.wString[i] = c;
    44a6:	815a      	strh	r2, [r3, #10]
	// add extra zero to work around OS-X CDC-ACM driver bug
	if (num < 10000000) num = num * 10;
	ultoa(num, buf, 10);
	for (i=0; i<10; i++) {
		char c = buf[i];
		if (!c) break;
    44a8:	b329      	cbz	r1, 44f6 <usb_init_serialnumber+0x9e>
	num = HW_OCOTP_MAC0 & 0xFFFFFF;
	// add extra zero to work around OS-X CDC-ACM driver bug
	if (num < 10000000) num = num * 10;
	ultoa(num, buf, 10);
	for (i=0; i<10; i++) {
		char c = buf[i];
    44aa:	f89d 200a 	ldrb.w	r2, [sp, #10]
		if (!c) break;
		usb_string_serial_number_default.wString[i] = c;
    44ae:	8199      	strh	r1, [r3, #12]
	// add extra zero to work around OS-X CDC-ACM driver bug
	if (num < 10000000) num = num * 10;
	ultoa(num, buf, 10);
	for (i=0; i<10; i++) {
		char c = buf[i];
		if (!c) break;
    44b0:	b31a      	cbz	r2, 44fa <usb_init_serialnumber+0xa2>
	num = HW_OCOTP_MAC0 & 0xFFFFFF;
	// add extra zero to work around OS-X CDC-ACM driver bug
	if (num < 10000000) num = num * 10;
	ultoa(num, buf, 10);
	for (i=0; i<10; i++) {
		char c = buf[i];
    44b2:	f89d 100b 	ldrb.w	r1, [sp, #11]
		if (!c) break;
		usb_string_serial_number_default.wString[i] = c;
    44b6:	81da      	strh	r2, [r3, #14]
	// add extra zero to work around OS-X CDC-ACM driver bug
	if (num < 10000000) num = num * 10;
	ultoa(num, buf, 10);
	for (i=0; i<10; i++) {
		char c = buf[i];
		if (!c) break;
    44b8:	b309      	cbz	r1, 44fe <usb_init_serialnumber+0xa6>
	num = HW_OCOTP_MAC0 & 0xFFFFFF;
	// add extra zero to work around OS-X CDC-ACM driver bug
	if (num < 10000000) num = num * 10;
	ultoa(num, buf, 10);
	for (i=0; i<10; i++) {
		char c = buf[i];
    44ba:	f89d 200c 	ldrb.w	r2, [sp, #12]
		if (!c) break;
		usb_string_serial_number_default.wString[i] = c;
    44be:	8219      	strh	r1, [r3, #16]
	// add extra zero to work around OS-X CDC-ACM driver bug
	if (num < 10000000) num = num * 10;
	ultoa(num, buf, 10);
	for (i=0; i<10; i++) {
		char c = buf[i];
		if (!c) break;
    44c0:	b14a      	cbz	r2, 44d6 <usb_init_serialnumber+0x7e>
	num = HW_OCOTP_MAC0 & 0xFFFFFF;
	// add extra zero to work around OS-X CDC-ACM driver bug
	if (num < 10000000) num = num * 10;
	ultoa(num, buf, 10);
	for (i=0; i<10; i++) {
		char c = buf[i];
    44c2:	f89d 100d 	ldrb.w	r1, [sp, #13]
		if (!c) break;
		usb_string_serial_number_default.wString[i] = c;
    44c6:	825a      	strh	r2, [r3, #18]
	// add extra zero to work around OS-X CDC-ACM driver bug
	if (num < 10000000) num = num * 10;
	ultoa(num, buf, 10);
	for (i=0; i<10; i++) {
		char c = buf[i];
		if (!c) break;
    44c8:	b1d9      	cbz	r1, 4502 <usb_init_serialnumber+0xaa>
    44ca:	2216      	movs	r2, #22
		usb_string_serial_number_default.wString[i] = c;
    44cc:	8299      	strh	r1, [r3, #20]
	}
	usb_string_serial_number_default.bLength = i * 2 + 2;
    44ce:	701a      	strb	r2, [r3, #0]
}
    44d0:	b005      	add	sp, #20
    44d2:	f85d fb04 	ldr.w	pc, [sp], #4

	num = HW_OCOTP_MAC0 & 0xFFFFFF;
	// add extra zero to work around OS-X CDC-ACM driver bug
	if (num < 10000000) num = num * 10;
	ultoa(num, buf, 10);
	for (i=0; i<10; i++) {
    44d6:	2208      	movs	r2, #8
    44d8:	3201      	adds	r2, #1
    44da:	0052      	lsls	r2, r2, #1
    44dc:	b2d2      	uxtb	r2, r2
		char c = buf[i];
		if (!c) break;
		usb_string_serial_number_default.wString[i] = c;
	}
	usb_string_serial_number_default.bLength = i * 2 + 2;
    44de:	701a      	strb	r2, [r3, #0]
}
    44e0:	b005      	add	sp, #20
    44e2:	f85d fb04 	ldr.w	pc, [sp], #4

	num = HW_OCOTP_MAC0 & 0xFFFFFF;
	// add extra zero to work around OS-X CDC-ACM driver bug
	if (num < 10000000) num = num * 10;
	ultoa(num, buf, 10);
	for (i=0; i<10; i++) {
    44e6:	2201      	movs	r2, #1
    44e8:	e7f6      	b.n	44d8 <usb_init_serialnumber+0x80>
    44ea:	2202      	movs	r2, #2
    44ec:	e7f4      	b.n	44d8 <usb_init_serialnumber+0x80>
    44ee:	2203      	movs	r2, #3
    44f0:	e7f2      	b.n	44d8 <usb_init_serialnumber+0x80>
    44f2:	2204      	movs	r2, #4
    44f4:	e7f0      	b.n	44d8 <usb_init_serialnumber+0x80>
    44f6:	2205      	movs	r2, #5
    44f8:	e7ee      	b.n	44d8 <usb_init_serialnumber+0x80>
    44fa:	2206      	movs	r2, #6
    44fc:	e7ec      	b.n	44d8 <usb_init_serialnumber+0x80>
    44fe:	2207      	movs	r2, #7
    4500:	e7ea      	b.n	44d8 <usb_init_serialnumber+0x80>
    4502:	2209      	movs	r2, #9
    4504:	e7e8      	b.n	44d8 <usb_init_serialnumber+0x80>
    4506:	bf00      	nop
    4508:	401f4400 	.word	0x401f4400
    450c:	0098967f 	.word	0x0098967f
    4510:	200006f4 	.word	0x200006f4

00004514 <usb_serial_flush_callback>:
	tx_noautoflush = 0;
}

static void usb_serial_flush_callback(void)
{
	if (tx_noautoflush) return;
    4514:	4b1e      	ldr	r3, [pc, #120]	; (4590 <usb_serial_flush_callback+0x7c>)
    4516:	781a      	ldrb	r2, [r3, #0]
    4518:	b95a      	cbnz	r2, 4532 <usb_serial_flush_callback+0x1e>
    451a:	f002 03ff 	and.w	r3, r2, #255	; 0xff
	if (!usb_configuration) return;
    451e:	4a1d      	ldr	r2, [pc, #116]	; (4594 <usb_serial_flush_callback+0x80>)
    4520:	7812      	ldrb	r2, [r2, #0]
    4522:	b132      	cbz	r2, 4532 <usb_serial_flush_callback+0x1e>
	tx_available = 0;
	tx_noautoflush = 0;
}

static void usb_serial_flush_callback(void)
{
    4524:	e92d 41f0 	stmdb	sp!, {r4, r5, r6, r7, r8, lr}
	if (tx_noautoflush) return;
	if (!usb_configuration) return;
	if (tx_available == 0) return;
    4528:	4d1b      	ldr	r5, [pc, #108]	; (4598 <usb_serial_flush_callback+0x84>)
    452a:	882a      	ldrh	r2, [r5, #0]
    452c:	b912      	cbnz	r2, 4534 <usb_serial_flush_callback+0x20>
    452e:	e8bd 81f0 	ldmia.w	sp!, {r4, r5, r6, r7, r8, pc}
    4532:	4770      	bx	lr
	//printf("flush callback, %d bytes\n", TX_SIZE - tx_available);
	transfer_t *xfer = tx_transfer + tx_head;
    4534:	4e19      	ldr	r6, [pc, #100]	; (459c <usb_serial_flush_callback+0x88>)
	uint8_t *txbuf = txbuffer + (tx_head * TX_SIZE);
	uint32_t txnum = TX_SIZE - tx_available;
    4536:	f5c2 6800 	rsb	r8, r2, #2048	; 0x800
{
	if (tx_noautoflush) return;
	if (!usb_configuration) return;
	if (tx_available == 0) return;
	//printf("flush callback, %d bytes\n", TX_SIZE - tx_available);
	transfer_t *xfer = tx_transfer + tx_head;
    453a:	4f19      	ldr	r7, [pc, #100]	; (45a0 <usb_serial_flush_callback+0x8c>)
    453c:	7831      	ldrb	r1, [r6, #0]
	uint8_t *txbuf = txbuffer + (tx_head * TX_SIZE);
	uint32_t txnum = TX_SIZE - tx_available;
	usb_prepare_transfer(xfer, txbuf, txnum, 0);
    453e:	4642      	mov	r2, r8
	if (tx_noautoflush) return;
	if (!usb_configuration) return;
	if (tx_available == 0) return;
	//printf("flush callback, %d bytes\n", TX_SIZE - tx_available);
	transfer_t *xfer = tx_transfer + tx_head;
	uint8_t *txbuf = txbuffer + (tx_head * TX_SIZE);
    4540:	4c18      	ldr	r4, [pc, #96]	; (45a4 <usb_serial_flush_callback+0x90>)
{
	if (tx_noautoflush) return;
	if (!usb_configuration) return;
	if (tx_available == 0) return;
	//printf("flush callback, %d bytes\n", TX_SIZE - tx_available);
	transfer_t *xfer = tx_transfer + tx_head;
    4542:	eb07 1741 	add.w	r7, r7, r1, lsl #5
	uint8_t *txbuf = txbuffer + (tx_head * TX_SIZE);
    4546:	eb04 24c1 	add.w	r4, r4, r1, lsl #11
	uint32_t txnum = TX_SIZE - tx_available;
	usb_prepare_transfer(xfer, txbuf, txnum, 0);
    454a:	4638      	mov	r0, r7
    454c:	4621      	mov	r1, r4
    454e:	f7ff fee1 	bl	4314 <usb_prepare_transfer>
// because you no longer need to access the data after transmission.
__attribute__((always_inline, unused))
static inline void arm_dcache_flush_delete(void *addr, uint32_t size)
{
	uint32_t location = (uint32_t)addr & 0xFFFFFFE0;
	uint32_t end_addr = (uint32_t)addr + size;
    4552:	eb08 0204 	add.w	r2, r8, r4
// any cached data written to memory, and then removed from the cache,
// because you no longer need to access the data after transmission.
__attribute__((always_inline, unused))
static inline void arm_dcache_flush_delete(void *addr, uint32_t size)
{
	uint32_t location = (uint32_t)addr & 0xFFFFFFE0;
    4556:	f024 011f 	bic.w	r1, r4, #31
	uint32_t end_addr = (uint32_t)addr + size;
	asm volatile("": : :"memory");
	asm("dsb");
    455a:	f3bf 8f4f 	dsb	sy
	do {
		SCB_CACHE_DCCIMVAC = location;
    455e:	4b12      	ldr	r3, [pc, #72]	; (45a8 <usb_serial_flush_callback+0x94>)
    4560:	6019      	str	r1, [r3, #0]
		location += 32;
    4562:	3120      	adds	r1, #32
	} while (location < end_addr);
    4564:	428a      	cmp	r2, r1
    4566:	d8fb      	bhi.n	4560 <usb_serial_flush_callback+0x4c>
	asm("dsb");
    4568:	f3bf 8f4f 	dsb	sy
	asm("isb");
    456c:	f3bf 8f6f 	isb	sy
	arm_dcache_flush_delete(txbuf, txnum);
	usb_transmit(CDC_TX_ENDPOINT, xfer);
    4570:	2004      	movs	r0, #4
    4572:	4639      	mov	r1, r7
    4574:	f7ff fee6 	bl	4344 <usb_transmit>
	if (++tx_head >= TX_NUM) tx_head = 0;
    4578:	7833      	ldrb	r3, [r6, #0]
    457a:	4a08      	ldr	r2, [pc, #32]	; (459c <usb_serial_flush_callback+0x88>)
    457c:	3301      	adds	r3, #1
    457e:	b2db      	uxtb	r3, r3
    4580:	2b03      	cmp	r3, #3
    4582:	bf88      	it	hi
    4584:	2300      	movhi	r3, #0
    4586:	7013      	strb	r3, [r2, #0]
	tx_available = 0;
    4588:	2300      	movs	r3, #0
    458a:	802b      	strh	r3, [r5, #0]
    458c:	e8bd 81f0 	ldmia.w	sp!, {r4, r5, r6, r7, r8, pc}
    4590:	20001af6 	.word	0x20001af6
    4594:	20001ae0 	.word	0x20001ae0
    4598:	20001c10 	.word	0x20001c10
    459c:	20001af7 	.word	0x20001af7
    45a0:	20001c20 	.word	0x20001c20
    45a4:	20200060 	.word	0x20200060
    45a8:	e000ef70 	.word	0xe000ef70

000045ac <rx_event>:
	NVIC_ENABLE_IRQ(IRQ_USB1);
}

// called by USB interrupt when any packet is received
static void rx_event(transfer_t *t)
{
    45ac:	e92d 4ff8 	stmdb	sp!, {r3, r4, r5, r6, r7, r8, r9, sl, fp, lr}
	int len = rx_packet_size - ((t->status >> 16) & 0x7FFF);
    45b0:	4e49      	ldr	r6, [pc, #292]	; (46d8 <rx_event+0x12c>)
    45b2:	6844      	ldr	r4, [r0, #4]
    45b4:	8837      	ldrh	r7, [r6, #0]
    45b6:	f3c4 440e 	ubfx	r4, r4, #16, #15
	int i = t->callback_param;
    45ba:	69c5      	ldr	r5, [r0, #28]
}

// called by USB interrupt when any packet is received
static void rx_event(transfer_t *t)
{
	int len = rx_packet_size - ((t->status >> 16) & 0x7FFF);
    45bc:	1b3c      	subs	r4, r7, r4
	int i = t->callback_param;
	printf("rx event, len=%d, i=%d\n", len, i);
	if (len > 0) {
    45be:	2c00      	cmp	r4, #0
    45c0:	dd5f      	ble.n	4682 <rx_event+0xd6>
		// received a packet with data
		uint32_t head = rx_head;
    45c2:	4946      	ldr	r1, [pc, #280]	; (46dc <rx_event+0x130>)
		if (head != rx_tail) {
    45c4:	4b46      	ldr	r3, [pc, #280]	; (46e0 <rx_event+0x134>)
	int len = rx_packet_size - ((t->status >> 16) & 0x7FFF);
	int i = t->callback_param;
	printf("rx event, len=%d, i=%d\n", len, i);
	if (len > 0) {
		// received a packet with data
		uint32_t head = rx_head;
    45c6:	780a      	ldrb	r2, [r1, #0]
		if (head != rx_tail) {
    45c8:	781b      	ldrb	r3, [r3, #0]
	int len = rx_packet_size - ((t->status >> 16) & 0x7FFF);
	int i = t->callback_param;
	printf("rx event, len=%d, i=%d\n", len, i);
	if (len > 0) {
		// received a packet with data
		uint32_t head = rx_head;
    45ca:	b2d2      	uxtb	r2, r2
		if (head != rx_tail) {
			// a previous packet is still buffered
			uint32_t ii = rx_list[head];
    45cc:	4845      	ldr	r0, [pc, #276]	; (46e4 <rx_event+0x138>)
			uint32_t count = rx_count[ii];
    45ce:	f8df 8134 	ldr.w	r8, [pc, #308]	; 4704 <rx_event+0x158>
	int i = t->callback_param;
	printf("rx event, len=%d, i=%d\n", len, i);
	if (len > 0) {
		// received a packet with data
		uint32_t head = rx_head;
		if (head != rx_tail) {
    45d2:	429a      	cmp	r2, r3
    45d4:	d007      	beq.n	45e6 <rx_event+0x3a>
			// a previous packet is still buffered
			uint32_t ii = rx_list[head];
    45d6:	f810 b002 	ldrb.w	fp, [r0, r2]
			uint32_t count = rx_count[ii];
    45da:	f838 a01b 	ldrh.w	sl, [r8, fp, lsl #1]
			if (len <= CDC_RX_SIZE_480 - count) {
    45de:	f5ca 7300 	rsb	r3, sl, #512	; 0x200
    45e2:	429c      	cmp	r4, r3
    45e4:	d913      	bls.n	460e <rx_event+0x62>
			}
		}
		// add this packet to rx_list
		rx_count[i] = len;
		rx_index[i] = 0;
		if (++head > RX_NUM) head = 0;
    45e6:	3201      	adds	r2, #1
				return;
			}
		}
		// add this packet to rx_list
		rx_count[i] = len;
		rx_index[i] = 0;
    45e8:	2300      	movs	r3, #0
    45ea:	4e3f      	ldr	r6, [pc, #252]	; (46e8 <rx_event+0x13c>)
		if (++head > RX_NUM) head = 0;
    45ec:	2a08      	cmp	r2, #8
				// TODO: trigger serialEvent
				return;
			}
		}
		// add this packet to rx_list
		rx_count[i] = len;
    45ee:	f828 4015 	strh.w	r4, [r8, r5, lsl #1]
		rx_index[i] = 0;
    45f2:	f826 3015 	strh.w	r3, [r6, r5, lsl #1]
    45f6:	bf98      	it	ls
    45f8:	b2d3      	uxtbls	r3, r2
		if (++head > RX_NUM) head = 0;
		rx_list[head] = i;
		rx_head = head;
		rx_available += len;
    45fa:	4e3c      	ldr	r6, [pc, #240]	; (46ec <rx_event+0x140>)
			}
		}
		// add this packet to rx_list
		rx_count[i] = len;
		rx_index[i] = 0;
		if (++head > RX_NUM) head = 0;
    45fc:	bf88      	it	hi
    45fe:	461a      	movhi	r2, r3
		rx_list[head] = i;
		rx_head = head;
    4600:	700b      	strb	r3, [r1, #0]
		rx_available += len;
    4602:	6833      	ldr	r3, [r6, #0]
		}
		// add this packet to rx_list
		rx_count[i] = len;
		rx_index[i] = 0;
		if (++head > RX_NUM) head = 0;
		rx_list[head] = i;
    4604:	5485      	strb	r5, [r0, r2]
		rx_head = head;
		rx_available += len;
    4606:	441c      	add	r4, r3
    4608:	6034      	str	r4, [r6, #0]
    460a:	e8bd 8ff8 	ldmia.w	sp!, {r3, r4, r5, r6, r7, r8, r9, sl, fp, pc}
			uint32_t ii = rx_list[head];
			uint32_t count = rx_count[ii];
			if (len <= CDC_RX_SIZE_480 - count) {
				// previous buffer has enough free space for this packet's data
				memcpy(rx_buffer + ii * CDC_RX_SIZE_480 + count,
					rx_buffer + i * CDC_RX_SIZE_480, len);
    460e:	4b38      	ldr	r3, [pc, #224]	; (46f0 <rx_event+0x144>)
			// a previous packet is still buffered
			uint32_t ii = rx_list[head];
			uint32_t count = rx_count[ii];
			if (len <= CDC_RX_SIZE_480 - count) {
				// previous buffer has enough free space for this packet's data
				memcpy(rx_buffer + ii * CDC_RX_SIZE_480 + count,
    4610:	eb0a 204b 	add.w	r0, sl, fp, lsl #9
    4614:	4622      	mov	r2, r4
					rx_buffer + i * CDC_RX_SIZE_480, len);
    4616:	eb03 2945 	add.w	r9, r3, r5, lsl #9
			// a previous packet is still buffered
			uint32_t ii = rx_list[head];
			uint32_t count = rx_count[ii];
			if (len <= CDC_RX_SIZE_480 - count) {
				// previous buffer has enough free space for this packet's data
				memcpy(rx_buffer + ii * CDC_RX_SIZE_480 + count,
    461a:	4418      	add	r0, r3
    461c:	4649      	mov	r1, r9
    461e:	f000 fa5b 	bl	4ad8 <memcpy>
					rx_buffer + i * CDC_RX_SIZE_480, len);
				rx_count[ii] = count + len;
				rx_available += len;
    4622:	4832      	ldr	r0, [pc, #200]	; (46ec <rx_event+0x140>)
static void rx_queue_transfer(int i)
{
	NVIC_DISABLE_IRQ(IRQ_USB1);
	printf("rx queue i=%d\n", i);
	void *buffer = rx_buffer + i * CDC_RX_SIZE_480;
	usb_prepare_transfer(rx_transfer + i, buffer, rx_packet_size, i);
    4624:	4933      	ldr	r1, [pc, #204]	; (46f4 <rx_event+0x148>)
			uint32_t count = rx_count[ii];
			if (len <= CDC_RX_SIZE_480 - count) {
				// previous buffer has enough free space for this packet's data
				memcpy(rx_buffer + ii * CDC_RX_SIZE_480 + count,
					rx_buffer + i * CDC_RX_SIZE_480, len);
				rx_count[ii] = count + len;
    4626:	eb0a 0304 	add.w	r3, sl, r4
				rx_available += len;
    462a:	6802      	ldr	r2, [r0, #0]
/**                               Receive                               **/
/*************************************************************************/

static void rx_queue_transfer(int i)
{
	NVIC_DISABLE_IRQ(IRQ_USB1);
    462c:	f44f 3e00 	mov.w	lr, #131072	; 0x20000
	printf("rx queue i=%d\n", i);
	void *buffer = rx_buffer + i * CDC_RX_SIZE_480;
	usb_prepare_transfer(rx_transfer + i, buffer, rx_packet_size, i);
    4630:	eb01 1a45 	add.w	sl, r1, r5, lsl #5
/**                               Receive                               **/
/*************************************************************************/

static void rx_queue_transfer(int i)
{
	NVIC_DISABLE_IRQ(IRQ_USB1);
    4634:	f8df c0c8 	ldr.w	ip, [pc, #200]	; 4700 <rx_event+0x154>
			if (len <= CDC_RX_SIZE_480 - count) {
				// previous buffer has enough free space for this packet's data
				memcpy(rx_buffer + ii * CDC_RX_SIZE_480 + count,
					rx_buffer + i * CDC_RX_SIZE_480, len);
				rx_count[ii] = count + len;
				rx_available += len;
    4638:	4414      	add	r4, r2
			uint32_t count = rx_count[ii];
			if (len <= CDC_RX_SIZE_480 - count) {
				// previous buffer has enough free space for this packet's data
				memcpy(rx_buffer + ii * CDC_RX_SIZE_480 + count,
					rx_buffer + i * CDC_RX_SIZE_480, len);
				rx_count[ii] = count + len;
    463a:	f828 301b 	strh.w	r3, [r8, fp, lsl #1]
static void rx_queue_transfer(int i)
{
	NVIC_DISABLE_IRQ(IRQ_USB1);
	printf("rx queue i=%d\n", i);
	void *buffer = rx_buffer + i * CDC_RX_SIZE_480;
	usb_prepare_transfer(rx_transfer + i, buffer, rx_packet_size, i);
    463e:	463a      	mov	r2, r7
    4640:	4649      	mov	r1, r9
			if (len <= CDC_RX_SIZE_480 - count) {
				// previous buffer has enough free space for this packet's data
				memcpy(rx_buffer + ii * CDC_RX_SIZE_480 + count,
					rx_buffer + i * CDC_RX_SIZE_480, len);
				rx_count[ii] = count + len;
				rx_available += len;
    4642:	6004      	str	r4, [r0, #0]
static void rx_queue_transfer(int i)
{
	NVIC_DISABLE_IRQ(IRQ_USB1);
	printf("rx queue i=%d\n", i);
	void *buffer = rx_buffer + i * CDC_RX_SIZE_480;
	usb_prepare_transfer(rx_transfer + i, buffer, rx_packet_size, i);
    4644:	462b      	mov	r3, r5
    4646:	4650      	mov	r0, sl
/**                               Receive                               **/
/*************************************************************************/

static void rx_queue_transfer(int i)
{
	NVIC_DISABLE_IRQ(IRQ_USB1);
    4648:	f8cc e000 	str.w	lr, [ip]
	printf("rx queue i=%d\n", i);
	void *buffer = rx_buffer + i * CDC_RX_SIZE_480;
	usb_prepare_transfer(rx_transfer + i, buffer, rx_packet_size, i);
    464c:	f7ff fe62 	bl	4314 <usb_prepare_transfer>
// read is certain to access the physical memory.
__attribute__((always_inline, unused))
static inline void arm_dcache_delete(void *addr, uint32_t size)
{
	uint32_t location = (uint32_t)addr & 0xFFFFFFE0;
	uint32_t end_addr = (uint32_t)addr + size;
    4650:	8832      	ldrh	r2, [r6, #0]
// want to delete anything the cache may have stored, so your next
// read is certain to access the physical memory.
__attribute__((always_inline, unused))
static inline void arm_dcache_delete(void *addr, uint32_t size)
{
	uint32_t location = (uint32_t)addr & 0xFFFFFFE0;
    4652:	f029 031f 	bic.w	r3, r9, #31
	uint32_t end_addr = (uint32_t)addr + size;
    4656:	4491      	add	r9, r2
	asm volatile("": : :"memory");
	asm("dsb");
    4658:	f3bf 8f4f 	dsb	sy
	do {
		SCB_CACHE_DCIMVAC = location;
    465c:	4a26      	ldr	r2, [pc, #152]	; (46f8 <rx_event+0x14c>)
    465e:	6013      	str	r3, [r2, #0]
		location += 32;
    4660:	3320      	adds	r3, #32
	} while (location < end_addr);
    4662:	4599      	cmp	r9, r3
    4664:	d8fb      	bhi.n	465e <rx_event+0xb2>
	asm("dsb");
    4666:	f3bf 8f4f 	dsb	sy
	asm("isb");
    466a:	f3bf 8f6f 	isb	sy
	arm_dcache_delete(buffer, rx_packet_size);
	usb_receive(CDC_RX_ENDPOINT, rx_transfer + i);
    466e:	2003      	movs	r0, #3
    4670:	4651      	mov	r1, sl
    4672:	f7ff fead 	bl	43d0 <usb_receive>
	NVIC_ENABLE_IRQ(IRQ_USB1);
    4676:	4b21      	ldr	r3, [pc, #132]	; (46fc <rx_event+0x150>)
    4678:	f44f 3200 	mov.w	r2, #131072	; 0x20000
    467c:	601a      	str	r2, [r3, #0]
    467e:	e8bd 8ff8 	ldmia.w	sp!, {r3, r4, r5, r6, r7, r8, r9, sl, fp, pc}

static void rx_queue_transfer(int i)
{
	NVIC_DISABLE_IRQ(IRQ_USB1);
	printf("rx queue i=%d\n", i);
	void *buffer = rx_buffer + i * CDC_RX_SIZE_480;
    4682:	491b      	ldr	r1, [pc, #108]	; (46f0 <rx_event+0x144>)
/**                               Receive                               **/
/*************************************************************************/

static void rx_queue_transfer(int i)
{
	NVIC_DISABLE_IRQ(IRQ_USB1);
    4684:	f44f 3e00 	mov.w	lr, #131072	; 0x20000
	printf("rx queue i=%d\n", i);
	void *buffer = rx_buffer + i * CDC_RX_SIZE_480;
	usb_prepare_transfer(rx_transfer + i, buffer, rx_packet_size, i);
    4688:	4b1a      	ldr	r3, [pc, #104]	; (46f4 <rx_event+0x148>)
    468a:	463a      	mov	r2, r7

static void rx_queue_transfer(int i)
{
	NVIC_DISABLE_IRQ(IRQ_USB1);
	printf("rx queue i=%d\n", i);
	void *buffer = rx_buffer + i * CDC_RX_SIZE_480;
    468c:	eb01 2445 	add.w	r4, r1, r5, lsl #9
/**                               Receive                               **/
/*************************************************************************/

static void rx_queue_transfer(int i)
{
	NVIC_DISABLE_IRQ(IRQ_USB1);
    4690:	481b      	ldr	r0, [pc, #108]	; (4700 <rx_event+0x154>)
	printf("rx queue i=%d\n", i);
	void *buffer = rx_buffer + i * CDC_RX_SIZE_480;
	usb_prepare_transfer(rx_transfer + i, buffer, rx_packet_size, i);
    4692:	eb03 1745 	add.w	r7, r3, r5, lsl #5
    4696:	462b      	mov	r3, r5
    4698:	4621      	mov	r1, r4
/**                               Receive                               **/
/*************************************************************************/

static void rx_queue_transfer(int i)
{
	NVIC_DISABLE_IRQ(IRQ_USB1);
    469a:	f8c0 e000 	str.w	lr, [r0]
	printf("rx queue i=%d\n", i);
	void *buffer = rx_buffer + i * CDC_RX_SIZE_480;
	usb_prepare_transfer(rx_transfer + i, buffer, rx_packet_size, i);
    469e:	4638      	mov	r0, r7
    46a0:	f7ff fe38 	bl	4314 <usb_prepare_transfer>
// read is certain to access the physical memory.
__attribute__((always_inline, unused))
static inline void arm_dcache_delete(void *addr, uint32_t size)
{
	uint32_t location = (uint32_t)addr & 0xFFFFFFE0;
	uint32_t end_addr = (uint32_t)addr + size;
    46a4:	8831      	ldrh	r1, [r6, #0]
// want to delete anything the cache may have stored, so your next
// read is certain to access the physical memory.
__attribute__((always_inline, unused))
static inline void arm_dcache_delete(void *addr, uint32_t size)
{
	uint32_t location = (uint32_t)addr & 0xFFFFFFE0;
    46a6:	f024 031f 	bic.w	r3, r4, #31
	uint32_t end_addr = (uint32_t)addr + size;
    46aa:	4421      	add	r1, r4
	asm volatile("": : :"memory");
	asm("dsb");
    46ac:	f3bf 8f4f 	dsb	sy
	do {
		SCB_CACHE_DCIMVAC = location;
    46b0:	4a11      	ldr	r2, [pc, #68]	; (46f8 <rx_event+0x14c>)
    46b2:	6013      	str	r3, [r2, #0]
		location += 32;
    46b4:	3320      	adds	r3, #32
	} while (location < end_addr);
    46b6:	4299      	cmp	r1, r3
    46b8:	d8fb      	bhi.n	46b2 <rx_event+0x106>
	asm("dsb");
    46ba:	f3bf 8f4f 	dsb	sy
	asm("isb");
    46be:	f3bf 8f6f 	isb	sy
	arm_dcache_delete(buffer, rx_packet_size);
	usb_receive(CDC_RX_ENDPOINT, rx_transfer + i);
    46c2:	2003      	movs	r0, #3
    46c4:	4639      	mov	r1, r7
    46c6:	f7ff fe83 	bl	43d0 <usb_receive>
	NVIC_ENABLE_IRQ(IRQ_USB1);
    46ca:	4b0c      	ldr	r3, [pc, #48]	; (46fc <rx_event+0x150>)
    46cc:	f44f 3200 	mov.w	r2, #131072	; 0x20000
    46d0:	601a      	str	r2, [r3, #0]
    46d2:	e8bd 8ff8 	ldmia.w	sp!, {r3, r4, r5, r6, r7, r8, r9, sl, fp, pc}
    46d6:	bf00      	nop
    46d8:	20001c0e 	.word	0x20001c0e
    46dc:	20001af8 	.word	0x20001af8
    46e0:	20001c00 	.word	0x20001c00
    46e4:	20001c04 	.word	0x20001c04
    46e8:	20001ae4 	.word	0x20001ae4
    46ec:	20001c14 	.word	0x20001c14
    46f0:	20202060 	.word	0x20202060
    46f4:	20001b00 	.word	0x20001b00
    46f8:	e000ef5c 	.word	0xe000ef5c
    46fc:	e000e10c 	.word	0xe000e10c
    4700:	e000e18c 	.word	0xe000e18c
    4704:	20001ca0 	.word	0x20001ca0

00004708 <usb_serial_reset>:
static void rx_queue_transfer(int i);
static void rx_event(transfer_t *t);


void usb_serial_reset(void)
{
    4708:	4770      	bx	lr
    470a:	bf00      	nop

0000470c <usb_serial_configure>:
	printf("usb_serial_reset\n");
	// deallocate all transfer descriptors
}

void usb_serial_configure(void)
{
    470c:	e92d 4ff8 	stmdb	sp!, {r3, r4, r5, r6, r7, r8, r9, sl, fp, lr}
	int i;

	printf("usb_serial_configure\n");
	if (usb_high_speed) {
    4710:	4b45      	ldr	r3, [pc, #276]	; (4828 <usb_serial_configure+0x11c>)
		rx_packet_size = CDC_RX_SIZE_480;
	} else {
		tx_packet_size = CDC_TX_SIZE_12;
		rx_packet_size = CDC_RX_SIZE_12;
	}
	memset(tx_transfer, 0, sizeof(tx_transfer));
    4712:	2100      	movs	r1, #0
    4714:	f8df a14c 	ldr.w	sl, [pc, #332]	; 4864 <usb_serial_configure+0x158>
    4718:	2280      	movs	r2, #128	; 0x80
void usb_serial_configure(void)
{
	int i;

	printf("usb_serial_configure\n");
	if (usb_high_speed) {
    471a:	781b      	ldrb	r3, [r3, #0]
	} else {
		tx_packet_size = CDC_TX_SIZE_12;
		rx_packet_size = CDC_RX_SIZE_12;
	}
	memset(tx_transfer, 0, sizeof(tx_transfer));
	tx_head = 0;
    471c:	460c      	mov	r4, r1
    471e:	f8df 8148 	ldr.w	r8, [pc, #328]	; 4868 <usb_serial_configure+0x15c>
	rx_tail = 0;
	rx_available = 0;
	usb_config_tx(CDC_ACM_ENDPOINT, CDC_ACM_SIZE, 0, NULL); // size same 12 & 480
	usb_config_rx(CDC_RX_ENDPOINT, rx_packet_size, 0, rx_event);
	usb_config_tx(CDC_TX_ENDPOINT, tx_packet_size, 1, NULL);
	for (i=0; i < RX_NUM; i++) rx_queue_transfer(i);
    4722:	460f      	mov	r7, r1
	printf("usb_serial_configure\n");
	if (usb_high_speed) {
		tx_packet_size = CDC_TX_SIZE_480;
		rx_packet_size = CDC_RX_SIZE_480;
	} else {
		tx_packet_size = CDC_TX_SIZE_12;
    4724:	428b      	cmp	r3, r1
		rx_packet_size = CDC_RX_SIZE_12;
	}
	memset(tx_transfer, 0, sizeof(tx_transfer));
    4726:	4841      	ldr	r0, [pc, #260]	; (482c <usb_serial_configure+0x120>)
    4728:	4e41      	ldr	r6, [pc, #260]	; (4830 <usb_serial_configure+0x124>)
/**                               Receive                               **/
/*************************************************************************/

static void rx_queue_transfer(int i)
{
	NVIC_DISABLE_IRQ(IRQ_USB1);
    472a:	f44f 3900 	mov.w	r9, #131072	; 0x20000
	printf("usb_serial_configure\n");
	if (usb_high_speed) {
		tx_packet_size = CDC_TX_SIZE_480;
		rx_packet_size = CDC_RX_SIZE_480;
	} else {
		tx_packet_size = CDC_TX_SIZE_12;
    472e:	bf14      	ite	ne
    4730:	f44f 7300 	movne.w	r3, #512	; 0x200
    4734:	2340      	moveq	r3, #64	; 0x40
	memset(rx_transfer, 0, sizeof(rx_transfer));
	memset(rx_count, 0, sizeof(rx_count));
	memset(rx_index, 0, sizeof(rx_index));
	rx_head = 0;
	rx_tail = 0;
	rx_available = 0;
    4736:	4d3f      	ldr	r5, [pc, #252]	; (4834 <usb_serial_configure+0x128>)
    4738:	f8aa 3000 	strh.w	r3, [sl]
    473c:	f8a8 3000 	strh.w	r3, [r8]
		rx_packet_size = CDC_RX_SIZE_480;
	} else {
		tx_packet_size = CDC_TX_SIZE_12;
		rx_packet_size = CDC_RX_SIZE_12;
	}
	memset(tx_transfer, 0, sizeof(tx_transfer));
    4740:	f001 f814 	bl	576c <memset>
	tx_head = 0;
    4744:	483c      	ldr	r0, [pc, #240]	; (4838 <usb_serial_configure+0x12c>)
	tx_available = 0;
	memset(rx_transfer, 0, sizeof(rx_transfer));
    4746:	4621      	mov	r1, r4
		tx_packet_size = CDC_TX_SIZE_12;
		rx_packet_size = CDC_RX_SIZE_12;
	}
	memset(tx_transfer, 0, sizeof(tx_transfer));
	tx_head = 0;
	tx_available = 0;
    4748:	4b3c      	ldr	r3, [pc, #240]	; (483c <usb_serial_configure+0x130>)
	memset(rx_transfer, 0, sizeof(rx_transfer));
    474a:	f44f 7280 	mov.w	r2, #256	; 0x100
	} else {
		tx_packet_size = CDC_TX_SIZE_12;
		rx_packet_size = CDC_RX_SIZE_12;
	}
	memset(tx_transfer, 0, sizeof(tx_transfer));
	tx_head = 0;
    474e:	7004      	strb	r4, [r0, #0]
	tx_available = 0;
	memset(rx_transfer, 0, sizeof(rx_transfer));
    4750:	4630      	mov	r0, r6
		tx_packet_size = CDC_TX_SIZE_12;
		rx_packet_size = CDC_RX_SIZE_12;
	}
	memset(tx_transfer, 0, sizeof(tx_transfer));
	tx_head = 0;
	tx_available = 0;
    4752:	801c      	strh	r4, [r3, #0]
	memset(rx_transfer, 0, sizeof(rx_transfer));
    4754:	f001 f80a 	bl	576c <memset>
	memset(rx_count, 0, sizeof(rx_count));
	memset(rx_index, 0, sizeof(rx_index));
	rx_head = 0;
    4758:	4939      	ldr	r1, [pc, #228]	; (4840 <usb_serial_configure+0x134>)
	rx_tail = 0;
	rx_available = 0;
	usb_config_tx(CDC_ACM_ENDPOINT, CDC_ACM_SIZE, 0, NULL); // size same 12 & 480
    475a:	4623      	mov	r3, r4
	tx_available = 0;
	memset(rx_transfer, 0, sizeof(rx_transfer));
	memset(rx_count, 0, sizeof(rx_count));
	memset(rx_index, 0, sizeof(rx_index));
	rx_head = 0;
	rx_tail = 0;
    475c:	4839      	ldr	r0, [pc, #228]	; (4844 <usb_serial_configure+0x138>)
	rx_available = 0;
	usb_config_tx(CDC_ACM_ENDPOINT, CDC_ACM_SIZE, 0, NULL); // size same 12 & 480
    475e:	4622      	mov	r2, r4
	}
	memset(tx_transfer, 0, sizeof(tx_transfer));
	tx_head = 0;
	tx_available = 0;
	memset(rx_transfer, 0, sizeof(rx_transfer));
	memset(rx_count, 0, sizeof(rx_count));
    4760:	f8df e108 	ldr.w	lr, [pc, #264]	; 486c <usb_serial_configure+0x160>
	memset(rx_index, 0, sizeof(rx_index));
	rx_head = 0;
    4764:	700c      	strb	r4, [r1, #0]
	rx_tail = 0;
	rx_available = 0;
	usb_config_tx(CDC_ACM_ENDPOINT, CDC_ACM_SIZE, 0, NULL); // size same 12 & 480
    4766:	2110      	movs	r1, #16
	tx_available = 0;
	memset(rx_transfer, 0, sizeof(rx_transfer));
	memset(rx_count, 0, sizeof(rx_count));
	memset(rx_index, 0, sizeof(rx_index));
	rx_head = 0;
	rx_tail = 0;
    4768:	7004      	strb	r4, [r0, #0]
	rx_available = 0;
	usb_config_tx(CDC_ACM_ENDPOINT, CDC_ACM_SIZE, 0, NULL); // size same 12 & 480
    476a:	2002      	movs	r0, #2
	memset(rx_transfer, 0, sizeof(rx_transfer));
	memset(rx_count, 0, sizeof(rx_count));
	memset(rx_index, 0, sizeof(rx_index));
	rx_head = 0;
	rx_tail = 0;
	rx_available = 0;
    476c:	602c      	str	r4, [r5, #0]
	memset(tx_transfer, 0, sizeof(tx_transfer));
	tx_head = 0;
	tx_available = 0;
	memset(rx_transfer, 0, sizeof(rx_transfer));
	memset(rx_count, 0, sizeof(rx_count));
	memset(rx_index, 0, sizeof(rx_index));
    476e:	4d36      	ldr	r5, [pc, #216]	; (4848 <usb_serial_configure+0x13c>)
	}
	memset(tx_transfer, 0, sizeof(tx_transfer));
	tx_head = 0;
	tx_available = 0;
	memset(rx_transfer, 0, sizeof(rx_transfer));
	memset(rx_count, 0, sizeof(rx_count));
    4770:	f8ce 4000 	str.w	r4, [lr]
    4774:	f8ce 4004 	str.w	r4, [lr, #4]
    4778:	f8ce 4008 	str.w	r4, [lr, #8]
    477c:	f8ce 400c 	str.w	r4, [lr, #12]
	memset(rx_index, 0, sizeof(rx_index));
    4780:	602c      	str	r4, [r5, #0]
    4782:	606c      	str	r4, [r5, #4]
    4784:	60ac      	str	r4, [r5, #8]
    4786:	60ec      	str	r4, [r5, #12]
	rx_head = 0;
	rx_tail = 0;
	rx_available = 0;
	usb_config_tx(CDC_ACM_ENDPOINT, CDC_ACM_SIZE, 0, NULL); // size same 12 & 480
    4788:	f7ff fd90 	bl	42ac <usb_config_tx>
	usb_config_rx(CDC_RX_ENDPOINT, rx_packet_size, 0, rx_event);
    478c:	4622      	mov	r2, r4
    478e:	f8b8 1000 	ldrh.w	r1, [r8]
    4792:	2003      	movs	r0, #3
    4794:	4b2d      	ldr	r3, [pc, #180]	; (484c <usb_serial_configure+0x140>)
    4796:	f7ff fd57 	bl	4248 <usb_config_rx>
    479a:	4d2d      	ldr	r5, [pc, #180]	; (4850 <usb_serial_configure+0x144>)
	usb_config_tx(CDC_TX_ENDPOINT, tx_packet_size, 1, NULL);
    479c:	4623      	mov	r3, r4
    479e:	f8ba 1000 	ldrh.w	r1, [sl]
	uint32_t location = (uint32_t)addr & 0xFFFFFFE0;
	uint32_t end_addr = (uint32_t)addr + size;
	asm volatile("": : :"memory");
	asm("dsb");
	do {
		SCB_CACHE_DCIMVAC = location;
    47a2:	4c2c      	ldr	r4, [pc, #176]	; (4854 <usb_serial_configure+0x148>)
    47a4:	2201      	movs	r2, #1
/**                               Receive                               **/
/*************************************************************************/

static void rx_queue_transfer(int i)
{
	NVIC_DISABLE_IRQ(IRQ_USB1);
    47a6:	f8df a0c8 	ldr.w	sl, [pc, #200]	; 4870 <usb_serial_configure+0x164>
	rx_head = 0;
	rx_tail = 0;
	rx_available = 0;
	usb_config_tx(CDC_ACM_ENDPOINT, CDC_ACM_SIZE, 0, NULL); // size same 12 & 480
	usb_config_rx(CDC_RX_ENDPOINT, rx_packet_size, 0, rx_event);
	usb_config_tx(CDC_TX_ENDPOINT, tx_packet_size, 1, NULL);
    47aa:	2004      	movs	r0, #4
	printf("rx queue i=%d\n", i);
	void *buffer = rx_buffer + i * CDC_RX_SIZE_480;
	usb_prepare_transfer(rx_transfer + i, buffer, rx_packet_size, i);
	arm_dcache_delete(buffer, rx_packet_size);
	usb_receive(CDC_RX_ENDPOINT, rx_transfer + i);
	NVIC_ENABLE_IRQ(IRQ_USB1);
    47ac:	f8df b0c4 	ldr.w	fp, [pc, #196]	; 4874 <usb_serial_configure+0x168>
	rx_head = 0;
	rx_tail = 0;
	rx_available = 0;
	usb_config_tx(CDC_ACM_ENDPOINT, CDC_ACM_SIZE, 0, NULL); // size same 12 & 480
	usb_config_rx(CDC_RX_ENDPOINT, rx_packet_size, 0, rx_event);
	usb_config_tx(CDC_TX_ENDPOINT, tx_packet_size, 1, NULL);
    47b0:	f7ff fd7c 	bl	42ac <usb_config_tx>
/**                               Receive                               **/
/*************************************************************************/

static void rx_queue_transfer(int i)
{
	NVIC_DISABLE_IRQ(IRQ_USB1);
    47b4:	f44f 3300 	mov.w	r3, #131072	; 0x20000
	printf("rx queue i=%d\n", i);
	void *buffer = rx_buffer + i * CDC_RX_SIZE_480;
	usb_prepare_transfer(rx_transfer + i, buffer, rx_packet_size, i);
    47b8:	f8b8 2000 	ldrh.w	r2, [r8]
    47bc:	4629      	mov	r1, r5
    47be:	4630      	mov	r0, r6
/**                               Receive                               **/
/*************************************************************************/

static void rx_queue_transfer(int i)
{
	NVIC_DISABLE_IRQ(IRQ_USB1);
    47c0:	f8ca 3000 	str.w	r3, [sl]
	printf("rx queue i=%d\n", i);
	void *buffer = rx_buffer + i * CDC_RX_SIZE_480;
	usb_prepare_transfer(rx_transfer + i, buffer, rx_packet_size, i);
    47c4:	463b      	mov	r3, r7
    47c6:	f7ff fda5 	bl	4314 <usb_prepare_transfer>
// read is certain to access the physical memory.
__attribute__((always_inline, unused))
static inline void arm_dcache_delete(void *addr, uint32_t size)
{
	uint32_t location = (uint32_t)addr & 0xFFFFFFE0;
	uint32_t end_addr = (uint32_t)addr + size;
    47ca:	f8b8 2000 	ldrh.w	r2, [r8]
// want to delete anything the cache may have stored, so your next
// read is certain to access the physical memory.
__attribute__((always_inline, unused))
static inline void arm_dcache_delete(void *addr, uint32_t size)
{
	uint32_t location = (uint32_t)addr & 0xFFFFFFE0;
    47ce:	f025 031f 	bic.w	r3, r5, #31
	uint32_t end_addr = (uint32_t)addr + size;
    47d2:	442a      	add	r2, r5
	asm volatile("": : :"memory");
	asm("dsb");
    47d4:	f3bf 8f4f 	dsb	sy
	do {
		SCB_CACHE_DCIMVAC = location;
    47d8:	6023      	str	r3, [r4, #0]
		location += 32;
    47da:	3320      	adds	r3, #32
	} while (location < end_addr);
    47dc:	429a      	cmp	r2, r3
    47de:	d8fb      	bhi.n	47d8 <usb_serial_configure+0xcc>
	asm("dsb");
    47e0:	f3bf 8f4f 	dsb	sy
	asm("isb");
    47e4:	f3bf 8f6f 	isb	sy
	rx_tail = 0;
	rx_available = 0;
	usb_config_tx(CDC_ACM_ENDPOINT, CDC_ACM_SIZE, 0, NULL); // size same 12 & 480
	usb_config_rx(CDC_RX_ENDPOINT, rx_packet_size, 0, rx_event);
	usb_config_tx(CDC_TX_ENDPOINT, tx_packet_size, 1, NULL);
	for (i=0; i < RX_NUM; i++) rx_queue_transfer(i);
    47e8:	3701      	adds	r7, #1
	NVIC_DISABLE_IRQ(IRQ_USB1);
	printf("rx queue i=%d\n", i);
	void *buffer = rx_buffer + i * CDC_RX_SIZE_480;
	usb_prepare_transfer(rx_transfer + i, buffer, rx_packet_size, i);
	arm_dcache_delete(buffer, rx_packet_size);
	usb_receive(CDC_RX_ENDPOINT, rx_transfer + i);
    47ea:	4631      	mov	r1, r6
    47ec:	2003      	movs	r0, #3
    47ee:	f505 7500 	add.w	r5, r5, #512	; 0x200
    47f2:	f7ff fded 	bl	43d0 <usb_receive>
	rx_tail = 0;
	rx_available = 0;
	usb_config_tx(CDC_ACM_ENDPOINT, CDC_ACM_SIZE, 0, NULL); // size same 12 & 480
	usb_config_rx(CDC_RX_ENDPOINT, rx_packet_size, 0, rx_event);
	usb_config_tx(CDC_TX_ENDPOINT, tx_packet_size, 1, NULL);
	for (i=0; i < RX_NUM; i++) rx_queue_transfer(i);
    47f6:	2f08      	cmp	r7, #8
    47f8:	f106 0620 	add.w	r6, r6, #32
	printf("rx queue i=%d\n", i);
	void *buffer = rx_buffer + i * CDC_RX_SIZE_480;
	usb_prepare_transfer(rx_transfer + i, buffer, rx_packet_size, i);
	arm_dcache_delete(buffer, rx_packet_size);
	usb_receive(CDC_RX_ENDPOINT, rx_transfer + i);
	NVIC_ENABLE_IRQ(IRQ_USB1);
    47fc:	f8cb 9000 	str.w	r9, [fp]
	rx_tail = 0;
	rx_available = 0;
	usb_config_tx(CDC_ACM_ENDPOINT, CDC_ACM_SIZE, 0, NULL); // size same 12 & 480
	usb_config_rx(CDC_RX_ENDPOINT, rx_packet_size, 0, rx_event);
	usb_config_tx(CDC_TX_ENDPOINT, tx_packet_size, 1, NULL);
	for (i=0; i < RX_NUM; i++) rx_queue_transfer(i);
    4800:	d1d8      	bne.n	47b4 <usb_serial_configure+0xa8>
static void timer_stop();

static void timer_config(void (*callback)(void), uint32_t microseconds)
{
	usb_timer0_callback = callback;
	USB1_GPTIMER0CTRL = 0;
    4802:	4b15      	ldr	r3, [pc, #84]	; (4858 <usb_serial_configure+0x14c>)
	USB1_GPTIMER0LD = microseconds - 1;
    4804:	224a      	movs	r2, #74	; 0x4a
static void timer_start_oneshot();
static void timer_stop();

static void timer_config(void (*callback)(void), uint32_t microseconds)
{
	usb_timer0_callback = callback;
    4806:	4815      	ldr	r0, [pc, #84]	; (485c <usb_serial_configure+0x150>)
	USB1_GPTIMER0CTRL = 0;
    4808:	2100      	movs	r1, #0
static void timer_start_oneshot();
static void timer_stop();

static void timer_config(void (*callback)(void), uint32_t microseconds)
{
	usb_timer0_callback = callback;
    480a:	4c15      	ldr	r4, [pc, #84]	; (4860 <usb_serial_configure+0x154>)
    480c:	6004      	str	r4, [r0, #0]
	USB1_GPTIMER0CTRL = 0;
    480e:	f8c3 1084 	str.w	r1, [r3, #132]	; 0x84
	USB1_GPTIMER0LD = microseconds - 1;
    4812:	f8c3 2080 	str.w	r2, [r3, #128]	; 0x80
	USB1_USBINTR |= USB_USBINTR_TIE0;
    4816:	f8d3 2148 	ldr.w	r2, [r3, #328]	; 0x148
    481a:	f042 7280 	orr.w	r2, r2, #16777216	; 0x1000000
    481e:	f8c3 2148 	str.w	r2, [r3, #328]	; 0x148
    4822:	e8bd 8ff8 	ldmia.w	sp!, {r3, r4, r5, r6, r7, r8, r9, sl, fp, pc}
    4826:	bf00      	nop
    4828:	20001ab8 	.word	0x20001ab8
    482c:	20001c20 	.word	0x20001c20
    4830:	20001b00 	.word	0x20001b00
    4834:	20001c14 	.word	0x20001c14
    4838:	20001af7 	.word	0x20001af7
    483c:	20001c10 	.word	0x20001c10
    4840:	20001af8 	.word	0x20001af8
    4844:	20001c00 	.word	0x20001c00
    4848:	20001ae4 	.word	0x20001ae4
    484c:	000045ad 	.word	0x000045ad
    4850:	20202060 	.word	0x20202060
    4854:	e000ef5c 	.word	0xe000ef5c
    4858:	402e0000 	.word	0x402e0000
    485c:	20001aa8 	.word	0x20001aa8
    4860:	00004515 	.word	0x00004515
    4864:	20001af4 	.word	0x20001af4
    4868:	20001c0e 	.word	0x20001c0e
    486c:	20001ca0 	.word	0x20001ca0
    4870:	e000e18c 	.word	0xe000e18c
    4874:	e000e10c 	.word	0xe000e10c

00004878 <usb_serial_available>:
}

// number of bytes available in the receive buffer
int usb_serial_available(void)
{
	return rx_available;
    4878:	4b01      	ldr	r3, [pc, #4]	; (4880 <usb_serial_available+0x8>)
    487a:	6818      	ldr	r0, [r3, #0]
}
    487c:	4770      	bx	lr
    487e:	bf00      	nop
    4880:	20001c14 	.word	0x20001c14

00004884 <EventResponder::triggerEventNotImmediate()>:
uint8_t _serialEvent_default __attribute__((weak)) PROGMEM = 0 ;	
uint8_t _serialEventUSB1_default __attribute__((weak)) PROGMEM = 0 ;	
uint8_t _serialEventUSB2_default __attribute__((weak)) PROGMEM = 0 ;	

void EventResponder::triggerEventNotImmediate()
{
    4884:	b410      	push	{r4}
	static EventResponder *lastInterrupt;
	static bool runningFromYield;
private:
	static bool disableInterrupts() {
		uint32_t primask;
		__asm__ volatile("mrs %0, primask\n" : "=r" (primask)::);
    4886:	f3ef 8210 	mrs	r2, PRIMASK
		__disable_irq();
    488a:	b672      	cpsid	i
	bool irq = disableInterrupts();
	if (_triggered == false) {
    488c:	7f43      	ldrb	r3, [r0, #29]
    488e:	b933      	cbnz	r3, 489e <EventResponder::triggerEventNotImmediate()+0x1a>
		// not already triggered
		if (_type == EventTypeYield) {
    4890:	7f01      	ldrb	r1, [r0, #28]
    4892:	2901      	cmp	r1, #1
    4894:	d008      	beq.n	48a8 <EventResponder::triggerEventNotImmediate()+0x24>
				_next = nullptr;
				_prev = lastYield;
				_prev->_next = this;
				lastYield = this;
			}
		} else if (_type == EventTypeInterrupt) {
    4896:	2903      	cmp	r1, #3
    4898:	d010      	beq.n	48bc <EventResponder::triggerEventNotImmediate()+0x38>
			}
			SCB_ICSR = SCB_ICSR_PENDSVSET; // set PendSV interrupt
		} else {
			// detached, easy :-)
		}
		_triggered = true;
    489a:	2301      	movs	r3, #1
    489c:	7743      	strb	r3, [r0, #29]
		return (primask == 0) ? true : false;
	}
	static void enableInterrupts(bool doit) {
		if (doit) __enable_irq();
    489e:	b902      	cbnz	r2, 48a2 <EventResponder::triggerEventNotImmediate()+0x1e>
    48a0:	b662      	cpsie	i
	}
	enableInterrupts(irq);
}
    48a2:	f85d 4b04 	ldr.w	r4, [sp], #4
    48a6:	4770      	bx	lr
	bool irq = disableInterrupts();
	if (_triggered == false) {
		// not already triggered
		if (_type == EventTypeYield) {
			// normal type, called from yield()
			if (firstYield == nullptr) {
    48a8:	4c11      	ldr	r4, [pc, #68]	; (48f0 <EventResponder::triggerEventNotImmediate()+0x6c>)
    48aa:	6821      	ldr	r1, [r4, #0]
    48ac:	b1a1      	cbz	r1, 48d8 <EventResponder::triggerEventNotImmediate()+0x54>
				_prev = nullptr;
				firstYield = this;
				lastYield = this;
			} else {
				_next = nullptr;
				_prev = lastYield;
    48ae:	4911      	ldr	r1, [pc, #68]	; (48f4 <EventResponder::triggerEventNotImmediate()+0x70>)
				_next = nullptr;
				_prev = nullptr;
				firstYield = this;
				lastYield = this;
			} else {
				_next = nullptr;
    48b0:	6143      	str	r3, [r0, #20]
				_prev = lastYield;
    48b2:	680b      	ldr	r3, [r1, #0]
				_prev->_next = this;
				lastYield = this;
    48b4:	6008      	str	r0, [r1, #0]
				_prev = nullptr;
				firstYield = this;
				lastYield = this;
			} else {
				_next = nullptr;
				_prev = lastYield;
    48b6:	6183      	str	r3, [r0, #24]
				_prev->_next = this;
    48b8:	6158      	str	r0, [r3, #20]
    48ba:	e7ee      	b.n	489a <EventResponder::triggerEventNotImmediate()+0x16>
				lastYield = this;
			}
		} else if (_type == EventTypeInterrupt) {
			// interrupt, called from software interrupt
			if (firstInterrupt == nullptr) {
    48bc:	4c0e      	ldr	r4, [pc, #56]	; (48f8 <EventResponder::triggerEventNotImmediate()+0x74>)
    48be:	6821      	ldr	r1, [r4, #0]
    48c0:	b181      	cbz	r1, 48e4 <EventResponder::triggerEventNotImmediate()+0x60>
				_prev = nullptr;
				firstInterrupt = this;
				lastInterrupt = this;
			} else {
				_next = nullptr;
				_prev = lastInterrupt;
    48c2:	490e      	ldr	r1, [pc, #56]	; (48fc <EventResponder::triggerEventNotImmediate()+0x78>)
				_next = nullptr;
				_prev = nullptr;
				firstInterrupt = this;
				lastInterrupt = this;
			} else {
				_next = nullptr;
    48c4:	6143      	str	r3, [r0, #20]
				_prev = lastInterrupt;
    48c6:	680b      	ldr	r3, [r1, #0]
				_prev->_next = this;
				lastInterrupt = this;
    48c8:	6008      	str	r0, [r1, #0]
				_prev = nullptr;
				firstInterrupt = this;
				lastInterrupt = this;
			} else {
				_next = nullptr;
				_prev = lastInterrupt;
    48ca:	6183      	str	r3, [r0, #24]
				_prev->_next = this;
    48cc:	6158      	str	r0, [r3, #20]
				lastInterrupt = this;
			}
			SCB_ICSR = SCB_ICSR_PENDSVSET; // set PendSV interrupt
    48ce:	4b0c      	ldr	r3, [pc, #48]	; (4900 <EventResponder::triggerEventNotImmediate()+0x7c>)
    48d0:	f04f 5180 	mov.w	r1, #268435456	; 0x10000000
    48d4:	6019      	str	r1, [r3, #0]
    48d6:	e7e0      	b.n	489a <EventResponder::triggerEventNotImmediate()+0x16>
			// normal type, called from yield()
			if (firstYield == nullptr) {
				_next = nullptr;
				_prev = nullptr;
				firstYield = this;
				lastYield = this;
    48d8:	4b06      	ldr	r3, [pc, #24]	; (48f4 <EventResponder::triggerEventNotImmediate()+0x70>)
	if (_triggered == false) {
		// not already triggered
		if (_type == EventTypeYield) {
			// normal type, called from yield()
			if (firstYield == nullptr) {
				_next = nullptr;
    48da:	6141      	str	r1, [r0, #20]
				_prev = nullptr;
    48dc:	6181      	str	r1, [r0, #24]
				firstYield = this;
    48de:	6020      	str	r0, [r4, #0]
				lastYield = this;
    48e0:	6018      	str	r0, [r3, #0]
    48e2:	e7da      	b.n	489a <EventResponder::triggerEventNotImmediate()+0x16>
			// interrupt, called from software interrupt
			if (firstInterrupt == nullptr) {
				_next = nullptr;
				_prev = nullptr;
				firstInterrupt = this;
				lastInterrupt = this;
    48e4:	4b05      	ldr	r3, [pc, #20]	; (48fc <EventResponder::triggerEventNotImmediate()+0x78>)
				lastYield = this;
			}
		} else if (_type == EventTypeInterrupt) {
			// interrupt, called from software interrupt
			if (firstInterrupt == nullptr) {
				_next = nullptr;
    48e6:	6141      	str	r1, [r0, #20]
				_prev = nullptr;
    48e8:	6181      	str	r1, [r0, #24]
				firstInterrupt = this;
    48ea:	6020      	str	r0, [r4, #0]
				lastInterrupt = this;
    48ec:	6018      	str	r0, [r3, #0]
    48ee:	e7ee      	b.n	48ce <EventResponder::triggerEventNotImmediate()+0x4a>
    48f0:	20001cc0 	.word	0x20001cc0
    48f4:	20001cbc 	.word	0x20001cbc
    48f8:	20001cb4 	.word	0x20001cb4
    48fc:	20001cb8 	.word	0x20001cb8
    4900:	e000ed04 	.word	0xe000ed04

00004904 <pendablesrvreq_isr>:
	}
	enableInterrupts(irq);
}

extern "C" void pendablesrvreq_isr(void)
{
    4904:	b570      	push	{r4, r5, r6, lr}
	static EventResponder *lastInterrupt;
	static bool runningFromYield;
private:
	static bool disableInterrupts() {
		uint32_t primask;
		__asm__ volatile("mrs %0, primask\n" : "=r" (primask)::);
    4906:	f3ef 8110 	mrs	r1, PRIMASK
		__disable_irq();
    490a:	b672      	cpsid	i

void EventResponder::runFromInterrupt()
{
	while (1) {
		bool irq = disableInterrupts();
		EventResponder *first = firstInterrupt;
    490c:	4c0c      	ldr	r4, [pc, #48]	; (4940 <pendablesrvreq_isr+0x3c>)
    490e:	6823      	ldr	r3, [r4, #0]
		if (first) {
    4910:	b18b      	cbz	r3, 4936 <pendablesrvreq_isr+0x32>
			firstInterrupt = first->_next;
			if (firstInterrupt) {
				firstInterrupt->_prev = nullptr;
			} else {
				lastInterrupt = nullptr;
    4912:	4e0c      	ldr	r6, [pc, #48]	; (4944 <pendablesrvreq_isr+0x40>)
		bool irq = disableInterrupts();
		EventResponder *first = firstInterrupt;
		if (first) {
			firstInterrupt = first->_next;
			if (firstInterrupt) {
				firstInterrupt->_prev = nullptr;
    4914:	2500      	movs	r5, #0
{
	while (1) {
		bool irq = disableInterrupts();
		EventResponder *first = firstInterrupt;
		if (first) {
			firstInterrupt = first->_next;
    4916:	695a      	ldr	r2, [r3, #20]
    4918:	6022      	str	r2, [r4, #0]
			if (firstInterrupt) {
    491a:	b17a      	cbz	r2, 493c <pendablesrvreq_isr+0x38>
				firstInterrupt->_prev = nullptr;
    491c:	6195      	str	r5, [r2, #24]
		return (primask == 0) ? true : false;
	}
	static void enableInterrupts(bool doit) {
		if (doit) __enable_irq();
    491e:	b901      	cbnz	r1, 4922 <pendablesrvreq_isr+0x1e>
    4920:	b662      	cpsie	i
			} else {
				lastInterrupt = nullptr;
			}
			enableInterrupts(irq);
			first->_triggered = false;
    4922:	775d      	strb	r5, [r3, #29]
			(*(first->_function))(*first);
    4924:	4618      	mov	r0, r3
    4926:	689b      	ldr	r3, [r3, #8]
    4928:	4798      	blx	r3
	static EventResponder *lastInterrupt;
	static bool runningFromYield;
private:
	static bool disableInterrupts() {
		uint32_t primask;
		__asm__ volatile("mrs %0, primask\n" : "=r" (primask)::);
    492a:	f3ef 8110 	mrs	r1, PRIMASK
		__disable_irq();
    492e:	b672      	cpsid	i

void EventResponder::runFromInterrupt()
{
	while (1) {
		bool irq = disableInterrupts();
		EventResponder *first = firstInterrupt;
    4930:	6823      	ldr	r3, [r4, #0]
		if (first) {
    4932:	2b00      	cmp	r3, #0
    4934:	d1ef      	bne.n	4916 <pendablesrvreq_isr+0x12>
		return (primask == 0) ? true : false;
	}
	static void enableInterrupts(bool doit) {
		if (doit) __enable_irq();
    4936:	b901      	cbnz	r1, 493a <pendablesrvreq_isr+0x36>
    4938:	b662      	cpsie	i
    493a:	bd70      	pop	{r4, r5, r6, pc}
			firstInterrupt = first->_next;
			if (firstInterrupt) {
				firstInterrupt->_prev = nullptr;
			} else {
				lastInterrupt = nullptr;
    493c:	6032      	str	r2, [r6, #0]
    493e:	e7ee      	b.n	491e <pendablesrvreq_isr+0x1a>
    4940:	20001cb4 	.word	0x20001cb4
    4944:	20001cb8 	.word	0x20001cb8

00004948 <EventResponder::detachNoInterrupts()>:
}

// this detach must be called with interrupts disabled
void EventResponder::detachNoInterrupts()
{
	if (_type == EventTypeYield) {
    4948:	7f03      	ldrb	r3, [r0, #28]
    494a:	2b01      	cmp	r3, #1
    494c:	d00f      	beq.n	496e <EventResponder::detachNoInterrupts()+0x26>
			} else {
				lastYield = _prev;
			}
		}
		_type = EventTypeDetached;
	} else if (_type == EventTypeInterrupt) {
    494e:	2b03      	cmp	r3, #3
    4950:	d000      	beq.n	4954 <EventResponder::detachNoInterrupts()+0xc>
    4952:	4770      	bx	lr
		if (_triggered) {
    4954:	7f43      	ldrb	r3, [r0, #29]
    4956:	b13b      	cbz	r3, 4968 <EventResponder::detachNoInterrupts()+0x20>
			if (_prev) {
    4958:	6983      	ldr	r3, [r0, #24]
				_prev->_next = _next;
    495a:	6942      	ldr	r2, [r0, #20]
			}
		}
		_type = EventTypeDetached;
	} else if (_type == EventTypeInterrupt) {
		if (_triggered) {
			if (_prev) {
    495c:	b1d3      	cbz	r3, 4994 <EventResponder::detachNoInterrupts()+0x4c>
				_prev->_next = _next;
    495e:	615a      	str	r2, [r3, #20]
    4960:	6942      	ldr	r2, [r0, #20]
			} else {
				firstInterrupt = _next;
			}
			if (_next) {
    4962:	b96a      	cbnz	r2, 4980 <EventResponder::detachNoInterrupts()+0x38>
				_next->_prev = _prev;
			} else {
				lastInterrupt = _prev;
    4964:	4a0e      	ldr	r2, [pc, #56]	; (49a0 <EventResponder::detachNoInterrupts()+0x58>)
    4966:	6013      	str	r3, [r2, #0]
				_next->_prev = _prev;
			} else {
				lastYield = _prev;
			}
		}
		_type = EventTypeDetached;
    4968:	2300      	movs	r3, #0
    496a:	7703      	strb	r3, [r0, #28]
    496c:	4770      	bx	lr

// this detach must be called with interrupts disabled
void EventResponder::detachNoInterrupts()
{
	if (_type == EventTypeYield) {
		if (_triggered) {
    496e:	7f43      	ldrb	r3, [r0, #29]
    4970:	2b00      	cmp	r3, #0
    4972:	d0f9      	beq.n	4968 <EventResponder::detachNoInterrupts()+0x20>
			if (_prev) {
    4974:	6983      	ldr	r3, [r0, #24]
				_prev->_next = _next;
    4976:	6942      	ldr	r2, [r0, #20]
// this detach must be called with interrupts disabled
void EventResponder::detachNoInterrupts()
{
	if (_type == EventTypeYield) {
		if (_triggered) {
			if (_prev) {
    4978:	b14b      	cbz	r3, 498e <EventResponder::detachNoInterrupts()+0x46>
				_prev->_next = _next;
    497a:	615a      	str	r2, [r3, #20]
    497c:	6942      	ldr	r2, [r0, #20]
			} else {
				firstYield = _next;
			}
			if (_next) {
    497e:	b11a      	cbz	r2, 4988 <EventResponder::detachNoInterrupts()+0x40>
				_prev->_next = _next;
			} else {
				firstInterrupt = _next;
			}
			if (_next) {
				_next->_prev = _prev;
    4980:	6193      	str	r3, [r2, #24]
				_next->_prev = _prev;
			} else {
				lastYield = _prev;
			}
		}
		_type = EventTypeDetached;
    4982:	2300      	movs	r3, #0
    4984:	7703      	strb	r3, [r0, #28]
    4986:	4770      	bx	lr
				firstYield = _next;
			}
			if (_next) {
				_next->_prev = _prev;
			} else {
				lastYield = _prev;
    4988:	4a06      	ldr	r2, [pc, #24]	; (49a4 <EventResponder::detachNoInterrupts()+0x5c>)
    498a:	6013      	str	r3, [r2, #0]
    498c:	e7ec      	b.n	4968 <EventResponder::detachNoInterrupts()+0x20>
	if (_type == EventTypeYield) {
		if (_triggered) {
			if (_prev) {
				_prev->_next = _next;
			} else {
				firstYield = _next;
    498e:	4906      	ldr	r1, [pc, #24]	; (49a8 <EventResponder::detachNoInterrupts()+0x60>)
    4990:	600a      	str	r2, [r1, #0]
    4992:	e7f4      	b.n	497e <EventResponder::detachNoInterrupts()+0x36>
	} else if (_type == EventTypeInterrupt) {
		if (_triggered) {
			if (_prev) {
				_prev->_next = _next;
			} else {
				firstInterrupt = _next;
    4994:	4905      	ldr	r1, [pc, #20]	; (49ac <EventResponder::detachNoInterrupts()+0x64>)
    4996:	600a      	str	r2, [r1, #0]
			}
			if (_next) {
    4998:	2a00      	cmp	r2, #0
    499a:	d1f1      	bne.n	4980 <EventResponder::detachNoInterrupts()+0x38>
    499c:	e7e2      	b.n	4964 <EventResponder::detachNoInterrupts()+0x1c>
    499e:	bf00      	nop
    49a0:	20001cb8 	.word	0x20001cb8
    49a4:	20001cbc 	.word	0x20001cbc
    49a8:	20001cc0 	.word	0x20001cc0
    49ac:	20001cb4 	.word	0x20001cb4

000049b0 <systick_isr>:
extern "C" volatile uint32_t systick_millis_count;
extern "C" volatile uint32_t systick_cycle_count;
extern "C" uint32_t systick_safe_read; // micros() synchronization
extern "C" void systick_isr(void)
{
	systick_cycle_count = ARM_DWT_CYCCNT;
    49b0:	4a04      	ldr	r2, [pc, #16]	; (49c4 <systick_isr+0x14>)
    49b2:	4b05      	ldr	r3, [pc, #20]	; (49c8 <systick_isr+0x18>)
    49b4:	6811      	ldr	r1, [r2, #0]
	systick_millis_count++;
    49b6:	4a05      	ldr	r2, [pc, #20]	; (49cc <systick_isr+0x1c>)
extern "C" volatile uint32_t systick_millis_count;
extern "C" volatile uint32_t systick_cycle_count;
extern "C" uint32_t systick_safe_read; // micros() synchronization
extern "C" void systick_isr(void)
{
	systick_cycle_count = ARM_DWT_CYCCNT;
    49b8:	6019      	str	r1, [r3, #0]
	systick_millis_count++;
    49ba:	6813      	ldr	r3, [r2, #0]
    49bc:	3301      	adds	r3, #1
    49be:	6013      	str	r3, [r2, #0]
    49c0:	4770      	bx	lr
    49c2:	bf00      	nop
    49c4:	e0001004 	.word	0xe0001004
    49c8:	20001a88 	.word	0x20001a88
    49cc:	20001a90 	.word	0x20001a90

000049d0 <main>:
 */

#include <Arduino.h>

extern "C" int main(void)
{
    49d0:	b508      	push	{r3, lr}
	}


#else
	// Arduino's main() function just calls setup() and loop()....
	setup();
    49d2:	f7fb fb6b 	bl	ac <setup>
	while (1) {
		loop();
    49d6:	f7fb fc7d 	bl	2d4 <loop>
		yield();
    49da:	f000 f805 	bl	49e8 <yield>
    49de:	e7fa      	b.n	49d6 <main+0x6>

000049e0 <operator new(unsigned int)>:
    49e0:	f000 bbfc 	b.w	51dc <malloc>

000049e4 <operator delete(void*, unsigned int)>:
    49e4:	f000 bc02 	b.w	51ec <free>

000049e8 <yield>:

extern const uint8_t _serialEvent_default;	

void yield(void) __attribute__ ((weak));
void yield(void)
{
    49e8:	e92d 43f8 	stmdb	sp!, {r3, r4, r5, r6, r7, r8, r9, lr}
	static uint8_t running=0;
	if (!yield_active_check_flags) return;	// nothing to do
    49ec:	4e32      	ldr	r6, [pc, #200]	; (4ab8 <yield+0xd0>)
    49ee:	7833      	ldrb	r3, [r6, #0]
    49f0:	b193      	cbz	r3, 4a18 <yield+0x30>
	if (running) return; // TODO: does this need to be atomic?
    49f2:	4f32      	ldr	r7, [pc, #200]	; (4abc <yield+0xd4>)
    49f4:	783a      	ldrb	r2, [r7, #0]
    49f6:	b97a      	cbnz	r2, 4a18 <yield+0x30>
	running = 1;
    49f8:	2201      	movs	r2, #1


	// USB Serail - Add hack to minimize impact...
	if (yield_active_check_flags & YIELD_CHECK_USB_SERIAL) {
    49fa:	07d9      	lsls	r1, r3, #31
void yield(void)
{
	static uint8_t running=0;
	if (!yield_active_check_flags) return;	// nothing to do
	if (running) return; // TODO: does this need to be atomic?
	running = 1;
    49fc:	703a      	strb	r2, [r7, #0]


	// USB Serail - Add hack to minimize impact...
	if (yield_active_check_flags & YIELD_CHECK_USB_SERIAL) {
    49fe:	d437      	bmi.n	4a70 <yield+0x88>
		if (_serialEventUSB2_default) yield_active_check_flags &= ~YIELD_CHECK_USB_SERIALUSB2;
	}
#endif

	// Current workaround until integrate with EventResponder.
	if (yield_active_check_flags & YIELD_CHECK_HARDWARE_SERIAL) HardwareSerial::processSerialEventsList();
    4a00:	079a      	lsls	r2, r3, #30
    4a02:	d419      	bmi.n	4a38 <yield+0x50>

	running = 0;
    4a04:	2200      	movs	r2, #0
	if (yield_active_check_flags & YIELD_CHECK_EVENT_RESPONDER) EventResponder::runFromYield();
    4a06:	075b      	lsls	r3, r3, #29
#endif

	// Current workaround until integrate with EventResponder.
	if (yield_active_check_flags & YIELD_CHECK_HARDWARE_SERIAL) HardwareSerial::processSerialEventsList();

	running = 0;
    4a08:	703a      	strb	r2, [r7, #0]
	if (yield_active_check_flags & YIELD_CHECK_EVENT_RESPONDER) EventResponder::runFromYield();
    4a0a:	d505      	bpl.n	4a18 <yield+0x30>
	// Wait for event(s) to occur.  These are most likely to be useful when
	// used with a scheduler or RTOS.
	bool waitForEvent(EventResponderRef event, int timeout);
	EventResponder * waitForEvent(EventResponder *list, int listsize, int timeout);
	static void runFromYield() {
		if (!firstYield) return;  
    4a0c:	4b2c      	ldr	r3, [pc, #176]	; (4ac0 <yield+0xd8>)
    4a0e:	681a      	ldr	r2, [r3, #0]
    4a10:	b112      	cbz	r2, 4a18 <yield+0x30>
		// First, check if yield was called from an interrupt
		// never call normal handler functions from any interrupt context
		uint32_t ipsr;
		__asm__ volatile("mrs %0, ipsr\n" : "=r" (ipsr)::);
    4a12:	f3ef 8205 	mrs	r2, IPSR
		if (ipsr != 0) return;
    4a16:	b10a      	cbz	r2, 4a1c <yield+0x34>
    4a18:	e8bd 83f8 	ldmia.w	sp!, {r3, r4, r5, r6, r7, r8, r9, pc}
	static EventResponder *lastInterrupt;
	static bool runningFromYield;
private:
	static bool disableInterrupts() {
		uint32_t primask;
		__asm__ volatile("mrs %0, primask\n" : "=r" (primask)::);
    4a1c:	f3ef 8010 	mrs	r0, PRIMASK
		__disable_irq();
    4a20:	b672      	cpsid	i
		uint32_t ipsr;
		__asm__ volatile("mrs %0, ipsr\n" : "=r" (ipsr)::);
		if (ipsr != 0) return;
		// Next, check if any events have been triggered
		bool irq = disableInterrupts();
		EventResponder *first = firstYield;
    4a22:	681a      	ldr	r2, [r3, #0]
		if (first == nullptr) {
    4a24:	b11a      	cbz	r2, 4a2e <yield+0x46>
			return;
		}
		// Finally, make sure we're not being recursively called,
		// which can happen if the user's function does anything
		// that calls yield.
		if (runningFromYield) {
    4a26:	4c27      	ldr	r4, [pc, #156]	; (4ac4 <yield+0xdc>)
    4a28:	7821      	ldrb	r1, [r4, #0]
    4a2a:	2900      	cmp	r1, #0
    4a2c:	d02f      	beq.n	4a8e <yield+0xa6>
		__asm__ volatile("mrs %0, primask\n" : "=r" (primask)::);
		__disable_irq();
		return (primask == 0) ? true : false;
	}
	static void enableInterrupts(bool doit) {
		if (doit) __enable_irq();
    4a2e:	2800      	cmp	r0, #0
    4a30:	d1f2      	bne.n	4a18 <yield+0x30>
    4a32:	b662      	cpsie	i
    4a34:	e8bd 83f8 	ldmia.w	sp!, {r3, r4, r5, r6, r7, r8, r9, pc}
	*/

	operator bool()			{ return true; }

	static inline void processSerialEventsList() {
		for (uint8_t i = 0; i < s_count_serials_with_serial_events; i++) {
    4a38:	f8df 8094 	ldr.w	r8, [pc, #148]	; 4ad0 <yield+0xe8>
    4a3c:	f898 2000 	ldrb.w	r2, [r8]
    4a40:	2a00      	cmp	r2, #0
    4a42:	d0df      	beq.n	4a04 <yield+0x1c>
    4a44:	2400      	movs	r4, #0
    4a46:	f8df 908c 	ldr.w	r9, [pc, #140]	; 4ad4 <yield+0xec>
    4a4a:	e005      	b.n	4a58 <yield+0x70>
    4a4c:	3401      	adds	r4, #1
    4a4e:	f898 3000 	ldrb.w	r3, [r8]
    4a52:	b2e4      	uxtb	r4, r4
    4a54:	42a3      	cmp	r3, r4
    4a56:	d913      	bls.n	4a80 <yield+0x98>
			s_serials_with_serial_events[i]->doYieldCode();
    4a58:	f859 5024 	ldr.w	r5, [r9, r4, lsl #2]
	static HardwareSerial 	*s_serials_with_serial_events[7];
	#endif
	static uint8_t 			s_count_serials_with_serial_events;
	void addToSerialEventsList(); 
	inline void doYieldCode()  {
		if (available()) (*hardware->_serialEvent)();
    4a5c:	682b      	ldr	r3, [r5, #0]
    4a5e:	4628      	mov	r0, r5
    4a60:	691b      	ldr	r3, [r3, #16]
    4a62:	4798      	blx	r3
    4a64:	2800      	cmp	r0, #0
    4a66:	d0f1      	beq.n	4a4c <yield+0x64>
    4a68:	696b      	ldr	r3, [r5, #20]
    4a6a:	689b      	ldr	r3, [r3, #8]
    4a6c:	4798      	blx	r3
    4a6e:	e7ed      	b.n	4a4c <yield+0x64>
			// sketch still gets to run normally after this wait time.
			//if ((uint32_t)(systick_millis_count - millis_begin) > 2500) break;
		//}
	}
        void end() { /* TODO: flush output and shut down USB port */ };
        virtual int available() { return usb_serial_available(); }
    4a70:	f7ff ff02 	bl	4878 <usb_serial_available>
	running = 1;


	// USB Serail - Add hack to minimize impact...
	if (yield_active_check_flags & YIELD_CHECK_USB_SERIAL) {
		if (Serial.available()) serialEvent();
    4a74:	b9d0      	cbnz	r0, 4aac <yield+0xc4>
		if (_serialEvent_default) yield_active_check_flags &= ~YIELD_CHECK_USB_SERIAL;
    4a76:	4b14      	ldr	r3, [pc, #80]	; (4ac8 <yield+0xe0>)
    4a78:	781b      	ldrb	r3, [r3, #0]
    4a7a:	b91b      	cbnz	r3, 4a84 <yield+0x9c>
    4a7c:	7833      	ldrb	r3, [r6, #0]
    4a7e:	e7bf      	b.n	4a00 <yield+0x18>
    4a80:	7833      	ldrb	r3, [r6, #0]
    4a82:	e7bf      	b.n	4a04 <yield+0x1c>
    4a84:	7833      	ldrb	r3, [r6, #0]
    4a86:	f003 03fe 	and.w	r3, r3, #254	; 0xfe
    4a8a:	7033      	strb	r3, [r6, #0]
    4a8c:	e7b8      	b.n	4a00 <yield+0x18>
		if (runningFromYield) {
			enableInterrupts(irq);
			return;
		}
		// Ok, update the runningFromYield flag and process event
		runningFromYield = true;
    4a8e:	2601      	movs	r6, #1
		firstYield = first->_next;
    4a90:	6955      	ldr	r5, [r2, #20]
		if (runningFromYield) {
			enableInterrupts(irq);
			return;
		}
		// Ok, update the runningFromYield flag and process event
		runningFromYield = true;
    4a92:	7026      	strb	r6, [r4, #0]
		firstYield = first->_next;
    4a94:	601d      	str	r5, [r3, #0]
		if (firstYield) {
    4a96:	b165      	cbz	r5, 4ab2 <yield+0xca>
			firstYield->_prev = nullptr;
    4a98:	61a9      	str	r1, [r5, #24]
		__asm__ volatile("mrs %0, primask\n" : "=r" (primask)::);
		__disable_irq();
		return (primask == 0) ? true : false;
	}
	static void enableInterrupts(bool doit) {
		if (doit) __enable_irq();
    4a9a:	b900      	cbnz	r0, 4a9e <yield+0xb6>
    4a9c:	b662      	cpsie	i
			firstYield->_prev = nullptr;
		} else {
			lastYield = nullptr;
		}
		enableInterrupts(irq);
		first->_triggered = false;
    4a9e:	2500      	movs	r5, #0
		(*(first->_function))(*first);
    4aa0:	6893      	ldr	r3, [r2, #8]
    4aa2:	4610      	mov	r0, r2
			firstYield->_prev = nullptr;
		} else {
			lastYield = nullptr;
		}
		enableInterrupts(irq);
		first->_triggered = false;
    4aa4:	7755      	strb	r5, [r2, #29]
		(*(first->_function))(*first);
    4aa6:	4798      	blx	r3
		runningFromYield = false;
    4aa8:	7025      	strb	r5, [r4, #0]
    4aaa:	e7b5      	b.n	4a18 <yield+0x30>
	running = 1;


	// USB Serail - Add hack to minimize impact...
	if (yield_active_check_flags & YIELD_CHECK_USB_SERIAL) {
		if (Serial.available()) serialEvent();
    4aac:	f000 fb5a 	bl	5164 <serialEvent()>
    4ab0:	e7e1      	b.n	4a76 <yield+0x8e>
		runningFromYield = true;
		firstYield = first->_next;
		if (firstYield) {
			firstYield->_prev = nullptr;
		} else {
			lastYield = nullptr;
    4ab2:	4b06      	ldr	r3, [pc, #24]	; (4acc <yield+0xe4>)
    4ab4:	601d      	str	r5, [r3, #0]
    4ab6:	e7f0      	b.n	4a9a <yield+0xb2>
    4ab8:	2000070a 	.word	0x2000070a
    4abc:	20001cc5 	.word	0x20001cc5
    4ac0:	20001cc0 	.word	0x20001cc0
    4ac4:	20001cc4 	.word	0x20001cc4
    4ac8:	60001aa6 	.word	0x60001aa6
    4acc:	20001cbc 	.word	0x20001cbc
    4ad0:	20001ce8 	.word	0x20001ce8
    4ad4:	20001cc8 	.word	0x20001cc8

00004ad8 <memcpy>:
	@ r1: src
	@ r2: len
#ifdef __ARM_FEATURE_UNALIGNED
	/* In case of UNALIGNED access supported, ip is not used in
	   function body.  */
	mov	ip, r0
    4ad8:	4684      	mov	ip, r0
#else
	push	{r0}
#endif
	orr	r3, r1, r0
    4ada:	ea41 0300 	orr.w	r3, r1, r0
	ands	r3, r3, #3
    4ade:	f013 0303 	ands.w	r3, r3, #3
	bne	.Lmisaligned_copy
    4ae2:	d16d      	bne.n	4bc0 <memcpy+0xe8>

.Lbig_block:
	subs	r2, __OPT_BIG_BLOCK_SIZE
    4ae4:	3a40      	subs	r2, #64	; 0x40
	blo	.Lmid_block
    4ae6:	d341      	bcc.n	4b6c <memcpy+0x94>
.Lbig_block_loop:
	BEGIN_UNROLL_BIG_BLOCK
#ifdef __ARM_ARCH_7EM__
	ldr	r3, [r1], #4
	str	r3, [r0], #4
	END_UNROLL
    4ae8:	f851 3b04 	ldr.w	r3, [r1], #4
    4aec:	f840 3b04 	str.w	r3, [r0], #4
    4af0:	f851 3b04 	ldr.w	r3, [r1], #4
    4af4:	f840 3b04 	str.w	r3, [r0], #4
    4af8:	f851 3b04 	ldr.w	r3, [r1], #4
    4afc:	f840 3b04 	str.w	r3, [r0], #4
    4b00:	f851 3b04 	ldr.w	r3, [r1], #4
    4b04:	f840 3b04 	str.w	r3, [r0], #4
    4b08:	f851 3b04 	ldr.w	r3, [r1], #4
    4b0c:	f840 3b04 	str.w	r3, [r0], #4
    4b10:	f851 3b04 	ldr.w	r3, [r1], #4
    4b14:	f840 3b04 	str.w	r3, [r0], #4
    4b18:	f851 3b04 	ldr.w	r3, [r1], #4
    4b1c:	f840 3b04 	str.w	r3, [r0], #4
    4b20:	f851 3b04 	ldr.w	r3, [r1], #4
    4b24:	f840 3b04 	str.w	r3, [r0], #4
    4b28:	f851 3b04 	ldr.w	r3, [r1], #4
    4b2c:	f840 3b04 	str.w	r3, [r0], #4
    4b30:	f851 3b04 	ldr.w	r3, [r1], #4
    4b34:	f840 3b04 	str.w	r3, [r0], #4
    4b38:	f851 3b04 	ldr.w	r3, [r1], #4
    4b3c:	f840 3b04 	str.w	r3, [r0], #4
    4b40:	f851 3b04 	ldr.w	r3, [r1], #4
    4b44:	f840 3b04 	str.w	r3, [r0], #4
    4b48:	f851 3b04 	ldr.w	r3, [r1], #4
    4b4c:	f840 3b04 	str.w	r3, [r0], #4
    4b50:	f851 3b04 	ldr.w	r3, [r1], #4
    4b54:	f840 3b04 	str.w	r3, [r0], #4
    4b58:	f851 3b04 	ldr.w	r3, [r1], #4
    4b5c:	f840 3b04 	str.w	r3, [r0], #4
    4b60:	f851 3b04 	ldr.w	r3, [r1], #4
    4b64:	f840 3b04 	str.w	r3, [r0], #4
	str	r3, [r0, \offset]
	END_UNROLL
	adds	r0, __OPT_BIG_BLOCK_SIZE
	adds	r1, __OPT_BIG_BLOCK_SIZE
#endif
	subs	r2, __OPT_BIG_BLOCK_SIZE
    4b68:	3a40      	subs	r2, #64	; 0x40
	bhs .Lbig_block_loop
    4b6a:	d2bd      	bcs.n	4ae8 <memcpy+0x10>

.Lmid_block:
	adds	r2, __OPT_BIG_BLOCK_SIZE - __OPT_MID_BLOCK_SIZE
    4b6c:	3230      	adds	r2, #48	; 0x30
	blo	.Lcopy_word_by_word
    4b6e:	d311      	bcc.n	4b94 <memcpy+0xbc>
.Lmid_block_loop:
	BEGIN_UNROLL_MID_BLOCK
#ifdef __ARM_ARCH_7EM__
	ldr	r3, [r1], #4
	str	r3, [r0], #4
	END_UNROLL
    4b70:	f851 3b04 	ldr.w	r3, [r1], #4
    4b74:	f840 3b04 	str.w	r3, [r0], #4
    4b78:	f851 3b04 	ldr.w	r3, [r1], #4
    4b7c:	f840 3b04 	str.w	r3, [r0], #4
    4b80:	f851 3b04 	ldr.w	r3, [r1], #4
    4b84:	f840 3b04 	str.w	r3, [r0], #4
    4b88:	f851 3b04 	ldr.w	r3, [r1], #4
    4b8c:	f840 3b04 	str.w	r3, [r0], #4
	str	r3, [r0, \offset]
	END_UNROLL
	adds    r0, __OPT_MID_BLOCK_SIZE
	adds    r1, __OPT_MID_BLOCK_SIZE
#endif
	subs	r2, __OPT_MID_BLOCK_SIZE
    4b90:	3a10      	subs	r2, #16
	bhs	.Lmid_block_loop
    4b92:	d2ed      	bcs.n	4b70 <memcpy+0x98>

.Lcopy_word_by_word:
	adds	r2, __OPT_MID_BLOCK_SIZE - 4
    4b94:	320c      	adds	r2, #12
	blo	.Lcopy_less_than_4
    4b96:	d305      	bcc.n	4ba4 <memcpy+0xcc>

	/* Kernel loop for small block copy */
	.align 2
.Lcopy_word_by_word_loop:
	ldr	r3, [r1], #4
    4b98:	f851 3b04 	ldr.w	r3, [r1], #4
	str	r3, [r0], #4
    4b9c:	f840 3b04 	str.w	r3, [r0], #4
	subs	r2, #4
    4ba0:	3a04      	subs	r2, #4
	bhs	.Lcopy_word_by_word_loop
    4ba2:	d2f9      	bcs.n	4b98 <memcpy+0xc0>

.Lcopy_less_than_4:
	adds	r2, #4
    4ba4:	3204      	adds	r2, #4
	beq	.Ldone
    4ba6:	d008      	beq.n	4bba <memcpy+0xe2>

	lsls	r2, r2, #31
    4ba8:	07d2      	lsls	r2, r2, #31
	itt ne
    4baa:	bf1c      	itt	ne
	ldrbne  r3, [r1], #1
    4bac:	f811 3b01 	ldrbne.w	r3, [r1], #1
	strbne  r3, [r0], #1
    4bb0:	f800 3b01 	strbne.w	r3, [r0], #1

	bcc	.Ldone
    4bb4:	d301      	bcc.n	4bba <memcpy+0xe2>
#ifdef __ARM_FEATURE_UNALIGNED
	ldrh	r3, [r1]
    4bb6:	880b      	ldrh	r3, [r1, #0]
	strh	r3, [r0]
    4bb8:	8003      	strh	r3, [r0, #0]
	strb	r3, [r0, #1]
#endif /* __ARM_FEATURE_UNALIGNED */

.Ldone:
#ifdef __ARM_FEATURE_UNALIGNED
	mov	r0, ip
    4bba:	4660      	mov	r0, ip
#else
	pop	{r0}
#endif
	bx	lr
    4bbc:	4770      	bx	lr
    4bbe:	bf00      	nop
#define Ldst_aligned Lbig_block

	/* Copy word by word using LDR when alignment can be done in hardware,
	i.e., SCTLR.A is set, supporting unaligned access in LDR and STR.  */

	cmp	r2, #8
    4bc0:	2a08      	cmp	r2, #8
	blo	.Lbyte_copy
    4bc2:	d313      	bcc.n	4bec <memcpy+0x114>

	/* if src is aligned, just go to the big block loop.  */
	lsls	r3, r1, #30
    4bc4:	078b      	lsls	r3, r1, #30
	beq	.Ldst_aligned
    4bc6:	d08d      	beq.n	4ae4 <memcpy+0xc>
	handling of aligned src and misaligned dst need more overhead than
	otherwise.  By doing this the worst case is when initial src is aligned,
	additional up to 4 byte additional copy will executed, which is
	acceptable.  */

	ands	r3, r0, #3
    4bc8:	f010 0303 	ands.w	r3, r0, #3
	beq	.Ldst_aligned
    4bcc:	d08a      	beq.n	4ae4 <memcpy+0xc>

	rsb	r3, #4
    4bce:	f1c3 0304 	rsb	r3, r3, #4
	subs	r2, r3
    4bd2:	1ad2      	subs	r2, r2, r3

	lsls    r3, r3, #31
    4bd4:	07db      	lsls	r3, r3, #31
	itt ne
    4bd6:	bf1c      	itt	ne
	ldrbne  r3, [r1], #1
    4bd8:	f811 3b01 	ldrbne.w	r3, [r1], #1
	strbne  r3, [r0], #1
    4bdc:	f800 3b01 	strbne.w	r3, [r0], #1

	bcc .Ldst_aligned
    4be0:	d380      	bcc.n	4ae4 <memcpy+0xc>

#ifdef __ARM_FEATURE_UNALIGNED
	ldrh    r3, [r1], #2
    4be2:	f831 3b02 	ldrh.w	r3, [r1], #2
	strh    r3, [r0], #2
    4be6:	f820 3b02 	strh.w	r3, [r0], #2
	b	.Ldst_aligned
    4bea:	e77b      	b.n	4ae4 <memcpy+0xc>
	pop	{r4, r5}

#endif /* __ARM_FEATURE_UNALIGNED */

.Lbyte_copy:
	subs	r2, #4
    4bec:	3a04      	subs	r2, #4
	blo	.Lcopy_less_than_4
    4bee:	d3d9      	bcc.n	4ba4 <memcpy+0xcc>

.Lbyte_copy_loop:
	subs    r2, #1
    4bf0:	3a01      	subs	r2, #1
	ldrb    r3, [r1], #1
    4bf2:	f811 3b01 	ldrb.w	r3, [r1], #1
	strb    r3, [r0], #1
    4bf6:	f800 3b01 	strb.w	r3, [r0], #1
	bhs	.Lbyte_copy_loop
    4bfa:	d2f9      	bcs.n	4bf0 <memcpy+0x118>

	ldrb	r3, [r1]
    4bfc:	780b      	ldrb	r3, [r1, #0]
	strb	r3, [r0]
    4bfe:	7003      	strb	r3, [r0, #0]
	ldrb	r3, [r1, #1]
    4c00:	784b      	ldrb	r3, [r1, #1]
	strb	r3, [r0, #1]
    4c02:	7043      	strb	r3, [r0, #1]
	ldrb	r3, [r1, #2]
    4c04:	788b      	ldrb	r3, [r1, #2]
	strb	r3, [r0, #2]
    4c06:	7083      	strb	r3, [r0, #2]

#ifdef __ARM_FEATURE_UNALIGNED
	mov	r0, ip
    4c08:	4660      	mov	r0, ip
#else
	pop	{r0}
#endif
	bx	lr
    4c0a:	4770      	bx	lr

00004c0c <ultoa>:
#include <stdlib.h>
#include <math.h>


char * ultoa(unsigned long val, char *buf, int radix)
{
    4c0c:	b4f0      	push	{r4, r5, r6, r7}
    4c0e:	1e4e      	subs	r6, r1, #1
	unsigned digit;
	int i=0, j;
    4c10:	2500      	movs	r5, #0
#include <stdlib.h>
#include <math.h>


char * ultoa(unsigned long val, char *buf, int radix)
{
    4c12:	4637      	mov	r7, r6
    4c14:	e000      	b.n	4c18 <ultoa+0xc>
	while (1) {
		digit = val % radix;
		buf[i] = ((digit < 10) ? '0' + digit : 'A' + digit - 10);
		val /= radix;
		if (val == 0) break;
		i++;
    4c16:	3501      	adds	r5, #1
	unsigned digit;
	int i=0, j;
	char t;

	while (1) {
		digit = val % radix;
    4c18:	fbb0 f3f2 	udiv	r3, r0, r2
    4c1c:	fb02 0013 	mls	r0, r2, r3, r0
		buf[i] = ((digit < 10) ? '0' + digit : 'A' + digit - 10);
    4c20:	f100 0437 	add.w	r4, r0, #55	; 0x37
    4c24:	2809      	cmp	r0, #9
    4c26:	f100 0030 	add.w	r0, r0, #48	; 0x30
    4c2a:	b2e4      	uxtb	r4, r4
    4c2c:	bf98      	it	ls
    4c2e:	b2c4      	uxtbls	r4, r0
		val /= radix;
		if (val == 0) break;
    4c30:	4618      	mov	r0, r3
	int i=0, j;
	char t;

	while (1) {
		digit = val % radix;
		buf[i] = ((digit < 10) ? '0' + digit : 'A' + digit - 10);
    4c32:	f807 4f01 	strb.w	r4, [r7, #1]!
		val /= radix;
		if (val == 0) break;
    4c36:	2b00      	cmp	r3, #0
    4c38:	d1ed      	bne.n	4c16 <ultoa+0xa>
		i++;
	}
	buf[i + 1] = 0;
    4c3a:	194a      	adds	r2, r1, r5
    4c3c:	7053      	strb	r3, [r2, #1]
	for (j=0; j < i; j++, i--) {
    4c3e:	b14d      	cbz	r5, 4c54 <ultoa+0x48>
    4c40:	3301      	adds	r3, #1
		t = buf[j];
    4c42:	f816 4f01 	ldrb.w	r4, [r6, #1]!
		buf[j] = buf[i];
    4c46:	7817      	ldrb	r7, [r2, #0]
		val /= radix;
		if (val == 0) break;
		i++;
	}
	buf[i + 1] = 0;
	for (j=0; j < i; j++, i--) {
    4c48:	1ae8      	subs	r0, r5, r3
		t = buf[j];
		buf[j] = buf[i];
    4c4a:	7037      	strb	r7, [r6, #0]
		val /= radix;
		if (val == 0) break;
		i++;
	}
	buf[i + 1] = 0;
	for (j=0; j < i; j++, i--) {
    4c4c:	4283      	cmp	r3, r0
		t = buf[j];
		buf[j] = buf[i];
		buf[i] = t;
    4c4e:	f802 4901 	strb.w	r4, [r2], #-1
		val /= radix;
		if (val == 0) break;
		i++;
	}
	buf[i + 1] = 0;
	for (j=0; j < i; j++, i--) {
    4c52:	dbf5      	blt.n	4c40 <ultoa+0x34>
		t = buf[j];
		buf[j] = buf[i];
		buf[i] = t;
	}
	return buf;
}
    4c54:	4608      	mov	r0, r1
    4c56:	bcf0      	pop	{r4, r5, r6, r7}
    4c58:	4770      	bx	lr
    4c5a:	bf00      	nop

00004c5c <pwm_init>:
			TMR_CTRL_LENGTH | TMR_CTRL_OUTMODE(6);
	}
}

void pwm_init(void)
{
    4c5c:	e92d 43f0 	stmdb	sp!, {r4, r5, r6, r7, r8, r9, lr}
	//printf("pwm init\n");
	CCM_CCGR4 |= CCM_CCGR4_PWM1(CCM_CCGR_ON) | CCM_CCGR4_PWM2(CCM_CCGR_ON) |
    4c60:	4fdb      	ldr	r7, [pc, #876]	; (4fd0 <pwm_init+0x374>)
{
	int i;

	p->FCTRL0 = FLEXPWM_FCTRL0_FLVL(15); // logic high = fault
	p->FSTS0 = 0x000F; // clear fault status
	p->FFILT0 = 0;
    4c62:	2300      	movs	r3, #0
void pwm_init(void)
{
	//printf("pwm init\n");
	CCM_CCGR4 |= CCM_CCGR4_PWM1(CCM_CCGR_ON) | CCM_CCGR4_PWM2(CCM_CCGR_ON) |
		CCM_CCGR4_PWM3(CCM_CCGR_ON) | CCM_CCGR4_PWM4(CCM_CCGR_ON);
	CCM_CCGR6 |= CCM_CCGR6_QTIMER1(CCM_CCGR_ON) | CCM_CCGR6_QTIMER2(CCM_CCGR_ON) |
    4c64:	f8df e380 	ldr.w	lr, [pc, #896]	; 4fe8 <pwm_init+0x38c>
void flexpwm_init(IMXRT_FLEXPWM_t *p)
{
	int i;

	p->FCTRL0 = FLEXPWM_FCTRL0_FLVL(15); // logic high = fault
	p->FSTS0 = 0x000F; // clear fault status
    4c68:	250f      	movs	r5, #15
}

void pwm_init(void)
{
	//printf("pwm init\n");
	CCM_CCGR4 |= CCM_CCGR4_PWM1(CCM_CCGR_ON) | CCM_CCGR4_PWM2(CCM_CCGR_ON) |
    4c6a:	6fba      	ldr	r2, [r7, #120]	; 0x78

void flexpwm_init(IMXRT_FLEXPWM_t *p)
{
	int i;

	p->FCTRL0 = FLEXPWM_FCTRL0_FLVL(15); // logic high = fault
    4c6c:	f44f 4c70 	mov.w	ip, #61440	; 0xf000
    4c70:	49d8      	ldr	r1, [pc, #864]	; (4fd4 <pwm_init+0x378>)
	p->FSTS0 = 0x000F; // clear fault status
	p->FFILT0 = 0;
	p->MCTRL |= FLEXPWM_MCTRL_CLDOK(15);
	for (i=0; i < 4; i++) {
		p->SM[i].CTRL2 = FLEXPWM_SMCTRL2_INDEP | FLEXPWM_SMCTRL2_WAITEN
    4c72:	f44f 4660 	mov.w	r6, #57344	; 0xe000
}

void pwm_init(void)
{
	//printf("pwm init\n");
	CCM_CCGR4 |= CCM_CCGR4_PWM1(CCM_CCGR_ON) | CCM_CCGR4_PWM2(CCM_CCGR_ON) |
    4c76:	f442 027f 	orr.w	r2, r2, #16711680	; 0xff0000
	p->FFILT0 = 0;
	p->MCTRL |= FLEXPWM_MCTRL_CLDOK(15);
	for (i=0; i < 4; i++) {
		p->SM[i].CTRL2 = FLEXPWM_SMCTRL2_INDEP | FLEXPWM_SMCTRL2_WAITEN
			| FLEXPWM_SMCTRL2_DBGEN;
		p->SM[i].CTRL = FLEXPWM_SMCTRL_FULL;
    4c7a:	f44f 6480 	mov.w	r4, #1024	; 0x400
		p->SM[i].OCTRL = 0;
		p->SM[i].DTCNT0 = 0;
		p->SM[i].INIT = 0;
		p->SM[i].VAL0 = 0;
		p->SM[i].VAL1 = 33464;
    4c7e:	f248 20b8 	movw	r0, #33464	; 0x82b8
}

void pwm_init(void)
{
	//printf("pwm init\n");
	CCM_CCGR4 |= CCM_CCGR4_PWM1(CCM_CCGR_ON) | CCM_CCGR4_PWM2(CCM_CCGR_ON) |
    4c82:	67ba      	str	r2, [r7, #120]	; 0x78
		CCM_CCGR4_PWM3(CCM_CCGR_ON) | CCM_CCGR4_PWM4(CCM_CCGR_ON);
	CCM_CCGR6 |= CCM_CCGR6_QTIMER1(CCM_CCGR_ON) | CCM_CCGR6_QTIMER2(CCM_CCGR_ON) |
    4c84:	f8d7 2080 	ldr.w	r2, [r7, #128]	; 0x80
    4c88:	ea42 0e0e 	orr.w	lr, r2, lr
	p->FCTRL0 = FLEXPWM_FCTRL0_FLVL(15); // logic high = fault
	p->FSTS0 = 0x000F; // clear fault status
	p->FFILT0 = 0;
	p->MCTRL |= FLEXPWM_MCTRL_CLDOK(15);
	for (i=0; i < 4; i++) {
		p->SM[i].CTRL2 = FLEXPWM_SMCTRL2_INDEP | FLEXPWM_SMCTRL2_WAITEN
    4c8c:	4ad2      	ldr	r2, [pc, #840]	; (4fd8 <pwm_init+0x37c>)
void pwm_init(void)
{
	//printf("pwm init\n");
	CCM_CCGR4 |= CCM_CCGR4_PWM1(CCM_CCGR_ON) | CCM_CCGR4_PWM2(CCM_CCGR_ON) |
		CCM_CCGR4_PWM3(CCM_CCGR_ON) | CCM_CCGR4_PWM4(CCM_CCGR_ON);
	CCM_CCGR6 |= CCM_CCGR6_QTIMER1(CCM_CCGR_ON) | CCM_CCGR6_QTIMER2(CCM_CCGR_ON) |
    4c8e:	f8c7 e080 	str.w	lr, [r7, #128]	; 0x80

	for (i=0; i < 4; i++) {
		p->CH[i].CTRL = 0; // stop timer
		p->CH[i].CNTR = 0;
		p->CH[i].SCTRL = TMR_SCTRL_OEN | TMR_SCTRL_OPS | TMR_SCTRL_VAL | TMR_SCTRL_FORCE;
		p->CH[i].CSCTRL = TMR_CSCTRL_CL1(1) | TMR_CSCTRL_ALT_LOAD;
    4c92:	f241 0e01 	movw	lr, #4097	; 0x1001

void flexpwm_init(IMXRT_FLEXPWM_t *p)
{
	int i;

	p->FCTRL0 = FLEXPWM_FCTRL0_FLVL(15); // logic high = fault
    4c96:	f8a1 c18c 	strh.w	ip, [r1, #396]	; 0x18c
	p->FSTS0 = 0x000F; // clear fault status
    4c9a:	f8a1 518e 	strh.w	r5, [r1, #398]	; 0x18e
	p->FFILT0 = 0;
    4c9e:	f8a1 3190 	strh.w	r3, [r1, #400]	; 0x190
	p->MCTRL |= FLEXPWM_MCTRL_CLDOK(15);
    4ca2:	f8b1 7188 	ldrh.w	r7, [r1, #392]	; 0x188
    4ca6:	b2bf      	uxth	r7, r7
    4ca8:	f047 07f0 	orr.w	r7, r7, #240	; 0xf0
    4cac:	f8a1 7188 	strh.w	r7, [r1, #392]	; 0x188
		p->CH[i].CTRL = 0; // stop timer
		p->CH[i].CNTR = 0;
		p->CH[i].SCTRL = TMR_SCTRL_OEN | TMR_SCTRL_OPS | TMR_SCTRL_VAL | TMR_SCTRL_FORCE;
		p->CH[i].CSCTRL = TMR_CSCTRL_CL1(1) | TMR_CSCTRL_ALT_LOAD;
		// COMP must be less than LOAD - otherwise output is always low
		p->CH[i].LOAD = 24000;   // low time  (65537 - x) - 
    4cb0:	f645 57c0 	movw	r7, #24000	; 0x5dc0
	p->FCTRL0 = FLEXPWM_FCTRL0_FLVL(15); // logic high = fault
	p->FSTS0 = 0x000F; // clear fault status
	p->FFILT0 = 0;
	p->MCTRL |= FLEXPWM_MCTRL_CLDOK(15);
	for (i=0; i < 4; i++) {
		p->SM[i].CTRL2 = FLEXPWM_SMCTRL2_INDEP | FLEXPWM_SMCTRL2_WAITEN
    4cb4:	808e      	strh	r6, [r1, #4]
			| FLEXPWM_SMCTRL2_DBGEN;
		p->SM[i].CTRL = FLEXPWM_SMCTRL_FULL;
    4cb6:	80cc      	strh	r4, [r1, #6]
		p->SM[i].OCTRL = 0;
    4cb8:	844b      	strh	r3, [r1, #34]	; 0x22
		p->SM[i].DTCNT0 = 0;
    4cba:	860b      	strh	r3, [r1, #48]	; 0x30
		p->SM[i].INIT = 0;
    4cbc:	804b      	strh	r3, [r1, #2]
		p->SM[i].VAL0 = 0;
    4cbe:	814b      	strh	r3, [r1, #10]
		p->SM[i].VAL1 = 33464;
    4cc0:	81c8      	strh	r0, [r1, #14]
		p->SM[i].VAL2 = 0;
    4cc2:	824b      	strh	r3, [r1, #18]
		p->SM[i].VAL3 = 0;
    4cc4:	82cb      	strh	r3, [r1, #22]
		p->SM[i].VAL4 = 0;
    4cc6:	834b      	strh	r3, [r1, #26]
		p->SM[i].VAL5 = 0;
    4cc8:	83cb      	strh	r3, [r1, #30]
	p->FCTRL0 = FLEXPWM_FCTRL0_FLVL(15); // logic high = fault
	p->FSTS0 = 0x000F; // clear fault status
	p->FFILT0 = 0;
	p->MCTRL |= FLEXPWM_MCTRL_CLDOK(15);
	for (i=0; i < 4; i++) {
		p->SM[i].CTRL2 = FLEXPWM_SMCTRL2_INDEP | FLEXPWM_SMCTRL2_WAITEN
    4cca:	8096      	strh	r6, [r2, #4]
			| FLEXPWM_SMCTRL2_DBGEN;
		p->SM[i].CTRL = FLEXPWM_SMCTRL_FULL;
    4ccc:	80d4      	strh	r4, [r2, #6]
		p->SM[i].OCTRL = 0;
    4cce:	f8a1 3082 	strh.w	r3, [r1, #130]	; 0x82
		p->SM[i].DTCNT0 = 0;
    4cd2:	f8a1 3090 	strh.w	r3, [r1, #144]	; 0x90
		p->SM[i].INIT = 0;
    4cd6:	8053      	strh	r3, [r2, #2]
		p->SM[i].VAL0 = 0;
    4cd8:	f8a1 306a 	strh.w	r3, [r1, #106]	; 0x6a
		p->SM[i].VAL1 = 33464;
    4cdc:	f8a1 006e 	strh.w	r0, [r1, #110]	; 0x6e
		p->SM[i].VAL2 = 0;
    4ce0:	f8a1 3072 	strh.w	r3, [r1, #114]	; 0x72
		p->SM[i].VAL3 = 0;
    4ce4:	f8a1 3076 	strh.w	r3, [r1, #118]	; 0x76
		p->SM[i].VAL4 = 0;
    4ce8:	f8a1 307a 	strh.w	r3, [r1, #122]	; 0x7a
		p->SM[i].VAL5 = 0;
    4cec:	f8a1 307e 	strh.w	r3, [r1, #126]	; 0x7e
	p->FCTRL0 = FLEXPWM_FCTRL0_FLVL(15); // logic high = fault
	p->FSTS0 = 0x000F; // clear fault status
	p->FFILT0 = 0;
	p->MCTRL |= FLEXPWM_MCTRL_CLDOK(15);
	for (i=0; i < 4; i++) {
		p->SM[i].CTRL2 = FLEXPWM_SMCTRL2_INDEP | FLEXPWM_SMCTRL2_WAITEN
    4cf0:	f8a2 6064 	strh.w	r6, [r2, #100]	; 0x64
			| FLEXPWM_SMCTRL2_DBGEN;
		p->SM[i].CTRL = FLEXPWM_SMCTRL_FULL;
    4cf4:	f8a2 4066 	strh.w	r4, [r2, #102]	; 0x66
		p->SM[i].OCTRL = 0;
    4cf8:	f8a1 30e2 	strh.w	r3, [r1, #226]	; 0xe2
		p->SM[i].DTCNT0 = 0;
    4cfc:	f8a1 30f0 	strh.w	r3, [r1, #240]	; 0xf0
		p->SM[i].INIT = 0;
    4d00:	f8a2 3062 	strh.w	r3, [r2, #98]	; 0x62
		p->SM[i].VAL0 = 0;
    4d04:	f8a1 30ca 	strh.w	r3, [r1, #202]	; 0xca
		p->SM[i].VAL1 = 33464;
    4d08:	f8a1 00ce 	strh.w	r0, [r1, #206]	; 0xce
		p->SM[i].VAL2 = 0;
    4d0c:	f8a1 30d2 	strh.w	r3, [r1, #210]	; 0xd2
		p->SM[i].VAL3 = 0;
    4d10:	f8a1 30d6 	strh.w	r3, [r1, #214]	; 0xd6
		p->SM[i].VAL4 = 0;
    4d14:	f8a1 30da 	strh.w	r3, [r1, #218]	; 0xda
		p->SM[i].VAL5 = 0;
    4d18:	f8a1 30de 	strh.w	r3, [r1, #222]	; 0xde
	p->FCTRL0 = FLEXPWM_FCTRL0_FLVL(15); // logic high = fault
	p->FSTS0 = 0x000F; // clear fault status
	p->FFILT0 = 0;
	p->MCTRL |= FLEXPWM_MCTRL_CLDOK(15);
	for (i=0; i < 4; i++) {
		p->SM[i].CTRL2 = FLEXPWM_SMCTRL2_INDEP | FLEXPWM_SMCTRL2_WAITEN
    4d1c:	f8a2 60c4 	strh.w	r6, [r2, #196]	; 0xc4
			| FLEXPWM_SMCTRL2_DBGEN;
		p->SM[i].CTRL = FLEXPWM_SMCTRL_FULL;
    4d20:	f8a2 40c6 	strh.w	r4, [r2, #198]	; 0xc6
		p->SM[i].OCTRL = 0;
    4d24:	f8a1 3142 	strh.w	r3, [r1, #322]	; 0x142
		p->SM[i].DTCNT0 = 0;
    4d28:	f8a1 3150 	strh.w	r3, [r1, #336]	; 0x150
		p->SM[i].INIT = 0;
    4d2c:	f8a2 30c2 	strh.w	r3, [r2, #194]	; 0xc2
		p->SM[i].VAL0 = 0;
    4d30:	f8a1 312a 	strh.w	r3, [r1, #298]	; 0x12a
		p->SM[i].VAL1 = 33464;
    4d34:	f8a1 012e 	strh.w	r0, [r1, #302]	; 0x12e
		p->SM[i].VAL2 = 0;
    4d38:	f8a1 3132 	strh.w	r3, [r1, #306]	; 0x132
		p->SM[i].VAL3 = 0;
    4d3c:	f8a1 3136 	strh.w	r3, [r1, #310]	; 0x136
		p->SM[i].VAL4 = 0;
    4d40:	f8a1 313a 	strh.w	r3, [r1, #314]	; 0x13a
		p->SM[i].VAL5 = 0;
    4d44:	f8a1 313e 	strh.w	r3, [r1, #318]	; 0x13e
	}
	p->MCTRL |= FLEXPWM_MCTRL_LDOK(15);
    4d48:	f8b1 2188 	ldrh.w	r2, [r1, #392]	; 0x188
    4d4c:	b292      	uxth	r2, r2
    4d4e:	432a      	orrs	r2, r5
    4d50:	f8a1 2188 	strh.w	r2, [r1, #392]	; 0x188
	p->MCTRL |= FLEXPWM_MCTRL_RUN(15);
    4d54:	f8b1 8188 	ldrh.w	r8, [r1, #392]	; 0x188

void flexpwm_init(IMXRT_FLEXPWM_t *p)
{
	int i;

	p->FCTRL0 = FLEXPWM_FCTRL0_FLVL(15); // logic high = fault
    4d58:	4aa0      	ldr	r2, [pc, #640]	; (4fdc <pwm_init+0x380>)
		p->SM[i].VAL3 = 0;
		p->SM[i].VAL4 = 0;
		p->SM[i].VAL5 = 0;
	}
	p->MCTRL |= FLEXPWM_MCTRL_LDOK(15);
	p->MCTRL |= FLEXPWM_MCTRL_RUN(15);
    4d5a:	fa1f f888 	uxth.w	r8, r8
    4d5e:	f448 6870 	orr.w	r8, r8, #3840	; 0xf00
    4d62:	f8a1 8188 	strh.w	r8, [r1, #392]	; 0x188
	p->FCTRL0 = FLEXPWM_FCTRL0_FLVL(15); // logic high = fault
	p->FSTS0 = 0x000F; // clear fault status
	p->FFILT0 = 0;
	p->MCTRL |= FLEXPWM_MCTRL_CLDOK(15);
	for (i=0; i < 4; i++) {
		p->SM[i].CTRL2 = FLEXPWM_SMCTRL2_INDEP | FLEXPWM_SMCTRL2_WAITEN
    4d66:	f501 4180 	add.w	r1, r1, #16384	; 0x4000

void flexpwm_init(IMXRT_FLEXPWM_t *p)
{
	int i;

	p->FCTRL0 = FLEXPWM_FCTRL0_FLVL(15); // logic high = fault
    4d6a:	f8a2 c18c 	strh.w	ip, [r2, #396]	; 0x18c
	p->FSTS0 = 0x000F; // clear fault status
    4d6e:	f8a2 518e 	strh.w	r5, [r2, #398]	; 0x18e
	p->FFILT0 = 0;
	p->MCTRL |= FLEXPWM_MCTRL_CLDOK(15);
	for (i=0; i < 4; i++) {
		p->SM[i].CTRL2 = FLEXPWM_SMCTRL2_INDEP | FLEXPWM_SMCTRL2_WAITEN
    4d72:	3160      	adds	r1, #96	; 0x60
{
	int i;

	p->FCTRL0 = FLEXPWM_FCTRL0_FLVL(15); // logic high = fault
	p->FSTS0 = 0x000F; // clear fault status
	p->FFILT0 = 0;
    4d74:	f8a2 3190 	strh.w	r3, [r2, #400]	; 0x190
	p->MCTRL |= FLEXPWM_MCTRL_CLDOK(15);
    4d78:	f8b2 8188 	ldrh.w	r8, [r2, #392]	; 0x188
    4d7c:	fa1f f888 	uxth.w	r8, r8
    4d80:	f048 08f0 	orr.w	r8, r8, #240	; 0xf0
    4d84:	f8a2 8188 	strh.w	r8, [r2, #392]	; 0x188
	for (i=0; i < 4; i++) {
		p->SM[i].CTRL2 = FLEXPWM_SMCTRL2_INDEP | FLEXPWM_SMCTRL2_WAITEN
    4d88:	8096      	strh	r6, [r2, #4]
			| FLEXPWM_SMCTRL2_DBGEN;
		p->SM[i].CTRL = FLEXPWM_SMCTRL_FULL;
    4d8a:	80d4      	strh	r4, [r2, #6]
		p->SM[i].OCTRL = 0;
    4d8c:	8453      	strh	r3, [r2, #34]	; 0x22
		p->SM[i].DTCNT0 = 0;
    4d8e:	8613      	strh	r3, [r2, #48]	; 0x30
		p->SM[i].INIT = 0;
    4d90:	8053      	strh	r3, [r2, #2]
		p->SM[i].VAL0 = 0;
    4d92:	8153      	strh	r3, [r2, #10]
		p->SM[i].VAL1 = 33464;
    4d94:	81d0      	strh	r0, [r2, #14]
		p->SM[i].VAL2 = 0;
    4d96:	8253      	strh	r3, [r2, #18]
		p->SM[i].VAL3 = 0;
    4d98:	82d3      	strh	r3, [r2, #22]
		p->SM[i].VAL4 = 0;
    4d9a:	8353      	strh	r3, [r2, #26]
		p->SM[i].VAL5 = 0;
    4d9c:	83d3      	strh	r3, [r2, #30]
	p->FCTRL0 = FLEXPWM_FCTRL0_FLVL(15); // logic high = fault
	p->FSTS0 = 0x000F; // clear fault status
	p->FFILT0 = 0;
	p->MCTRL |= FLEXPWM_MCTRL_CLDOK(15);
	for (i=0; i < 4; i++) {
		p->SM[i].CTRL2 = FLEXPWM_SMCTRL2_INDEP | FLEXPWM_SMCTRL2_WAITEN
    4d9e:	808e      	strh	r6, [r1, #4]
			| FLEXPWM_SMCTRL2_DBGEN;
		p->SM[i].CTRL = FLEXPWM_SMCTRL_FULL;
    4da0:	80cc      	strh	r4, [r1, #6]
		p->SM[i].OCTRL = 0;
    4da2:	f8a2 3082 	strh.w	r3, [r2, #130]	; 0x82
		p->SM[i].DTCNT0 = 0;
    4da6:	f8a2 3090 	strh.w	r3, [r2, #144]	; 0x90
		p->SM[i].INIT = 0;
    4daa:	804b      	strh	r3, [r1, #2]
		p->SM[i].VAL0 = 0;
    4dac:	f8a2 306a 	strh.w	r3, [r2, #106]	; 0x6a
		p->SM[i].VAL1 = 33464;
    4db0:	f8a2 006e 	strh.w	r0, [r2, #110]	; 0x6e
		p->SM[i].VAL2 = 0;
    4db4:	f8a2 3072 	strh.w	r3, [r2, #114]	; 0x72
		p->SM[i].VAL3 = 0;
    4db8:	f8a2 3076 	strh.w	r3, [r2, #118]	; 0x76
		p->SM[i].VAL4 = 0;
    4dbc:	f8a2 307a 	strh.w	r3, [r2, #122]	; 0x7a
		p->SM[i].VAL5 = 0;
    4dc0:	f8a2 307e 	strh.w	r3, [r2, #126]	; 0x7e
	p->FCTRL0 = FLEXPWM_FCTRL0_FLVL(15); // logic high = fault
	p->FSTS0 = 0x000F; // clear fault status
	p->FFILT0 = 0;
	p->MCTRL |= FLEXPWM_MCTRL_CLDOK(15);
	for (i=0; i < 4; i++) {
		p->SM[i].CTRL2 = FLEXPWM_SMCTRL2_INDEP | FLEXPWM_SMCTRL2_WAITEN
    4dc4:	f8a1 6064 	strh.w	r6, [r1, #100]	; 0x64
			| FLEXPWM_SMCTRL2_DBGEN;
		p->SM[i].CTRL = FLEXPWM_SMCTRL_FULL;
    4dc8:	f8a1 4066 	strh.w	r4, [r1, #102]	; 0x66
		p->SM[i].OCTRL = 0;
    4dcc:	f8a2 30e2 	strh.w	r3, [r2, #226]	; 0xe2
		p->SM[i].DTCNT0 = 0;
    4dd0:	f8a2 30f0 	strh.w	r3, [r2, #240]	; 0xf0
		p->SM[i].INIT = 0;
    4dd4:	f8a1 3062 	strh.w	r3, [r1, #98]	; 0x62
		p->SM[i].VAL0 = 0;
    4dd8:	f8a2 30ca 	strh.w	r3, [r2, #202]	; 0xca
		p->SM[i].VAL1 = 33464;
    4ddc:	f8a2 00ce 	strh.w	r0, [r2, #206]	; 0xce
		p->SM[i].VAL2 = 0;
    4de0:	f8a2 30d2 	strh.w	r3, [r2, #210]	; 0xd2
		p->SM[i].VAL3 = 0;
    4de4:	f8a2 30d6 	strh.w	r3, [r2, #214]	; 0xd6
		p->SM[i].VAL4 = 0;
    4de8:	f8a2 30da 	strh.w	r3, [r2, #218]	; 0xda
		p->SM[i].VAL5 = 0;
    4dec:	f8a2 30de 	strh.w	r3, [r2, #222]	; 0xde
	p->FCTRL0 = FLEXPWM_FCTRL0_FLVL(15); // logic high = fault
	p->FSTS0 = 0x000F; // clear fault status
	p->FFILT0 = 0;
	p->MCTRL |= FLEXPWM_MCTRL_CLDOK(15);
	for (i=0; i < 4; i++) {
		p->SM[i].CTRL2 = FLEXPWM_SMCTRL2_INDEP | FLEXPWM_SMCTRL2_WAITEN
    4df0:	f8a1 60c4 	strh.w	r6, [r1, #196]	; 0xc4
			| FLEXPWM_SMCTRL2_DBGEN;
		p->SM[i].CTRL = FLEXPWM_SMCTRL_FULL;
    4df4:	f8a1 40c6 	strh.w	r4, [r1, #198]	; 0xc6
		p->SM[i].OCTRL = 0;
    4df8:	f8a2 3142 	strh.w	r3, [r2, #322]	; 0x142
		p->SM[i].DTCNT0 = 0;
    4dfc:	f8a2 3150 	strh.w	r3, [r2, #336]	; 0x150
		p->SM[i].INIT = 0;
    4e00:	f8a1 30c2 	strh.w	r3, [r1, #194]	; 0xc2
		p->SM[i].VAL0 = 0;
    4e04:	f8a2 312a 	strh.w	r3, [r2, #298]	; 0x12a
		p->SM[i].VAL1 = 33464;
    4e08:	f8a2 012e 	strh.w	r0, [r2, #302]	; 0x12e
		p->SM[i].VAL2 = 0;
    4e0c:	f8a2 3132 	strh.w	r3, [r2, #306]	; 0x132
		p->SM[i].VAL3 = 0;
    4e10:	f8a2 3136 	strh.w	r3, [r2, #310]	; 0x136
		p->SM[i].VAL4 = 0;
    4e14:	f8a2 313a 	strh.w	r3, [r2, #314]	; 0x13a
		p->SM[i].VAL5 = 0;
    4e18:	f8a2 313e 	strh.w	r3, [r2, #318]	; 0x13e
	}
	p->MCTRL |= FLEXPWM_MCTRL_LDOK(15);
    4e1c:	f8b2 1188 	ldrh.w	r1, [r2, #392]	; 0x188
    4e20:	b289      	uxth	r1, r1
    4e22:	4329      	orrs	r1, r5
    4e24:	f8a2 1188 	strh.w	r1, [r2, #392]	; 0x188
	p->MCTRL |= FLEXPWM_MCTRL_RUN(15);
    4e28:	f8b2 8188 	ldrh.w	r8, [r2, #392]	; 0x188

void flexpwm_init(IMXRT_FLEXPWM_t *p)
{
	int i;

	p->FCTRL0 = FLEXPWM_FCTRL0_FLVL(15); // logic high = fault
    4e2c:	496c      	ldr	r1, [pc, #432]	; (4fe0 <pwm_init+0x384>)
		p->SM[i].VAL3 = 0;
		p->SM[i].VAL4 = 0;
		p->SM[i].VAL5 = 0;
	}
	p->MCTRL |= FLEXPWM_MCTRL_LDOK(15);
	p->MCTRL |= FLEXPWM_MCTRL_RUN(15);
    4e2e:	fa1f f888 	uxth.w	r8, r8
    4e32:	f448 6870 	orr.w	r8, r8, #3840	; 0xf00
    4e36:	f8a2 8188 	strh.w	r8, [r2, #392]	; 0x188
	p->FCTRL0 = FLEXPWM_FCTRL0_FLVL(15); // logic high = fault
	p->FSTS0 = 0x000F; // clear fault status
	p->FFILT0 = 0;
	p->MCTRL |= FLEXPWM_MCTRL_CLDOK(15);
	for (i=0; i < 4; i++) {
		p->SM[i].CTRL2 = FLEXPWM_SMCTRL2_INDEP | FLEXPWM_SMCTRL2_WAITEN
    4e3a:	f502 4280 	add.w	r2, r2, #16384	; 0x4000

void flexpwm_init(IMXRT_FLEXPWM_t *p)
{
	int i;

	p->FCTRL0 = FLEXPWM_FCTRL0_FLVL(15); // logic high = fault
    4e3e:	f8a1 c18c 	strh.w	ip, [r1, #396]	; 0x18c
	p->FSTS0 = 0x000F; // clear fault status
    4e42:	f8a1 518e 	strh.w	r5, [r1, #398]	; 0x18e
	p->FFILT0 = 0;
	p->MCTRL |= FLEXPWM_MCTRL_CLDOK(15);
	for (i=0; i < 4; i++) {
		p->SM[i].CTRL2 = FLEXPWM_SMCTRL2_INDEP | FLEXPWM_SMCTRL2_WAITEN
    4e46:	3260      	adds	r2, #96	; 0x60
{
	int i;

	p->FCTRL0 = FLEXPWM_FCTRL0_FLVL(15); // logic high = fault
	p->FSTS0 = 0x000F; // clear fault status
	p->FFILT0 = 0;
    4e48:	f8a1 3190 	strh.w	r3, [r1, #400]	; 0x190
	p->MCTRL |= FLEXPWM_MCTRL_CLDOK(15);
    4e4c:	f8b1 8188 	ldrh.w	r8, [r1, #392]	; 0x188
    4e50:	fa1f f888 	uxth.w	r8, r8
    4e54:	f048 08f0 	orr.w	r8, r8, #240	; 0xf0
    4e58:	f8a1 8188 	strh.w	r8, [r1, #392]	; 0x188
	for (i=0; i < 4; i++) {
		p->SM[i].CTRL2 = FLEXPWM_SMCTRL2_INDEP | FLEXPWM_SMCTRL2_WAITEN
    4e5c:	808e      	strh	r6, [r1, #4]
			| FLEXPWM_SMCTRL2_DBGEN;
		p->SM[i].CTRL = FLEXPWM_SMCTRL_FULL;
    4e5e:	80cc      	strh	r4, [r1, #6]
		p->SM[i].OCTRL = 0;
    4e60:	844b      	strh	r3, [r1, #34]	; 0x22
		p->SM[i].DTCNT0 = 0;
    4e62:	860b      	strh	r3, [r1, #48]	; 0x30
		p->SM[i].INIT = 0;
    4e64:	804b      	strh	r3, [r1, #2]
		p->SM[i].VAL0 = 0;
    4e66:	814b      	strh	r3, [r1, #10]
		p->SM[i].VAL1 = 33464;
    4e68:	81c8      	strh	r0, [r1, #14]
		p->SM[i].VAL2 = 0;
    4e6a:	824b      	strh	r3, [r1, #18]
		p->SM[i].VAL3 = 0;
    4e6c:	82cb      	strh	r3, [r1, #22]
		p->SM[i].VAL4 = 0;
    4e6e:	834b      	strh	r3, [r1, #26]
		p->SM[i].VAL5 = 0;
    4e70:	83cb      	strh	r3, [r1, #30]
	p->FCTRL0 = FLEXPWM_FCTRL0_FLVL(15); // logic high = fault
	p->FSTS0 = 0x000F; // clear fault status
	p->FFILT0 = 0;
	p->MCTRL |= FLEXPWM_MCTRL_CLDOK(15);
	for (i=0; i < 4; i++) {
		p->SM[i].CTRL2 = FLEXPWM_SMCTRL2_INDEP | FLEXPWM_SMCTRL2_WAITEN
    4e72:	8096      	strh	r6, [r2, #4]
			| FLEXPWM_SMCTRL2_DBGEN;
		p->SM[i].CTRL = FLEXPWM_SMCTRL_FULL;
    4e74:	80d4      	strh	r4, [r2, #6]
		p->SM[i].OCTRL = 0;
    4e76:	f8a1 3082 	strh.w	r3, [r1, #130]	; 0x82
		p->SM[i].DTCNT0 = 0;
    4e7a:	f8a1 3090 	strh.w	r3, [r1, #144]	; 0x90
		p->SM[i].INIT = 0;
    4e7e:	8053      	strh	r3, [r2, #2]
		p->SM[i].VAL0 = 0;
    4e80:	f8a1 306a 	strh.w	r3, [r1, #106]	; 0x6a
		p->SM[i].VAL1 = 33464;
    4e84:	f8a1 006e 	strh.w	r0, [r1, #110]	; 0x6e
		p->SM[i].VAL2 = 0;
    4e88:	f8a1 3072 	strh.w	r3, [r1, #114]	; 0x72
		p->SM[i].VAL3 = 0;
    4e8c:	f8a1 3076 	strh.w	r3, [r1, #118]	; 0x76
		p->SM[i].VAL4 = 0;
    4e90:	f8a1 307a 	strh.w	r3, [r1, #122]	; 0x7a
		p->SM[i].VAL5 = 0;
    4e94:	f8a1 307e 	strh.w	r3, [r1, #126]	; 0x7e
	p->FCTRL0 = FLEXPWM_FCTRL0_FLVL(15); // logic high = fault
	p->FSTS0 = 0x000F; // clear fault status
	p->FFILT0 = 0;
	p->MCTRL |= FLEXPWM_MCTRL_CLDOK(15);
	for (i=0; i < 4; i++) {
		p->SM[i].CTRL2 = FLEXPWM_SMCTRL2_INDEP | FLEXPWM_SMCTRL2_WAITEN
    4e98:	f8a2 6064 	strh.w	r6, [r2, #100]	; 0x64
			| FLEXPWM_SMCTRL2_DBGEN;
		p->SM[i].CTRL = FLEXPWM_SMCTRL_FULL;
    4e9c:	f8a2 4066 	strh.w	r4, [r2, #102]	; 0x66
		p->SM[i].OCTRL = 0;
    4ea0:	f8a1 30e2 	strh.w	r3, [r1, #226]	; 0xe2
		p->SM[i].DTCNT0 = 0;
    4ea4:	f8a1 30f0 	strh.w	r3, [r1, #240]	; 0xf0
		p->SM[i].INIT = 0;
    4ea8:	f8a2 3062 	strh.w	r3, [r2, #98]	; 0x62
		p->SM[i].VAL0 = 0;
    4eac:	f8a1 30ca 	strh.w	r3, [r1, #202]	; 0xca
		p->SM[i].VAL1 = 33464;
    4eb0:	f8a1 00ce 	strh.w	r0, [r1, #206]	; 0xce
		p->SM[i].VAL2 = 0;
    4eb4:	f8a1 30d2 	strh.w	r3, [r1, #210]	; 0xd2
		p->SM[i].VAL3 = 0;
    4eb8:	f8a1 30d6 	strh.w	r3, [r1, #214]	; 0xd6
		p->SM[i].VAL4 = 0;
    4ebc:	f8a1 30da 	strh.w	r3, [r1, #218]	; 0xda
		p->SM[i].VAL5 = 0;
    4ec0:	f8a1 30de 	strh.w	r3, [r1, #222]	; 0xde
	p->FCTRL0 = FLEXPWM_FCTRL0_FLVL(15); // logic high = fault
	p->FSTS0 = 0x000F; // clear fault status
	p->FFILT0 = 0;
	p->MCTRL |= FLEXPWM_MCTRL_CLDOK(15);
	for (i=0; i < 4; i++) {
		p->SM[i].CTRL2 = FLEXPWM_SMCTRL2_INDEP | FLEXPWM_SMCTRL2_WAITEN
    4ec4:	f8a2 60c4 	strh.w	r6, [r2, #196]	; 0xc4
			| FLEXPWM_SMCTRL2_DBGEN;
		p->SM[i].CTRL = FLEXPWM_SMCTRL_FULL;
    4ec8:	f8a2 40c6 	strh.w	r4, [r2, #198]	; 0xc6
		p->SM[i].OCTRL = 0;
    4ecc:	f8a1 3142 	strh.w	r3, [r1, #322]	; 0x142
		p->SM[i].DTCNT0 = 0;
    4ed0:	f8a1 3150 	strh.w	r3, [r1, #336]	; 0x150
		p->SM[i].INIT = 0;
    4ed4:	f8a2 30c2 	strh.w	r3, [r2, #194]	; 0xc2
		p->SM[i].VAL0 = 0;
    4ed8:	f8a1 312a 	strh.w	r3, [r1, #298]	; 0x12a
		p->SM[i].VAL1 = 33464;
    4edc:	f8a1 012e 	strh.w	r0, [r1, #302]	; 0x12e
		p->SM[i].VAL2 = 0;
    4ee0:	f8a1 3132 	strh.w	r3, [r1, #306]	; 0x132
		p->SM[i].VAL3 = 0;
    4ee4:	f8a1 3136 	strh.w	r3, [r1, #310]	; 0x136
		p->SM[i].VAL4 = 0;
    4ee8:	f8a1 313a 	strh.w	r3, [r1, #314]	; 0x13a
		p->SM[i].VAL5 = 0;
    4eec:	f8a1 313e 	strh.w	r3, [r1, #318]	; 0x13e
	}
	p->MCTRL |= FLEXPWM_MCTRL_LDOK(15);
    4ef0:	f8b1 2188 	ldrh.w	r2, [r1, #392]	; 0x188
    4ef4:	b292      	uxth	r2, r2
    4ef6:	432a      	orrs	r2, r5
    4ef8:	f8a1 2188 	strh.w	r2, [r1, #392]	; 0x188
	p->MCTRL |= FLEXPWM_MCTRL_RUN(15);
    4efc:	f8b1 8188 	ldrh.w	r8, [r1, #392]	; 0x188

void flexpwm_init(IMXRT_FLEXPWM_t *p)
{
	int i;

	p->FCTRL0 = FLEXPWM_FCTRL0_FLVL(15); // logic high = fault
    4f00:	4a38      	ldr	r2, [pc, #224]	; (4fe4 <pwm_init+0x388>)
		p->SM[i].VAL3 = 0;
		p->SM[i].VAL4 = 0;
		p->SM[i].VAL5 = 0;
	}
	p->MCTRL |= FLEXPWM_MCTRL_LDOK(15);
	p->MCTRL |= FLEXPWM_MCTRL_RUN(15);
    4f02:	fa1f f888 	uxth.w	r8, r8
    4f06:	f448 6870 	orr.w	r8, r8, #3840	; 0xf00
    4f0a:	f8a1 8188 	strh.w	r8, [r1, #392]	; 0x188
	p->FCTRL0 = FLEXPWM_FCTRL0_FLVL(15); // logic high = fault
	p->FSTS0 = 0x000F; // clear fault status
	p->FFILT0 = 0;
	p->MCTRL |= FLEXPWM_MCTRL_CLDOK(15);
	for (i=0; i < 4; i++) {
		p->SM[i].CTRL2 = FLEXPWM_SMCTRL2_INDEP | FLEXPWM_SMCTRL2_WAITEN
    4f0e:	f501 4180 	add.w	r1, r1, #16384	; 0x4000

void flexpwm_init(IMXRT_FLEXPWM_t *p)
{
	int i;

	p->FCTRL0 = FLEXPWM_FCTRL0_FLVL(15); // logic high = fault
    4f12:	f8a2 c18c 	strh.w	ip, [r2, #396]	; 0x18c
		p->CH[i].CSCTRL = TMR_CSCTRL_CL1(1) | TMR_CSCTRL_ALT_LOAD;
		// COMP must be less than LOAD - otherwise output is always low
		p->CH[i].LOAD = 24000;   // low time  (65537 - x) - 
		p->CH[i].COMP1 = 0;  // high time (0 = always low, max = LOAD-1)
		p->CH[i].CMPLD1 = 0;
		p->CH[i].CTRL = TMR_CTRL_CM(1) | TMR_CTRL_PCS(8) |
    4f16:	f243 0c26 	movw	ip, #12326	; 0x3026
void flexpwm_init(IMXRT_FLEXPWM_t *p)
{
	int i;

	p->FCTRL0 = FLEXPWM_FCTRL0_FLVL(15); // logic high = fault
	p->FSTS0 = 0x000F; // clear fault status
    4f1a:	f8a2 518e 	strh.w	r5, [r2, #398]	; 0x18e
	p->FFILT0 = 0;
	p->MCTRL |= FLEXPWM_MCTRL_CLDOK(15);
	for (i=0; i < 4; i++) {
		p->SM[i].CTRL2 = FLEXPWM_SMCTRL2_INDEP | FLEXPWM_SMCTRL2_WAITEN
    4f1e:	3160      	adds	r1, #96	; 0x60
{
	int i;

	p->FCTRL0 = FLEXPWM_FCTRL0_FLVL(15); // logic high = fault
	p->FSTS0 = 0x000F; // clear fault status
	p->FFILT0 = 0;
    4f20:	f8a2 3190 	strh.w	r3, [r2, #400]	; 0x190
	p->MCTRL |= FLEXPWM_MCTRL_CLDOK(15);
    4f24:	f8b2 8188 	ldrh.w	r8, [r2, #392]	; 0x188
    4f28:	fa1f f888 	uxth.w	r8, r8
    4f2c:	f048 08f0 	orr.w	r8, r8, #240	; 0xf0
    4f30:	f8a2 8188 	strh.w	r8, [r2, #392]	; 0x188
	for (i=0; i < 4; i++) {
		p->SM[i].CTRL2 = FLEXPWM_SMCTRL2_INDEP | FLEXPWM_SMCTRL2_WAITEN
    4f34:	8096      	strh	r6, [r2, #4]
			| FLEXPWM_SMCTRL2_DBGEN;
		p->SM[i].CTRL = FLEXPWM_SMCTRL_FULL;
    4f36:	80d4      	strh	r4, [r2, #6]
		p->SM[i].OCTRL = 0;
    4f38:	8453      	strh	r3, [r2, #34]	; 0x22
		p->SM[i].DTCNT0 = 0;
    4f3a:	8613      	strh	r3, [r2, #48]	; 0x30
		p->SM[i].INIT = 0;
    4f3c:	8053      	strh	r3, [r2, #2]
		p->SM[i].VAL0 = 0;
    4f3e:	8153      	strh	r3, [r2, #10]
		p->SM[i].VAL1 = 33464;
    4f40:	81d0      	strh	r0, [r2, #14]
		p->SM[i].VAL2 = 0;
    4f42:	8253      	strh	r3, [r2, #18]
		p->SM[i].VAL3 = 0;
    4f44:	82d3      	strh	r3, [r2, #22]
		p->SM[i].VAL4 = 0;
    4f46:	8353      	strh	r3, [r2, #26]
		p->SM[i].VAL5 = 0;
    4f48:	83d3      	strh	r3, [r2, #30]
	p->FCTRL0 = FLEXPWM_FCTRL0_FLVL(15); // logic high = fault
	p->FSTS0 = 0x000F; // clear fault status
	p->FFILT0 = 0;
	p->MCTRL |= FLEXPWM_MCTRL_CLDOK(15);
	for (i=0; i < 4; i++) {
		p->SM[i].CTRL2 = FLEXPWM_SMCTRL2_INDEP | FLEXPWM_SMCTRL2_WAITEN
    4f4a:	808e      	strh	r6, [r1, #4]
			| FLEXPWM_SMCTRL2_DBGEN;
		p->SM[i].CTRL = FLEXPWM_SMCTRL_FULL;
    4f4c:	80cc      	strh	r4, [r1, #6]
		p->SM[i].OCTRL = 0;
    4f4e:	f8a2 3082 	strh.w	r3, [r2, #130]	; 0x82
		p->SM[i].DTCNT0 = 0;
    4f52:	f8a2 3090 	strh.w	r3, [r2, #144]	; 0x90
		p->SM[i].INIT = 0;
    4f56:	804b      	strh	r3, [r1, #2]
		p->SM[i].VAL0 = 0;
    4f58:	f8a2 306a 	strh.w	r3, [r2, #106]	; 0x6a
		p->SM[i].VAL1 = 33464;
    4f5c:	f8a2 006e 	strh.w	r0, [r2, #110]	; 0x6e
		p->SM[i].VAL2 = 0;
    4f60:	f8a2 3072 	strh.w	r3, [r2, #114]	; 0x72
		p->SM[i].VAL3 = 0;
    4f64:	f8a2 3076 	strh.w	r3, [r2, #118]	; 0x76
		p->SM[i].VAL4 = 0;
    4f68:	f8a2 307a 	strh.w	r3, [r2, #122]	; 0x7a
		p->SM[i].VAL5 = 0;
    4f6c:	f8a2 307e 	strh.w	r3, [r2, #126]	; 0x7e
	p->FCTRL0 = FLEXPWM_FCTRL0_FLVL(15); // logic high = fault
	p->FSTS0 = 0x000F; // clear fault status
	p->FFILT0 = 0;
	p->MCTRL |= FLEXPWM_MCTRL_CLDOK(15);
	for (i=0; i < 4; i++) {
		p->SM[i].CTRL2 = FLEXPWM_SMCTRL2_INDEP | FLEXPWM_SMCTRL2_WAITEN
    4f70:	f8a1 6064 	strh.w	r6, [r1, #100]	; 0x64
			| FLEXPWM_SMCTRL2_DBGEN;
		p->SM[i].CTRL = FLEXPWM_SMCTRL_FULL;
    4f74:	f8a1 4066 	strh.w	r4, [r1, #102]	; 0x66
		p->SM[i].OCTRL = 0;
    4f78:	f8a2 30e2 	strh.w	r3, [r2, #226]	; 0xe2
		p->SM[i].DTCNT0 = 0;
    4f7c:	f8a2 30f0 	strh.w	r3, [r2, #240]	; 0xf0
		p->SM[i].INIT = 0;
    4f80:	f8a1 3062 	strh.w	r3, [r1, #98]	; 0x62
		p->SM[i].VAL0 = 0;
    4f84:	f8a2 30ca 	strh.w	r3, [r2, #202]	; 0xca
		p->SM[i].VAL1 = 33464;
    4f88:	f8a2 00ce 	strh.w	r0, [r2, #206]	; 0xce
		p->SM[i].VAL2 = 0;
    4f8c:	f8a2 30d2 	strh.w	r3, [r2, #210]	; 0xd2
		p->SM[i].VAL3 = 0;
    4f90:	f8a2 30d6 	strh.w	r3, [r2, #214]	; 0xd6
		p->SM[i].VAL4 = 0;
    4f94:	f8a2 30da 	strh.w	r3, [r2, #218]	; 0xda
		p->SM[i].VAL5 = 0;
    4f98:	f8a2 30de 	strh.w	r3, [r2, #222]	; 0xde
	p->FCTRL0 = FLEXPWM_FCTRL0_FLVL(15); // logic high = fault
	p->FSTS0 = 0x000F; // clear fault status
	p->FFILT0 = 0;
	p->MCTRL |= FLEXPWM_MCTRL_CLDOK(15);
	for (i=0; i < 4; i++) {
		p->SM[i].CTRL2 = FLEXPWM_SMCTRL2_INDEP | FLEXPWM_SMCTRL2_WAITEN
    4f9c:	f8a1 60c4 	strh.w	r6, [r1, #196]	; 0xc4
			| FLEXPWM_SMCTRL2_DBGEN;
		p->SM[i].CTRL = FLEXPWM_SMCTRL_FULL;
    4fa0:	f8a1 40c6 	strh.w	r4, [r1, #198]	; 0xc6
		p->SM[i].OCTRL = 0;
    4fa4:	f8a2 3142 	strh.w	r3, [r2, #322]	; 0x142
		p->SM[i].DTCNT0 = 0;
    4fa8:	f8a2 3150 	strh.w	r3, [r2, #336]	; 0x150
		p->SM[i].INIT = 0;
    4fac:	f8a1 30c2 	strh.w	r3, [r1, #194]	; 0xc2
		p->SM[i].VAL0 = 0;
    4fb0:	f8a2 312a 	strh.w	r3, [r2, #298]	; 0x12a
		p->SM[i].VAL1 = 33464;
    4fb4:	f8a2 012e 	strh.w	r0, [r2, #302]	; 0x12e
		p->SM[i].VAL2 = 0;
    4fb8:	f8a2 3132 	strh.w	r3, [r2, #306]	; 0x132
		p->SM[i].VAL3 = 0;
    4fbc:	f8a2 3136 	strh.w	r3, [r2, #310]	; 0x136
		p->SM[i].VAL4 = 0;
    4fc0:	f8a2 313a 	strh.w	r3, [r2, #314]	; 0x13a
		p->SM[i].VAL5 = 0;
    4fc4:	f8a2 313e 	strh.w	r3, [r2, #318]	; 0x13e
	}
	p->MCTRL |= FLEXPWM_MCTRL_LDOK(15);
    4fc8:	f8b2 1188 	ldrh.w	r1, [r2, #392]	; 0x188
    4fcc:	e00e      	b.n	4fec <pwm_init+0x390>
    4fce:	bf00      	nop
    4fd0:	400fc000 	.word	0x400fc000
    4fd4:	403dc000 	.word	0x403dc000
    4fd8:	403dc060 	.word	0x403dc060
    4fdc:	403e0000 	.word	0x403e0000
    4fe0:	403e4000 	.word	0x403e4000
    4fe4:	403e8000 	.word	0x403e8000
    4fe8:	fc030000 	.word	0xfc030000
void quadtimer_init(IMXRT_TMR_t *p)
{
	int i;

	for (i=0; i < 4; i++) {
		p->CH[i].CTRL = 0; // stop timer
    4fec:	4c57      	ldr	r4, [pc, #348]	; (514c <pwm_init+0x4f0>)
		p->SM[i].VAL2 = 0;
		p->SM[i].VAL3 = 0;
		p->SM[i].VAL4 = 0;
		p->SM[i].VAL5 = 0;
	}
	p->MCTRL |= FLEXPWM_MCTRL_LDOK(15);
    4fee:	b289      	uxth	r1, r1
void quadtimer_init(IMXRT_TMR_t *p)
{
	int i;

	for (i=0; i < 4; i++) {
		p->CH[i].CTRL = 0; // stop timer
    4ff0:	4857      	ldr	r0, [pc, #348]	; (5150 <pwm_init+0x4f4>)
		p->CH[i].CNTR = 0;
		p->CH[i].SCTRL = TMR_SCTRL_OEN | TMR_SCTRL_OPS | TMR_SCTRL_VAL | TMR_SCTRL_FORCE;
		p->CH[i].CSCTRL = TMR_CSCTRL_CL1(1) | TMR_CSCTRL_ALT_LOAD;
		// COMP must be less than LOAD - otherwise output is always low
		p->CH[i].LOAD = 24000;   // low time  (65537 - x) - 
    4ff2:	f8df 816c 	ldr.w	r8, [pc, #364]	; 5160 <pwm_init+0x504>
		p->SM[i].VAL2 = 0;
		p->SM[i].VAL3 = 0;
		p->SM[i].VAL4 = 0;
		p->SM[i].VAL5 = 0;
	}
	p->MCTRL |= FLEXPWM_MCTRL_LDOK(15);
    4ff6:	4329      	orrs	r1, r5
		p->CH[i].CTRL = 0; // stop timer
		p->CH[i].CNTR = 0;
		p->CH[i].SCTRL = TMR_SCTRL_OEN | TMR_SCTRL_OPS | TMR_SCTRL_VAL | TMR_SCTRL_FORCE;
		p->CH[i].CSCTRL = TMR_CSCTRL_CL1(1) | TMR_CSCTRL_ALT_LOAD;
		// COMP must be less than LOAD - otherwise output is always low
		p->CH[i].LOAD = 24000;   // low time  (65537 - x) - 
    4ff8:	4e56      	ldr	r6, [pc, #344]	; (5154 <pwm_init+0x4f8>)
		p->SM[i].VAL2 = 0;
		p->SM[i].VAL3 = 0;
		p->SM[i].VAL4 = 0;
		p->SM[i].VAL5 = 0;
	}
	p->MCTRL |= FLEXPWM_MCTRL_LDOK(15);
    4ffa:	f8a2 1188 	strh.w	r1, [r2, #392]	; 0x188
	p->MCTRL |= FLEXPWM_MCTRL_RUN(15);
    4ffe:	f8b2 9188 	ldrh.w	r9, [r2, #392]	; 0x188
void quadtimer_init(IMXRT_TMR_t *p)
{
	int i;

	for (i=0; i < 4; i++) {
		p->CH[i].CTRL = 0; // stop timer
    5002:	4955      	ldr	r1, [pc, #340]	; (5158 <pwm_init+0x4fc>)
		p->SM[i].VAL3 = 0;
		p->SM[i].VAL4 = 0;
		p->SM[i].VAL5 = 0;
	}
	p->MCTRL |= FLEXPWM_MCTRL_LDOK(15);
	p->MCTRL |= FLEXPWM_MCTRL_RUN(15);
    5004:	fa1f f989 	uxth.w	r9, r9
    5008:	f449 6970 	orr.w	r9, r9, #3840	; 0xf00
    500c:	f8a2 9188 	strh.w	r9, [r2, #392]	; 0x188
		p->CH[i].CTRL = 0; // stop timer
		p->CH[i].CNTR = 0;
		p->CH[i].SCTRL = TMR_SCTRL_OEN | TMR_SCTRL_OPS | TMR_SCTRL_VAL | TMR_SCTRL_FORCE;
		p->CH[i].CSCTRL = TMR_CSCTRL_CL1(1) | TMR_CSCTRL_ALT_LOAD;
		// COMP must be less than LOAD - otherwise output is always low
		p->CH[i].LOAD = 24000;   // low time  (65537 - x) - 
    5010:	4a52      	ldr	r2, [pc, #328]	; (515c <pwm_init+0x500>)
void quadtimer_init(IMXRT_TMR_t *p)
{
	int i;

	for (i=0; i < 4; i++) {
		p->CH[i].CTRL = 0; // stop timer
    5012:	81a3      	strh	r3, [r4, #12]
		p->CH[i].CNTR = 0;
    5014:	8163      	strh	r3, [r4, #10]
		p->CH[i].SCTRL = TMR_SCTRL_OEN | TMR_SCTRL_OPS | TMR_SCTRL_VAL | TMR_SCTRL_FORCE;
    5016:	81e5      	strh	r5, [r4, #14]
		p->CH[i].CSCTRL = TMR_CSCTRL_CL1(1) | TMR_CSCTRL_ALT_LOAD;
    5018:	f8a4 e014 	strh.w	lr, [r4, #20]
		// COMP must be less than LOAD - otherwise output is always low
		p->CH[i].LOAD = 24000;   // low time  (65537 - x) - 
    501c:	80e7      	strh	r7, [r4, #6]
		p->CH[i].COMP1 = 0;  // high time (0 = always low, max = LOAD-1)
    501e:	8023      	strh	r3, [r4, #0]
		p->CH[i].CMPLD1 = 0;
    5020:	8223      	strh	r3, [r4, #16]
		p->CH[i].CTRL = TMR_CTRL_CM(1) | TMR_CTRL_PCS(8) |
    5022:	f8a4 c00c 	strh.w	ip, [r4, #12]
void quadtimer_init(IMXRT_TMR_t *p)
{
	int i;

	for (i=0; i < 4; i++) {
		p->CH[i].CTRL = 0; // stop timer
    5026:	85a3      	strh	r3, [r4, #44]	; 0x2c
		p->CH[i].CNTR = 0;
    5028:	8563      	strh	r3, [r4, #42]	; 0x2a
		p->CH[i].SCTRL = TMR_SCTRL_OEN | TMR_SCTRL_OPS | TMR_SCTRL_VAL | TMR_SCTRL_FORCE;
    502a:	85e5      	strh	r5, [r4, #46]	; 0x2e
		p->CH[i].CSCTRL = TMR_CSCTRL_CL1(1) | TMR_CSCTRL_ALT_LOAD;
    502c:	f8a4 e034 	strh.w	lr, [r4, #52]	; 0x34
		// COMP must be less than LOAD - otherwise output is always low
		p->CH[i].LOAD = 24000;   // low time  (65537 - x) - 
    5030:	f8a8 7006 	strh.w	r7, [r8, #6]
		p->CH[i].COMP1 = 0;  // high time (0 = always low, max = LOAD-1)
    5034:	f8a8 3000 	strh.w	r3, [r8]
		p->CH[i].CMPLD1 = 0;
    5038:	8623      	strh	r3, [r4, #48]	; 0x30
		p->CH[i].CTRL = TMR_CTRL_CM(1) | TMR_CTRL_PCS(8) |
    503a:	f8a4 c02c 	strh.w	ip, [r4, #44]	; 0x2c
void quadtimer_init(IMXRT_TMR_t *p)
{
	int i;

	for (i=0; i < 4; i++) {
		p->CH[i].CTRL = 0; // stop timer
    503e:	f8a4 304c 	strh.w	r3, [r4, #76]	; 0x4c
		p->CH[i].CNTR = 0;
    5042:	f8a4 304a 	strh.w	r3, [r4, #74]	; 0x4a
		p->CH[i].SCTRL = TMR_SCTRL_OEN | TMR_SCTRL_OPS | TMR_SCTRL_VAL | TMR_SCTRL_FORCE;
    5046:	f8a4 504e 	strh.w	r5, [r4, #78]	; 0x4e
		p->CH[i].CSCTRL = TMR_CSCTRL_CL1(1) | TMR_CSCTRL_ALT_LOAD;
    504a:	f8a4 e054 	strh.w	lr, [r4, #84]	; 0x54
		// COMP must be less than LOAD - otherwise output is always low
		p->CH[i].LOAD = 24000;   // low time  (65537 - x) - 
    504e:	f8a8 7026 	strh.w	r7, [r8, #38]	; 0x26
		p->CH[i].COMP1 = 0;  // high time (0 = always low, max = LOAD-1)
    5052:	f8a8 3020 	strh.w	r3, [r8, #32]
		p->CH[i].CMPLD1 = 0;
    5056:	f8a4 3050 	strh.w	r3, [r4, #80]	; 0x50
		p->CH[i].CTRL = TMR_CTRL_CM(1) | TMR_CTRL_PCS(8) |
    505a:	f8a4 c04c 	strh.w	ip, [r4, #76]	; 0x4c
void quadtimer_init(IMXRT_TMR_t *p)
{
	int i;

	for (i=0; i < 4; i++) {
		p->CH[i].CTRL = 0; // stop timer
    505e:	f8a4 306c 	strh.w	r3, [r4, #108]	; 0x6c
		p->CH[i].CNTR = 0;
    5062:	f8a4 306a 	strh.w	r3, [r4, #106]	; 0x6a
		p->CH[i].SCTRL = TMR_SCTRL_OEN | TMR_SCTRL_OPS | TMR_SCTRL_VAL | TMR_SCTRL_FORCE;
    5066:	f8a4 506e 	strh.w	r5, [r4, #110]	; 0x6e
		p->CH[i].CSCTRL = TMR_CSCTRL_CL1(1) | TMR_CSCTRL_ALT_LOAD;
    506a:	f8a4 e074 	strh.w	lr, [r4, #116]	; 0x74
		// COMP must be less than LOAD - otherwise output is always low
		p->CH[i].LOAD = 24000;   // low time  (65537 - x) - 
    506e:	f8a8 7046 	strh.w	r7, [r8, #70]	; 0x46
		p->CH[i].COMP1 = 0;  // high time (0 = always low, max = LOAD-1)
    5072:	f8a8 3040 	strh.w	r3, [r8, #64]	; 0x40
		p->CH[i].CMPLD1 = 0;
    5076:	f8a4 3070 	strh.w	r3, [r4, #112]	; 0x70
		p->CH[i].CTRL = TMR_CTRL_CM(1) | TMR_CTRL_PCS(8) |
    507a:	f8a4 c06c 	strh.w	ip, [r4, #108]	; 0x6c
void quadtimer_init(IMXRT_TMR_t *p)
{
	int i;

	for (i=0; i < 4; i++) {
		p->CH[i].CTRL = 0; // stop timer
    507e:	8183      	strh	r3, [r0, #12]
		p->CH[i].CNTR = 0;
    5080:	8143      	strh	r3, [r0, #10]
		p->CH[i].SCTRL = TMR_SCTRL_OEN | TMR_SCTRL_OPS | TMR_SCTRL_VAL | TMR_SCTRL_FORCE;
    5082:	81c5      	strh	r5, [r0, #14]
		p->CH[i].CSCTRL = TMR_CSCTRL_CL1(1) | TMR_CSCTRL_ALT_LOAD;
    5084:	f8a0 e014 	strh.w	lr, [r0, #20]
		// COMP must be less than LOAD - otherwise output is always low
		p->CH[i].LOAD = 24000;   // low time  (65537 - x) - 
    5088:	80c7      	strh	r7, [r0, #6]
		p->CH[i].COMP1 = 0;  // high time (0 = always low, max = LOAD-1)
    508a:	8003      	strh	r3, [r0, #0]
		p->CH[i].CMPLD1 = 0;
    508c:	8203      	strh	r3, [r0, #16]
		p->CH[i].CTRL = TMR_CTRL_CM(1) | TMR_CTRL_PCS(8) |
    508e:	f8a0 c00c 	strh.w	ip, [r0, #12]
void quadtimer_init(IMXRT_TMR_t *p)
{
	int i;

	for (i=0; i < 4; i++) {
		p->CH[i].CTRL = 0; // stop timer
    5092:	8583      	strh	r3, [r0, #44]	; 0x2c
		p->CH[i].CNTR = 0;
    5094:	8543      	strh	r3, [r0, #42]	; 0x2a
		p->CH[i].SCTRL = TMR_SCTRL_OEN | TMR_SCTRL_OPS | TMR_SCTRL_VAL | TMR_SCTRL_FORCE;
    5096:	85c5      	strh	r5, [r0, #46]	; 0x2e
		p->CH[i].CSCTRL = TMR_CSCTRL_CL1(1) | TMR_CSCTRL_ALT_LOAD;
    5098:	f8a0 e034 	strh.w	lr, [r0, #52]	; 0x34
		// COMP must be less than LOAD - otherwise output is always low
		p->CH[i].LOAD = 24000;   // low time  (65537 - x) - 
    509c:	80f7      	strh	r7, [r6, #6]
		p->CH[i].COMP1 = 0;  // high time (0 = always low, max = LOAD-1)
    509e:	8033      	strh	r3, [r6, #0]
		p->CH[i].CMPLD1 = 0;
    50a0:	8603      	strh	r3, [r0, #48]	; 0x30
		p->CH[i].CTRL = TMR_CTRL_CM(1) | TMR_CTRL_PCS(8) |
    50a2:	f8a0 c02c 	strh.w	ip, [r0, #44]	; 0x2c
void quadtimer_init(IMXRT_TMR_t *p)
{
	int i;

	for (i=0; i < 4; i++) {
		p->CH[i].CTRL = 0; // stop timer
    50a6:	f8a0 304c 	strh.w	r3, [r0, #76]	; 0x4c
		p->CH[i].CNTR = 0;
    50aa:	f8a0 304a 	strh.w	r3, [r0, #74]	; 0x4a
		p->CH[i].SCTRL = TMR_SCTRL_OEN | TMR_SCTRL_OPS | TMR_SCTRL_VAL | TMR_SCTRL_FORCE;
    50ae:	f8a0 504e 	strh.w	r5, [r0, #78]	; 0x4e
		p->CH[i].CSCTRL = TMR_CSCTRL_CL1(1) | TMR_CSCTRL_ALT_LOAD;
    50b2:	f8a0 e054 	strh.w	lr, [r0, #84]	; 0x54
		// COMP must be less than LOAD - otherwise output is always low
		p->CH[i].LOAD = 24000;   // low time  (65537 - x) - 
    50b6:	84f7      	strh	r7, [r6, #38]	; 0x26
		p->CH[i].COMP1 = 0;  // high time (0 = always low, max = LOAD-1)
    50b8:	8433      	strh	r3, [r6, #32]
		p->CH[i].CMPLD1 = 0;
    50ba:	f8a0 3050 	strh.w	r3, [r0, #80]	; 0x50
		p->CH[i].CTRL = TMR_CTRL_CM(1) | TMR_CTRL_PCS(8) |
    50be:	f8a0 c04c 	strh.w	ip, [r0, #76]	; 0x4c
void quadtimer_init(IMXRT_TMR_t *p)
{
	int i;

	for (i=0; i < 4; i++) {
		p->CH[i].CTRL = 0; // stop timer
    50c2:	f8a0 306c 	strh.w	r3, [r0, #108]	; 0x6c
		p->CH[i].CNTR = 0;
    50c6:	f8a0 306a 	strh.w	r3, [r0, #106]	; 0x6a
		p->CH[i].SCTRL = TMR_SCTRL_OEN | TMR_SCTRL_OPS | TMR_SCTRL_VAL | TMR_SCTRL_FORCE;
    50ca:	f8a0 506e 	strh.w	r5, [r0, #110]	; 0x6e
		p->CH[i].CSCTRL = TMR_CSCTRL_CL1(1) | TMR_CSCTRL_ALT_LOAD;
    50ce:	f8a0 e074 	strh.w	lr, [r0, #116]	; 0x74
		// COMP must be less than LOAD - otherwise output is always low
		p->CH[i].LOAD = 24000;   // low time  (65537 - x) - 
    50d2:	f8a6 7046 	strh.w	r7, [r6, #70]	; 0x46
		p->CH[i].COMP1 = 0;  // high time (0 = always low, max = LOAD-1)
    50d6:	f8a6 3040 	strh.w	r3, [r6, #64]	; 0x40
		p->CH[i].CMPLD1 = 0;
    50da:	f8a0 3070 	strh.w	r3, [r0, #112]	; 0x70
		p->CH[i].CTRL = TMR_CTRL_CM(1) | TMR_CTRL_PCS(8) |
    50de:	f8a0 c06c 	strh.w	ip, [r0, #108]	; 0x6c
void quadtimer_init(IMXRT_TMR_t *p)
{
	int i;

	for (i=0; i < 4; i++) {
		p->CH[i].CTRL = 0; // stop timer
    50e2:	818b      	strh	r3, [r1, #12]
		p->CH[i].CNTR = 0;
    50e4:	814b      	strh	r3, [r1, #10]
		p->CH[i].SCTRL = TMR_SCTRL_OEN | TMR_SCTRL_OPS | TMR_SCTRL_VAL | TMR_SCTRL_FORCE;
    50e6:	81cd      	strh	r5, [r1, #14]
		p->CH[i].CSCTRL = TMR_CSCTRL_CL1(1) | TMR_CSCTRL_ALT_LOAD;
    50e8:	f8a1 e014 	strh.w	lr, [r1, #20]
		// COMP must be less than LOAD - otherwise output is always low
		p->CH[i].LOAD = 24000;   // low time  (65537 - x) - 
    50ec:	80cf      	strh	r7, [r1, #6]
		p->CH[i].COMP1 = 0;  // high time (0 = always low, max = LOAD-1)
    50ee:	800b      	strh	r3, [r1, #0]
		p->CH[i].CMPLD1 = 0;
    50f0:	820b      	strh	r3, [r1, #16]
		p->CH[i].CTRL = TMR_CTRL_CM(1) | TMR_CTRL_PCS(8) |
    50f2:	f8a1 c00c 	strh.w	ip, [r1, #12]
void quadtimer_init(IMXRT_TMR_t *p)
{
	int i;

	for (i=0; i < 4; i++) {
		p->CH[i].CTRL = 0; // stop timer
    50f6:	858b      	strh	r3, [r1, #44]	; 0x2c
		p->CH[i].CNTR = 0;
    50f8:	854b      	strh	r3, [r1, #42]	; 0x2a
		p->CH[i].SCTRL = TMR_SCTRL_OEN | TMR_SCTRL_OPS | TMR_SCTRL_VAL | TMR_SCTRL_FORCE;
    50fa:	85cd      	strh	r5, [r1, #46]	; 0x2e
		p->CH[i].CSCTRL = TMR_CSCTRL_CL1(1) | TMR_CSCTRL_ALT_LOAD;
    50fc:	f8a1 e034 	strh.w	lr, [r1, #52]	; 0x34
		// COMP must be less than LOAD - otherwise output is always low
		p->CH[i].LOAD = 24000;   // low time  (65537 - x) - 
    5100:	80d7      	strh	r7, [r2, #6]
		p->CH[i].COMP1 = 0;  // high time (0 = always low, max = LOAD-1)
    5102:	8013      	strh	r3, [r2, #0]
		p->CH[i].CMPLD1 = 0;
    5104:	860b      	strh	r3, [r1, #48]	; 0x30
		p->CH[i].CTRL = TMR_CTRL_CM(1) | TMR_CTRL_PCS(8) |
    5106:	f8a1 c02c 	strh.w	ip, [r1, #44]	; 0x2c
void quadtimer_init(IMXRT_TMR_t *p)
{
	int i;

	for (i=0; i < 4; i++) {
		p->CH[i].CTRL = 0; // stop timer
    510a:	f8a1 304c 	strh.w	r3, [r1, #76]	; 0x4c
		p->CH[i].CNTR = 0;
    510e:	f8a1 304a 	strh.w	r3, [r1, #74]	; 0x4a
		p->CH[i].SCTRL = TMR_SCTRL_OEN | TMR_SCTRL_OPS | TMR_SCTRL_VAL | TMR_SCTRL_FORCE;
    5112:	f8a1 504e 	strh.w	r5, [r1, #78]	; 0x4e
		p->CH[i].CSCTRL = TMR_CSCTRL_CL1(1) | TMR_CSCTRL_ALT_LOAD;
    5116:	f8a1 e054 	strh.w	lr, [r1, #84]	; 0x54
		// COMP must be less than LOAD - otherwise output is always low
		p->CH[i].LOAD = 24000;   // low time  (65537 - x) - 
    511a:	84d7      	strh	r7, [r2, #38]	; 0x26
		p->CH[i].COMP1 = 0;  // high time (0 = always low, max = LOAD-1)
    511c:	8413      	strh	r3, [r2, #32]
		p->CH[i].CMPLD1 = 0;
    511e:	f8a1 3050 	strh.w	r3, [r1, #80]	; 0x50
		p->CH[i].CTRL = TMR_CTRL_CM(1) | TMR_CTRL_PCS(8) |
    5122:	f8a1 c04c 	strh.w	ip, [r1, #76]	; 0x4c
void quadtimer_init(IMXRT_TMR_t *p)
{
	int i;

	for (i=0; i < 4; i++) {
		p->CH[i].CTRL = 0; // stop timer
    5126:	f8a1 306c 	strh.w	r3, [r1, #108]	; 0x6c
		p->CH[i].CNTR = 0;
    512a:	f8a1 306a 	strh.w	r3, [r1, #106]	; 0x6a
		p->CH[i].SCTRL = TMR_SCTRL_OEN | TMR_SCTRL_OPS | TMR_SCTRL_VAL | TMR_SCTRL_FORCE;
    512e:	f8a1 506e 	strh.w	r5, [r1, #110]	; 0x6e
		p->CH[i].CSCTRL = TMR_CSCTRL_CL1(1) | TMR_CSCTRL_ALT_LOAD;
    5132:	f8a1 e074 	strh.w	lr, [r1, #116]	; 0x74
		// COMP must be less than LOAD - otherwise output is always low
		p->CH[i].LOAD = 24000;   // low time  (65537 - x) - 
    5136:	f8a2 7046 	strh.w	r7, [r2, #70]	; 0x46
		p->CH[i].COMP1 = 0;  // high time (0 = always low, max = LOAD-1)
    513a:	f8a2 3040 	strh.w	r3, [r2, #64]	; 0x40
		p->CH[i].CMPLD1 = 0;
    513e:	f8a1 3070 	strh.w	r3, [r1, #112]	; 0x70
		p->CH[i].CTRL = TMR_CTRL_CM(1) | TMR_CTRL_PCS(8) |
    5142:	f8a1 c06c 	strh.w	ip, [r1, #108]	; 0x6c
    5146:	e8bd 83f0 	ldmia.w	sp!, {r4, r5, r6, r7, r8, r9, pc}
    514a:	bf00      	nop
    514c:	401dc000 	.word	0x401dc000
    5150:	401e0000 	.word	0x401e0000
    5154:	401e0020 	.word	0x401e0020
    5158:	401e4000 	.word	0x401e4000
    515c:	401e4020 	.word	0x401e4020
    5160:	401dc020 	.word	0x401dc020

00005164 <serialEvent()>:

#include <Arduino.h>
void serialEvent() __attribute__((weak));
void serialEvent() {
    5164:	4770      	bx	lr
    5166:	bf00      	nop

00005168 <__aeabi_atexit>:
    5168:	460b      	mov	r3, r1
    516a:	4601      	mov	r1, r0
    516c:	4618      	mov	r0, r3
    516e:	f000 b801 	b.w	5174 <__cxa_atexit>
    5172:	bf00      	nop

00005174 <__cxa_atexit>:
    5174:	4613      	mov	r3, r2
    5176:	460a      	mov	r2, r1
    5178:	4601      	mov	r1, r0
    517a:	2002      	movs	r0, #2
    517c:	f000 bbce 	b.w	591c <__register_exitproc>

00005180 <__errno>:
    5180:	4b01      	ldr	r3, [pc, #4]	; (5188 <__errno+0x8>)
    5182:	6818      	ldr	r0, [r3, #0]
    5184:	4770      	bx	lr
    5186:	bf00      	nop
    5188:	20000b38 	.word	0x20000b38

0000518c <__libc_init_array>:
    518c:	b570      	push	{r4, r5, r6, lr}
    518e:	4e0f      	ldr	r6, [pc, #60]	; (51cc <__libc_init_array+0x40>)
    5190:	4d0f      	ldr	r5, [pc, #60]	; (51d0 <__libc_init_array+0x44>)
    5192:	1b76      	subs	r6, r6, r5
    5194:	10b6      	asrs	r6, r6, #2
    5196:	bf18      	it	ne
    5198:	2400      	movne	r4, #0
    519a:	d005      	beq.n	51a8 <__libc_init_array+0x1c>
    519c:	3401      	adds	r4, #1
    519e:	f855 3b04 	ldr.w	r3, [r5], #4
    51a2:	4798      	blx	r3
    51a4:	42a6      	cmp	r6, r4
    51a6:	d1f9      	bne.n	519c <__libc_init_array+0x10>
    51a8:	4e0a      	ldr	r6, [pc, #40]	; (51d4 <__libc_init_array+0x48>)
    51aa:	4d0b      	ldr	r5, [pc, #44]	; (51d8 <__libc_init_array+0x4c>)
    51ac:	1b76      	subs	r6, r6, r5
    51ae:	f000 fd3f 	bl	5c30 <___init_veneer>
    51b2:	10b6      	asrs	r6, r6, #2
    51b4:	bf18      	it	ne
    51b6:	2400      	movne	r4, #0
    51b8:	d006      	beq.n	51c8 <__libc_init_array+0x3c>
    51ba:	3401      	adds	r4, #1
    51bc:	f855 3b04 	ldr.w	r3, [r5], #4
    51c0:	4798      	blx	r3
    51c2:	42a6      	cmp	r6, r4
    51c4:	d1f9      	bne.n	51ba <__libc_init_array+0x2e>
    51c6:	bd70      	pop	{r4, r5, r6, pc}
    51c8:	bd70      	pop	{r4, r5, r6, pc}
    51ca:	bf00      	nop
    51cc:	60001b00 	.word	0x60001b00
    51d0:	60001b00 	.word	0x60001b00
    51d4:	60001b18 	.word	0x60001b18
    51d8:	60001b00 	.word	0x60001b00

000051dc <malloc>:
    51dc:	4b02      	ldr	r3, [pc, #8]	; (51e8 <malloc+0xc>)
    51de:	4601      	mov	r1, r0
    51e0:	6818      	ldr	r0, [r3, #0]
    51e2:	f000 b80b 	b.w	51fc <_malloc_r>
    51e6:	bf00      	nop
    51e8:	20000b38 	.word	0x20000b38

000051ec <free>:
    51ec:	4b02      	ldr	r3, [pc, #8]	; (51f8 <free+0xc>)
    51ee:	4601      	mov	r1, r0
    51f0:	6818      	ldr	r0, [r3, #0]
    51f2:	f000 bc33 	b.w	5a5c <_free_r>
    51f6:	bf00      	nop
    51f8:	20000b38 	.word	0x20000b38

000051fc <_malloc_r>:
    51fc:	e92d 4ff0 	stmdb	sp!, {r4, r5, r6, r7, r8, r9, sl, fp, lr}
    5200:	f101 050b 	add.w	r5, r1, #11
    5204:	2d16      	cmp	r5, #22
    5206:	b083      	sub	sp, #12
    5208:	4606      	mov	r6, r0
    520a:	f240 809f 	bls.w	534c <_malloc_r+0x150>
    520e:	f035 0507 	bics.w	r5, r5, #7
    5212:	f100 80bf 	bmi.w	5394 <_malloc_r+0x198>
    5216:	42a9      	cmp	r1, r5
    5218:	f200 80bc 	bhi.w	5394 <_malloc_r+0x198>
    521c:	f000 faf4 	bl	5808 <__malloc_lock>
    5220:	f5b5 7ffc 	cmp.w	r5, #504	; 0x1f8
    5224:	f0c0 829c 	bcc.w	5760 <_malloc_r+0x564>
    5228:	0a6b      	lsrs	r3, r5, #9
    522a:	f000 80ba 	beq.w	53a2 <_malloc_r+0x1a6>
    522e:	2b04      	cmp	r3, #4
    5230:	f200 8183 	bhi.w	553a <_malloc_r+0x33e>
    5234:	09a8      	lsrs	r0, r5, #6
    5236:	f100 0e39 	add.w	lr, r0, #57	; 0x39
    523a:	ea4f 034e 	mov.w	r3, lr, lsl #1
    523e:	3038      	adds	r0, #56	; 0x38
    5240:	4fc4      	ldr	r7, [pc, #784]	; (5554 <_malloc_r+0x358>)
    5242:	eb07 0383 	add.w	r3, r7, r3, lsl #2
    5246:	f1a3 0108 	sub.w	r1, r3, #8
    524a:	685c      	ldr	r4, [r3, #4]
    524c:	42a1      	cmp	r1, r4
    524e:	d107      	bne.n	5260 <_malloc_r+0x64>
    5250:	e0ac      	b.n	53ac <_malloc_r+0x1b0>
    5252:	2a00      	cmp	r2, #0
    5254:	f280 80ac 	bge.w	53b0 <_malloc_r+0x1b4>
    5258:	68e4      	ldr	r4, [r4, #12]
    525a:	42a1      	cmp	r1, r4
    525c:	f000 80a6 	beq.w	53ac <_malloc_r+0x1b0>
    5260:	6863      	ldr	r3, [r4, #4]
    5262:	f023 0303 	bic.w	r3, r3, #3
    5266:	1b5a      	subs	r2, r3, r5
    5268:	2a0f      	cmp	r2, #15
    526a:	ddf2      	ble.n	5252 <_malloc_r+0x56>
    526c:	49b9      	ldr	r1, [pc, #740]	; (5554 <_malloc_r+0x358>)
    526e:	693c      	ldr	r4, [r7, #16]
    5270:	f101 0e08 	add.w	lr, r1, #8
    5274:	4574      	cmp	r4, lr
    5276:	f000 81b3 	beq.w	55e0 <_malloc_r+0x3e4>
    527a:	6863      	ldr	r3, [r4, #4]
    527c:	f023 0303 	bic.w	r3, r3, #3
    5280:	1b5a      	subs	r2, r3, r5
    5282:	2a0f      	cmp	r2, #15
    5284:	f300 8199 	bgt.w	55ba <_malloc_r+0x3be>
    5288:	2a00      	cmp	r2, #0
    528a:	f8c1 e014 	str.w	lr, [r1, #20]
    528e:	f8c1 e010 	str.w	lr, [r1, #16]
    5292:	f280 809e 	bge.w	53d2 <_malloc_r+0x1d6>
    5296:	f5b3 7f00 	cmp.w	r3, #512	; 0x200
    529a:	f080 8167 	bcs.w	556c <_malloc_r+0x370>
    529e:	08db      	lsrs	r3, r3, #3
    52a0:	f103 0c01 	add.w	ip, r3, #1
    52a4:	2201      	movs	r2, #1
    52a6:	109b      	asrs	r3, r3, #2
    52a8:	fa02 f303 	lsl.w	r3, r2, r3
    52ac:	684a      	ldr	r2, [r1, #4]
    52ae:	f851 803c 	ldr.w	r8, [r1, ip, lsl #3]
    52b2:	f8c4 8008 	str.w	r8, [r4, #8]
    52b6:	eb01 09cc 	add.w	r9, r1, ip, lsl #3
    52ba:	431a      	orrs	r2, r3
    52bc:	f1a9 0308 	sub.w	r3, r9, #8
    52c0:	60e3      	str	r3, [r4, #12]
    52c2:	604a      	str	r2, [r1, #4]
    52c4:	f841 403c 	str.w	r4, [r1, ip, lsl #3]
    52c8:	f8c8 400c 	str.w	r4, [r8, #12]
    52cc:	1083      	asrs	r3, r0, #2
    52ce:	2401      	movs	r4, #1
    52d0:	409c      	lsls	r4, r3
    52d2:	4294      	cmp	r4, r2
    52d4:	f200 808a 	bhi.w	53ec <_malloc_r+0x1f0>
    52d8:	4214      	tst	r4, r2
    52da:	d106      	bne.n	52ea <_malloc_r+0xee>
    52dc:	f020 0003 	bic.w	r0, r0, #3
    52e0:	0064      	lsls	r4, r4, #1
    52e2:	4214      	tst	r4, r2
    52e4:	f100 0004 	add.w	r0, r0, #4
    52e8:	d0fa      	beq.n	52e0 <_malloc_r+0xe4>
    52ea:	eb07 09c0 	add.w	r9, r7, r0, lsl #3
    52ee:	46cc      	mov	ip, r9
    52f0:	4680      	mov	r8, r0
    52f2:	f8dc 100c 	ldr.w	r1, [ip, #12]
    52f6:	458c      	cmp	ip, r1
    52f8:	d107      	bne.n	530a <_malloc_r+0x10e>
    52fa:	e173      	b.n	55e4 <_malloc_r+0x3e8>
    52fc:	2a00      	cmp	r2, #0
    52fe:	f280 8181 	bge.w	5604 <_malloc_r+0x408>
    5302:	68c9      	ldr	r1, [r1, #12]
    5304:	458c      	cmp	ip, r1
    5306:	f000 816d 	beq.w	55e4 <_malloc_r+0x3e8>
    530a:	684b      	ldr	r3, [r1, #4]
    530c:	f023 0303 	bic.w	r3, r3, #3
    5310:	1b5a      	subs	r2, r3, r5
    5312:	2a0f      	cmp	r2, #15
    5314:	ddf2      	ble.n	52fc <_malloc_r+0x100>
    5316:	460c      	mov	r4, r1
    5318:	f8d1 c00c 	ldr.w	ip, [r1, #12]
    531c:	f854 8f08 	ldr.w	r8, [r4, #8]!
    5320:	194b      	adds	r3, r1, r5
    5322:	f045 0501 	orr.w	r5, r5, #1
    5326:	604d      	str	r5, [r1, #4]
    5328:	f042 0101 	orr.w	r1, r2, #1
    532c:	f8c8 c00c 	str.w	ip, [r8, #12]
    5330:	4630      	mov	r0, r6
    5332:	f8cc 8008 	str.w	r8, [ip, #8]
    5336:	617b      	str	r3, [r7, #20]
    5338:	613b      	str	r3, [r7, #16]
    533a:	f8c3 e00c 	str.w	lr, [r3, #12]
    533e:	f8c3 e008 	str.w	lr, [r3, #8]
    5342:	6059      	str	r1, [r3, #4]
    5344:	509a      	str	r2, [r3, r2]
    5346:	f000 fa61 	bl	580c <__malloc_unlock>
    534a:	e01f      	b.n	538c <_malloc_r+0x190>
    534c:	2910      	cmp	r1, #16
    534e:	d821      	bhi.n	5394 <_malloc_r+0x198>
    5350:	f000 fa5a 	bl	5808 <__malloc_lock>
    5354:	2510      	movs	r5, #16
    5356:	2306      	movs	r3, #6
    5358:	2002      	movs	r0, #2
    535a:	4f7e      	ldr	r7, [pc, #504]	; (5554 <_malloc_r+0x358>)
    535c:	eb07 0383 	add.w	r3, r7, r3, lsl #2
    5360:	f1a3 0208 	sub.w	r2, r3, #8
    5364:	685c      	ldr	r4, [r3, #4]
    5366:	4294      	cmp	r4, r2
    5368:	f000 8145 	beq.w	55f6 <_malloc_r+0x3fa>
    536c:	6863      	ldr	r3, [r4, #4]
    536e:	68e1      	ldr	r1, [r4, #12]
    5370:	68a5      	ldr	r5, [r4, #8]
    5372:	f023 0303 	bic.w	r3, r3, #3
    5376:	4423      	add	r3, r4
    5378:	4630      	mov	r0, r6
    537a:	685a      	ldr	r2, [r3, #4]
    537c:	60e9      	str	r1, [r5, #12]
    537e:	f042 0201 	orr.w	r2, r2, #1
    5382:	608d      	str	r5, [r1, #8]
    5384:	605a      	str	r2, [r3, #4]
    5386:	f000 fa41 	bl	580c <__malloc_unlock>
    538a:	3408      	adds	r4, #8
    538c:	4620      	mov	r0, r4
    538e:	b003      	add	sp, #12
    5390:	e8bd 8ff0 	ldmia.w	sp!, {r4, r5, r6, r7, r8, r9, sl, fp, pc}
    5394:	2400      	movs	r4, #0
    5396:	230c      	movs	r3, #12
    5398:	4620      	mov	r0, r4
    539a:	6033      	str	r3, [r6, #0]
    539c:	b003      	add	sp, #12
    539e:	e8bd 8ff0 	ldmia.w	sp!, {r4, r5, r6, r7, r8, r9, sl, fp, pc}
    53a2:	2380      	movs	r3, #128	; 0x80
    53a4:	f04f 0e40 	mov.w	lr, #64	; 0x40
    53a8:	203f      	movs	r0, #63	; 0x3f
    53aa:	e749      	b.n	5240 <_malloc_r+0x44>
    53ac:	4670      	mov	r0, lr
    53ae:	e75d      	b.n	526c <_malloc_r+0x70>
    53b0:	4423      	add	r3, r4
    53b2:	68e1      	ldr	r1, [r4, #12]
    53b4:	685a      	ldr	r2, [r3, #4]
    53b6:	68a5      	ldr	r5, [r4, #8]
    53b8:	f042 0201 	orr.w	r2, r2, #1
    53bc:	60e9      	str	r1, [r5, #12]
    53be:	4630      	mov	r0, r6
    53c0:	608d      	str	r5, [r1, #8]
    53c2:	605a      	str	r2, [r3, #4]
    53c4:	f000 fa22 	bl	580c <__malloc_unlock>
    53c8:	3408      	adds	r4, #8
    53ca:	4620      	mov	r0, r4
    53cc:	b003      	add	sp, #12
    53ce:	e8bd 8ff0 	ldmia.w	sp!, {r4, r5, r6, r7, r8, r9, sl, fp, pc}
    53d2:	4423      	add	r3, r4
    53d4:	4630      	mov	r0, r6
    53d6:	685a      	ldr	r2, [r3, #4]
    53d8:	f042 0201 	orr.w	r2, r2, #1
    53dc:	605a      	str	r2, [r3, #4]
    53de:	f000 fa15 	bl	580c <__malloc_unlock>
    53e2:	3408      	adds	r4, #8
    53e4:	4620      	mov	r0, r4
    53e6:	b003      	add	sp, #12
    53e8:	e8bd 8ff0 	ldmia.w	sp!, {r4, r5, r6, r7, r8, r9, sl, fp, pc}
    53ec:	68bc      	ldr	r4, [r7, #8]
    53ee:	6863      	ldr	r3, [r4, #4]
    53f0:	f023 0803 	bic.w	r8, r3, #3
    53f4:	45a8      	cmp	r8, r5
    53f6:	d304      	bcc.n	5402 <_malloc_r+0x206>
    53f8:	ebc5 0308 	rsb	r3, r5, r8
    53fc:	2b0f      	cmp	r3, #15
    53fe:	f300 808c 	bgt.w	551a <_malloc_r+0x31e>
    5402:	4b55      	ldr	r3, [pc, #340]	; (5558 <_malloc_r+0x35c>)
    5404:	f8df 9160 	ldr.w	r9, [pc, #352]	; 5568 <_malloc_r+0x36c>
    5408:	681a      	ldr	r2, [r3, #0]
    540a:	f8d9 3000 	ldr.w	r3, [r9]
    540e:	3301      	adds	r3, #1
    5410:	442a      	add	r2, r5
    5412:	eb04 0a08 	add.w	sl, r4, r8
    5416:	f000 8160 	beq.w	56da <_malloc_r+0x4de>
    541a:	f502 5280 	add.w	r2, r2, #4096	; 0x1000
    541e:	320f      	adds	r2, #15
    5420:	f422 627f 	bic.w	r2, r2, #4080	; 0xff0
    5424:	f022 020f 	bic.w	r2, r2, #15
    5428:	4611      	mov	r1, r2
    542a:	4630      	mov	r0, r6
    542c:	9201      	str	r2, [sp, #4]
    542e:	f000 f9ef 	bl	5810 <_sbrk_r>
    5432:	f1b0 3fff 	cmp.w	r0, #4294967295
    5436:	4683      	mov	fp, r0
    5438:	9a01      	ldr	r2, [sp, #4]
    543a:	f000 8158 	beq.w	56ee <_malloc_r+0x4f2>
    543e:	4582      	cmp	sl, r0
    5440:	f200 80fc 	bhi.w	563c <_malloc_r+0x440>
    5444:	4b45      	ldr	r3, [pc, #276]	; (555c <_malloc_r+0x360>)
    5446:	6819      	ldr	r1, [r3, #0]
    5448:	45da      	cmp	sl, fp
    544a:	4411      	add	r1, r2
    544c:	6019      	str	r1, [r3, #0]
    544e:	f000 8153 	beq.w	56f8 <_malloc_r+0x4fc>
    5452:	f8d9 0000 	ldr.w	r0, [r9]
    5456:	f8df e110 	ldr.w	lr, [pc, #272]	; 5568 <_malloc_r+0x36c>
    545a:	3001      	adds	r0, #1
    545c:	bf1b      	ittet	ne
    545e:	ebca 0a0b 	rsbne	sl, sl, fp
    5462:	4451      	addne	r1, sl
    5464:	f8ce b000 	streq.w	fp, [lr]
    5468:	6019      	strne	r1, [r3, #0]
    546a:	f01b 0107 	ands.w	r1, fp, #7
    546e:	f000 8117 	beq.w	56a0 <_malloc_r+0x4a4>
    5472:	f1c1 0008 	rsb	r0, r1, #8
    5476:	f5c1 5180 	rsb	r1, r1, #4096	; 0x1000
    547a:	4483      	add	fp, r0
    547c:	3108      	adds	r1, #8
    547e:	445a      	add	r2, fp
    5480:	f3c2 020b 	ubfx	r2, r2, #0, #12
    5484:	ebc2 0901 	rsb	r9, r2, r1
    5488:	4649      	mov	r1, r9
    548a:	4630      	mov	r0, r6
    548c:	9301      	str	r3, [sp, #4]
    548e:	f000 f9bf 	bl	5810 <_sbrk_r>
    5492:	1c43      	adds	r3, r0, #1
    5494:	9b01      	ldr	r3, [sp, #4]
    5496:	f000 813f 	beq.w	5718 <_malloc_r+0x51c>
    549a:	ebcb 0200 	rsb	r2, fp, r0
    549e:	444a      	add	r2, r9
    54a0:	f042 0201 	orr.w	r2, r2, #1
    54a4:	6819      	ldr	r1, [r3, #0]
    54a6:	f8c7 b008 	str.w	fp, [r7, #8]
    54aa:	4449      	add	r1, r9
    54ac:	42bc      	cmp	r4, r7
    54ae:	f8cb 2004 	str.w	r2, [fp, #4]
    54b2:	6019      	str	r1, [r3, #0]
    54b4:	f8df 90a4 	ldr.w	r9, [pc, #164]	; 555c <_malloc_r+0x360>
    54b8:	d016      	beq.n	54e8 <_malloc_r+0x2ec>
    54ba:	f1b8 0f0f 	cmp.w	r8, #15
    54be:	f240 80fd 	bls.w	56bc <_malloc_r+0x4c0>
    54c2:	6862      	ldr	r2, [r4, #4]
    54c4:	f1a8 030c 	sub.w	r3, r8, #12
    54c8:	f023 0307 	bic.w	r3, r3, #7
    54cc:	18e0      	adds	r0, r4, r3
    54ce:	f002 0201 	and.w	r2, r2, #1
    54d2:	f04f 0e05 	mov.w	lr, #5
    54d6:	431a      	orrs	r2, r3
    54d8:	2b0f      	cmp	r3, #15
    54da:	6062      	str	r2, [r4, #4]
    54dc:	f8c0 e004 	str.w	lr, [r0, #4]
    54e0:	f8c0 e008 	str.w	lr, [r0, #8]
    54e4:	f200 811c 	bhi.w	5720 <_malloc_r+0x524>
    54e8:	4b1d      	ldr	r3, [pc, #116]	; (5560 <_malloc_r+0x364>)
    54ea:	68bc      	ldr	r4, [r7, #8]
    54ec:	681a      	ldr	r2, [r3, #0]
    54ee:	4291      	cmp	r1, r2
    54f0:	bf88      	it	hi
    54f2:	6019      	strhi	r1, [r3, #0]
    54f4:	4b1b      	ldr	r3, [pc, #108]	; (5564 <_malloc_r+0x368>)
    54f6:	681a      	ldr	r2, [r3, #0]
    54f8:	4291      	cmp	r1, r2
    54fa:	6862      	ldr	r2, [r4, #4]
    54fc:	bf88      	it	hi
    54fe:	6019      	strhi	r1, [r3, #0]
    5500:	f022 0203 	bic.w	r2, r2, #3
    5504:	4295      	cmp	r5, r2
    5506:	eba2 0305 	sub.w	r3, r2, r5
    550a:	d801      	bhi.n	5510 <_malloc_r+0x314>
    550c:	2b0f      	cmp	r3, #15
    550e:	dc04      	bgt.n	551a <_malloc_r+0x31e>
    5510:	4630      	mov	r0, r6
    5512:	f000 f97b 	bl	580c <__malloc_unlock>
    5516:	2400      	movs	r4, #0
    5518:	e738      	b.n	538c <_malloc_r+0x190>
    551a:	1962      	adds	r2, r4, r5
    551c:	f043 0301 	orr.w	r3, r3, #1
    5520:	f045 0501 	orr.w	r5, r5, #1
    5524:	6065      	str	r5, [r4, #4]
    5526:	4630      	mov	r0, r6
    5528:	60ba      	str	r2, [r7, #8]
    552a:	6053      	str	r3, [r2, #4]
    552c:	f000 f96e 	bl	580c <__malloc_unlock>
    5530:	3408      	adds	r4, #8
    5532:	4620      	mov	r0, r4
    5534:	b003      	add	sp, #12
    5536:	e8bd 8ff0 	ldmia.w	sp!, {r4, r5, r6, r7, r8, r9, sl, fp, pc}
    553a:	2b14      	cmp	r3, #20
    553c:	d971      	bls.n	5622 <_malloc_r+0x426>
    553e:	2b54      	cmp	r3, #84	; 0x54
    5540:	f200 80a4 	bhi.w	568c <_malloc_r+0x490>
    5544:	0b28      	lsrs	r0, r5, #12
    5546:	f100 0e6f 	add.w	lr, r0, #111	; 0x6f
    554a:	ea4f 034e 	mov.w	r3, lr, lsl #1
    554e:	306e      	adds	r0, #110	; 0x6e
    5550:	e676      	b.n	5240 <_malloc_r+0x44>
    5552:	bf00      	nop
    5554:	20000b3c 	.word	0x20000b3c
    5558:	20001cf4 	.word	0x20001cf4
    555c:	20001cf8 	.word	0x20001cf8
    5560:	20001cf0 	.word	0x20001cf0
    5564:	20001cec 	.word	0x20001cec
    5568:	20000f48 	.word	0x20000f48
    556c:	0a5a      	lsrs	r2, r3, #9
    556e:	2a04      	cmp	r2, #4
    5570:	d95e      	bls.n	5630 <_malloc_r+0x434>
    5572:	2a14      	cmp	r2, #20
    5574:	f200 80b3 	bhi.w	56de <_malloc_r+0x4e2>
    5578:	f102 015c 	add.w	r1, r2, #92	; 0x5c
    557c:	0049      	lsls	r1, r1, #1
    557e:	325b      	adds	r2, #91	; 0x5b
    5580:	eb07 0c81 	add.w	ip, r7, r1, lsl #2
    5584:	f857 1021 	ldr.w	r1, [r7, r1, lsl #2]
    5588:	f8df 81dc 	ldr.w	r8, [pc, #476]	; 5768 <_malloc_r+0x56c>
    558c:	f1ac 0c08 	sub.w	ip, ip, #8
    5590:	458c      	cmp	ip, r1
    5592:	f000 8088 	beq.w	56a6 <_malloc_r+0x4aa>
    5596:	684a      	ldr	r2, [r1, #4]
    5598:	f022 0203 	bic.w	r2, r2, #3
    559c:	4293      	cmp	r3, r2
    559e:	d202      	bcs.n	55a6 <_malloc_r+0x3aa>
    55a0:	6889      	ldr	r1, [r1, #8]
    55a2:	458c      	cmp	ip, r1
    55a4:	d1f7      	bne.n	5596 <_malloc_r+0x39a>
    55a6:	f8d1 c00c 	ldr.w	ip, [r1, #12]
    55aa:	687a      	ldr	r2, [r7, #4]
    55ac:	f8c4 c00c 	str.w	ip, [r4, #12]
    55b0:	60a1      	str	r1, [r4, #8]
    55b2:	f8cc 4008 	str.w	r4, [ip, #8]
    55b6:	60cc      	str	r4, [r1, #12]
    55b8:	e688      	b.n	52cc <_malloc_r+0xd0>
    55ba:	1963      	adds	r3, r4, r5
    55bc:	f042 0701 	orr.w	r7, r2, #1
    55c0:	f045 0501 	orr.w	r5, r5, #1
    55c4:	6065      	str	r5, [r4, #4]
    55c6:	4630      	mov	r0, r6
    55c8:	614b      	str	r3, [r1, #20]
    55ca:	610b      	str	r3, [r1, #16]
    55cc:	f8c3 e00c 	str.w	lr, [r3, #12]
    55d0:	f8c3 e008 	str.w	lr, [r3, #8]
    55d4:	605f      	str	r7, [r3, #4]
    55d6:	509a      	str	r2, [r3, r2]
    55d8:	3408      	adds	r4, #8
    55da:	f000 f917 	bl	580c <__malloc_unlock>
    55de:	e6d5      	b.n	538c <_malloc_r+0x190>
    55e0:	684a      	ldr	r2, [r1, #4]
    55e2:	e673      	b.n	52cc <_malloc_r+0xd0>
    55e4:	f108 0801 	add.w	r8, r8, #1
    55e8:	f018 0f03 	tst.w	r8, #3
    55ec:	f10c 0c08 	add.w	ip, ip, #8
    55f0:	f47f ae7f 	bne.w	52f2 <_malloc_r+0xf6>
    55f4:	e030      	b.n	5658 <_malloc_r+0x45c>
    55f6:	68dc      	ldr	r4, [r3, #12]
    55f8:	42a3      	cmp	r3, r4
    55fa:	bf08      	it	eq
    55fc:	3002      	addeq	r0, #2
    55fe:	f43f ae35 	beq.w	526c <_malloc_r+0x70>
    5602:	e6b3      	b.n	536c <_malloc_r+0x170>
    5604:	440b      	add	r3, r1
    5606:	460c      	mov	r4, r1
    5608:	685a      	ldr	r2, [r3, #4]
    560a:	68c9      	ldr	r1, [r1, #12]
    560c:	f854 5f08 	ldr.w	r5, [r4, #8]!
    5610:	f042 0201 	orr.w	r2, r2, #1
    5614:	605a      	str	r2, [r3, #4]
    5616:	4630      	mov	r0, r6
    5618:	60e9      	str	r1, [r5, #12]
    561a:	608d      	str	r5, [r1, #8]
    561c:	f000 f8f6 	bl	580c <__malloc_unlock>
    5620:	e6b4      	b.n	538c <_malloc_r+0x190>
    5622:	f103 0e5c 	add.w	lr, r3, #92	; 0x5c
    5626:	f103 005b 	add.w	r0, r3, #91	; 0x5b
    562a:	ea4f 034e 	mov.w	r3, lr, lsl #1
    562e:	e607      	b.n	5240 <_malloc_r+0x44>
    5630:	099a      	lsrs	r2, r3, #6
    5632:	f102 0139 	add.w	r1, r2, #57	; 0x39
    5636:	0049      	lsls	r1, r1, #1
    5638:	3238      	adds	r2, #56	; 0x38
    563a:	e7a1      	b.n	5580 <_malloc_r+0x384>
    563c:	42bc      	cmp	r4, r7
    563e:	4b4a      	ldr	r3, [pc, #296]	; (5768 <_malloc_r+0x56c>)
    5640:	f43f af00 	beq.w	5444 <_malloc_r+0x248>
    5644:	689c      	ldr	r4, [r3, #8]
    5646:	6862      	ldr	r2, [r4, #4]
    5648:	f022 0203 	bic.w	r2, r2, #3
    564c:	e75a      	b.n	5504 <_malloc_r+0x308>
    564e:	f859 3908 	ldr.w	r3, [r9], #-8
    5652:	4599      	cmp	r9, r3
    5654:	f040 8082 	bne.w	575c <_malloc_r+0x560>
    5658:	f010 0f03 	tst.w	r0, #3
    565c:	f100 30ff 	add.w	r0, r0, #4294967295
    5660:	d1f5      	bne.n	564e <_malloc_r+0x452>
    5662:	687b      	ldr	r3, [r7, #4]
    5664:	ea23 0304 	bic.w	r3, r3, r4
    5668:	607b      	str	r3, [r7, #4]
    566a:	0064      	lsls	r4, r4, #1
    566c:	429c      	cmp	r4, r3
    566e:	f63f aebd 	bhi.w	53ec <_malloc_r+0x1f0>
    5672:	2c00      	cmp	r4, #0
    5674:	f43f aeba 	beq.w	53ec <_malloc_r+0x1f0>
    5678:	421c      	tst	r4, r3
    567a:	4640      	mov	r0, r8
    567c:	f47f ae35 	bne.w	52ea <_malloc_r+0xee>
    5680:	0064      	lsls	r4, r4, #1
    5682:	421c      	tst	r4, r3
    5684:	f100 0004 	add.w	r0, r0, #4
    5688:	d0fa      	beq.n	5680 <_malloc_r+0x484>
    568a:	e62e      	b.n	52ea <_malloc_r+0xee>
    568c:	f5b3 7faa 	cmp.w	r3, #340	; 0x154
    5690:	d818      	bhi.n	56c4 <_malloc_r+0x4c8>
    5692:	0be8      	lsrs	r0, r5, #15
    5694:	f100 0e78 	add.w	lr, r0, #120	; 0x78
    5698:	ea4f 034e 	mov.w	r3, lr, lsl #1
    569c:	3077      	adds	r0, #119	; 0x77
    569e:	e5cf      	b.n	5240 <_malloc_r+0x44>
    56a0:	f44f 5180 	mov.w	r1, #4096	; 0x1000
    56a4:	e6eb      	b.n	547e <_malloc_r+0x282>
    56a6:	2101      	movs	r1, #1
    56a8:	f8d8 3004 	ldr.w	r3, [r8, #4]
    56ac:	1092      	asrs	r2, r2, #2
    56ae:	fa01 f202 	lsl.w	r2, r1, r2
    56b2:	431a      	orrs	r2, r3
    56b4:	f8c8 2004 	str.w	r2, [r8, #4]
    56b8:	4661      	mov	r1, ip
    56ba:	e777      	b.n	55ac <_malloc_r+0x3b0>
    56bc:	2301      	movs	r3, #1
    56be:	f8cb 3004 	str.w	r3, [fp, #4]
    56c2:	e725      	b.n	5510 <_malloc_r+0x314>
    56c4:	f240 5254 	movw	r2, #1364	; 0x554
    56c8:	4293      	cmp	r3, r2
    56ca:	d820      	bhi.n	570e <_malloc_r+0x512>
    56cc:	0ca8      	lsrs	r0, r5, #18
    56ce:	f100 0e7d 	add.w	lr, r0, #125	; 0x7d
    56d2:	ea4f 034e 	mov.w	r3, lr, lsl #1
    56d6:	307c      	adds	r0, #124	; 0x7c
    56d8:	e5b2      	b.n	5240 <_malloc_r+0x44>
    56da:	3210      	adds	r2, #16
    56dc:	e6a4      	b.n	5428 <_malloc_r+0x22c>
    56de:	2a54      	cmp	r2, #84	; 0x54
    56e0:	d826      	bhi.n	5730 <_malloc_r+0x534>
    56e2:	0b1a      	lsrs	r2, r3, #12
    56e4:	f102 016f 	add.w	r1, r2, #111	; 0x6f
    56e8:	0049      	lsls	r1, r1, #1
    56ea:	326e      	adds	r2, #110	; 0x6e
    56ec:	e748      	b.n	5580 <_malloc_r+0x384>
    56ee:	68bc      	ldr	r4, [r7, #8]
    56f0:	6862      	ldr	r2, [r4, #4]
    56f2:	f022 0203 	bic.w	r2, r2, #3
    56f6:	e705      	b.n	5504 <_malloc_r+0x308>
    56f8:	f3ca 000b 	ubfx	r0, sl, #0, #12
    56fc:	2800      	cmp	r0, #0
    56fe:	f47f aea8 	bne.w	5452 <_malloc_r+0x256>
    5702:	4442      	add	r2, r8
    5704:	68bb      	ldr	r3, [r7, #8]
    5706:	f042 0201 	orr.w	r2, r2, #1
    570a:	605a      	str	r2, [r3, #4]
    570c:	e6ec      	b.n	54e8 <_malloc_r+0x2ec>
    570e:	23fe      	movs	r3, #254	; 0xfe
    5710:	f04f 0e7f 	mov.w	lr, #127	; 0x7f
    5714:	207e      	movs	r0, #126	; 0x7e
    5716:	e593      	b.n	5240 <_malloc_r+0x44>
    5718:	2201      	movs	r2, #1
    571a:	f04f 0900 	mov.w	r9, #0
    571e:	e6c1      	b.n	54a4 <_malloc_r+0x2a8>
    5720:	f104 0108 	add.w	r1, r4, #8
    5724:	4630      	mov	r0, r6
    5726:	f000 f999 	bl	5a5c <_free_r>
    572a:	f8d9 1000 	ldr.w	r1, [r9]
    572e:	e6db      	b.n	54e8 <_malloc_r+0x2ec>
    5730:	f5b2 7faa 	cmp.w	r2, #340	; 0x154
    5734:	d805      	bhi.n	5742 <_malloc_r+0x546>
    5736:	0bda      	lsrs	r2, r3, #15
    5738:	f102 0178 	add.w	r1, r2, #120	; 0x78
    573c:	0049      	lsls	r1, r1, #1
    573e:	3277      	adds	r2, #119	; 0x77
    5740:	e71e      	b.n	5580 <_malloc_r+0x384>
    5742:	f240 5154 	movw	r1, #1364	; 0x554
    5746:	428a      	cmp	r2, r1
    5748:	d805      	bhi.n	5756 <_malloc_r+0x55a>
    574a:	0c9a      	lsrs	r2, r3, #18
    574c:	f102 017d 	add.w	r1, r2, #125	; 0x7d
    5750:	0049      	lsls	r1, r1, #1
    5752:	327c      	adds	r2, #124	; 0x7c
    5754:	e714      	b.n	5580 <_malloc_r+0x384>
    5756:	21fe      	movs	r1, #254	; 0xfe
    5758:	227e      	movs	r2, #126	; 0x7e
    575a:	e711      	b.n	5580 <_malloc_r+0x384>
    575c:	687b      	ldr	r3, [r7, #4]
    575e:	e784      	b.n	566a <_malloc_r+0x46e>
    5760:	08e8      	lsrs	r0, r5, #3
    5762:	1c43      	adds	r3, r0, #1
    5764:	005b      	lsls	r3, r3, #1
    5766:	e5f8      	b.n	535a <_malloc_r+0x15e>
    5768:	20000b3c 	.word	0x20000b3c

0000576c <memset>:
    576c:	b470      	push	{r4, r5, r6}
    576e:	0784      	lsls	r4, r0, #30
    5770:	d046      	beq.n	5800 <memset+0x94>
    5772:	1e54      	subs	r4, r2, #1
    5774:	2a00      	cmp	r2, #0
    5776:	d041      	beq.n	57fc <memset+0x90>
    5778:	b2cd      	uxtb	r5, r1
    577a:	4603      	mov	r3, r0
    577c:	e002      	b.n	5784 <memset+0x18>
    577e:	1e62      	subs	r2, r4, #1
    5780:	b3e4      	cbz	r4, 57fc <memset+0x90>
    5782:	4614      	mov	r4, r2
    5784:	f803 5b01 	strb.w	r5, [r3], #1
    5788:	079a      	lsls	r2, r3, #30
    578a:	d1f8      	bne.n	577e <memset+0x12>
    578c:	2c03      	cmp	r4, #3
    578e:	d92e      	bls.n	57ee <memset+0x82>
    5790:	b2cd      	uxtb	r5, r1
    5792:	ea45 2505 	orr.w	r5, r5, r5, lsl #8
    5796:	2c0f      	cmp	r4, #15
    5798:	ea45 4505 	orr.w	r5, r5, r5, lsl #16
    579c:	d919      	bls.n	57d2 <memset+0x66>
    579e:	f103 0210 	add.w	r2, r3, #16
    57a2:	4626      	mov	r6, r4
    57a4:	3e10      	subs	r6, #16
    57a6:	2e0f      	cmp	r6, #15
    57a8:	f842 5c10 	str.w	r5, [r2, #-16]
    57ac:	f842 5c0c 	str.w	r5, [r2, #-12]
    57b0:	f842 5c08 	str.w	r5, [r2, #-8]
    57b4:	f842 5c04 	str.w	r5, [r2, #-4]
    57b8:	f102 0210 	add.w	r2, r2, #16
    57bc:	d8f2      	bhi.n	57a4 <memset+0x38>
    57be:	f1a4 0210 	sub.w	r2, r4, #16
    57c2:	f022 020f 	bic.w	r2, r2, #15
    57c6:	f004 040f 	and.w	r4, r4, #15
    57ca:	3210      	adds	r2, #16
    57cc:	2c03      	cmp	r4, #3
    57ce:	4413      	add	r3, r2
    57d0:	d90d      	bls.n	57ee <memset+0x82>
    57d2:	461e      	mov	r6, r3
    57d4:	4622      	mov	r2, r4
    57d6:	3a04      	subs	r2, #4
    57d8:	2a03      	cmp	r2, #3
    57da:	f846 5b04 	str.w	r5, [r6], #4
    57de:	d8fa      	bhi.n	57d6 <memset+0x6a>
    57e0:	1f22      	subs	r2, r4, #4
    57e2:	f022 0203 	bic.w	r2, r2, #3
    57e6:	3204      	adds	r2, #4
    57e8:	4413      	add	r3, r2
    57ea:	f004 0403 	and.w	r4, r4, #3
    57ee:	b12c      	cbz	r4, 57fc <memset+0x90>
    57f0:	b2c9      	uxtb	r1, r1
    57f2:	441c      	add	r4, r3
    57f4:	f803 1b01 	strb.w	r1, [r3], #1
    57f8:	42a3      	cmp	r3, r4
    57fa:	d1fb      	bne.n	57f4 <memset+0x88>
    57fc:	bc70      	pop	{r4, r5, r6}
    57fe:	4770      	bx	lr
    5800:	4614      	mov	r4, r2
    5802:	4603      	mov	r3, r0
    5804:	e7c2      	b.n	578c <memset+0x20>
    5806:	bf00      	nop

00005808 <__malloc_lock>:
    5808:	4770      	bx	lr
    580a:	bf00      	nop

0000580c <__malloc_unlock>:
    580c:	4770      	bx	lr
    580e:	bf00      	nop

00005810 <_sbrk_r>:
    5810:	b538      	push	{r3, r4, r5, lr}
    5812:	4c07      	ldr	r4, [pc, #28]	; (5830 <_sbrk_r+0x20>)
    5814:	2300      	movs	r3, #0
    5816:	4605      	mov	r5, r0
    5818:	4608      	mov	r0, r1
    581a:	6023      	str	r3, [r4, #0]
    581c:	f7fe f8b0 	bl	3980 <_sbrk>
    5820:	1c43      	adds	r3, r0, #1
    5822:	d000      	beq.n	5826 <_sbrk_r+0x16>
    5824:	bd38      	pop	{r3, r4, r5, pc}
    5826:	6823      	ldr	r3, [r4, #0]
    5828:	2b00      	cmp	r3, #0
    582a:	d0fb      	beq.n	5824 <_sbrk_r+0x14>
    582c:	602b      	str	r3, [r5, #0]
    582e:	bd38      	pop	{r3, r4, r5, pc}
    5830:	2000428c 	.word	0x2000428c
	...

00005840 <strlen>:
    5840:	f890 f000 	pld	[r0]
    5844:	e96d 4502 	strd	r4, r5, [sp, #-8]!
    5848:	f020 0107 	bic.w	r1, r0, #7
    584c:	f06f 0c00 	mvn.w	ip, #0
    5850:	f010 0407 	ands.w	r4, r0, #7
    5854:	f891 f020 	pld	[r1, #32]
    5858:	f040 8049 	bne.w	58ee <strlen+0xae>
    585c:	f04f 0400 	mov.w	r4, #0
    5860:	f06f 0007 	mvn.w	r0, #7
    5864:	e9d1 2300 	ldrd	r2, r3, [r1]
    5868:	f891 f040 	pld	[r1, #64]	; 0x40
    586c:	f100 0008 	add.w	r0, r0, #8
    5870:	fa82 f24c 	uadd8	r2, r2, ip
    5874:	faa4 f28c 	sel	r2, r4, ip
    5878:	fa83 f34c 	uadd8	r3, r3, ip
    587c:	faa2 f38c 	sel	r3, r2, ip
    5880:	bb4b      	cbnz	r3, 58d6 <strlen+0x96>
    5882:	e9d1 2302 	ldrd	r2, r3, [r1, #8]
    5886:	fa82 f24c 	uadd8	r2, r2, ip
    588a:	f100 0008 	add.w	r0, r0, #8
    588e:	faa4 f28c 	sel	r2, r4, ip
    5892:	fa83 f34c 	uadd8	r3, r3, ip
    5896:	faa2 f38c 	sel	r3, r2, ip
    589a:	b9e3      	cbnz	r3, 58d6 <strlen+0x96>
    589c:	e9d1 2304 	ldrd	r2, r3, [r1, #16]
    58a0:	fa82 f24c 	uadd8	r2, r2, ip
    58a4:	f100 0008 	add.w	r0, r0, #8
    58a8:	faa4 f28c 	sel	r2, r4, ip
    58ac:	fa83 f34c 	uadd8	r3, r3, ip
    58b0:	faa2 f38c 	sel	r3, r2, ip
    58b4:	b97b      	cbnz	r3, 58d6 <strlen+0x96>
    58b6:	e9d1 2306 	ldrd	r2, r3, [r1, #24]
    58ba:	f101 0120 	add.w	r1, r1, #32
    58be:	fa82 f24c 	uadd8	r2, r2, ip
    58c2:	f100 0008 	add.w	r0, r0, #8
    58c6:	faa4 f28c 	sel	r2, r4, ip
    58ca:	fa83 f34c 	uadd8	r3, r3, ip
    58ce:	faa2 f38c 	sel	r3, r2, ip
    58d2:	2b00      	cmp	r3, #0
    58d4:	d0c6      	beq.n	5864 <strlen+0x24>
    58d6:	2a00      	cmp	r2, #0
    58d8:	bf04      	itt	eq
    58da:	3004      	addeq	r0, #4
    58dc:	461a      	moveq	r2, r3
    58de:	ba12      	rev	r2, r2
    58e0:	fab2 f282 	clz	r2, r2
    58e4:	e8fd 4502 	ldrd	r4, r5, [sp], #8
    58e8:	eb00 00d2 	add.w	r0, r0, r2, lsr #3
    58ec:	4770      	bx	lr
    58ee:	e9d1 2300 	ldrd	r2, r3, [r1]
    58f2:	f004 0503 	and.w	r5, r4, #3
    58f6:	f1c4 0000 	rsb	r0, r4, #0
    58fa:	ea4f 05c5 	mov.w	r5, r5, lsl #3
    58fe:	f014 0f04 	tst.w	r4, #4
    5902:	f891 f040 	pld	[r1, #64]	; 0x40
    5906:	fa0c f505 	lsl.w	r5, ip, r5
    590a:	ea62 0205 	orn	r2, r2, r5
    590e:	bf1c      	itt	ne
    5910:	ea63 0305 	ornne	r3, r3, r5
    5914:	4662      	movne	r2, ip
    5916:	f04f 0400 	mov.w	r4, #0
    591a:	e7a9      	b.n	5870 <strlen+0x30>

0000591c <__register_exitproc>:
    591c:	e92d 47f0 	stmdb	sp!, {r4, r5, r6, r7, r8, r9, sl, lr}
    5920:	4c25      	ldr	r4, [pc, #148]	; (59b8 <__register_exitproc+0x9c>)
    5922:	6825      	ldr	r5, [r4, #0]
    5924:	f8d5 4148 	ldr.w	r4, [r5, #328]	; 0x148
    5928:	4606      	mov	r6, r0
    592a:	4688      	mov	r8, r1
    592c:	4692      	mov	sl, r2
    592e:	4699      	mov	r9, r3
    5930:	b3c4      	cbz	r4, 59a4 <__register_exitproc+0x88>
    5932:	6860      	ldr	r0, [r4, #4]
    5934:	281f      	cmp	r0, #31
    5936:	dc17      	bgt.n	5968 <__register_exitproc+0x4c>
    5938:	1c43      	adds	r3, r0, #1
    593a:	b176      	cbz	r6, 595a <__register_exitproc+0x3e>
    593c:	eb04 0580 	add.w	r5, r4, r0, lsl #2
    5940:	2201      	movs	r2, #1
    5942:	f8c5 a088 	str.w	sl, [r5, #136]	; 0x88
    5946:	f8d4 1188 	ldr.w	r1, [r4, #392]	; 0x188
    594a:	4082      	lsls	r2, r0
    594c:	4311      	orrs	r1, r2
    594e:	2e02      	cmp	r6, #2
    5950:	f8c4 1188 	str.w	r1, [r4, #392]	; 0x188
    5954:	f8c5 9108 	str.w	r9, [r5, #264]	; 0x108
    5958:	d01e      	beq.n	5998 <__register_exitproc+0x7c>
    595a:	3002      	adds	r0, #2
    595c:	6063      	str	r3, [r4, #4]
    595e:	f844 8020 	str.w	r8, [r4, r0, lsl #2]
    5962:	2000      	movs	r0, #0
    5964:	e8bd 87f0 	ldmia.w	sp!, {r4, r5, r6, r7, r8, r9, sl, pc}
    5968:	4b14      	ldr	r3, [pc, #80]	; (59bc <__register_exitproc+0xa0>)
    596a:	b303      	cbz	r3, 59ae <__register_exitproc+0x92>
    596c:	f44f 70c8 	mov.w	r0, #400	; 0x190
    5970:	f7ff fc34 	bl	51dc <malloc>
    5974:	4604      	mov	r4, r0
    5976:	b1d0      	cbz	r0, 59ae <__register_exitproc+0x92>
    5978:	f8d5 3148 	ldr.w	r3, [r5, #328]	; 0x148
    597c:	2700      	movs	r7, #0
    597e:	e880 0088 	stmia.w	r0, {r3, r7}
    5982:	f8c5 4148 	str.w	r4, [r5, #328]	; 0x148
    5986:	4638      	mov	r0, r7
    5988:	2301      	movs	r3, #1
    598a:	f8c4 7188 	str.w	r7, [r4, #392]	; 0x188
    598e:	f8c4 718c 	str.w	r7, [r4, #396]	; 0x18c
    5992:	2e00      	cmp	r6, #0
    5994:	d0e1      	beq.n	595a <__register_exitproc+0x3e>
    5996:	e7d1      	b.n	593c <__register_exitproc+0x20>
    5998:	f8d4 118c 	ldr.w	r1, [r4, #396]	; 0x18c
    599c:	430a      	orrs	r2, r1
    599e:	f8c4 218c 	str.w	r2, [r4, #396]	; 0x18c
    59a2:	e7da      	b.n	595a <__register_exitproc+0x3e>
    59a4:	f505 74a6 	add.w	r4, r5, #332	; 0x14c
    59a8:	f8c5 4148 	str.w	r4, [r5, #328]	; 0x148
    59ac:	e7c1      	b.n	5932 <__register_exitproc+0x16>
    59ae:	f04f 30ff 	mov.w	r0, #4294967295
    59b2:	e8bd 87f0 	ldmia.w	sp!, {r4, r5, r6, r7, r8, r9, sl, pc}
    59b6:	bf00      	nop
    59b8:	20000698 	.word	0x20000698
    59bc:	000051dd 	.word	0x000051dd

000059c0 <_malloc_trim_r>:
    59c0:	b5f8      	push	{r3, r4, r5, r6, r7, lr}
    59c2:	4f23      	ldr	r7, [pc, #140]	; (5a50 <_malloc_trim_r+0x90>)
    59c4:	460c      	mov	r4, r1
    59c6:	4606      	mov	r6, r0
    59c8:	f7ff ff1e 	bl	5808 <__malloc_lock>
    59cc:	68bb      	ldr	r3, [r7, #8]
    59ce:	685d      	ldr	r5, [r3, #4]
    59d0:	f025 0503 	bic.w	r5, r5, #3
    59d4:	1b29      	subs	r1, r5, r4
    59d6:	f601 71ef 	addw	r1, r1, #4079	; 0xfef
    59da:	f421 617f 	bic.w	r1, r1, #4080	; 0xff0
    59de:	f021 010f 	bic.w	r1, r1, #15
    59e2:	f5a1 5480 	sub.w	r4, r1, #4096	; 0x1000
    59e6:	f5b4 5f80 	cmp.w	r4, #4096	; 0x1000
    59ea:	db07      	blt.n	59fc <_malloc_trim_r+0x3c>
    59ec:	2100      	movs	r1, #0
    59ee:	4630      	mov	r0, r6
    59f0:	f7ff ff0e 	bl	5810 <_sbrk_r>
    59f4:	68bb      	ldr	r3, [r7, #8]
    59f6:	442b      	add	r3, r5
    59f8:	4298      	cmp	r0, r3
    59fa:	d004      	beq.n	5a06 <_malloc_trim_r+0x46>
    59fc:	4630      	mov	r0, r6
    59fe:	f7ff ff05 	bl	580c <__malloc_unlock>
    5a02:	2000      	movs	r0, #0
    5a04:	bdf8      	pop	{r3, r4, r5, r6, r7, pc}
    5a06:	4261      	negs	r1, r4
    5a08:	4630      	mov	r0, r6
    5a0a:	f7ff ff01 	bl	5810 <_sbrk_r>
    5a0e:	3001      	adds	r0, #1
    5a10:	d00d      	beq.n	5a2e <_malloc_trim_r+0x6e>
    5a12:	4b10      	ldr	r3, [pc, #64]	; (5a54 <_malloc_trim_r+0x94>)
    5a14:	68ba      	ldr	r2, [r7, #8]
    5a16:	6819      	ldr	r1, [r3, #0]
    5a18:	1b2d      	subs	r5, r5, r4
    5a1a:	f045 0501 	orr.w	r5, r5, #1
    5a1e:	4630      	mov	r0, r6
    5a20:	1b09      	subs	r1, r1, r4
    5a22:	6055      	str	r5, [r2, #4]
    5a24:	6019      	str	r1, [r3, #0]
    5a26:	f7ff fef1 	bl	580c <__malloc_unlock>
    5a2a:	2001      	movs	r0, #1
    5a2c:	bdf8      	pop	{r3, r4, r5, r6, r7, pc}
    5a2e:	2100      	movs	r1, #0
    5a30:	4630      	mov	r0, r6
    5a32:	f7ff feed 	bl	5810 <_sbrk_r>
    5a36:	68ba      	ldr	r2, [r7, #8]
    5a38:	1a83      	subs	r3, r0, r2
    5a3a:	2b0f      	cmp	r3, #15
    5a3c:	ddde      	ble.n	59fc <_malloc_trim_r+0x3c>
    5a3e:	4c06      	ldr	r4, [pc, #24]	; (5a58 <_malloc_trim_r+0x98>)
    5a40:	4904      	ldr	r1, [pc, #16]	; (5a54 <_malloc_trim_r+0x94>)
    5a42:	6824      	ldr	r4, [r4, #0]
    5a44:	f043 0301 	orr.w	r3, r3, #1
    5a48:	1b00      	subs	r0, r0, r4
    5a4a:	6053      	str	r3, [r2, #4]
    5a4c:	6008      	str	r0, [r1, #0]
    5a4e:	e7d5      	b.n	59fc <_malloc_trim_r+0x3c>
    5a50:	20000b3c 	.word	0x20000b3c
    5a54:	20001cf8 	.word	0x20001cf8
    5a58:	20000f48 	.word	0x20000f48

00005a5c <_free_r>:
    5a5c:	2900      	cmp	r1, #0
    5a5e:	d045      	beq.n	5aec <_free_r+0x90>
    5a60:	e92d 41f0 	stmdb	sp!, {r4, r5, r6, r7, r8, lr}
    5a64:	460d      	mov	r5, r1
    5a66:	4680      	mov	r8, r0
    5a68:	f7ff fece 	bl	5808 <__malloc_lock>
    5a6c:	f855 7c04 	ldr.w	r7, [r5, #-4]
    5a70:	496a      	ldr	r1, [pc, #424]	; (5c1c <_free_r+0x1c0>)
    5a72:	f027 0301 	bic.w	r3, r7, #1
    5a76:	f1a5 0408 	sub.w	r4, r5, #8
    5a7a:	18e2      	adds	r2, r4, r3
    5a7c:	688e      	ldr	r6, [r1, #8]
    5a7e:	6850      	ldr	r0, [r2, #4]
    5a80:	42b2      	cmp	r2, r6
    5a82:	f020 0003 	bic.w	r0, r0, #3
    5a86:	d062      	beq.n	5b4e <_free_r+0xf2>
    5a88:	07fe      	lsls	r6, r7, #31
    5a8a:	6050      	str	r0, [r2, #4]
    5a8c:	d40b      	bmi.n	5aa6 <_free_r+0x4a>
    5a8e:	f855 7c08 	ldr.w	r7, [r5, #-8]
    5a92:	1be4      	subs	r4, r4, r7
    5a94:	f101 0e08 	add.w	lr, r1, #8
    5a98:	68a5      	ldr	r5, [r4, #8]
    5a9a:	4575      	cmp	r5, lr
    5a9c:	443b      	add	r3, r7
    5a9e:	d06f      	beq.n	5b80 <_free_r+0x124>
    5aa0:	68e7      	ldr	r7, [r4, #12]
    5aa2:	60ef      	str	r7, [r5, #12]
    5aa4:	60bd      	str	r5, [r7, #8]
    5aa6:	1815      	adds	r5, r2, r0
    5aa8:	686d      	ldr	r5, [r5, #4]
    5aaa:	07ed      	lsls	r5, r5, #31
    5aac:	d542      	bpl.n	5b34 <_free_r+0xd8>
    5aae:	f043 0201 	orr.w	r2, r3, #1
    5ab2:	6062      	str	r2, [r4, #4]
    5ab4:	50e3      	str	r3, [r4, r3]
    5ab6:	f5b3 7f00 	cmp.w	r3, #512	; 0x200
    5aba:	d218      	bcs.n	5aee <_free_r+0x92>
    5abc:	08db      	lsrs	r3, r3, #3
    5abe:	1c5a      	adds	r2, r3, #1
    5ac0:	684d      	ldr	r5, [r1, #4]
    5ac2:	f851 7032 	ldr.w	r7, [r1, r2, lsl #3]
    5ac6:	60a7      	str	r7, [r4, #8]
    5ac8:	2001      	movs	r0, #1
    5aca:	109b      	asrs	r3, r3, #2
    5acc:	fa00 f303 	lsl.w	r3, r0, r3
    5ad0:	eb01 00c2 	add.w	r0, r1, r2, lsl #3
    5ad4:	431d      	orrs	r5, r3
    5ad6:	3808      	subs	r0, #8
    5ad8:	60e0      	str	r0, [r4, #12]
    5ada:	604d      	str	r5, [r1, #4]
    5adc:	f841 4032 	str.w	r4, [r1, r2, lsl #3]
    5ae0:	60fc      	str	r4, [r7, #12]
    5ae2:	4640      	mov	r0, r8
    5ae4:	e8bd 41f0 	ldmia.w	sp!, {r4, r5, r6, r7, r8, lr}
    5ae8:	f7ff be90 	b.w	580c <__malloc_unlock>
    5aec:	4770      	bx	lr
    5aee:	0a5a      	lsrs	r2, r3, #9
    5af0:	2a04      	cmp	r2, #4
    5af2:	d853      	bhi.n	5b9c <_free_r+0x140>
    5af4:	099a      	lsrs	r2, r3, #6
    5af6:	f102 0739 	add.w	r7, r2, #57	; 0x39
    5afa:	007f      	lsls	r7, r7, #1
    5afc:	f102 0538 	add.w	r5, r2, #56	; 0x38
    5b00:	eb01 0087 	add.w	r0, r1, r7, lsl #2
    5b04:	f851 2027 	ldr.w	r2, [r1, r7, lsl #2]
    5b08:	4944      	ldr	r1, [pc, #272]	; (5c1c <_free_r+0x1c0>)
    5b0a:	3808      	subs	r0, #8
    5b0c:	4290      	cmp	r0, r2
    5b0e:	d04d      	beq.n	5bac <_free_r+0x150>
    5b10:	6851      	ldr	r1, [r2, #4]
    5b12:	f021 0103 	bic.w	r1, r1, #3
    5b16:	428b      	cmp	r3, r1
    5b18:	d202      	bcs.n	5b20 <_free_r+0xc4>
    5b1a:	6892      	ldr	r2, [r2, #8]
    5b1c:	4290      	cmp	r0, r2
    5b1e:	d1f7      	bne.n	5b10 <_free_r+0xb4>
    5b20:	68d0      	ldr	r0, [r2, #12]
    5b22:	60e0      	str	r0, [r4, #12]
    5b24:	60a2      	str	r2, [r4, #8]
    5b26:	6084      	str	r4, [r0, #8]
    5b28:	60d4      	str	r4, [r2, #12]
    5b2a:	4640      	mov	r0, r8
    5b2c:	e8bd 41f0 	ldmia.w	sp!, {r4, r5, r6, r7, r8, lr}
    5b30:	f7ff be6c 	b.w	580c <__malloc_unlock>
    5b34:	6895      	ldr	r5, [r2, #8]
    5b36:	4f3a      	ldr	r7, [pc, #232]	; (5c20 <_free_r+0x1c4>)
    5b38:	42bd      	cmp	r5, r7
    5b3a:	4403      	add	r3, r0
    5b3c:	d03f      	beq.n	5bbe <_free_r+0x162>
    5b3e:	68d0      	ldr	r0, [r2, #12]
    5b40:	60e8      	str	r0, [r5, #12]
    5b42:	f043 0201 	orr.w	r2, r3, #1
    5b46:	6085      	str	r5, [r0, #8]
    5b48:	6062      	str	r2, [r4, #4]
    5b4a:	50e3      	str	r3, [r4, r3]
    5b4c:	e7b3      	b.n	5ab6 <_free_r+0x5a>
    5b4e:	07ff      	lsls	r7, r7, #31
    5b50:	4403      	add	r3, r0
    5b52:	d407      	bmi.n	5b64 <_free_r+0x108>
    5b54:	f855 2c08 	ldr.w	r2, [r5, #-8]
    5b58:	1aa4      	subs	r4, r4, r2
    5b5a:	4413      	add	r3, r2
    5b5c:	68a0      	ldr	r0, [r4, #8]
    5b5e:	68e2      	ldr	r2, [r4, #12]
    5b60:	60c2      	str	r2, [r0, #12]
    5b62:	6090      	str	r0, [r2, #8]
    5b64:	4a2f      	ldr	r2, [pc, #188]	; (5c24 <_free_r+0x1c8>)
    5b66:	6812      	ldr	r2, [r2, #0]
    5b68:	f043 0001 	orr.w	r0, r3, #1
    5b6c:	4293      	cmp	r3, r2
    5b6e:	6060      	str	r0, [r4, #4]
    5b70:	608c      	str	r4, [r1, #8]
    5b72:	d3b6      	bcc.n	5ae2 <_free_r+0x86>
    5b74:	4b2c      	ldr	r3, [pc, #176]	; (5c28 <_free_r+0x1cc>)
    5b76:	4640      	mov	r0, r8
    5b78:	6819      	ldr	r1, [r3, #0]
    5b7a:	f7ff ff21 	bl	59c0 <_malloc_trim_r>
    5b7e:	e7b0      	b.n	5ae2 <_free_r+0x86>
    5b80:	1811      	adds	r1, r2, r0
    5b82:	6849      	ldr	r1, [r1, #4]
    5b84:	07c9      	lsls	r1, r1, #31
    5b86:	d444      	bmi.n	5c12 <_free_r+0x1b6>
    5b88:	6891      	ldr	r1, [r2, #8]
    5b8a:	68d2      	ldr	r2, [r2, #12]
    5b8c:	60ca      	str	r2, [r1, #12]
    5b8e:	4403      	add	r3, r0
    5b90:	f043 0001 	orr.w	r0, r3, #1
    5b94:	6091      	str	r1, [r2, #8]
    5b96:	6060      	str	r0, [r4, #4]
    5b98:	50e3      	str	r3, [r4, r3]
    5b9a:	e7a2      	b.n	5ae2 <_free_r+0x86>
    5b9c:	2a14      	cmp	r2, #20
    5b9e:	d817      	bhi.n	5bd0 <_free_r+0x174>
    5ba0:	f102 075c 	add.w	r7, r2, #92	; 0x5c
    5ba4:	007f      	lsls	r7, r7, #1
    5ba6:	f102 055b 	add.w	r5, r2, #91	; 0x5b
    5baa:	e7a9      	b.n	5b00 <_free_r+0xa4>
    5bac:	10aa      	asrs	r2, r5, #2
    5bae:	684b      	ldr	r3, [r1, #4]
    5bb0:	2501      	movs	r5, #1
    5bb2:	fa05 f202 	lsl.w	r2, r5, r2
    5bb6:	4313      	orrs	r3, r2
    5bb8:	604b      	str	r3, [r1, #4]
    5bba:	4602      	mov	r2, r0
    5bbc:	e7b1      	b.n	5b22 <_free_r+0xc6>
    5bbe:	f043 0201 	orr.w	r2, r3, #1
    5bc2:	614c      	str	r4, [r1, #20]
    5bc4:	610c      	str	r4, [r1, #16]
    5bc6:	60e5      	str	r5, [r4, #12]
    5bc8:	60a5      	str	r5, [r4, #8]
    5bca:	6062      	str	r2, [r4, #4]
    5bcc:	50e3      	str	r3, [r4, r3]
    5bce:	e788      	b.n	5ae2 <_free_r+0x86>
    5bd0:	2a54      	cmp	r2, #84	; 0x54
    5bd2:	d806      	bhi.n	5be2 <_free_r+0x186>
    5bd4:	0b1a      	lsrs	r2, r3, #12
    5bd6:	f102 076f 	add.w	r7, r2, #111	; 0x6f
    5bda:	007f      	lsls	r7, r7, #1
    5bdc:	f102 056e 	add.w	r5, r2, #110	; 0x6e
    5be0:	e78e      	b.n	5b00 <_free_r+0xa4>
    5be2:	f5b2 7faa 	cmp.w	r2, #340	; 0x154
    5be6:	d806      	bhi.n	5bf6 <_free_r+0x19a>
    5be8:	0bda      	lsrs	r2, r3, #15
    5bea:	f102 0778 	add.w	r7, r2, #120	; 0x78
    5bee:	007f      	lsls	r7, r7, #1
    5bf0:	f102 0577 	add.w	r5, r2, #119	; 0x77
    5bf4:	e784      	b.n	5b00 <_free_r+0xa4>
    5bf6:	f240 5054 	movw	r0, #1364	; 0x554
    5bfa:	4282      	cmp	r2, r0
    5bfc:	d806      	bhi.n	5c0c <_free_r+0x1b0>
    5bfe:	0c9a      	lsrs	r2, r3, #18
    5c00:	f102 077d 	add.w	r7, r2, #125	; 0x7d
    5c04:	007f      	lsls	r7, r7, #1
    5c06:	f102 057c 	add.w	r5, r2, #124	; 0x7c
    5c0a:	e779      	b.n	5b00 <_free_r+0xa4>
    5c0c:	27fe      	movs	r7, #254	; 0xfe
    5c0e:	257e      	movs	r5, #126	; 0x7e
    5c10:	e776      	b.n	5b00 <_free_r+0xa4>
    5c12:	f043 0201 	orr.w	r2, r3, #1
    5c16:	6062      	str	r2, [r4, #4]
    5c18:	50e3      	str	r3, [r4, r3]
    5c1a:	e762      	b.n	5ae2 <_free_r+0x86>
    5c1c:	20000b3c 	.word	0x20000b3c
    5c20:	20000b44 	.word	0x20000b44
    5c24:	20000f44 	.word	0x20000f44
    5c28:	20001cf4 	.word	0x20001cf4
    5c2c:	00000000 	.word	0x00000000

00005c30 <___init_veneer>:
    5c30:	f85f f000 	ldr.w	pc, [pc]	; 5c34 <___init_veneer+0x4>
    5c34:	60001aa9 	.word	0x60001aa9
	...

Disassembly of section .fini:

00005c40 <_fini>:
    5c40:	b5f8      	push	{r3, r4, r5, r6, r7, lr}
    5c42:	bf00      	nop
